ARM GAS  C:\Users\LEOTEJ~1\AppData\Local\Temp\cc9Useia.s 			page 1


   1              		.syntax unified
   2              		.cpu cortex-m0
   3              		.fpu softvfp
   4              		.eabi_attribute 20, 1
   5              		.eabi_attribute 21, 1
   6              		.eabi_attribute 23, 3
   7              		.eabi_attribute 24, 1
   8              		.eabi_attribute 25, 1
   9              		.eabi_attribute 26, 1
  10              		.eabi_attribute 30, 1
  11              		.eabi_attribute 34, 0
  12              		.eabi_attribute 18, 4
  13              		.thumb
  14              		.syntax unified
  15              		.file	"ENC_ISR.c"
  16              		.text
  17              	.Ltext0:
  18              		.cfi_sections	.debug_frame
  19              		.section	.text.ENC_ISR_Interrupt,"ax",%progbits
  20              		.align	2
  21              		.global	ENC_ISR_Interrupt
  22              		.code	16
  23              		.thumb_func
  24              		.type	ENC_ISR_Interrupt, %function
  25              	ENC_ISR_Interrupt:
  26              	.LFB4:
  27              		.file 1 "Generated_Source\\PSoC4\\ENC_ISR.c"
   1:Generated_Source\PSoC4/ENC_ISR.c **** /*******************************************************************************
   2:Generated_Source\PSoC4/ENC_ISR.c **** * File Name: ENC_ISR.c  
   3:Generated_Source\PSoC4/ENC_ISR.c **** * Version 1.70
   4:Generated_Source\PSoC4/ENC_ISR.c **** *
   5:Generated_Source\PSoC4/ENC_ISR.c **** *  Description:
   6:Generated_Source\PSoC4/ENC_ISR.c **** *   API for controlling the state of an interrupt.
   7:Generated_Source\PSoC4/ENC_ISR.c **** *
   8:Generated_Source\PSoC4/ENC_ISR.c **** *
   9:Generated_Source\PSoC4/ENC_ISR.c **** *  Note:
  10:Generated_Source\PSoC4/ENC_ISR.c **** *
  11:Generated_Source\PSoC4/ENC_ISR.c **** ********************************************************************************
  12:Generated_Source\PSoC4/ENC_ISR.c **** * Copyright 2008-2015, Cypress Semiconductor Corporation.  All rights reserved.
  13:Generated_Source\PSoC4/ENC_ISR.c **** * You may use this file only in accordance with the license, terms, conditions, 
  14:Generated_Source\PSoC4/ENC_ISR.c **** * disclaimers, and limitations in the end user license agreement accompanying 
  15:Generated_Source\PSoC4/ENC_ISR.c **** * the software package with which this file was provided.
  16:Generated_Source\PSoC4/ENC_ISR.c **** *******************************************************************************/
  17:Generated_Source\PSoC4/ENC_ISR.c **** 
  18:Generated_Source\PSoC4/ENC_ISR.c **** 
  19:Generated_Source\PSoC4/ENC_ISR.c **** #include <cydevice_trm.h>
  20:Generated_Source\PSoC4/ENC_ISR.c **** #include <CyLib.h>
  21:Generated_Source\PSoC4/ENC_ISR.c **** #include <ENC_ISR.h>
  22:Generated_Source\PSoC4/ENC_ISR.c **** #include "cyapicallbacks.h"
  23:Generated_Source\PSoC4/ENC_ISR.c **** 
  24:Generated_Source\PSoC4/ENC_ISR.c **** #if !defined(ENC_ISR__REMOVED) /* Check for removal by optimization */
  25:Generated_Source\PSoC4/ENC_ISR.c **** 
  26:Generated_Source\PSoC4/ENC_ISR.c **** /*******************************************************************************
  27:Generated_Source\PSoC4/ENC_ISR.c **** *  Place your includes, defines and code here 
  28:Generated_Source\PSoC4/ENC_ISR.c **** ********************************************************************************/
  29:Generated_Source\PSoC4/ENC_ISR.c **** /* `#START ENC_ISR_intc` */
  30:Generated_Source\PSoC4/ENC_ISR.c ****     
ARM GAS  C:\Users\LEOTEJ~1\AppData\Local\Temp\cc9Useia.s 			page 2


  31:Generated_Source\PSoC4/ENC_ISR.c **** #include "ENC.h"
  32:Generated_Source\PSoC4/ENC_ISR.c **** #include "LCD.h"
  33:Generated_Source\PSoC4/ENC_ISR.c **** extern volatile int encoderAsync;
  34:Generated_Source\PSoC4/ENC_ISR.c **** extern volatile int encoderPos;
  35:Generated_Source\PSoC4/ENC_ISR.c ****    
  36:Generated_Source\PSoC4/ENC_ISR.c ****     
  37:Generated_Source\PSoC4/ENC_ISR.c ****     
  38:Generated_Source\PSoC4/ENC_ISR.c ****     
  39:Generated_Source\PSoC4/ENC_ISR.c ****     
  40:Generated_Source\PSoC4/ENC_ISR.c ****     
  41:Generated_Source\PSoC4/ENC_ISR.c **** 
  42:Generated_Source\PSoC4/ENC_ISR.c **** /* `#END` */
  43:Generated_Source\PSoC4/ENC_ISR.c **** 
  44:Generated_Source\PSoC4/ENC_ISR.c **** extern cyisraddress CyRamVectors[CYINT_IRQ_BASE + CY_NUM_INTERRUPTS];
  45:Generated_Source\PSoC4/ENC_ISR.c **** 
  46:Generated_Source\PSoC4/ENC_ISR.c **** /* Declared in startup, used to set unused interrupts to. */
  47:Generated_Source\PSoC4/ENC_ISR.c **** CY_ISR_PROTO(IntDefaultHandler);
  48:Generated_Source\PSoC4/ENC_ISR.c **** 
  49:Generated_Source\PSoC4/ENC_ISR.c **** 
  50:Generated_Source\PSoC4/ENC_ISR.c **** /*******************************************************************************
  51:Generated_Source\PSoC4/ENC_ISR.c **** * Function Name: ENC_ISR_Start
  52:Generated_Source\PSoC4/ENC_ISR.c **** ********************************************************************************
  53:Generated_Source\PSoC4/ENC_ISR.c **** *
  54:Generated_Source\PSoC4/ENC_ISR.c **** * Summary:
  55:Generated_Source\PSoC4/ENC_ISR.c **** *  Set up the interrupt and enable it. This function disables the interrupt, 
  56:Generated_Source\PSoC4/ENC_ISR.c **** *  sets the default interrupt vector, sets the priority from the value in the
  57:Generated_Source\PSoC4/ENC_ISR.c **** *  Design Wide Resources Interrupt Editor, then enables the interrupt to the 
  58:Generated_Source\PSoC4/ENC_ISR.c **** *  interrupt controller.
  59:Generated_Source\PSoC4/ENC_ISR.c **** *
  60:Generated_Source\PSoC4/ENC_ISR.c **** * Parameters:  
  61:Generated_Source\PSoC4/ENC_ISR.c **** *   None
  62:Generated_Source\PSoC4/ENC_ISR.c **** *
  63:Generated_Source\PSoC4/ENC_ISR.c **** * Return:
  64:Generated_Source\PSoC4/ENC_ISR.c **** *   None
  65:Generated_Source\PSoC4/ENC_ISR.c **** *
  66:Generated_Source\PSoC4/ENC_ISR.c **** *******************************************************************************/
  67:Generated_Source\PSoC4/ENC_ISR.c **** void ENC_ISR_Start(void)
  68:Generated_Source\PSoC4/ENC_ISR.c **** {
  69:Generated_Source\PSoC4/ENC_ISR.c ****     /* For all we know the interrupt is active. */
  70:Generated_Source\PSoC4/ENC_ISR.c ****     ENC_ISR_Disable();
  71:Generated_Source\PSoC4/ENC_ISR.c **** 
  72:Generated_Source\PSoC4/ENC_ISR.c ****     /* Set the ISR to point to the ENC_ISR Interrupt. */
  73:Generated_Source\PSoC4/ENC_ISR.c ****     ENC_ISR_SetVector(&ENC_ISR_Interrupt);
  74:Generated_Source\PSoC4/ENC_ISR.c **** 
  75:Generated_Source\PSoC4/ENC_ISR.c ****     /* Set the priority. */
  76:Generated_Source\PSoC4/ENC_ISR.c ****     ENC_ISR_SetPriority((uint8)ENC_ISR_INTC_PRIOR_NUMBER);
  77:Generated_Source\PSoC4/ENC_ISR.c **** 
  78:Generated_Source\PSoC4/ENC_ISR.c ****     /* Enable it. */
  79:Generated_Source\PSoC4/ENC_ISR.c ****     ENC_ISR_Enable();
  80:Generated_Source\PSoC4/ENC_ISR.c **** }
  81:Generated_Source\PSoC4/ENC_ISR.c **** 
  82:Generated_Source\PSoC4/ENC_ISR.c **** 
  83:Generated_Source\PSoC4/ENC_ISR.c **** /*******************************************************************************
  84:Generated_Source\PSoC4/ENC_ISR.c **** * Function Name: ENC_ISR_StartEx
  85:Generated_Source\PSoC4/ENC_ISR.c **** ********************************************************************************
  86:Generated_Source\PSoC4/ENC_ISR.c **** *
  87:Generated_Source\PSoC4/ENC_ISR.c **** * Summary:
ARM GAS  C:\Users\LEOTEJ~1\AppData\Local\Temp\cc9Useia.s 			page 3


  88:Generated_Source\PSoC4/ENC_ISR.c **** *  Sets up the interrupt and enables it. This function disables the interrupt,
  89:Generated_Source\PSoC4/ENC_ISR.c **** *  sets the interrupt vector based on the address passed in, sets the priority 
  90:Generated_Source\PSoC4/ENC_ISR.c **** *  from the value in the Design Wide Resources Interrupt Editor, then enables 
  91:Generated_Source\PSoC4/ENC_ISR.c **** *  the interrupt to the interrupt controller.
  92:Generated_Source\PSoC4/ENC_ISR.c **** *  
  93:Generated_Source\PSoC4/ENC_ISR.c **** *  When defining ISR functions, the CY_ISR and CY_ISR_PROTO macros should be 
  94:Generated_Source\PSoC4/ENC_ISR.c **** *  used to provide consistent definition across compilers:
  95:Generated_Source\PSoC4/ENC_ISR.c **** *  
  96:Generated_Source\PSoC4/ENC_ISR.c **** *  Function definition example:
  97:Generated_Source\PSoC4/ENC_ISR.c **** *   CY_ISR(MyISR)
  98:Generated_Source\PSoC4/ENC_ISR.c **** *   {
  99:Generated_Source\PSoC4/ENC_ISR.c **** *   }
 100:Generated_Source\PSoC4/ENC_ISR.c **** *   Function prototype example:
 101:Generated_Source\PSoC4/ENC_ISR.c **** *   CY_ISR_PROTO(MyISR);
 102:Generated_Source\PSoC4/ENC_ISR.c **** *
 103:Generated_Source\PSoC4/ENC_ISR.c **** * Parameters:  
 104:Generated_Source\PSoC4/ENC_ISR.c **** *   address: Address of the ISR to set in the interrupt vector table.
 105:Generated_Source\PSoC4/ENC_ISR.c **** *
 106:Generated_Source\PSoC4/ENC_ISR.c **** * Return:
 107:Generated_Source\PSoC4/ENC_ISR.c **** *   None
 108:Generated_Source\PSoC4/ENC_ISR.c **** *
 109:Generated_Source\PSoC4/ENC_ISR.c **** *******************************************************************************/
 110:Generated_Source\PSoC4/ENC_ISR.c **** void ENC_ISR_StartEx(cyisraddress address)
 111:Generated_Source\PSoC4/ENC_ISR.c **** {
 112:Generated_Source\PSoC4/ENC_ISR.c ****     /* For all we know the interrupt is active. */
 113:Generated_Source\PSoC4/ENC_ISR.c ****     ENC_ISR_Disable();
 114:Generated_Source\PSoC4/ENC_ISR.c **** 
 115:Generated_Source\PSoC4/ENC_ISR.c ****     /* Set the ISR to point to the ENC_ISR Interrupt. */
 116:Generated_Source\PSoC4/ENC_ISR.c ****     ENC_ISR_SetVector(address);
 117:Generated_Source\PSoC4/ENC_ISR.c **** 
 118:Generated_Source\PSoC4/ENC_ISR.c ****     /* Set the priority. */
 119:Generated_Source\PSoC4/ENC_ISR.c ****     ENC_ISR_SetPriority((uint8)ENC_ISR_INTC_PRIOR_NUMBER);
 120:Generated_Source\PSoC4/ENC_ISR.c **** 
 121:Generated_Source\PSoC4/ENC_ISR.c ****     /* Enable it. */
 122:Generated_Source\PSoC4/ENC_ISR.c ****     ENC_ISR_Enable();
 123:Generated_Source\PSoC4/ENC_ISR.c **** }
 124:Generated_Source\PSoC4/ENC_ISR.c **** 
 125:Generated_Source\PSoC4/ENC_ISR.c **** 
 126:Generated_Source\PSoC4/ENC_ISR.c **** /*******************************************************************************
 127:Generated_Source\PSoC4/ENC_ISR.c **** * Function Name: ENC_ISR_Stop
 128:Generated_Source\PSoC4/ENC_ISR.c **** ********************************************************************************
 129:Generated_Source\PSoC4/ENC_ISR.c **** *
 130:Generated_Source\PSoC4/ENC_ISR.c **** * Summary:
 131:Generated_Source\PSoC4/ENC_ISR.c **** *   Disables and removes the interrupt.
 132:Generated_Source\PSoC4/ENC_ISR.c **** *
 133:Generated_Source\PSoC4/ENC_ISR.c **** * Parameters:  
 134:Generated_Source\PSoC4/ENC_ISR.c **** *   None
 135:Generated_Source\PSoC4/ENC_ISR.c **** *
 136:Generated_Source\PSoC4/ENC_ISR.c **** * Return:
 137:Generated_Source\PSoC4/ENC_ISR.c **** *   None
 138:Generated_Source\PSoC4/ENC_ISR.c **** *
 139:Generated_Source\PSoC4/ENC_ISR.c **** *******************************************************************************/
 140:Generated_Source\PSoC4/ENC_ISR.c **** void ENC_ISR_Stop(void)
 141:Generated_Source\PSoC4/ENC_ISR.c **** {
 142:Generated_Source\PSoC4/ENC_ISR.c ****     /* Disable this interrupt. */
 143:Generated_Source\PSoC4/ENC_ISR.c ****     ENC_ISR_Disable();
 144:Generated_Source\PSoC4/ENC_ISR.c **** 
ARM GAS  C:\Users\LEOTEJ~1\AppData\Local\Temp\cc9Useia.s 			page 4


 145:Generated_Source\PSoC4/ENC_ISR.c ****     /* Set the ISR to point to the passive one. */
 146:Generated_Source\PSoC4/ENC_ISR.c ****     ENC_ISR_SetVector(&IntDefaultHandler);
 147:Generated_Source\PSoC4/ENC_ISR.c **** }
 148:Generated_Source\PSoC4/ENC_ISR.c **** 
 149:Generated_Source\PSoC4/ENC_ISR.c **** 
 150:Generated_Source\PSoC4/ENC_ISR.c **** /*******************************************************************************
 151:Generated_Source\PSoC4/ENC_ISR.c **** * Function Name: ENC_ISR_Interrupt
 152:Generated_Source\PSoC4/ENC_ISR.c **** ********************************************************************************
 153:Generated_Source\PSoC4/ENC_ISR.c **** *
 154:Generated_Source\PSoC4/ENC_ISR.c **** * Summary:
 155:Generated_Source\PSoC4/ENC_ISR.c **** *   The default Interrupt Service Routine for ENC_ISR.
 156:Generated_Source\PSoC4/ENC_ISR.c **** *
 157:Generated_Source\PSoC4/ENC_ISR.c **** *   Add custom code between the START and END comments to keep the next version
 158:Generated_Source\PSoC4/ENC_ISR.c **** *   of this file from over-writing your code.
 159:Generated_Source\PSoC4/ENC_ISR.c **** *
 160:Generated_Source\PSoC4/ENC_ISR.c **** *   Note You may use either the default ISR by using this API, or you may define
 161:Generated_Source\PSoC4/ENC_ISR.c **** *   your own separate ISR through ISR_StartEx().
 162:Generated_Source\PSoC4/ENC_ISR.c **** *
 163:Generated_Source\PSoC4/ENC_ISR.c **** * Parameters:  
 164:Generated_Source\PSoC4/ENC_ISR.c **** *   None
 165:Generated_Source\PSoC4/ENC_ISR.c **** *
 166:Generated_Source\PSoC4/ENC_ISR.c **** * Return:
 167:Generated_Source\PSoC4/ENC_ISR.c **** *   None
 168:Generated_Source\PSoC4/ENC_ISR.c **** *
 169:Generated_Source\PSoC4/ENC_ISR.c **** *******************************************************************************/
 170:Generated_Source\PSoC4/ENC_ISR.c **** CY_ISR(ENC_ISR_Interrupt)
 171:Generated_Source\PSoC4/ENC_ISR.c **** {
  28              		.loc 1 171 0
  29              		.cfi_startproc
  30              		@ args = 0, pretend = 0, frame = 8
  31              		@ frame_needed = 0, uses_anonymous_args = 0
  32 0000 00B5     		push	{lr}
  33              		.cfi_def_cfa_offset 4
  34              		.cfi_offset 14, -4
  35 0002 83B0     		sub	sp, sp, #12
  36              		.cfi_def_cfa_offset 16
 172:Generated_Source\PSoC4/ENC_ISR.c ****     #ifdef ENC_ISR_INTERRUPT_INTERRUPT_CALLBACK
 173:Generated_Source\PSoC4/ENC_ISR.c ****         ENC_ISR_Interrupt_InterruptCallback();
 174:Generated_Source\PSoC4/ENC_ISR.c ****     #endif /* ENC_ISR_INTERRUPT_INTERRUPT_CALLBACK */ 
 175:Generated_Source\PSoC4/ENC_ISR.c **** 
 176:Generated_Source\PSoC4/ENC_ISR.c ****     /*  Place your Interrupt code here. */
 177:Generated_Source\PSoC4/ENC_ISR.c ****     /* `#START ENC_ISR_Interrupt` */
 178:Generated_Source\PSoC4/ENC_ISR.c ****     
 179:Generated_Source\PSoC4/ENC_ISR.c **** encoderPos = ENC_Read();
  37              		.loc 1 179 0
  38 0004 FFF7FEFF 		bl	ENC_Read
  39              	.LVL0:
  40 0008 094B     		ldr	r3, .L2
  41 000a 1860     		str	r0, [r3]
 180:Generated_Source\PSoC4/ENC_ISR.c **** volatile int ab  = ENC_Read();
  42              		.loc 1 180 0
  43 000c FFF7FEFF 		bl	ENC_Read
  44              	.LVL1:
  45 0010 0190     		str	r0, [sp, #4]
 181:Generated_Source\PSoC4/ENC_ISR.c ****     
 182:Generated_Source\PSoC4/ENC_ISR.c **** 
 183:Generated_Source\PSoC4/ENC_ISR.c **** CyDelay(20);
ARM GAS  C:\Users\LEOTEJ~1\AppData\Local\Temp\cc9Useia.s 			page 5


  46              		.loc 1 183 0
  47 0012 1420     		movs	r0, #20
  48 0014 FFF7FEFF 		bl	CyDelay
  49              	.LVL2:
 184:Generated_Source\PSoC4/ENC_ISR.c **** ENC_ClearInterrupt();   
  50              		.loc 1 184 0
  51 0018 FFF7FEFF 		bl	ENC_ClearInterrupt
  52              	.LVL3:
 185:Generated_Source\PSoC4/ENC_ISR.c **** encoderAsync = 1;
  53              		.loc 1 185 0
  54 001c 0122     		movs	r2, #1
  55 001e 054B     		ldr	r3, .L2+4
  56 0020 1A60     		str	r2, [r3]
 186:Generated_Source\PSoC4/ENC_ISR.c **** LCD_PrintNumber(ENC_ReadDataReg());
  57              		.loc 1 186 0
  58 0022 FFF7FEFF 		bl	ENC_ReadDataReg
  59              	.LVL4:
  60 0026 FFF7FEFF 		bl	LCD_PrintU32Number
  61              	.LVL5:
 187:Generated_Source\PSoC4/ENC_ISR.c **** 
 188:Generated_Source\PSoC4/ENC_ISR.c **** 
 189:Generated_Source\PSoC4/ENC_ISR.c ****     
 190:Generated_Source\PSoC4/ENC_ISR.c ****     
 191:Generated_Source\PSoC4/ENC_ISR.c ****     
 192:Generated_Source\PSoC4/ENC_ISR.c ****     /* `#END` */
 193:Generated_Source\PSoC4/ENC_ISR.c **** }
  62              		.loc 1 193 0
  63 002a 03B0     		add	sp, sp, #12
  64              		@ sp needed
  65 002c 00BD     		pop	{pc}
  66              	.L3:
  67 002e C046     		.align	2
  68              	.L2:
  69 0030 00000000 		.word	encoderPos
  70 0034 00000000 		.word	encoderAsync
  71              		.cfi_endproc
  72              	.LFE4:
  73              		.size	ENC_ISR_Interrupt, .-ENC_ISR_Interrupt
  74              		.section	.text.ENC_ISR_SetVector,"ax",%progbits
  75              		.align	2
  76              		.global	ENC_ISR_SetVector
  77              		.code	16
  78              		.thumb_func
  79              		.type	ENC_ISR_SetVector, %function
  80              	ENC_ISR_SetVector:
  81              	.LFB5:
 194:Generated_Source\PSoC4/ENC_ISR.c **** 
 195:Generated_Source\PSoC4/ENC_ISR.c **** 
 196:Generated_Source\PSoC4/ENC_ISR.c **** /*******************************************************************************
 197:Generated_Source\PSoC4/ENC_ISR.c **** * Function Name: ENC_ISR_SetVector
 198:Generated_Source\PSoC4/ENC_ISR.c **** ********************************************************************************
 199:Generated_Source\PSoC4/ENC_ISR.c **** *
 200:Generated_Source\PSoC4/ENC_ISR.c **** * Summary:
 201:Generated_Source\PSoC4/ENC_ISR.c **** *   Change the ISR vector for the Interrupt. Note calling ENC_ISR_Start
 202:Generated_Source\PSoC4/ENC_ISR.c **** *   will override any effect this method would have had. To set the vector 
 203:Generated_Source\PSoC4/ENC_ISR.c **** *   before the component has been started use ENC_ISR_StartEx instead.
 204:Generated_Source\PSoC4/ENC_ISR.c **** * 
ARM GAS  C:\Users\LEOTEJ~1\AppData\Local\Temp\cc9Useia.s 			page 6


 205:Generated_Source\PSoC4/ENC_ISR.c **** *   When defining ISR functions, the CY_ISR and CY_ISR_PROTO macros should be 
 206:Generated_Source\PSoC4/ENC_ISR.c **** *   used to provide consistent definition across compilers:
 207:Generated_Source\PSoC4/ENC_ISR.c **** *
 208:Generated_Source\PSoC4/ENC_ISR.c **** *   Function definition example:
 209:Generated_Source\PSoC4/ENC_ISR.c **** *   CY_ISR(MyISR)
 210:Generated_Source\PSoC4/ENC_ISR.c **** *   {
 211:Generated_Source\PSoC4/ENC_ISR.c **** *   }
 212:Generated_Source\PSoC4/ENC_ISR.c **** *
 213:Generated_Source\PSoC4/ENC_ISR.c **** *   Function prototype example:
 214:Generated_Source\PSoC4/ENC_ISR.c **** *     CY_ISR_PROTO(MyISR);
 215:Generated_Source\PSoC4/ENC_ISR.c **** *
 216:Generated_Source\PSoC4/ENC_ISR.c **** * Parameters:
 217:Generated_Source\PSoC4/ENC_ISR.c **** *   address: Address of the ISR to set in the interrupt vector table.
 218:Generated_Source\PSoC4/ENC_ISR.c **** *
 219:Generated_Source\PSoC4/ENC_ISR.c **** * Return:
 220:Generated_Source\PSoC4/ENC_ISR.c **** *   None
 221:Generated_Source\PSoC4/ENC_ISR.c **** *
 222:Generated_Source\PSoC4/ENC_ISR.c **** *******************************************************************************/
 223:Generated_Source\PSoC4/ENC_ISR.c **** void ENC_ISR_SetVector(cyisraddress address)
 224:Generated_Source\PSoC4/ENC_ISR.c **** {
  82              		.loc 1 224 0
  83              		.cfi_startproc
  84              		@ args = 0, pretend = 0, frame = 0
  85              		@ frame_needed = 0, uses_anonymous_args = 0
  86              		@ link register save eliminated.
  87              	.LVL6:
 225:Generated_Source\PSoC4/ENC_ISR.c ****     CyRamVectors[CYINT_IRQ_BASE + ENC_ISR__INTC_NUMBER] = address;
  88              		.loc 1 225 0
  89 0000 014B     		ldr	r3, .L5
  90 0002 1864     		str	r0, [r3, #64]
 226:Generated_Source\PSoC4/ENC_ISR.c **** }
  91              		.loc 1 226 0
  92              		@ sp needed
  93 0004 7047     		bx	lr
  94              	.L6:
  95 0006 C046     		.align	2
  96              	.L5:
  97 0008 00000000 		.word	CyRamVectors
  98              		.cfi_endproc
  99              	.LFE5:
 100              		.size	ENC_ISR_SetVector, .-ENC_ISR_SetVector
 101              		.section	.text.ENC_ISR_GetVector,"ax",%progbits
 102              		.align	2
 103              		.global	ENC_ISR_GetVector
 104              		.code	16
 105              		.thumb_func
 106              		.type	ENC_ISR_GetVector, %function
 107              	ENC_ISR_GetVector:
 108              	.LFB6:
 227:Generated_Source\PSoC4/ENC_ISR.c **** 
 228:Generated_Source\PSoC4/ENC_ISR.c **** 
 229:Generated_Source\PSoC4/ENC_ISR.c **** /*******************************************************************************
 230:Generated_Source\PSoC4/ENC_ISR.c **** * Function Name: ENC_ISR_GetVector
 231:Generated_Source\PSoC4/ENC_ISR.c **** ********************************************************************************
 232:Generated_Source\PSoC4/ENC_ISR.c **** *
 233:Generated_Source\PSoC4/ENC_ISR.c **** * Summary:
 234:Generated_Source\PSoC4/ENC_ISR.c **** *   Gets the "address" of the current ISR vector for the Interrupt.
ARM GAS  C:\Users\LEOTEJ~1\AppData\Local\Temp\cc9Useia.s 			page 7


 235:Generated_Source\PSoC4/ENC_ISR.c **** *
 236:Generated_Source\PSoC4/ENC_ISR.c **** * Parameters:
 237:Generated_Source\PSoC4/ENC_ISR.c **** *   None
 238:Generated_Source\PSoC4/ENC_ISR.c **** *
 239:Generated_Source\PSoC4/ENC_ISR.c **** * Return:
 240:Generated_Source\PSoC4/ENC_ISR.c **** *   Address of the ISR in the interrupt vector table.
 241:Generated_Source\PSoC4/ENC_ISR.c **** *
 242:Generated_Source\PSoC4/ENC_ISR.c **** *******************************************************************************/
 243:Generated_Source\PSoC4/ENC_ISR.c **** cyisraddress ENC_ISR_GetVector(void)
 244:Generated_Source\PSoC4/ENC_ISR.c **** {
 109              		.loc 1 244 0
 110              		.cfi_startproc
 111              		@ args = 0, pretend = 0, frame = 0
 112              		@ frame_needed = 0, uses_anonymous_args = 0
 113              		@ link register save eliminated.
 245:Generated_Source\PSoC4/ENC_ISR.c ****     return CyRamVectors[CYINT_IRQ_BASE + ENC_ISR__INTC_NUMBER];
 114              		.loc 1 245 0
 115 0000 014B     		ldr	r3, .L8
 116 0002 186C     		ldr	r0, [r3, #64]
 246:Generated_Source\PSoC4/ENC_ISR.c **** }
 117              		.loc 1 246 0
 118              		@ sp needed
 119 0004 7047     		bx	lr
 120              	.L9:
 121 0006 C046     		.align	2
 122              	.L8:
 123 0008 00000000 		.word	CyRamVectors
 124              		.cfi_endproc
 125              	.LFE6:
 126              		.size	ENC_ISR_GetVector, .-ENC_ISR_GetVector
 127              		.section	.text.ENC_ISR_SetPriority,"ax",%progbits
 128              		.align	2
 129              		.global	ENC_ISR_SetPriority
 130              		.code	16
 131              		.thumb_func
 132              		.type	ENC_ISR_SetPriority, %function
 133              	ENC_ISR_SetPriority:
 134              	.LFB7:
 247:Generated_Source\PSoC4/ENC_ISR.c **** 
 248:Generated_Source\PSoC4/ENC_ISR.c **** 
 249:Generated_Source\PSoC4/ENC_ISR.c **** /*******************************************************************************
 250:Generated_Source\PSoC4/ENC_ISR.c **** * Function Name: ENC_ISR_SetPriority
 251:Generated_Source\PSoC4/ENC_ISR.c **** ********************************************************************************
 252:Generated_Source\PSoC4/ENC_ISR.c **** *
 253:Generated_Source\PSoC4/ENC_ISR.c **** * Summary:
 254:Generated_Source\PSoC4/ENC_ISR.c **** *   Sets the Priority of the Interrupt. 
 255:Generated_Source\PSoC4/ENC_ISR.c **** *
 256:Generated_Source\PSoC4/ENC_ISR.c **** *   Note calling ENC_ISR_Start or ENC_ISR_StartEx will 
 257:Generated_Source\PSoC4/ENC_ISR.c **** *   override any effect this API would have had. This API should only be called
 258:Generated_Source\PSoC4/ENC_ISR.c **** *   after ENC_ISR_Start or ENC_ISR_StartEx has been called. 
 259:Generated_Source\PSoC4/ENC_ISR.c **** *   To set the initial priority for the component, use the Design-Wide Resources
 260:Generated_Source\PSoC4/ENC_ISR.c **** *   Interrupt Editor.
 261:Generated_Source\PSoC4/ENC_ISR.c **** *
 262:Generated_Source\PSoC4/ENC_ISR.c **** *   Note This API has no effect on Non-maskable interrupt NMI).
 263:Generated_Source\PSoC4/ENC_ISR.c **** *
 264:Generated_Source\PSoC4/ENC_ISR.c **** * Parameters:
 265:Generated_Source\PSoC4/ENC_ISR.c **** *   priority: Priority of the interrupt, 0 being the highest priority
ARM GAS  C:\Users\LEOTEJ~1\AppData\Local\Temp\cc9Useia.s 			page 8


 266:Generated_Source\PSoC4/ENC_ISR.c **** *             PSoC 3 and PSoC 5LP: Priority is from 0 to 7.
 267:Generated_Source\PSoC4/ENC_ISR.c **** *             PSoC 4: Priority is from 0 to 3.
 268:Generated_Source\PSoC4/ENC_ISR.c **** *
 269:Generated_Source\PSoC4/ENC_ISR.c **** * Return:
 270:Generated_Source\PSoC4/ENC_ISR.c **** *   None
 271:Generated_Source\PSoC4/ENC_ISR.c **** *
 272:Generated_Source\PSoC4/ENC_ISR.c **** *******************************************************************************/
 273:Generated_Source\PSoC4/ENC_ISR.c **** void ENC_ISR_SetPriority(uint8 priority)
 274:Generated_Source\PSoC4/ENC_ISR.c **** {
 135              		.loc 1 274 0
 136              		.cfi_startproc
 137              		@ args = 0, pretend = 0, frame = 0
 138              		@ frame_needed = 0, uses_anonymous_args = 0
 139              	.LVL7:
 140 0000 10B5     		push	{r4, lr}
 141              		.cfi_def_cfa_offset 8
 142              		.cfi_offset 4, -8
 143              		.cfi_offset 14, -4
 144 0002 0400     		movs	r4, r0
 145              	.LVL8:
 275:Generated_Source\PSoC4/ENC_ISR.c **** 	uint8 interruptState;
 276:Generated_Source\PSoC4/ENC_ISR.c ****     uint32 priorityOffset = ((ENC_ISR__INTC_NUMBER % 4u) * 8u) + 6u;
 277:Generated_Source\PSoC4/ENC_ISR.c ****     
 278:Generated_Source\PSoC4/ENC_ISR.c **** 	interruptState = CyEnterCriticalSection();
 146              		.loc 1 278 0
 147 0004 FFF7FEFF 		bl	CyEnterCriticalSection
 148              	.LVL9:
 279:Generated_Source\PSoC4/ENC_ISR.c ****     *ENC_ISR_INTC_PRIOR = (*ENC_ISR_INTC_PRIOR & (uint32)(~ENC_ISR__INTC_PRIOR_MASK)) |
 149              		.loc 1 279 0
 150 0008 044A     		ldr	r2, .L11
 151 000a 1368     		ldr	r3, [r2]
 152 000c C021     		movs	r1, #192
 153 000e 8B43     		bics	r3, r1
 280:Generated_Source\PSoC4/ENC_ISR.c ****                                     ((uint32)priority << priorityOffset);
 154              		.loc 1 280 0
 155 0010 A401     		lsls	r4, r4, #6
 279:Generated_Source\PSoC4/ENC_ISR.c ****     *ENC_ISR_INTC_PRIOR = (*ENC_ISR_INTC_PRIOR & (uint32)(~ENC_ISR__INTC_PRIOR_MASK)) |
 156              		.loc 1 279 0
 157 0012 1C43     		orrs	r4, r3
 158 0014 1460     		str	r4, [r2]
 281:Generated_Source\PSoC4/ENC_ISR.c **** 	CyExitCriticalSection(interruptState);
 159              		.loc 1 281 0
 160 0016 FFF7FEFF 		bl	CyExitCriticalSection
 161              	.LVL10:
 282:Generated_Source\PSoC4/ENC_ISR.c **** }
 162              		.loc 1 282 0
 163              		@ sp needed
 164 001a 10BD     		pop	{r4, pc}
 165              	.L12:
 166              		.align	2
 167              	.L11:
 168 001c 00E400E0 		.word	-536812544
 169              		.cfi_endproc
 170              	.LFE7:
 171              		.size	ENC_ISR_SetPriority, .-ENC_ISR_SetPriority
 172              		.section	.text.ENC_ISR_GetPriority,"ax",%progbits
 173              		.align	2
ARM GAS  C:\Users\LEOTEJ~1\AppData\Local\Temp\cc9Useia.s 			page 9


 174              		.global	ENC_ISR_GetPriority
 175              		.code	16
 176              		.thumb_func
 177              		.type	ENC_ISR_GetPriority, %function
 178              	ENC_ISR_GetPriority:
 179              	.LFB8:
 283:Generated_Source\PSoC4/ENC_ISR.c **** 
 284:Generated_Source\PSoC4/ENC_ISR.c **** 
 285:Generated_Source\PSoC4/ENC_ISR.c **** /*******************************************************************************
 286:Generated_Source\PSoC4/ENC_ISR.c **** * Function Name: ENC_ISR_GetPriority
 287:Generated_Source\PSoC4/ENC_ISR.c **** ********************************************************************************
 288:Generated_Source\PSoC4/ENC_ISR.c **** *
 289:Generated_Source\PSoC4/ENC_ISR.c **** * Summary:
 290:Generated_Source\PSoC4/ENC_ISR.c **** *   Gets the Priority of the Interrupt.
 291:Generated_Source\PSoC4/ENC_ISR.c **** *
 292:Generated_Source\PSoC4/ENC_ISR.c **** * Parameters:
 293:Generated_Source\PSoC4/ENC_ISR.c **** *   None
 294:Generated_Source\PSoC4/ENC_ISR.c **** *
 295:Generated_Source\PSoC4/ENC_ISR.c **** * Return:
 296:Generated_Source\PSoC4/ENC_ISR.c **** *   Priority of the interrupt, 0 being the highest priority
 297:Generated_Source\PSoC4/ENC_ISR.c **** *    PSoC 3 and PSoC 5LP: Priority is from 0 to 7.
 298:Generated_Source\PSoC4/ENC_ISR.c **** *    PSoC 4: Priority is from 0 to 3.
 299:Generated_Source\PSoC4/ENC_ISR.c **** *
 300:Generated_Source\PSoC4/ENC_ISR.c **** *******************************************************************************/
 301:Generated_Source\PSoC4/ENC_ISR.c **** uint8 ENC_ISR_GetPriority(void)
 302:Generated_Source\PSoC4/ENC_ISR.c **** {
 180              		.loc 1 302 0
 181              		.cfi_startproc
 182              		@ args = 0, pretend = 0, frame = 0
 183              		@ frame_needed = 0, uses_anonymous_args = 0
 184              		@ link register save eliminated.
 185              	.LVL11:
 303:Generated_Source\PSoC4/ENC_ISR.c ****     uint32 priority;
 304:Generated_Source\PSoC4/ENC_ISR.c **** 	uint32 priorityOffset = ((ENC_ISR__INTC_NUMBER % 4u) * 8u) + 6u;
 305:Generated_Source\PSoC4/ENC_ISR.c **** 
 306:Generated_Source\PSoC4/ENC_ISR.c ****     priority = (*ENC_ISR_INTC_PRIOR & ENC_ISR__INTC_PRIOR_MASK) >> priorityOffset;
 186              		.loc 1 306 0
 187 0000 024B     		ldr	r3, .L14
 188 0002 1868     		ldr	r0, [r3]
 189 0004 8009     		lsrs	r0, r0, #6
 190              	.LVL12:
 307:Generated_Source\PSoC4/ENC_ISR.c **** 
 308:Generated_Source\PSoC4/ENC_ISR.c ****     return (uint8)priority;
 191              		.loc 1 308 0
 192 0006 0323     		movs	r3, #3
 193 0008 1840     		ands	r0, r3
 194              	.LVL13:
 309:Generated_Source\PSoC4/ENC_ISR.c **** }
 195              		.loc 1 309 0
 196              		@ sp needed
 197 000a 7047     		bx	lr
 198              	.L15:
 199              		.align	2
 200              	.L14:
 201 000c 00E400E0 		.word	-536812544
 202              		.cfi_endproc
 203              	.LFE8:
ARM GAS  C:\Users\LEOTEJ~1\AppData\Local\Temp\cc9Useia.s 			page 10


 204              		.size	ENC_ISR_GetPriority, .-ENC_ISR_GetPriority
 205              		.section	.text.ENC_ISR_Enable,"ax",%progbits
 206              		.align	2
 207              		.global	ENC_ISR_Enable
 208              		.code	16
 209              		.thumb_func
 210              		.type	ENC_ISR_Enable, %function
 211              	ENC_ISR_Enable:
 212              	.LFB9:
 310:Generated_Source\PSoC4/ENC_ISR.c **** 
 311:Generated_Source\PSoC4/ENC_ISR.c **** 
 312:Generated_Source\PSoC4/ENC_ISR.c **** /*******************************************************************************
 313:Generated_Source\PSoC4/ENC_ISR.c **** * Function Name: ENC_ISR_Enable
 314:Generated_Source\PSoC4/ENC_ISR.c **** ********************************************************************************
 315:Generated_Source\PSoC4/ENC_ISR.c **** *
 316:Generated_Source\PSoC4/ENC_ISR.c **** * Summary:
 317:Generated_Source\PSoC4/ENC_ISR.c **** *   Enables the interrupt to the interrupt controller. Do not call this function
 318:Generated_Source\PSoC4/ENC_ISR.c **** *   unless ISR_Start() has been called or the functionality of the ISR_Start() 
 319:Generated_Source\PSoC4/ENC_ISR.c **** *   function, which sets the vector and the priority, has been called.
 320:Generated_Source\PSoC4/ENC_ISR.c **** *
 321:Generated_Source\PSoC4/ENC_ISR.c **** * Parameters:
 322:Generated_Source\PSoC4/ENC_ISR.c **** *   None
 323:Generated_Source\PSoC4/ENC_ISR.c **** *
 324:Generated_Source\PSoC4/ENC_ISR.c **** * Return:
 325:Generated_Source\PSoC4/ENC_ISR.c **** *   None
 326:Generated_Source\PSoC4/ENC_ISR.c **** *
 327:Generated_Source\PSoC4/ENC_ISR.c **** *******************************************************************************/
 328:Generated_Source\PSoC4/ENC_ISR.c **** void ENC_ISR_Enable(void)
 329:Generated_Source\PSoC4/ENC_ISR.c **** {
 213              		.loc 1 329 0
 214              		.cfi_startproc
 215              		@ args = 0, pretend = 0, frame = 0
 216              		@ frame_needed = 0, uses_anonymous_args = 0
 217              		@ link register save eliminated.
 330:Generated_Source\PSoC4/ENC_ISR.c ****     /* Enable the general interrupt. */
 331:Generated_Source\PSoC4/ENC_ISR.c ****     *ENC_ISR_INTC_SET_EN = ENC_ISR__INTC_MASK;
 218              		.loc 1 331 0
 219 0000 0122     		movs	r2, #1
 220 0002 014B     		ldr	r3, .L17
 221 0004 1A60     		str	r2, [r3]
 332:Generated_Source\PSoC4/ENC_ISR.c **** }
 222              		.loc 1 332 0
 223              		@ sp needed
 224 0006 7047     		bx	lr
 225              	.L18:
 226              		.align	2
 227              	.L17:
 228 0008 00E100E0 		.word	-536813312
 229              		.cfi_endproc
 230              	.LFE9:
 231              		.size	ENC_ISR_Enable, .-ENC_ISR_Enable
 232              		.section	.text.ENC_ISR_GetState,"ax",%progbits
 233              		.align	2
 234              		.global	ENC_ISR_GetState
 235              		.code	16
 236              		.thumb_func
 237              		.type	ENC_ISR_GetState, %function
ARM GAS  C:\Users\LEOTEJ~1\AppData\Local\Temp\cc9Useia.s 			page 11


 238              	ENC_ISR_GetState:
 239              	.LFB10:
 333:Generated_Source\PSoC4/ENC_ISR.c **** 
 334:Generated_Source\PSoC4/ENC_ISR.c **** 
 335:Generated_Source\PSoC4/ENC_ISR.c **** /*******************************************************************************
 336:Generated_Source\PSoC4/ENC_ISR.c **** * Function Name: ENC_ISR_GetState
 337:Generated_Source\PSoC4/ENC_ISR.c **** ********************************************************************************
 338:Generated_Source\PSoC4/ENC_ISR.c **** *
 339:Generated_Source\PSoC4/ENC_ISR.c **** * Summary:
 340:Generated_Source\PSoC4/ENC_ISR.c **** *   Gets the state (enabled, disabled) of the Interrupt.
 341:Generated_Source\PSoC4/ENC_ISR.c **** *
 342:Generated_Source\PSoC4/ENC_ISR.c **** * Parameters:
 343:Generated_Source\PSoC4/ENC_ISR.c **** *   None
 344:Generated_Source\PSoC4/ENC_ISR.c **** *
 345:Generated_Source\PSoC4/ENC_ISR.c **** * Return:
 346:Generated_Source\PSoC4/ENC_ISR.c **** *   1 if enabled, 0 if disabled.
 347:Generated_Source\PSoC4/ENC_ISR.c **** *
 348:Generated_Source\PSoC4/ENC_ISR.c **** *******************************************************************************/
 349:Generated_Source\PSoC4/ENC_ISR.c **** uint8 ENC_ISR_GetState(void)
 350:Generated_Source\PSoC4/ENC_ISR.c **** {
 240              		.loc 1 350 0
 241              		.cfi_startproc
 242              		@ args = 0, pretend = 0, frame = 0
 243              		@ frame_needed = 0, uses_anonymous_args = 0
 244              		@ link register save eliminated.
 351:Generated_Source\PSoC4/ENC_ISR.c ****     /* Get the state of the general interrupt. */
 352:Generated_Source\PSoC4/ENC_ISR.c ****     return ((*ENC_ISR_INTC_SET_EN & (uint32)ENC_ISR__INTC_MASK) != 0u) ? 1u:0u;
 245              		.loc 1 352 0
 246 0000 024B     		ldr	r3, .L20
 247 0002 1B68     		ldr	r3, [r3]
 248 0004 0120     		movs	r0, #1
 249 0006 1840     		ands	r0, r3
 353:Generated_Source\PSoC4/ENC_ISR.c **** }
 250              		.loc 1 353 0
 251              		@ sp needed
 252 0008 7047     		bx	lr
 253              	.L21:
 254 000a C046     		.align	2
 255              	.L20:
 256 000c 00E100E0 		.word	-536813312
 257              		.cfi_endproc
 258              	.LFE10:
 259              		.size	ENC_ISR_GetState, .-ENC_ISR_GetState
 260              		.section	.text.ENC_ISR_Disable,"ax",%progbits
 261              		.align	2
 262              		.global	ENC_ISR_Disable
 263              		.code	16
 264              		.thumb_func
 265              		.type	ENC_ISR_Disable, %function
 266              	ENC_ISR_Disable:
 267              	.LFB11:
 354:Generated_Source\PSoC4/ENC_ISR.c **** 
 355:Generated_Source\PSoC4/ENC_ISR.c **** 
 356:Generated_Source\PSoC4/ENC_ISR.c **** /*******************************************************************************
 357:Generated_Source\PSoC4/ENC_ISR.c **** * Function Name: ENC_ISR_Disable
 358:Generated_Source\PSoC4/ENC_ISR.c **** ********************************************************************************
 359:Generated_Source\PSoC4/ENC_ISR.c **** *
ARM GAS  C:\Users\LEOTEJ~1\AppData\Local\Temp\cc9Useia.s 			page 12


 360:Generated_Source\PSoC4/ENC_ISR.c **** * Summary:
 361:Generated_Source\PSoC4/ENC_ISR.c **** *   Disables the Interrupt in the interrupt controller.
 362:Generated_Source\PSoC4/ENC_ISR.c **** *
 363:Generated_Source\PSoC4/ENC_ISR.c **** * Parameters:
 364:Generated_Source\PSoC4/ENC_ISR.c **** *   None
 365:Generated_Source\PSoC4/ENC_ISR.c **** *
 366:Generated_Source\PSoC4/ENC_ISR.c **** * Return:
 367:Generated_Source\PSoC4/ENC_ISR.c **** *   None
 368:Generated_Source\PSoC4/ENC_ISR.c **** *
 369:Generated_Source\PSoC4/ENC_ISR.c **** *******************************************************************************/
 370:Generated_Source\PSoC4/ENC_ISR.c **** void ENC_ISR_Disable(void)
 371:Generated_Source\PSoC4/ENC_ISR.c **** {
 268              		.loc 1 371 0
 269              		.cfi_startproc
 270              		@ args = 0, pretend = 0, frame = 0
 271              		@ frame_needed = 0, uses_anonymous_args = 0
 272              		@ link register save eliminated.
 372:Generated_Source\PSoC4/ENC_ISR.c ****     /* Disable the general interrupt. */
 373:Generated_Source\PSoC4/ENC_ISR.c ****     *ENC_ISR_INTC_CLR_EN = ENC_ISR__INTC_MASK;
 273              		.loc 1 373 0
 274 0000 0122     		movs	r2, #1
 275 0002 014B     		ldr	r3, .L23
 276 0004 1A60     		str	r2, [r3]
 374:Generated_Source\PSoC4/ENC_ISR.c **** }
 277              		.loc 1 374 0
 278              		@ sp needed
 279 0006 7047     		bx	lr
 280              	.L24:
 281              		.align	2
 282              	.L23:
 283 0008 80E100E0 		.word	-536813184
 284              		.cfi_endproc
 285              	.LFE11:
 286              		.size	ENC_ISR_Disable, .-ENC_ISR_Disable
 287              		.section	.text.ENC_ISR_Start,"ax",%progbits
 288              		.align	2
 289              		.global	ENC_ISR_Start
 290              		.code	16
 291              		.thumb_func
 292              		.type	ENC_ISR_Start, %function
 293              	ENC_ISR_Start:
 294              	.LFB1:
  68:Generated_Source\PSoC4/ENC_ISR.c ****     /* For all we know the interrupt is active. */
 295              		.loc 1 68 0
 296              		.cfi_startproc
 297              		@ args = 0, pretend = 0, frame = 0
 298              		@ frame_needed = 0, uses_anonymous_args = 0
 299 0000 10B5     		push	{r4, lr}
 300              		.cfi_def_cfa_offset 8
 301              		.cfi_offset 4, -8
 302              		.cfi_offset 14, -4
  70:Generated_Source\PSoC4/ENC_ISR.c **** 
 303              		.loc 1 70 0
 304 0002 FFF7FEFF 		bl	ENC_ISR_Disable
 305              	.LVL14:
  73:Generated_Source\PSoC4/ENC_ISR.c **** 
 306              		.loc 1 73 0
ARM GAS  C:\Users\LEOTEJ~1\AppData\Local\Temp\cc9Useia.s 			page 13


 307 0006 0448     		ldr	r0, .L26
 308 0008 FFF7FEFF 		bl	ENC_ISR_SetVector
 309              	.LVL15:
  76:Generated_Source\PSoC4/ENC_ISR.c **** 
 310              		.loc 1 76 0
 311 000c 0320     		movs	r0, #3
 312 000e FFF7FEFF 		bl	ENC_ISR_SetPriority
 313              	.LVL16:
  79:Generated_Source\PSoC4/ENC_ISR.c **** }
 314              		.loc 1 79 0
 315 0012 FFF7FEFF 		bl	ENC_ISR_Enable
 316              	.LVL17:
  80:Generated_Source\PSoC4/ENC_ISR.c **** 
 317              		.loc 1 80 0
 318              		@ sp needed
 319 0016 10BD     		pop	{r4, pc}
 320              	.L27:
 321              		.align	2
 322              	.L26:
 323 0018 00000000 		.word	ENC_ISR_Interrupt
 324              		.cfi_endproc
 325              	.LFE1:
 326              		.size	ENC_ISR_Start, .-ENC_ISR_Start
 327              		.section	.text.ENC_ISR_StartEx,"ax",%progbits
 328              		.align	2
 329              		.global	ENC_ISR_StartEx
 330              		.code	16
 331              		.thumb_func
 332              		.type	ENC_ISR_StartEx, %function
 333              	ENC_ISR_StartEx:
 334              	.LFB2:
 111:Generated_Source\PSoC4/ENC_ISR.c ****     /* For all we know the interrupt is active. */
 335              		.loc 1 111 0
 336              		.cfi_startproc
 337              		@ args = 0, pretend = 0, frame = 0
 338              		@ frame_needed = 0, uses_anonymous_args = 0
 339              	.LVL18:
 340 0000 10B5     		push	{r4, lr}
 341              		.cfi_def_cfa_offset 8
 342              		.cfi_offset 4, -8
 343              		.cfi_offset 14, -4
 344 0002 0400     		movs	r4, r0
 113:Generated_Source\PSoC4/ENC_ISR.c **** 
 345              		.loc 1 113 0
 346 0004 FFF7FEFF 		bl	ENC_ISR_Disable
 347              	.LVL19:
 116:Generated_Source\PSoC4/ENC_ISR.c **** 
 348              		.loc 1 116 0
 349 0008 2000     		movs	r0, r4
 350 000a FFF7FEFF 		bl	ENC_ISR_SetVector
 351              	.LVL20:
 119:Generated_Source\PSoC4/ENC_ISR.c **** 
 352              		.loc 1 119 0
 353 000e 0320     		movs	r0, #3
 354 0010 FFF7FEFF 		bl	ENC_ISR_SetPriority
 355              	.LVL21:
 122:Generated_Source\PSoC4/ENC_ISR.c **** }
ARM GAS  C:\Users\LEOTEJ~1\AppData\Local\Temp\cc9Useia.s 			page 14


 356              		.loc 1 122 0
 357 0014 FFF7FEFF 		bl	ENC_ISR_Enable
 358              	.LVL22:
 123:Generated_Source\PSoC4/ENC_ISR.c **** 
 359              		.loc 1 123 0
 360              		@ sp needed
 361              	.LVL23:
 362 0018 10BD     		pop	{r4, pc}
 363              		.cfi_endproc
 364              	.LFE2:
 365              		.size	ENC_ISR_StartEx, .-ENC_ISR_StartEx
 366 001a C046     		.section	.text.ENC_ISR_Stop,"ax",%progbits
 367              		.align	2
 368              		.global	ENC_ISR_Stop
 369              		.code	16
 370              		.thumb_func
 371              		.type	ENC_ISR_Stop, %function
 372              	ENC_ISR_Stop:
 373              	.LFB3:
 141:Generated_Source\PSoC4/ENC_ISR.c ****     /* Disable this interrupt. */
 374              		.loc 1 141 0
 375              		.cfi_startproc
 376              		@ args = 0, pretend = 0, frame = 0
 377              		@ frame_needed = 0, uses_anonymous_args = 0
 378 0000 10B5     		push	{r4, lr}
 379              		.cfi_def_cfa_offset 8
 380              		.cfi_offset 4, -8
 381              		.cfi_offset 14, -4
 143:Generated_Source\PSoC4/ENC_ISR.c **** 
 382              		.loc 1 143 0
 383 0002 FFF7FEFF 		bl	ENC_ISR_Disable
 384              	.LVL24:
 146:Generated_Source\PSoC4/ENC_ISR.c **** }
 385              		.loc 1 146 0
 386 0006 0248     		ldr	r0, .L30
 387 0008 FFF7FEFF 		bl	ENC_ISR_SetVector
 388              	.LVL25:
 147:Generated_Source\PSoC4/ENC_ISR.c **** 
 389              		.loc 1 147 0
 390              		@ sp needed
 391 000c 10BD     		pop	{r4, pc}
 392              	.L31:
 393 000e C046     		.align	2
 394              	.L30:
 395 0010 00000000 		.word	IntDefaultHandler
 396              		.cfi_endproc
 397              	.LFE3:
 398              		.size	ENC_ISR_Stop, .-ENC_ISR_Stop
 399              		.section	.text.ENC_ISR_SetPending,"ax",%progbits
 400              		.align	2
 401              		.global	ENC_ISR_SetPending
 402              		.code	16
 403              		.thumb_func
 404              		.type	ENC_ISR_SetPending, %function
 405              	ENC_ISR_SetPending:
 406              	.LFB12:
 375:Generated_Source\PSoC4/ENC_ISR.c **** 
ARM GAS  C:\Users\LEOTEJ~1\AppData\Local\Temp\cc9Useia.s 			page 15


 376:Generated_Source\PSoC4/ENC_ISR.c **** 
 377:Generated_Source\PSoC4/ENC_ISR.c **** /*******************************************************************************
 378:Generated_Source\PSoC4/ENC_ISR.c **** * Function Name: ENC_ISR_SetPending
 379:Generated_Source\PSoC4/ENC_ISR.c **** ********************************************************************************
 380:Generated_Source\PSoC4/ENC_ISR.c **** *
 381:Generated_Source\PSoC4/ENC_ISR.c **** * Summary:
 382:Generated_Source\PSoC4/ENC_ISR.c **** *   Causes the Interrupt to enter the pending state, a software method of
 383:Generated_Source\PSoC4/ENC_ISR.c **** *   generating the interrupt.
 384:Generated_Source\PSoC4/ENC_ISR.c **** *
 385:Generated_Source\PSoC4/ENC_ISR.c **** * Parameters:
 386:Generated_Source\PSoC4/ENC_ISR.c **** *   None
 387:Generated_Source\PSoC4/ENC_ISR.c **** *
 388:Generated_Source\PSoC4/ENC_ISR.c **** * Return:
 389:Generated_Source\PSoC4/ENC_ISR.c **** *   None
 390:Generated_Source\PSoC4/ENC_ISR.c **** *
 391:Generated_Source\PSoC4/ENC_ISR.c **** * Side Effects:
 392:Generated_Source\PSoC4/ENC_ISR.c **** *   If interrupts are enabled and the interrupt is set up properly, the ISR is
 393:Generated_Source\PSoC4/ENC_ISR.c **** *   entered (depending on the priority of this interrupt and other pending 
 394:Generated_Source\PSoC4/ENC_ISR.c **** *   interrupts).
 395:Generated_Source\PSoC4/ENC_ISR.c **** *
 396:Generated_Source\PSoC4/ENC_ISR.c **** *******************************************************************************/
 397:Generated_Source\PSoC4/ENC_ISR.c **** void ENC_ISR_SetPending(void)
 398:Generated_Source\PSoC4/ENC_ISR.c **** {
 407              		.loc 1 398 0
 408              		.cfi_startproc
 409              		@ args = 0, pretend = 0, frame = 0
 410              		@ frame_needed = 0, uses_anonymous_args = 0
 411              		@ link register save eliminated.
 399:Generated_Source\PSoC4/ENC_ISR.c ****     *ENC_ISR_INTC_SET_PD = ENC_ISR__INTC_MASK;
 412              		.loc 1 399 0
 413 0000 0122     		movs	r2, #1
 414 0002 014B     		ldr	r3, .L33
 415 0004 1A60     		str	r2, [r3]
 400:Generated_Source\PSoC4/ENC_ISR.c **** }
 416              		.loc 1 400 0
 417              		@ sp needed
 418 0006 7047     		bx	lr
 419              	.L34:
 420              		.align	2
 421              	.L33:
 422 0008 00E200E0 		.word	-536813056
 423              		.cfi_endproc
 424              	.LFE12:
 425              		.size	ENC_ISR_SetPending, .-ENC_ISR_SetPending
 426              		.section	.text.ENC_ISR_ClearPending,"ax",%progbits
 427              		.align	2
 428              		.global	ENC_ISR_ClearPending
 429              		.code	16
 430              		.thumb_func
 431              		.type	ENC_ISR_ClearPending, %function
 432              	ENC_ISR_ClearPending:
 433              	.LFB13:
 401:Generated_Source\PSoC4/ENC_ISR.c **** 
 402:Generated_Source\PSoC4/ENC_ISR.c **** 
 403:Generated_Source\PSoC4/ENC_ISR.c **** /*******************************************************************************
 404:Generated_Source\PSoC4/ENC_ISR.c **** * Function Name: ENC_ISR_ClearPending
 405:Generated_Source\PSoC4/ENC_ISR.c **** ********************************************************************************
ARM GAS  C:\Users\LEOTEJ~1\AppData\Local\Temp\cc9Useia.s 			page 16


 406:Generated_Source\PSoC4/ENC_ISR.c **** *
 407:Generated_Source\PSoC4/ENC_ISR.c **** * Summary:
 408:Generated_Source\PSoC4/ENC_ISR.c **** *   Clears a pending interrupt in the interrupt controller.
 409:Generated_Source\PSoC4/ENC_ISR.c **** *
 410:Generated_Source\PSoC4/ENC_ISR.c **** *   Note Some interrupt sources are clear-on-read and require the block 
 411:Generated_Source\PSoC4/ENC_ISR.c **** *   interrupt/status register to be read/cleared with the appropriate block API 
 412:Generated_Source\PSoC4/ENC_ISR.c **** *   (GPIO, UART, and so on). Otherwise the ISR will continue to remain in 
 413:Generated_Source\PSoC4/ENC_ISR.c **** *   pending state even though the interrupt itself is cleared using this API.
 414:Generated_Source\PSoC4/ENC_ISR.c **** *
 415:Generated_Source\PSoC4/ENC_ISR.c **** * Parameters:
 416:Generated_Source\PSoC4/ENC_ISR.c **** *   None
 417:Generated_Source\PSoC4/ENC_ISR.c **** *
 418:Generated_Source\PSoC4/ENC_ISR.c **** * Return:
 419:Generated_Source\PSoC4/ENC_ISR.c **** *   None
 420:Generated_Source\PSoC4/ENC_ISR.c **** *
 421:Generated_Source\PSoC4/ENC_ISR.c **** *******************************************************************************/
 422:Generated_Source\PSoC4/ENC_ISR.c **** void ENC_ISR_ClearPending(void)
 423:Generated_Source\PSoC4/ENC_ISR.c **** {
 434              		.loc 1 423 0
 435              		.cfi_startproc
 436              		@ args = 0, pretend = 0, frame = 0
 437              		@ frame_needed = 0, uses_anonymous_args = 0
 438              		@ link register save eliminated.
 424:Generated_Source\PSoC4/ENC_ISR.c ****     *ENC_ISR_INTC_CLR_PD = ENC_ISR__INTC_MASK;
 439              		.loc 1 424 0
 440 0000 0122     		movs	r2, #1
 441 0002 014B     		ldr	r3, .L36
 442 0004 1A60     		str	r2, [r3]
 425:Generated_Source\PSoC4/ENC_ISR.c **** }
 443              		.loc 1 425 0
 444              		@ sp needed
 445 0006 7047     		bx	lr
 446              	.L37:
 447              		.align	2
 448              	.L36:
 449 0008 80E200E0 		.word	-536812928
 450              		.cfi_endproc
 451              	.LFE13:
 452              		.size	ENC_ISR_ClearPending, .-ENC_ISR_ClearPending
 453              		.text
 454              	.Letext0:
 455              		.file 2 "Generated_Source\\PSoC4/cytypes.h"
 456              		.file 3 "Generated_Source\\PSoC4\\ENC.h"
 457              		.file 4 "Generated_Source\\PSoC4/CyLib.h"
 458              		.file 5 "Generated_Source\\PSoC4\\LCD.h"