ARM GAS  C:\Users\LEOTEJ~1\AppData\Local\Temp\ccWBPsmK.s 			page 1


   1              		.syntax unified
   2              		.cpu cortex-m0
   3              		.fpu softvfp
   4              		.eabi_attribute 20, 1
   5              		.eabi_attribute 21, 1
   6              		.eabi_attribute 23, 3
   7              		.eabi_attribute 24, 1
   8              		.eabi_attribute 25, 1
   9              		.eabi_attribute 26, 1
  10              		.eabi_attribute 30, 1
  11              		.eabi_attribute 34, 0
  12              		.eabi_attribute 18, 4
  13              		.thumb
  14              		.syntax unified
  15              		.file	"main.c"
  16              		.text
  17              	.Ltext0:
  18              		.cfi_sections	.debug_frame
  19              		.section	.text.drawMovingBar,"ax",%progbits
  20              		.align	2
  21              		.global	drawMovingBar
  22              		.code	16
  23              		.thumb_func
  24              		.type	drawMovingBar, %function
  25              	drawMovingBar:
  26              	.LFB34:
  27              		.file 1 "main.c"
   1:main.c        **** /* ========================================
   2:main.c        ****  *
   3:main.c        ****  * Copyright YOUR COMPANY, THE YEAR
   4:main.c        ****  * All Rights Reserved
   5:main.c        ****  * UNPUBLISHED, LICENSED SOFTWARE.
   6:main.c        ****  *
   7:main.c        ****  * CONFIDENTIAL AND PROPRIETARY INFORMATION
   8:main.c        ****  * WHICH IS THE PROPERTY OF your company.
   9:main.c        ****  *
  10:main.c        ****  * ========================================
  11:main.c        **** */
  12:main.c        **** #include "project.h"
  13:main.c        **** 
  14:main.c        **** volatile int barSync;
  15:main.c        **** volatile int buttonAsync;
  16:main.c        **** volatile int encoderAsync;
  17:main.c        **** volatile int encoderPos;
  18:main.c        **** int movingDirection;
  19:main.c        **** 
  20:main.c        **** 
  21:main.c        **** int drawMovingBar(int position){
  28              		.loc 1 21 0
  29              		.cfi_startproc
  30              		@ args = 0, pretend = 0, frame = 0
  31              		@ frame_needed = 0, uses_anonymous_args = 0
  32              	.LVL0:
  33 0000 10B5     		push	{r4, lr}
  34              		.cfi_def_cfa_offset 8
  35              		.cfi_offset 4, -8
  36              		.cfi_offset 14, -4
ARM GAS  C:\Users\LEOTEJ~1\AppData\Local\Temp\ccWBPsmK.s 			page 2


  22:main.c        ****     if(movingDirection == 0){
  37              		.loc 1 22 0
  38 0002 0F4B     		ldr	r3, .L7
  39 0004 1B68     		ldr	r3, [r3]
  40 0006 002B     		cmp	r3, #0
  41 0008 01D1     		bne	.L2
  23:main.c        ****         position++;
  42              		.loc 1 23 0
  43 000a 441C     		adds	r4, r0, #1
  44              	.LVL1:
  45 000c 00E0     		b	.L3
  46              	.LVL2:
  47              	.L2:
  24:main.c        ****     }
  25:main.c        ****     else{
  26:main.c        ****         position--;
  48              		.loc 1 26 0
  49 000e 441E     		subs	r4, r0, #1
  50              	.LVL3:
  51              	.L3:
  27:main.c        ****     }
  28:main.c        ****     LCD_DrawHorizontalBG(1,0,16,position);
  52              		.loc 1 28 0
  53 0010 E3B2     		uxtb	r3, r4
  54 0012 1022     		movs	r2, #16
  55 0014 0021     		movs	r1, #0
  56 0016 0120     		movs	r0, #1
  57 0018 FFF7FEFF 		bl	LCD_DrawHorizontalBG
  58              	.LVL4:
  29:main.c        ****     if(position == 80 || position == 0){
  59              		.loc 1 29 0
  60 001c 502C     		cmp	r4, #80
  61 001e 01D0     		beq	.L4
  62              		.loc 1 29 0 is_stmt 0 discriminator 1
  63 0020 002C     		cmp	r4, #0
  64 0022 0AD1     		bne	.L5
  65              	.L4:
  30:main.c        ****         if(movingDirection == 0){
  66              		.loc 1 30 0 is_stmt 1
  67 0024 064B     		ldr	r3, .L7
  68 0026 1B68     		ldr	r3, [r3]
  69 0028 002B     		cmp	r3, #0
  70 002a 03D1     		bne	.L6
  31:main.c        ****             movingDirection = 1;
  71              		.loc 1 31 0
  72 002c 0122     		movs	r2, #1
  73 002e 044B     		ldr	r3, .L7
  74 0030 1A60     		str	r2, [r3]
  75 0032 02E0     		b	.L5
  76              	.L6:
  32:main.c        ****         }
  33:main.c        ****         else{
  34:main.c        ****             movingDirection = 0;
  77              		.loc 1 34 0
  78 0034 0022     		movs	r2, #0
  79 0036 024B     		ldr	r3, .L7
  80 0038 1A60     		str	r2, [r3]
ARM GAS  C:\Users\LEOTEJ~1\AppData\Local\Temp\ccWBPsmK.s 			page 3


  81              	.L5:
  35:main.c        ****         }
  36:main.c        ****     }
  37:main.c        ****     return position;
  38:main.c        **** }
  82              		.loc 1 38 0
  83 003a 2000     		movs	r0, r4
  84              		@ sp needed
  85              	.LVL5:
  86 003c 10BD     		pop	{r4, pc}
  87              	.L8:
  88 003e C046     		.align	2
  89              	.L7:
  90 0040 00000000 		.word	movingDirection
  91              		.cfi_endproc
  92              	.LFE34:
  93              		.size	drawMovingBar, .-drawMovingBar
  94              		.section	.text.main,"ax",%progbits
  95              		.align	2
  96              		.global	main
  97              		.code	16
  98              		.thumb_func
  99              		.type	main, %function
 100              	main:
 101              	.LFB35:
  39:main.c        **** int main(void)
  40:main.c        **** {
 102              		.loc 1 40 0
 103              		.cfi_startproc
 104              		@ args = 0, pretend = 0, frame = 0
 105              		@ frame_needed = 0, uses_anonymous_args = 0
 106 0000 10B5     		push	{r4, lr}
 107              		.cfi_def_cfa_offset 8
 108              		.cfi_offset 4, -8
 109              		.cfi_offset 14, -4
  41:main.c        **** 
  42:main.c        ****     /* Place your initialization/startup code here (e.g. MyInst_Start()) */
  43:main.c        ****     // Start modules and timers
  44:main.c        ****     LCD_Start();
 110              		.loc 1 44 0
 111 0002 FFF7FEFF 		bl	LCD_Start
 112              	.LVL6:
  45:main.c        ****     ENC_ISR_Start();
 113              		.loc 1 45 0
 114 0006 FFF7FEFF 		bl	ENC_ISR_Start
 115              	.LVL7:
  46:main.c        ****     BTN_ISR_Start();
 116              		.loc 1 46 0
 117 000a FFF7FEFF 		bl	BTN_ISR_Start
 118              	.LVL8:
  47:main.c        ****     LCD_Timer_Start();
 119              		.loc 1 47 0
 120 000e FFF7FEFF 		bl	LCD_Timer_Start
 121              	.LVL9:
  48:main.c        ****     LCD_Timer_ISR_Start();
 122              		.loc 1 48 0
 123 0012 FFF7FEFF 		bl	LCD_Timer_ISR_Start
ARM GAS  C:\Users\LEOTEJ~1\AppData\Local\Temp\ccWBPsmK.s 			page 4


 124              	.LVL10:
  49:main.c        ****     LCD_Timer_WritePeriod(12);
 125              		.loc 1 49 0
 126 0016 0C20     		movs	r0, #12
 127 0018 FFF7FEFF 		bl	LCD_Timer_WritePeriod
 128              	.LVL11:
  50:main.c        ****     barSync = 0;
 129              		.loc 1 50 0
 130 001c 0023     		movs	r3, #0
 131 001e 164A     		ldr	r2, .L17
 132 0020 1360     		str	r3, [r2]
  51:main.c        ****     
  52:main.c        ****     buttonAsync = 0;
 133              		.loc 1 52 0
 134 0022 164A     		ldr	r2, .L17+4
 135 0024 1360     		str	r3, [r2]
  53:main.c        ****     movingDirection = 0;
 136              		.loc 1 53 0
 137 0026 164A     		ldr	r2, .L17+8
 138 0028 1360     		str	r3, [r2]
 139              	.LVL12:
  54:main.c        ****     int barPos = 0;
  55:main.c        ****     int barMove = 0;
  56:main.c        ****     encoderAsync = 0;
 140              		.loc 1 56 0
 141 002a 164A     		ldr	r2, .L17+12
 142 002c 1360     		str	r3, [r2]
  57:main.c        ****     encoderPos = 0;
 143              		.loc 1 57 0
 144 002e 164A     		ldr	r2, .L17+16
 145 0030 1360     		str	r3, [r2]
  58:main.c        ****     CyGlobalIntEnable;
 146              		.loc 1 58 0
 147              		.syntax divided
 148              	@ 58 "main.c" 1
 149 0032 62B6     		CPSIE   i
 150              	@ 0 "" 2
  55:main.c        ****     encoderAsync = 0;
 151              		.loc 1 55 0
 152              		.thumb
 153              		.syntax unified
 154 0034 0024     		movs	r4, #0
 155              	.LVL13:
 156              	.L10:
  59:main.c        ****     for(;;)
  60:main.c        ****     {
  61:main.c        ****         
  62:main.c        ****         /* Place your application code here. */
  63:main.c        ****         
  64:main.c        ****         if(barSync == 1){
 157              		.loc 1 64 0
 158 0036 104B     		ldr	r3, .L17
 159 0038 1B68     		ldr	r3, [r3]
 160 003a 012B     		cmp	r3, #1
 161 003c 03D1     		bne	.L11
  65:main.c        ****             barSync = 0;
 162              		.loc 1 65 0
ARM GAS  C:\Users\LEOTEJ~1\AppData\Local\Temp\ccWBPsmK.s 			page 5


 163 003e 0022     		movs	r2, #0
 164 0040 0D4B     		ldr	r3, .L17
 165 0042 1A60     		str	r2, [r3]
 166 0044 F7E7     		b	.L10
 167              	.L11:
  66:main.c        ****             if(barMove != 1){
  67:main.c        ****              //   barPos = drawMovingBar(barPos);
  68:main.c        ****             }
  69:main.c        ****             //LCD_DrawHorizontalBG(1,0,16,80);
  70:main.c        ****             //LCD_ClearDisplay();
  71:main.c        ****             //CyDelay(1000);
  72:main.c        ****             //LCD_ClearDisplay();
  73:main.c        ****         }
  74:main.c        ****         else if(buttonAsync == 1){
 168              		.loc 1 74 0
 169 0046 0D4B     		ldr	r3, .L17+4
 170 0048 1B68     		ldr	r3, [r3]
 171 004a 012B     		cmp	r3, #1
 172 004c 0CD1     		bne	.L13
  75:main.c        ****             buttonAsync = 0;
 173              		.loc 1 75 0
 174 004e 0022     		movs	r2, #0
 175 0050 0A4B     		ldr	r3, .L17+4
 176 0052 1A60     		str	r2, [r3]
  76:main.c        ****             if(barMove == 0){
 177              		.loc 1 76 0
 178 0054 002C     		cmp	r4, #0
 179 0056 01D1     		bne	.L16
  77:main.c        ****                 barMove = 1;
 180              		.loc 1 77 0
 181 0058 0134     		adds	r4, r4, #1
 182              	.LVL14:
 183 005a 00E0     		b	.L15
 184              	.LVL15:
 185              	.L16:
  78:main.c        ****             }
  79:main.c        ****             else{
  80:main.c        ****                 barMove = 0;
 186              		.loc 1 80 0
 187 005c 0024     		movs	r4, #0
 188              	.LVL16:
 189              	.L15:
  81:main.c        ****             }
  82:main.c        ****             while(BTN_Read() == 0);
 190              		.loc 1 82 0 discriminator 1
 191 005e FFF7FEFF 		bl	BTN_Read
 192              	.LVL17:
 193 0062 0028     		cmp	r0, #0
 194 0064 FBD0     		beq	.L15
 195 0066 E6E7     		b	.L10
 196              	.L13:
  83:main.c        ****         }
  84:main.c        ****         else if(encoderAsync == 1){
 197              		.loc 1 84 0
 198 0068 064B     		ldr	r3, .L17+12
 199 006a 1B68     		ldr	r3, [r3]
 200 006c 012B     		cmp	r3, #1
ARM GAS  C:\Users\LEOTEJ~1\AppData\Local\Temp\ccWBPsmK.s 			page 6


 201 006e E2D1     		bne	.L10
  85:main.c        ****             encoderAsync = 0; // resetting the flag
 202              		.loc 1 85 0
 203 0070 0022     		movs	r2, #0
 204 0072 044B     		ldr	r3, .L17+12
 205 0074 1A60     		str	r2, [r3]
 206 0076 DEE7     		b	.L10
 207              	.L18:
 208              		.align	2
 209              	.L17:
 210 0078 00000000 		.word	barSync
 211 007c 00000000 		.word	buttonAsync
 212 0080 00000000 		.word	movingDirection
 213 0084 00000000 		.word	encoderAsync
 214 0088 00000000 		.word	encoderPos
 215              		.cfi_endproc
 216              	.LFE35:
 217              		.size	main, .-main
 218              		.comm	movingDirection,4,4
 219              		.comm	encoderPos,4,4
 220              		.comm	encoderAsync,4,4
 221              		.comm	buttonAsync,4,4
 222              		.comm	barSync,4,4
 223              		.text
 224              	.Letext0:
 225              		.file 2 "Generated_Source\\PSoC4/LCD.h"
 226              		.file 3 "Generated_Source\\PSoC4/ENC_ISR.h"
 227              		.file 4 "Generated_Source\\PSoC4/BTN_ISR.h"
 228              		.file 5 "Generated_Source\\PSoC4/LCD_Timer.h"
 229              		.file 6 "Generated_Source\\PSoC4/LCD_Timer_ISR.h"
 230              		.file 7 "Generated_Source\\PSoC4/BTN.h"