ARM GAS  C:\Users\LEOTEJ~1\AppData\Local\Temp\ccjaJImE.s 			page 1


   1              		.syntax unified
   2              		.cpu cortex-m0
   3              		.fpu softvfp
   4              		.eabi_attribute 20, 1
   5              		.eabi_attribute 21, 1
   6              		.eabi_attribute 23, 3
   7              		.eabi_attribute 24, 1
   8              		.eabi_attribute 25, 1
   9              		.eabi_attribute 26, 1
  10              		.eabi_attribute 30, 1
  11              		.eabi_attribute 34, 0
  12              		.eabi_attribute 18, 4
  13              		.thumb
  14              		.syntax unified
  15              		.file	"BTN_ISR.c"
  16              		.text
  17              	.Ltext0:
  18              		.cfi_sections	.debug_frame
  19              		.section	.text.BTN_ISR_Interrupt,"ax",%progbits
  20              		.align	2
  21              		.global	BTN_ISR_Interrupt
  22              		.code	16
  23              		.thumb_func
  24              		.type	BTN_ISR_Interrupt, %function
  25              	BTN_ISR_Interrupt:
  26              	.LFB4:
  27              		.file 1 "Generated_Source\\PSoC4\\BTN_ISR.c"
   1:Generated_Source\PSoC4/BTN_ISR.c **** /*******************************************************************************
   2:Generated_Source\PSoC4/BTN_ISR.c **** * File Name: BTN_ISR.c  
   3:Generated_Source\PSoC4/BTN_ISR.c **** * Version 1.71
   4:Generated_Source\PSoC4/BTN_ISR.c **** *
   5:Generated_Source\PSoC4/BTN_ISR.c **** *  Description:
   6:Generated_Source\PSoC4/BTN_ISR.c **** *   API for controlling the state of an interrupt.
   7:Generated_Source\PSoC4/BTN_ISR.c **** *
   8:Generated_Source\PSoC4/BTN_ISR.c **** *
   9:Generated_Source\PSoC4/BTN_ISR.c **** *  Note:
  10:Generated_Source\PSoC4/BTN_ISR.c **** *
  11:Generated_Source\PSoC4/BTN_ISR.c **** ********************************************************************************
  12:Generated_Source\PSoC4/BTN_ISR.c **** * Copyright 2008-2015, Cypress Semiconductor Corporation.  All rights reserved.
  13:Generated_Source\PSoC4/BTN_ISR.c **** * You may use this file only in accordance with the license, terms, conditions, 
  14:Generated_Source\PSoC4/BTN_ISR.c **** * disclaimers, and limitations in the end user license agreement accompanying 
  15:Generated_Source\PSoC4/BTN_ISR.c **** * the software package with which this file was provided.
  16:Generated_Source\PSoC4/BTN_ISR.c **** *******************************************************************************/
  17:Generated_Source\PSoC4/BTN_ISR.c **** 
  18:Generated_Source\PSoC4/BTN_ISR.c **** 
  19:Generated_Source\PSoC4/BTN_ISR.c **** #include <cydevice_trm.h>
  20:Generated_Source\PSoC4/BTN_ISR.c **** #include <CyLib.h>
  21:Generated_Source\PSoC4/BTN_ISR.c **** #include <BTN_ISR.h>
  22:Generated_Source\PSoC4/BTN_ISR.c **** #include "cyapicallbacks.h"
  23:Generated_Source\PSoC4/BTN_ISR.c **** 
  24:Generated_Source\PSoC4/BTN_ISR.c **** #if !defined(BTN_ISR__REMOVED) /* Check for removal by optimization */
  25:Generated_Source\PSoC4/BTN_ISR.c **** 
  26:Generated_Source\PSoC4/BTN_ISR.c **** /*******************************************************************************
  27:Generated_Source\PSoC4/BTN_ISR.c **** *  Place your includes, defines and code here 
  28:Generated_Source\PSoC4/BTN_ISR.c **** ********************************************************************************/
  29:Generated_Source\PSoC4/BTN_ISR.c **** /* `#START BTN_ISR_intc` */
  30:Generated_Source\PSoC4/BTN_ISR.c **** #include "BTN.h"
ARM GAS  C:\Users\LEOTEJ~1\AppData\Local\Temp\ccjaJImE.s 			page 2


  31:Generated_Source\PSoC4/BTN_ISR.c **** extern volatile int buttonFlag;
  32:Generated_Source\PSoC4/BTN_ISR.c **** /* `#END` */
  33:Generated_Source\PSoC4/BTN_ISR.c **** 
  34:Generated_Source\PSoC4/BTN_ISR.c **** extern cyisraddress CyRamVectors[CYINT_IRQ_BASE + CY_NUM_INTERRUPTS];
  35:Generated_Source\PSoC4/BTN_ISR.c **** 
  36:Generated_Source\PSoC4/BTN_ISR.c **** /* Declared in startup, used to set unused interrupts to. */
  37:Generated_Source\PSoC4/BTN_ISR.c **** CY_ISR_PROTO(IntDefaultHandler);
  38:Generated_Source\PSoC4/BTN_ISR.c **** 
  39:Generated_Source\PSoC4/BTN_ISR.c **** 
  40:Generated_Source\PSoC4/BTN_ISR.c **** /*******************************************************************************
  41:Generated_Source\PSoC4/BTN_ISR.c **** * Function Name: BTN_ISR_Start
  42:Generated_Source\PSoC4/BTN_ISR.c **** ********************************************************************************
  43:Generated_Source\PSoC4/BTN_ISR.c **** *
  44:Generated_Source\PSoC4/BTN_ISR.c **** * Summary:
  45:Generated_Source\PSoC4/BTN_ISR.c **** *  Set up the interrupt and enable it. This function disables the interrupt, 
  46:Generated_Source\PSoC4/BTN_ISR.c **** *  sets the default interrupt vector, sets the priority from the value in the
  47:Generated_Source\PSoC4/BTN_ISR.c **** *  Design Wide Resources Interrupt Editor, then enables the interrupt to the 
  48:Generated_Source\PSoC4/BTN_ISR.c **** *  interrupt controller.
  49:Generated_Source\PSoC4/BTN_ISR.c **** *
  50:Generated_Source\PSoC4/BTN_ISR.c **** * Parameters:  
  51:Generated_Source\PSoC4/BTN_ISR.c **** *   None
  52:Generated_Source\PSoC4/BTN_ISR.c **** *
  53:Generated_Source\PSoC4/BTN_ISR.c **** * Return:
  54:Generated_Source\PSoC4/BTN_ISR.c **** *   None
  55:Generated_Source\PSoC4/BTN_ISR.c **** *
  56:Generated_Source\PSoC4/BTN_ISR.c **** *******************************************************************************/
  57:Generated_Source\PSoC4/BTN_ISR.c **** void BTN_ISR_Start(void)
  58:Generated_Source\PSoC4/BTN_ISR.c **** {
  59:Generated_Source\PSoC4/BTN_ISR.c ****     /* For all we know the interrupt is active. */
  60:Generated_Source\PSoC4/BTN_ISR.c ****     BTN_ISR_Disable();
  61:Generated_Source\PSoC4/BTN_ISR.c **** 
  62:Generated_Source\PSoC4/BTN_ISR.c ****     /* Set the ISR to point to the BTN_ISR Interrupt. */
  63:Generated_Source\PSoC4/BTN_ISR.c ****     BTN_ISR_SetVector(&BTN_ISR_Interrupt);
  64:Generated_Source\PSoC4/BTN_ISR.c **** 
  65:Generated_Source\PSoC4/BTN_ISR.c ****     /* Set the priority. */
  66:Generated_Source\PSoC4/BTN_ISR.c ****     BTN_ISR_SetPriority((uint8)BTN_ISR_INTC_PRIOR_NUMBER);
  67:Generated_Source\PSoC4/BTN_ISR.c **** 
  68:Generated_Source\PSoC4/BTN_ISR.c ****     /* Enable it. */
  69:Generated_Source\PSoC4/BTN_ISR.c ****     BTN_ISR_Enable();
  70:Generated_Source\PSoC4/BTN_ISR.c **** }
  71:Generated_Source\PSoC4/BTN_ISR.c **** 
  72:Generated_Source\PSoC4/BTN_ISR.c **** 
  73:Generated_Source\PSoC4/BTN_ISR.c **** /*******************************************************************************
  74:Generated_Source\PSoC4/BTN_ISR.c **** * Function Name: BTN_ISR_StartEx
  75:Generated_Source\PSoC4/BTN_ISR.c **** ********************************************************************************
  76:Generated_Source\PSoC4/BTN_ISR.c **** *
  77:Generated_Source\PSoC4/BTN_ISR.c **** * Summary:
  78:Generated_Source\PSoC4/BTN_ISR.c **** *  Sets up the interrupt and enables it. This function disables the interrupt,
  79:Generated_Source\PSoC4/BTN_ISR.c **** *  sets the interrupt vector based on the address passed in, sets the priority 
  80:Generated_Source\PSoC4/BTN_ISR.c **** *  from the value in the Design Wide Resources Interrupt Editor, then enables 
  81:Generated_Source\PSoC4/BTN_ISR.c **** *  the interrupt to the interrupt controller.
  82:Generated_Source\PSoC4/BTN_ISR.c **** *  
  83:Generated_Source\PSoC4/BTN_ISR.c **** *  When defining ISR functions, the CY_ISR and CY_ISR_PROTO macros should be 
  84:Generated_Source\PSoC4/BTN_ISR.c **** *  used to provide consistent definition across compilers:
  85:Generated_Source\PSoC4/BTN_ISR.c **** *  
  86:Generated_Source\PSoC4/BTN_ISR.c **** *  Function definition example:
  87:Generated_Source\PSoC4/BTN_ISR.c **** *   CY_ISR(MyISR)
ARM GAS  C:\Users\LEOTEJ~1\AppData\Local\Temp\ccjaJImE.s 			page 3


  88:Generated_Source\PSoC4/BTN_ISR.c **** *   {
  89:Generated_Source\PSoC4/BTN_ISR.c **** *   }
  90:Generated_Source\PSoC4/BTN_ISR.c **** *   Function prototype example:
  91:Generated_Source\PSoC4/BTN_ISR.c **** *   CY_ISR_PROTO(MyISR);
  92:Generated_Source\PSoC4/BTN_ISR.c **** *
  93:Generated_Source\PSoC4/BTN_ISR.c **** * Parameters:  
  94:Generated_Source\PSoC4/BTN_ISR.c **** *   address: Address of the ISR to set in the interrupt vector table.
  95:Generated_Source\PSoC4/BTN_ISR.c **** *
  96:Generated_Source\PSoC4/BTN_ISR.c **** * Return:
  97:Generated_Source\PSoC4/BTN_ISR.c **** *   None
  98:Generated_Source\PSoC4/BTN_ISR.c **** *
  99:Generated_Source\PSoC4/BTN_ISR.c **** *******************************************************************************/
 100:Generated_Source\PSoC4/BTN_ISR.c **** void BTN_ISR_StartEx(cyisraddress address)
 101:Generated_Source\PSoC4/BTN_ISR.c **** {
 102:Generated_Source\PSoC4/BTN_ISR.c ****     /* For all we know the interrupt is active. */
 103:Generated_Source\PSoC4/BTN_ISR.c ****     BTN_ISR_Disable();
 104:Generated_Source\PSoC4/BTN_ISR.c **** 
 105:Generated_Source\PSoC4/BTN_ISR.c ****     /* Set the ISR to point to the BTN_ISR Interrupt. */
 106:Generated_Source\PSoC4/BTN_ISR.c ****     BTN_ISR_SetVector(address);
 107:Generated_Source\PSoC4/BTN_ISR.c **** 
 108:Generated_Source\PSoC4/BTN_ISR.c ****     /* Set the priority. */
 109:Generated_Source\PSoC4/BTN_ISR.c ****     BTN_ISR_SetPriority((uint8)BTN_ISR_INTC_PRIOR_NUMBER);
 110:Generated_Source\PSoC4/BTN_ISR.c **** 
 111:Generated_Source\PSoC4/BTN_ISR.c ****     /* Enable it. */
 112:Generated_Source\PSoC4/BTN_ISR.c ****     BTN_ISR_Enable();
 113:Generated_Source\PSoC4/BTN_ISR.c **** }
 114:Generated_Source\PSoC4/BTN_ISR.c **** 
 115:Generated_Source\PSoC4/BTN_ISR.c **** 
 116:Generated_Source\PSoC4/BTN_ISR.c **** /*******************************************************************************
 117:Generated_Source\PSoC4/BTN_ISR.c **** * Function Name: BTN_ISR_Stop
 118:Generated_Source\PSoC4/BTN_ISR.c **** ********************************************************************************
 119:Generated_Source\PSoC4/BTN_ISR.c **** *
 120:Generated_Source\PSoC4/BTN_ISR.c **** * Summary:
 121:Generated_Source\PSoC4/BTN_ISR.c **** *   Disables and removes the interrupt.
 122:Generated_Source\PSoC4/BTN_ISR.c **** *
 123:Generated_Source\PSoC4/BTN_ISR.c **** * Parameters:  
 124:Generated_Source\PSoC4/BTN_ISR.c **** *   None
 125:Generated_Source\PSoC4/BTN_ISR.c **** *
 126:Generated_Source\PSoC4/BTN_ISR.c **** * Return:
 127:Generated_Source\PSoC4/BTN_ISR.c **** *   None
 128:Generated_Source\PSoC4/BTN_ISR.c **** *
 129:Generated_Source\PSoC4/BTN_ISR.c **** *******************************************************************************/
 130:Generated_Source\PSoC4/BTN_ISR.c **** void BTN_ISR_Stop(void)
 131:Generated_Source\PSoC4/BTN_ISR.c **** {
 132:Generated_Source\PSoC4/BTN_ISR.c ****     /* Disable this interrupt. */
 133:Generated_Source\PSoC4/BTN_ISR.c ****     BTN_ISR_Disable();
 134:Generated_Source\PSoC4/BTN_ISR.c **** 
 135:Generated_Source\PSoC4/BTN_ISR.c ****     /* Set the ISR to point to the passive one. */
 136:Generated_Source\PSoC4/BTN_ISR.c ****     BTN_ISR_SetVector(&IntDefaultHandler);
 137:Generated_Source\PSoC4/BTN_ISR.c **** }
 138:Generated_Source\PSoC4/BTN_ISR.c **** 
 139:Generated_Source\PSoC4/BTN_ISR.c **** 
 140:Generated_Source\PSoC4/BTN_ISR.c **** /*******************************************************************************
 141:Generated_Source\PSoC4/BTN_ISR.c **** * Function Name: BTN_ISR_Interrupt
 142:Generated_Source\PSoC4/BTN_ISR.c **** ********************************************************************************
 143:Generated_Source\PSoC4/BTN_ISR.c **** *
 144:Generated_Source\PSoC4/BTN_ISR.c **** * Summary:
ARM GAS  C:\Users\LEOTEJ~1\AppData\Local\Temp\ccjaJImE.s 			page 4


 145:Generated_Source\PSoC4/BTN_ISR.c **** *   The default Interrupt Service Routine for BTN_ISR.
 146:Generated_Source\PSoC4/BTN_ISR.c **** *
 147:Generated_Source\PSoC4/BTN_ISR.c **** *   Add custom code between the START and END comments to keep the next version
 148:Generated_Source\PSoC4/BTN_ISR.c **** *   of this file from over-writing your code.
 149:Generated_Source\PSoC4/BTN_ISR.c **** *
 150:Generated_Source\PSoC4/BTN_ISR.c **** *   Note You may use either the default ISR by using this API, or you may define
 151:Generated_Source\PSoC4/BTN_ISR.c **** *   your own separate ISR through ISR_StartEx().
 152:Generated_Source\PSoC4/BTN_ISR.c **** *
 153:Generated_Source\PSoC4/BTN_ISR.c **** * Parameters:  
 154:Generated_Source\PSoC4/BTN_ISR.c **** *   None
 155:Generated_Source\PSoC4/BTN_ISR.c **** *
 156:Generated_Source\PSoC4/BTN_ISR.c **** * Return:
 157:Generated_Source\PSoC4/BTN_ISR.c **** *   None
 158:Generated_Source\PSoC4/BTN_ISR.c **** *
 159:Generated_Source\PSoC4/BTN_ISR.c **** *******************************************************************************/
 160:Generated_Source\PSoC4/BTN_ISR.c **** CY_ISR(BTN_ISR_Interrupt)
 161:Generated_Source\PSoC4/BTN_ISR.c **** {
  28              		.loc 1 161 0
  29              		.cfi_startproc
  30              		@ args = 0, pretend = 0, frame = 0
  31              		@ frame_needed = 0, uses_anonymous_args = 0
  32 0000 10B5     		push	{r4, lr}
  33              		.cfi_def_cfa_offset 8
  34              		.cfi_offset 4, -8
  35              		.cfi_offset 14, -4
 162:Generated_Source\PSoC4/BTN_ISR.c ****     #ifdef BTN_ISR_INTERRUPT_INTERRUPT_CALLBACK
 163:Generated_Source\PSoC4/BTN_ISR.c ****         BTN_ISR_Interrupt_InterruptCallback();
 164:Generated_Source\PSoC4/BTN_ISR.c ****     #endif /* BTN_ISR_INTERRUPT_INTERRUPT_CALLBACK */ 
 165:Generated_Source\PSoC4/BTN_ISR.c **** 
 166:Generated_Source\PSoC4/BTN_ISR.c ****     /*  Place your Interrupt code here. */
 167:Generated_Source\PSoC4/BTN_ISR.c ****     /* `#START BTN_ISR_Interrupt` */
 168:Generated_Source\PSoC4/BTN_ISR.c ****     // Small delay for debouncing
 169:Generated_Source\PSoC4/BTN_ISR.c ****      CyDelay(20);
  36              		.loc 1 169 0
  37 0002 1420     		movs	r0, #20
  38 0004 FFF7FEFF 		bl	CyDelay
  39              	.LVL0:
 170:Generated_Source\PSoC4/BTN_ISR.c ****      // Clear interrupt
 171:Generated_Source\PSoC4/BTN_ISR.c ****      BTN_ClearInterrupt();
  40              		.loc 1 171 0
  41 0008 FFF7FEFF 		bl	BTN_ClearInterrupt
  42              	.LVL1:
 172:Generated_Source\PSoC4/BTN_ISR.c ****      
 173:Generated_Source\PSoC4/BTN_ISR.c ****      // If button is still 1 after delay, set flag, if not, don't
 174:Generated_Source\PSoC4/BTN_ISR.c ****      if(BTN_Read() == 0){
  43              		.loc 1 174 0
  44 000c FFF7FEFF 		bl	BTN_Read
  45              	.LVL2:
  46 0010 0028     		cmp	r0, #0
  47 0012 03D1     		bne	.L2
 175:Generated_Source\PSoC4/BTN_ISR.c ****      buttonFlag = 1;
  48              		.loc 1 175 0
  49 0014 0122     		movs	r2, #1
  50 0016 034B     		ldr	r3, .L4
  51 0018 1A60     		str	r2, [r3]
  52 001a 02E0     		b	.L1
  53              	.L2:
ARM GAS  C:\Users\LEOTEJ~1\AppData\Local\Temp\ccjaJImE.s 			page 5


 176:Generated_Source\PSoC4/BTN_ISR.c ****      } else {
 177:Generated_Source\PSoC4/BTN_ISR.c ****      buttonFlag = 0;
  54              		.loc 1 177 0
  55 001c 0022     		movs	r2, #0
  56 001e 014B     		ldr	r3, .L4
  57 0020 1A60     		str	r2, [r3]
  58              	.L1:
 178:Generated_Source\PSoC4/BTN_ISR.c ****      }
 179:Generated_Source\PSoC4/BTN_ISR.c ****     /* `#END` */
 180:Generated_Source\PSoC4/BTN_ISR.c **** }
  59              		.loc 1 180 0
  60              		@ sp needed
  61 0022 10BD     		pop	{r4, pc}
  62              	.L5:
  63              		.align	2
  64              	.L4:
  65 0024 00000000 		.word	buttonFlag
  66              		.cfi_endproc
  67              	.LFE4:
  68              		.size	BTN_ISR_Interrupt, .-BTN_ISR_Interrupt
  69              		.section	.text.BTN_ISR_SetVector,"ax",%progbits
  70              		.align	2
  71              		.global	BTN_ISR_SetVector
  72              		.code	16
  73              		.thumb_func
  74              		.type	BTN_ISR_SetVector, %function
  75              	BTN_ISR_SetVector:
  76              	.LFB5:
 181:Generated_Source\PSoC4/BTN_ISR.c **** 
 182:Generated_Source\PSoC4/BTN_ISR.c **** 
 183:Generated_Source\PSoC4/BTN_ISR.c **** /*******************************************************************************
 184:Generated_Source\PSoC4/BTN_ISR.c **** * Function Name: BTN_ISR_SetVector
 185:Generated_Source\PSoC4/BTN_ISR.c **** ********************************************************************************
 186:Generated_Source\PSoC4/BTN_ISR.c **** *
 187:Generated_Source\PSoC4/BTN_ISR.c **** * Summary:
 188:Generated_Source\PSoC4/BTN_ISR.c **** *   Change the ISR vector for the Interrupt. Note calling BTN_ISR_Start
 189:Generated_Source\PSoC4/BTN_ISR.c **** *   will override any effect this method would have had. To set the vector 
 190:Generated_Source\PSoC4/BTN_ISR.c **** *   before the component has been started use BTN_ISR_StartEx instead.
 191:Generated_Source\PSoC4/BTN_ISR.c **** * 
 192:Generated_Source\PSoC4/BTN_ISR.c **** *   When defining ISR functions, the CY_ISR and CY_ISR_PROTO macros should be 
 193:Generated_Source\PSoC4/BTN_ISR.c **** *   used to provide consistent definition across compilers:
 194:Generated_Source\PSoC4/BTN_ISR.c **** *
 195:Generated_Source\PSoC4/BTN_ISR.c **** *   Function definition example:
 196:Generated_Source\PSoC4/BTN_ISR.c **** *   CY_ISR(MyISR)
 197:Generated_Source\PSoC4/BTN_ISR.c **** *   {
 198:Generated_Source\PSoC4/BTN_ISR.c **** *   }
 199:Generated_Source\PSoC4/BTN_ISR.c **** *
 200:Generated_Source\PSoC4/BTN_ISR.c **** *   Function prototype example:
 201:Generated_Source\PSoC4/BTN_ISR.c **** *     CY_ISR_PROTO(MyISR);
 202:Generated_Source\PSoC4/BTN_ISR.c **** *
 203:Generated_Source\PSoC4/BTN_ISR.c **** * Parameters:
 204:Generated_Source\PSoC4/BTN_ISR.c **** *   address: Address of the ISR to set in the interrupt vector table.
 205:Generated_Source\PSoC4/BTN_ISR.c **** *
 206:Generated_Source\PSoC4/BTN_ISR.c **** * Return:
 207:Generated_Source\PSoC4/BTN_ISR.c **** *   None
 208:Generated_Source\PSoC4/BTN_ISR.c **** *
 209:Generated_Source\PSoC4/BTN_ISR.c **** *******************************************************************************/
ARM GAS  C:\Users\LEOTEJ~1\AppData\Local\Temp\ccjaJImE.s 			page 6


 210:Generated_Source\PSoC4/BTN_ISR.c **** void BTN_ISR_SetVector(cyisraddress address)
 211:Generated_Source\PSoC4/BTN_ISR.c **** {
  77              		.loc 1 211 0
  78              		.cfi_startproc
  79              		@ args = 0, pretend = 0, frame = 0
  80              		@ frame_needed = 0, uses_anonymous_args = 0
  81              		@ link register save eliminated.
  82              	.LVL3:
 212:Generated_Source\PSoC4/BTN_ISR.c ****     CyRamVectors[CYINT_IRQ_BASE + BTN_ISR__INTC_NUMBER] = address;
  83              		.loc 1 212 0
  84 0000 014B     		ldr	r3, .L7
  85 0002 1864     		str	r0, [r3, #64]
 213:Generated_Source\PSoC4/BTN_ISR.c **** }
  86              		.loc 1 213 0
  87              		@ sp needed
  88 0004 7047     		bx	lr
  89              	.L8:
  90 0006 C046     		.align	2
  91              	.L7:
  92 0008 00000000 		.word	CyRamVectors
  93              		.cfi_endproc
  94              	.LFE5:
  95              		.size	BTN_ISR_SetVector, .-BTN_ISR_SetVector
  96              		.section	.text.BTN_ISR_GetVector,"ax",%progbits
  97              		.align	2
  98              		.global	BTN_ISR_GetVector
  99              		.code	16
 100              		.thumb_func
 101              		.type	BTN_ISR_GetVector, %function
 102              	BTN_ISR_GetVector:
 103              	.LFB6:
 214:Generated_Source\PSoC4/BTN_ISR.c **** 
 215:Generated_Source\PSoC4/BTN_ISR.c **** 
 216:Generated_Source\PSoC4/BTN_ISR.c **** /*******************************************************************************
 217:Generated_Source\PSoC4/BTN_ISR.c **** * Function Name: BTN_ISR_GetVector
 218:Generated_Source\PSoC4/BTN_ISR.c **** ********************************************************************************
 219:Generated_Source\PSoC4/BTN_ISR.c **** *
 220:Generated_Source\PSoC4/BTN_ISR.c **** * Summary:
 221:Generated_Source\PSoC4/BTN_ISR.c **** *   Gets the "address" of the current ISR vector for the Interrupt.
 222:Generated_Source\PSoC4/BTN_ISR.c **** *
 223:Generated_Source\PSoC4/BTN_ISR.c **** * Parameters:
 224:Generated_Source\PSoC4/BTN_ISR.c **** *   None
 225:Generated_Source\PSoC4/BTN_ISR.c **** *
 226:Generated_Source\PSoC4/BTN_ISR.c **** * Return:
 227:Generated_Source\PSoC4/BTN_ISR.c **** *   Address of the ISR in the interrupt vector table.
 228:Generated_Source\PSoC4/BTN_ISR.c **** *
 229:Generated_Source\PSoC4/BTN_ISR.c **** *******************************************************************************/
 230:Generated_Source\PSoC4/BTN_ISR.c **** cyisraddress BTN_ISR_GetVector(void)
 231:Generated_Source\PSoC4/BTN_ISR.c **** {
 104              		.loc 1 231 0
 105              		.cfi_startproc
 106              		@ args = 0, pretend = 0, frame = 0
 107              		@ frame_needed = 0, uses_anonymous_args = 0
 108              		@ link register save eliminated.
 232:Generated_Source\PSoC4/BTN_ISR.c ****     return CyRamVectors[CYINT_IRQ_BASE + BTN_ISR__INTC_NUMBER];
 109              		.loc 1 232 0
 110 0000 014B     		ldr	r3, .L10
ARM GAS  C:\Users\LEOTEJ~1\AppData\Local\Temp\ccjaJImE.s 			page 7


 111 0002 186C     		ldr	r0, [r3, #64]
 233:Generated_Source\PSoC4/BTN_ISR.c **** }
 112              		.loc 1 233 0
 113              		@ sp needed
 114 0004 7047     		bx	lr
 115              	.L11:
 116 0006 C046     		.align	2
 117              	.L10:
 118 0008 00000000 		.word	CyRamVectors
 119              		.cfi_endproc
 120              	.LFE6:
 121              		.size	BTN_ISR_GetVector, .-BTN_ISR_GetVector
 122              		.section	.text.BTN_ISR_SetPriority,"ax",%progbits
 123              		.align	2
 124              		.global	BTN_ISR_SetPriority
 125              		.code	16
 126              		.thumb_func
 127              		.type	BTN_ISR_SetPriority, %function
 128              	BTN_ISR_SetPriority:
 129              	.LFB7:
 234:Generated_Source\PSoC4/BTN_ISR.c **** 
 235:Generated_Source\PSoC4/BTN_ISR.c **** 
 236:Generated_Source\PSoC4/BTN_ISR.c **** /*******************************************************************************
 237:Generated_Source\PSoC4/BTN_ISR.c **** * Function Name: BTN_ISR_SetPriority
 238:Generated_Source\PSoC4/BTN_ISR.c **** ********************************************************************************
 239:Generated_Source\PSoC4/BTN_ISR.c **** *
 240:Generated_Source\PSoC4/BTN_ISR.c **** * Summary:
 241:Generated_Source\PSoC4/BTN_ISR.c **** *   Sets the Priority of the Interrupt. 
 242:Generated_Source\PSoC4/BTN_ISR.c **** *
 243:Generated_Source\PSoC4/BTN_ISR.c **** *   Note calling BTN_ISR_Start or BTN_ISR_StartEx will 
 244:Generated_Source\PSoC4/BTN_ISR.c **** *   override any effect this API would have had. This API should only be called
 245:Generated_Source\PSoC4/BTN_ISR.c **** *   after BTN_ISR_Start or BTN_ISR_StartEx has been called. 
 246:Generated_Source\PSoC4/BTN_ISR.c **** *   To set the initial priority for the component, use the Design-Wide Resources
 247:Generated_Source\PSoC4/BTN_ISR.c **** *   Interrupt Editor.
 248:Generated_Source\PSoC4/BTN_ISR.c **** *
 249:Generated_Source\PSoC4/BTN_ISR.c **** *   Note This API has no effect on Non-maskable interrupt NMI).
 250:Generated_Source\PSoC4/BTN_ISR.c **** *
 251:Generated_Source\PSoC4/BTN_ISR.c **** * Parameters:
 252:Generated_Source\PSoC4/BTN_ISR.c **** *   priority: Priority of the interrupt, 0 being the highest priority
 253:Generated_Source\PSoC4/BTN_ISR.c **** *             PSoC 3 and PSoC 5LP: Priority is from 0 to 7.
 254:Generated_Source\PSoC4/BTN_ISR.c **** *             PSoC 4: Priority is from 0 to 3.
 255:Generated_Source\PSoC4/BTN_ISR.c **** *
 256:Generated_Source\PSoC4/BTN_ISR.c **** * Return:
 257:Generated_Source\PSoC4/BTN_ISR.c **** *   None
 258:Generated_Source\PSoC4/BTN_ISR.c **** *
 259:Generated_Source\PSoC4/BTN_ISR.c **** *******************************************************************************/
 260:Generated_Source\PSoC4/BTN_ISR.c **** void BTN_ISR_SetPriority(uint8 priority)
 261:Generated_Source\PSoC4/BTN_ISR.c **** {
 130              		.loc 1 261 0
 131              		.cfi_startproc
 132              		@ args = 0, pretend = 0, frame = 0
 133              		@ frame_needed = 0, uses_anonymous_args = 0
 134              	.LVL4:
 135 0000 10B5     		push	{r4, lr}
 136              		.cfi_def_cfa_offset 8
 137              		.cfi_offset 4, -8
 138              		.cfi_offset 14, -4
ARM GAS  C:\Users\LEOTEJ~1\AppData\Local\Temp\ccjaJImE.s 			page 8


 139 0002 0400     		movs	r4, r0
 140              	.LVL5:
 262:Generated_Source\PSoC4/BTN_ISR.c **** 	uint8 interruptState;
 263:Generated_Source\PSoC4/BTN_ISR.c ****     uint32 priorityOffset = ((BTN_ISR__INTC_NUMBER % 4u) * 8u) + 6u;
 264:Generated_Source\PSoC4/BTN_ISR.c ****     
 265:Generated_Source\PSoC4/BTN_ISR.c **** 	interruptState = CyEnterCriticalSection();
 141              		.loc 1 265 0
 142 0004 FFF7FEFF 		bl	CyEnterCriticalSection
 143              	.LVL6:
 266:Generated_Source\PSoC4/BTN_ISR.c ****     *BTN_ISR_INTC_PRIOR = (*BTN_ISR_INTC_PRIOR & (uint32)(~(uint32)BTN_ISR__INTC_PRIOR_MASK)) |
 144              		.loc 1 266 0
 145 0008 044A     		ldr	r2, .L13
 146 000a 1368     		ldr	r3, [r2]
 147 000c C021     		movs	r1, #192
 148 000e 8B43     		bics	r3, r1
 267:Generated_Source\PSoC4/BTN_ISR.c ****                                     ((uint32)priority << priorityOffset);
 149              		.loc 1 267 0
 150 0010 A401     		lsls	r4, r4, #6
 266:Generated_Source\PSoC4/BTN_ISR.c ****     *BTN_ISR_INTC_PRIOR = (*BTN_ISR_INTC_PRIOR & (uint32)(~(uint32)BTN_ISR__INTC_PRIOR_MASK)) |
 151              		.loc 1 266 0
 152 0012 1C43     		orrs	r4, r3
 153 0014 1460     		str	r4, [r2]
 268:Generated_Source\PSoC4/BTN_ISR.c **** 	CyExitCriticalSection(interruptState);
 154              		.loc 1 268 0
 155 0016 FFF7FEFF 		bl	CyExitCriticalSection
 156              	.LVL7:
 269:Generated_Source\PSoC4/BTN_ISR.c **** }
 157              		.loc 1 269 0
 158              		@ sp needed
 159 001a 10BD     		pop	{r4, pc}
 160              	.L14:
 161              		.align	2
 162              	.L13:
 163 001c 00E400E0 		.word	-536812544
 164              		.cfi_endproc
 165              	.LFE7:
 166              		.size	BTN_ISR_SetPriority, .-BTN_ISR_SetPriority
 167              		.section	.text.BTN_ISR_GetPriority,"ax",%progbits
 168              		.align	2
 169              		.global	BTN_ISR_GetPriority
 170              		.code	16
 171              		.thumb_func
 172              		.type	BTN_ISR_GetPriority, %function
 173              	BTN_ISR_GetPriority:
 174              	.LFB8:
 270:Generated_Source\PSoC4/BTN_ISR.c **** 
 271:Generated_Source\PSoC4/BTN_ISR.c **** 
 272:Generated_Source\PSoC4/BTN_ISR.c **** /*******************************************************************************
 273:Generated_Source\PSoC4/BTN_ISR.c **** * Function Name: BTN_ISR_GetPriority
 274:Generated_Source\PSoC4/BTN_ISR.c **** ********************************************************************************
 275:Generated_Source\PSoC4/BTN_ISR.c **** *
 276:Generated_Source\PSoC4/BTN_ISR.c **** * Summary:
 277:Generated_Source\PSoC4/BTN_ISR.c **** *   Gets the Priority of the Interrupt.
 278:Generated_Source\PSoC4/BTN_ISR.c **** *
 279:Generated_Source\PSoC4/BTN_ISR.c **** * Parameters:
 280:Generated_Source\PSoC4/BTN_ISR.c **** *   None
 281:Generated_Source\PSoC4/BTN_ISR.c **** *
ARM GAS  C:\Users\LEOTEJ~1\AppData\Local\Temp\ccjaJImE.s 			page 9


 282:Generated_Source\PSoC4/BTN_ISR.c **** * Return:
 283:Generated_Source\PSoC4/BTN_ISR.c **** *   Priority of the interrupt, 0 being the highest priority
 284:Generated_Source\PSoC4/BTN_ISR.c **** *    PSoC 3 and PSoC 5LP: Priority is from 0 to 7.
 285:Generated_Source\PSoC4/BTN_ISR.c **** *    PSoC 4: Priority is from 0 to 3.
 286:Generated_Source\PSoC4/BTN_ISR.c **** *
 287:Generated_Source\PSoC4/BTN_ISR.c **** *******************************************************************************/
 288:Generated_Source\PSoC4/BTN_ISR.c **** uint8 BTN_ISR_GetPriority(void)
 289:Generated_Source\PSoC4/BTN_ISR.c **** {
 175              		.loc 1 289 0
 176              		.cfi_startproc
 177              		@ args = 0, pretend = 0, frame = 0
 178              		@ frame_needed = 0, uses_anonymous_args = 0
 179              		@ link register save eliminated.
 180              	.LVL8:
 290:Generated_Source\PSoC4/BTN_ISR.c ****     uint32 priority;
 291:Generated_Source\PSoC4/BTN_ISR.c **** 	uint32 priorityOffset = ((BTN_ISR__INTC_NUMBER % 4u) * 8u) + 6u;
 292:Generated_Source\PSoC4/BTN_ISR.c **** 
 293:Generated_Source\PSoC4/BTN_ISR.c ****     priority = (*BTN_ISR_INTC_PRIOR & BTN_ISR__INTC_PRIOR_MASK) >> priorityOffset;
 181              		.loc 1 293 0
 182 0000 024B     		ldr	r3, .L16
 183 0002 1868     		ldr	r0, [r3]
 184 0004 8009     		lsrs	r0, r0, #6
 185              	.LVL9:
 294:Generated_Source\PSoC4/BTN_ISR.c **** 
 295:Generated_Source\PSoC4/BTN_ISR.c ****     return (uint8)priority;
 186              		.loc 1 295 0
 187 0006 0323     		movs	r3, #3
 188 0008 1840     		ands	r0, r3
 189              	.LVL10:
 296:Generated_Source\PSoC4/BTN_ISR.c **** }
 190              		.loc 1 296 0
 191              		@ sp needed
 192 000a 7047     		bx	lr
 193              	.L17:
 194              		.align	2
 195              	.L16:
 196 000c 00E400E0 		.word	-536812544
 197              		.cfi_endproc
 198              	.LFE8:
 199              		.size	BTN_ISR_GetPriority, .-BTN_ISR_GetPriority
 200              		.section	.text.BTN_ISR_Enable,"ax",%progbits
 201              		.align	2
 202              		.global	BTN_ISR_Enable
 203              		.code	16
 204              		.thumb_func
 205              		.type	BTN_ISR_Enable, %function
 206              	BTN_ISR_Enable:
 207              	.LFB9:
 297:Generated_Source\PSoC4/BTN_ISR.c **** 
 298:Generated_Source\PSoC4/BTN_ISR.c **** 
 299:Generated_Source\PSoC4/BTN_ISR.c **** /*******************************************************************************
 300:Generated_Source\PSoC4/BTN_ISR.c **** * Function Name: BTN_ISR_Enable
 301:Generated_Source\PSoC4/BTN_ISR.c **** ********************************************************************************
 302:Generated_Source\PSoC4/BTN_ISR.c **** *
 303:Generated_Source\PSoC4/BTN_ISR.c **** * Summary:
 304:Generated_Source\PSoC4/BTN_ISR.c **** *   Enables the interrupt to the interrupt controller. Do not call this function
 305:Generated_Source\PSoC4/BTN_ISR.c **** *   unless ISR_Start() has been called or the functionality of the ISR_Start() 
ARM GAS  C:\Users\LEOTEJ~1\AppData\Local\Temp\ccjaJImE.s 			page 10


 306:Generated_Source\PSoC4/BTN_ISR.c **** *   function, which sets the vector and the priority, has been called.
 307:Generated_Source\PSoC4/BTN_ISR.c **** *
 308:Generated_Source\PSoC4/BTN_ISR.c **** * Parameters:
 309:Generated_Source\PSoC4/BTN_ISR.c **** *   None
 310:Generated_Source\PSoC4/BTN_ISR.c **** *
 311:Generated_Source\PSoC4/BTN_ISR.c **** * Return:
 312:Generated_Source\PSoC4/BTN_ISR.c **** *   None
 313:Generated_Source\PSoC4/BTN_ISR.c **** *
 314:Generated_Source\PSoC4/BTN_ISR.c **** *******************************************************************************/
 315:Generated_Source\PSoC4/BTN_ISR.c **** void BTN_ISR_Enable(void)
 316:Generated_Source\PSoC4/BTN_ISR.c **** {
 208              		.loc 1 316 0
 209              		.cfi_startproc
 210              		@ args = 0, pretend = 0, frame = 0
 211              		@ frame_needed = 0, uses_anonymous_args = 0
 212              		@ link register save eliminated.
 317:Generated_Source\PSoC4/BTN_ISR.c ****     /* Enable the general interrupt. */
 318:Generated_Source\PSoC4/BTN_ISR.c ****     *BTN_ISR_INTC_SET_EN = BTN_ISR__INTC_MASK;
 213              		.loc 1 318 0
 214 0000 0122     		movs	r2, #1
 215 0002 014B     		ldr	r3, .L19
 216 0004 1A60     		str	r2, [r3]
 319:Generated_Source\PSoC4/BTN_ISR.c **** }
 217              		.loc 1 319 0
 218              		@ sp needed
 219 0006 7047     		bx	lr
 220              	.L20:
 221              		.align	2
 222              	.L19:
 223 0008 00E100E0 		.word	-536813312
 224              		.cfi_endproc
 225              	.LFE9:
 226              		.size	BTN_ISR_Enable, .-BTN_ISR_Enable
 227              		.section	.text.BTN_ISR_GetState,"ax",%progbits
 228              		.align	2
 229              		.global	BTN_ISR_GetState
 230              		.code	16
 231              		.thumb_func
 232              		.type	BTN_ISR_GetState, %function
 233              	BTN_ISR_GetState:
 234              	.LFB10:
 320:Generated_Source\PSoC4/BTN_ISR.c **** 
 321:Generated_Source\PSoC4/BTN_ISR.c **** 
 322:Generated_Source\PSoC4/BTN_ISR.c **** /*******************************************************************************
 323:Generated_Source\PSoC4/BTN_ISR.c **** * Function Name: BTN_ISR_GetState
 324:Generated_Source\PSoC4/BTN_ISR.c **** ********************************************************************************
 325:Generated_Source\PSoC4/BTN_ISR.c **** *
 326:Generated_Source\PSoC4/BTN_ISR.c **** * Summary:
 327:Generated_Source\PSoC4/BTN_ISR.c **** *   Gets the state (enabled, disabled) of the Interrupt.
 328:Generated_Source\PSoC4/BTN_ISR.c **** *
 329:Generated_Source\PSoC4/BTN_ISR.c **** * Parameters:
 330:Generated_Source\PSoC4/BTN_ISR.c **** *   None
 331:Generated_Source\PSoC4/BTN_ISR.c **** *
 332:Generated_Source\PSoC4/BTN_ISR.c **** * Return:
 333:Generated_Source\PSoC4/BTN_ISR.c **** *   1 if enabled, 0 if disabled.
 334:Generated_Source\PSoC4/BTN_ISR.c **** *
 335:Generated_Source\PSoC4/BTN_ISR.c **** *******************************************************************************/
ARM GAS  C:\Users\LEOTEJ~1\AppData\Local\Temp\ccjaJImE.s 			page 11


 336:Generated_Source\PSoC4/BTN_ISR.c **** uint8 BTN_ISR_GetState(void)
 337:Generated_Source\PSoC4/BTN_ISR.c **** {
 235              		.loc 1 337 0
 236              		.cfi_startproc
 237              		@ args = 0, pretend = 0, frame = 0
 238              		@ frame_needed = 0, uses_anonymous_args = 0
 239              		@ link register save eliminated.
 338:Generated_Source\PSoC4/BTN_ISR.c ****     /* Get the state of the general interrupt. */
 339:Generated_Source\PSoC4/BTN_ISR.c ****     return ((*BTN_ISR_INTC_SET_EN & (uint32)BTN_ISR__INTC_MASK) != 0u) ? 1u:0u;
 240              		.loc 1 339 0
 241 0000 024B     		ldr	r3, .L22
 242 0002 1B68     		ldr	r3, [r3]
 243 0004 0120     		movs	r0, #1
 244 0006 1840     		ands	r0, r3
 340:Generated_Source\PSoC4/BTN_ISR.c **** }
 245              		.loc 1 340 0
 246              		@ sp needed
 247 0008 7047     		bx	lr
 248              	.L23:
 249 000a C046     		.align	2
 250              	.L22:
 251 000c 00E100E0 		.word	-536813312
 252              		.cfi_endproc
 253              	.LFE10:
 254              		.size	BTN_ISR_GetState, .-BTN_ISR_GetState
 255              		.section	.text.BTN_ISR_Disable,"ax",%progbits
 256              		.align	2
 257              		.global	BTN_ISR_Disable
 258              		.code	16
 259              		.thumb_func
 260              		.type	BTN_ISR_Disable, %function
 261              	BTN_ISR_Disable:
 262              	.LFB11:
 341:Generated_Source\PSoC4/BTN_ISR.c **** 
 342:Generated_Source\PSoC4/BTN_ISR.c **** 
 343:Generated_Source\PSoC4/BTN_ISR.c **** /*******************************************************************************
 344:Generated_Source\PSoC4/BTN_ISR.c **** * Function Name: BTN_ISR_Disable
 345:Generated_Source\PSoC4/BTN_ISR.c **** ********************************************************************************
 346:Generated_Source\PSoC4/BTN_ISR.c **** *
 347:Generated_Source\PSoC4/BTN_ISR.c **** * Summary:
 348:Generated_Source\PSoC4/BTN_ISR.c **** *   Disables the Interrupt in the interrupt controller.
 349:Generated_Source\PSoC4/BTN_ISR.c **** *
 350:Generated_Source\PSoC4/BTN_ISR.c **** * Parameters:
 351:Generated_Source\PSoC4/BTN_ISR.c **** *   None
 352:Generated_Source\PSoC4/BTN_ISR.c **** *
 353:Generated_Source\PSoC4/BTN_ISR.c **** * Return:
 354:Generated_Source\PSoC4/BTN_ISR.c **** *   None
 355:Generated_Source\PSoC4/BTN_ISR.c **** *
 356:Generated_Source\PSoC4/BTN_ISR.c **** *******************************************************************************/
 357:Generated_Source\PSoC4/BTN_ISR.c **** void BTN_ISR_Disable(void)
 358:Generated_Source\PSoC4/BTN_ISR.c **** {
 263              		.loc 1 358 0
 264              		.cfi_startproc
 265              		@ args = 0, pretend = 0, frame = 0
 266              		@ frame_needed = 0, uses_anonymous_args = 0
 267              		@ link register save eliminated.
 359:Generated_Source\PSoC4/BTN_ISR.c ****     /* Disable the general interrupt. */
ARM GAS  C:\Users\LEOTEJ~1\AppData\Local\Temp\ccjaJImE.s 			page 12


 360:Generated_Source\PSoC4/BTN_ISR.c ****     *BTN_ISR_INTC_CLR_EN = BTN_ISR__INTC_MASK;
 268              		.loc 1 360 0
 269 0000 0122     		movs	r2, #1
 270 0002 014B     		ldr	r3, .L25
 271 0004 1A60     		str	r2, [r3]
 361:Generated_Source\PSoC4/BTN_ISR.c **** }
 272              		.loc 1 361 0
 273              		@ sp needed
 274 0006 7047     		bx	lr
 275              	.L26:
 276              		.align	2
 277              	.L25:
 278 0008 80E100E0 		.word	-536813184
 279              		.cfi_endproc
 280              	.LFE11:
 281              		.size	BTN_ISR_Disable, .-BTN_ISR_Disable
 282              		.section	.text.BTN_ISR_Start,"ax",%progbits
 283              		.align	2
 284              		.global	BTN_ISR_Start
 285              		.code	16
 286              		.thumb_func
 287              		.type	BTN_ISR_Start, %function
 288              	BTN_ISR_Start:
 289              	.LFB1:
  58:Generated_Source\PSoC4/BTN_ISR.c ****     /* For all we know the interrupt is active. */
 290              		.loc 1 58 0
 291              		.cfi_startproc
 292              		@ args = 0, pretend = 0, frame = 0
 293              		@ frame_needed = 0, uses_anonymous_args = 0
 294 0000 10B5     		push	{r4, lr}
 295              		.cfi_def_cfa_offset 8
 296              		.cfi_offset 4, -8
 297              		.cfi_offset 14, -4
  60:Generated_Source\PSoC4/BTN_ISR.c **** 
 298              		.loc 1 60 0
 299 0002 FFF7FEFF 		bl	BTN_ISR_Disable
 300              	.LVL11:
  63:Generated_Source\PSoC4/BTN_ISR.c **** 
 301              		.loc 1 63 0
 302 0006 0448     		ldr	r0, .L28
 303 0008 FFF7FEFF 		bl	BTN_ISR_SetVector
 304              	.LVL12:
  66:Generated_Source\PSoC4/BTN_ISR.c **** 
 305              		.loc 1 66 0
 306 000c 0320     		movs	r0, #3
 307 000e FFF7FEFF 		bl	BTN_ISR_SetPriority
 308              	.LVL13:
  69:Generated_Source\PSoC4/BTN_ISR.c **** }
 309              		.loc 1 69 0
 310 0012 FFF7FEFF 		bl	BTN_ISR_Enable
 311              	.LVL14:
  70:Generated_Source\PSoC4/BTN_ISR.c **** 
 312              		.loc 1 70 0
 313              		@ sp needed
 314 0016 10BD     		pop	{r4, pc}
 315              	.L29:
 316              		.align	2
ARM GAS  C:\Users\LEOTEJ~1\AppData\Local\Temp\ccjaJImE.s 			page 13


 317              	.L28:
 318 0018 00000000 		.word	BTN_ISR_Interrupt
 319              		.cfi_endproc
 320              	.LFE1:
 321              		.size	BTN_ISR_Start, .-BTN_ISR_Start
 322              		.section	.text.BTN_ISR_StartEx,"ax",%progbits
 323              		.align	2
 324              		.global	BTN_ISR_StartEx
 325              		.code	16
 326              		.thumb_func
 327              		.type	BTN_ISR_StartEx, %function
 328              	BTN_ISR_StartEx:
 329              	.LFB2:
 101:Generated_Source\PSoC4/BTN_ISR.c ****     /* For all we know the interrupt is active. */
 330              		.loc 1 101 0
 331              		.cfi_startproc
 332              		@ args = 0, pretend = 0, frame = 0
 333              		@ frame_needed = 0, uses_anonymous_args = 0
 334              	.LVL15:
 335 0000 10B5     		push	{r4, lr}
 336              		.cfi_def_cfa_offset 8
 337              		.cfi_offset 4, -8
 338              		.cfi_offset 14, -4
 339 0002 0400     		movs	r4, r0
 103:Generated_Source\PSoC4/BTN_ISR.c **** 
 340              		.loc 1 103 0
 341 0004 FFF7FEFF 		bl	BTN_ISR_Disable
 342              	.LVL16:
 106:Generated_Source\PSoC4/BTN_ISR.c **** 
 343              		.loc 1 106 0
 344 0008 2000     		movs	r0, r4
 345 000a FFF7FEFF 		bl	BTN_ISR_SetVector
 346              	.LVL17:
 109:Generated_Source\PSoC4/BTN_ISR.c **** 
 347              		.loc 1 109 0
 348 000e 0320     		movs	r0, #3
 349 0010 FFF7FEFF 		bl	BTN_ISR_SetPriority
 350              	.LVL18:
 112:Generated_Source\PSoC4/BTN_ISR.c **** }
 351              		.loc 1 112 0
 352 0014 FFF7FEFF 		bl	BTN_ISR_Enable
 353              	.LVL19:
 113:Generated_Source\PSoC4/BTN_ISR.c **** 
 354              		.loc 1 113 0
 355              		@ sp needed
 356              	.LVL20:
 357 0018 10BD     		pop	{r4, pc}
 358              		.cfi_endproc
 359              	.LFE2:
 360              		.size	BTN_ISR_StartEx, .-BTN_ISR_StartEx
 361 001a C046     		.section	.text.BTN_ISR_Stop,"ax",%progbits
 362              		.align	2
 363              		.global	BTN_ISR_Stop
 364              		.code	16
 365              		.thumb_func
 366              		.type	BTN_ISR_Stop, %function
 367              	BTN_ISR_Stop:
ARM GAS  C:\Users\LEOTEJ~1\AppData\Local\Temp\ccjaJImE.s 			page 14


 368              	.LFB3:
 131:Generated_Source\PSoC4/BTN_ISR.c ****     /* Disable this interrupt. */
 369              		.loc 1 131 0
 370              		.cfi_startproc
 371              		@ args = 0, pretend = 0, frame = 0
 372              		@ frame_needed = 0, uses_anonymous_args = 0
 373 0000 10B5     		push	{r4, lr}
 374              		.cfi_def_cfa_offset 8
 375              		.cfi_offset 4, -8
 376              		.cfi_offset 14, -4
 133:Generated_Source\PSoC4/BTN_ISR.c **** 
 377              		.loc 1 133 0
 378 0002 FFF7FEFF 		bl	BTN_ISR_Disable
 379              	.LVL21:
 136:Generated_Source\PSoC4/BTN_ISR.c **** }
 380              		.loc 1 136 0
 381 0006 0248     		ldr	r0, .L32
 382 0008 FFF7FEFF 		bl	BTN_ISR_SetVector
 383              	.LVL22:
 137:Generated_Source\PSoC4/BTN_ISR.c **** 
 384              		.loc 1 137 0
 385              		@ sp needed
 386 000c 10BD     		pop	{r4, pc}
 387              	.L33:
 388 000e C046     		.align	2
 389              	.L32:
 390 0010 00000000 		.word	IntDefaultHandler
 391              		.cfi_endproc
 392              	.LFE3:
 393              		.size	BTN_ISR_Stop, .-BTN_ISR_Stop
 394              		.section	.text.BTN_ISR_SetPending,"ax",%progbits
 395              		.align	2
 396              		.global	BTN_ISR_SetPending
 397              		.code	16
 398              		.thumb_func
 399              		.type	BTN_ISR_SetPending, %function
 400              	BTN_ISR_SetPending:
 401              	.LFB12:
 362:Generated_Source\PSoC4/BTN_ISR.c **** 
 363:Generated_Source\PSoC4/BTN_ISR.c **** 
 364:Generated_Source\PSoC4/BTN_ISR.c **** /*******************************************************************************
 365:Generated_Source\PSoC4/BTN_ISR.c **** * Function Name: BTN_ISR_SetPending
 366:Generated_Source\PSoC4/BTN_ISR.c **** ********************************************************************************
 367:Generated_Source\PSoC4/BTN_ISR.c **** *
 368:Generated_Source\PSoC4/BTN_ISR.c **** * Summary:
 369:Generated_Source\PSoC4/BTN_ISR.c **** *   Causes the Interrupt to enter the pending state, a software method of
 370:Generated_Source\PSoC4/BTN_ISR.c **** *   generating the interrupt.
 371:Generated_Source\PSoC4/BTN_ISR.c **** *
 372:Generated_Source\PSoC4/BTN_ISR.c **** * Parameters:
 373:Generated_Source\PSoC4/BTN_ISR.c **** *   None
 374:Generated_Source\PSoC4/BTN_ISR.c **** *
 375:Generated_Source\PSoC4/BTN_ISR.c **** * Return:
 376:Generated_Source\PSoC4/BTN_ISR.c **** *   None
 377:Generated_Source\PSoC4/BTN_ISR.c **** *
 378:Generated_Source\PSoC4/BTN_ISR.c **** * Side Effects:
 379:Generated_Source\PSoC4/BTN_ISR.c **** *   If interrupts are enabled and the interrupt is set up properly, the ISR is
 380:Generated_Source\PSoC4/BTN_ISR.c **** *   entered (depending on the priority of this interrupt and other pending 
ARM GAS  C:\Users\LEOTEJ~1\AppData\Local\Temp\ccjaJImE.s 			page 15


 381:Generated_Source\PSoC4/BTN_ISR.c **** *   interrupts).
 382:Generated_Source\PSoC4/BTN_ISR.c **** *
 383:Generated_Source\PSoC4/BTN_ISR.c **** *******************************************************************************/
 384:Generated_Source\PSoC4/BTN_ISR.c **** void BTN_ISR_SetPending(void)
 385:Generated_Source\PSoC4/BTN_ISR.c **** {
 402              		.loc 1 385 0
 403              		.cfi_startproc
 404              		@ args = 0, pretend = 0, frame = 0
 405              		@ frame_needed = 0, uses_anonymous_args = 0
 406              		@ link register save eliminated.
 386:Generated_Source\PSoC4/BTN_ISR.c ****     *BTN_ISR_INTC_SET_PD = BTN_ISR__INTC_MASK;
 407              		.loc 1 386 0
 408 0000 0122     		movs	r2, #1
 409 0002 014B     		ldr	r3, .L35
 410 0004 1A60     		str	r2, [r3]
 387:Generated_Source\PSoC4/BTN_ISR.c **** }
 411              		.loc 1 387 0
 412              		@ sp needed
 413 0006 7047     		bx	lr
 414              	.L36:
 415              		.align	2
 416              	.L35:
 417 0008 00E200E0 		.word	-536813056
 418              		.cfi_endproc
 419              	.LFE12:
 420              		.size	BTN_ISR_SetPending, .-BTN_ISR_SetPending
 421              		.section	.text.BTN_ISR_ClearPending,"ax",%progbits
 422              		.align	2
 423              		.global	BTN_ISR_ClearPending
 424              		.code	16
 425              		.thumb_func
 426              		.type	BTN_ISR_ClearPending, %function
 427              	BTN_ISR_ClearPending:
 428              	.LFB13:
 388:Generated_Source\PSoC4/BTN_ISR.c **** 
 389:Generated_Source\PSoC4/BTN_ISR.c **** 
 390:Generated_Source\PSoC4/BTN_ISR.c **** /*******************************************************************************
 391:Generated_Source\PSoC4/BTN_ISR.c **** * Function Name: BTN_ISR_ClearPending
 392:Generated_Source\PSoC4/BTN_ISR.c **** ********************************************************************************
 393:Generated_Source\PSoC4/BTN_ISR.c **** *
 394:Generated_Source\PSoC4/BTN_ISR.c **** * Summary:
 395:Generated_Source\PSoC4/BTN_ISR.c **** *   Clears a pending interrupt in the interrupt controller.
 396:Generated_Source\PSoC4/BTN_ISR.c **** *
 397:Generated_Source\PSoC4/BTN_ISR.c **** *   Note Some interrupt sources are clear-on-read and require the block 
 398:Generated_Source\PSoC4/BTN_ISR.c **** *   interrupt/status register to be read/cleared with the appropriate block API 
 399:Generated_Source\PSoC4/BTN_ISR.c **** *   (GPIO, UART, and so on). Otherwise the ISR will continue to remain in 
 400:Generated_Source\PSoC4/BTN_ISR.c **** *   pending state even though the interrupt itself is cleared using this API.
 401:Generated_Source\PSoC4/BTN_ISR.c **** *
 402:Generated_Source\PSoC4/BTN_ISR.c **** * Parameters:
 403:Generated_Source\PSoC4/BTN_ISR.c **** *   None
 404:Generated_Source\PSoC4/BTN_ISR.c **** *
 405:Generated_Source\PSoC4/BTN_ISR.c **** * Return:
 406:Generated_Source\PSoC4/BTN_ISR.c **** *   None
 407:Generated_Source\PSoC4/BTN_ISR.c **** *
 408:Generated_Source\PSoC4/BTN_ISR.c **** *******************************************************************************/
 409:Generated_Source\PSoC4/BTN_ISR.c **** void BTN_ISR_ClearPending(void)
 410:Generated_Source\PSoC4/BTN_ISR.c **** {
ARM GAS  C:\Users\LEOTEJ~1\AppData\Local\Temp\ccjaJImE.s 			page 16


 429              		.loc 1 410 0
 430              		.cfi_startproc
 431              		@ args = 0, pretend = 0, frame = 0
 432              		@ frame_needed = 0, uses_anonymous_args = 0
 433              		@ link register save eliminated.
 411:Generated_Source\PSoC4/BTN_ISR.c ****     *BTN_ISR_INTC_CLR_PD = BTN_ISR__INTC_MASK;
 434              		.loc 1 411 0
 435 0000 0122     		movs	r2, #1
 436 0002 014B     		ldr	r3, .L38
 437 0004 1A60     		str	r2, [r3]
 412:Generated_Source\PSoC4/BTN_ISR.c **** }
 438              		.loc 1 412 0
 439              		@ sp needed
 440 0006 7047     		bx	lr
 441              	.L39:
 442              		.align	2
 443              	.L38:
 444 0008 80E200E0 		.word	-536812928
 445              		.cfi_endproc
 446              	.LFE13:
 447              		.size	BTN_ISR_ClearPending, .-BTN_ISR_ClearPending
 448              		.text
 449              	.Letext0:
 450              		.file 2 "Generated_Source\\PSoC4/cytypes.h"
 451              		.file 3 "Generated_Source\\PSoC4/CyLib.h"
 452              		.file 4 "Generated_Source\\PSoC4\\BTN.h"