ARM GAS  C:\Users\HELLOK~1\AppData\Local\Temp\cc8gm270.s 			page 1


   1              		.syntax unified
   2              		.cpu cortex-m0
   3              		.fpu softvfp
   4              		.eabi_attribute 20, 1
   5              		.eabi_attribute 21, 1
   6              		.eabi_attribute 23, 3
   7              		.eabi_attribute 24, 1
   8              		.eabi_attribute 25, 1
   9              		.eabi_attribute 26, 1
  10              		.eabi_attribute 30, 1
  11              		.eabi_attribute 34, 0
  12              		.eabi_attribute 18, 4
  13              		.thumb
  14              		.syntax unified
  15              		.file	"main.c"
  16              		.text
  17              	.Ltext0:
  18              		.cfi_sections	.debug_frame
  19              		.section	.text.tempInit,"ax",%progbits
  20              		.align	2
  21              		.global	tempInit
  22              		.code	16
  23              		.thumb_func
  24              		.type	tempInit, %function
  25              	tempInit:
  26              	.LFB35:
  27              		.file 1 "main.c"
   1:main.c        **** /* ========================================
   2:main.c        ****  *
   3:main.c        ****  * Copyright YOUR COMPANY, THE YEAR
   4:main.c        ****  * All Rights Reserved
   5:main.c        ****  * UNPUBLISHED, LICENSED SOFTWARE.
   6:main.c        ****  *
   7:main.c        ****  * CONFIDENTIAL AND PROPRIETARY INFORMATION
   8:main.c        ****  * WHICH IS THE PROPERTY OF your company.
   9:main.c        ****  *
  10:main.c        ****  * ========================================
  11:main.c        **** */
  12:main.c        **** #include "project.h"
  13:main.c        **** #include <stdio.h>
  14:main.c        **** 
  15:main.c        **** // Global variables for stuff
  16:main.c        **** uint8 mode = 0;
  17:main.c        **** volatile int buttonFlag;
  18:main.c        **** 
  19:main.c        **** /*
  20:main.c        **** This function simply initializes temperature readings. 
  21:main.c        **** 
  22:main.c        **** Init mate?
  23:main.c        **** */
  24:main.c        **** void tempInit/*Mate*/(){
  28              		.loc 1 24 0
  29              		.cfi_startproc
  30              		@ args = 0, pretend = 0, frame = 0
  31              		@ frame_needed = 0, uses_anonymous_args = 0
  32              		@ link register save eliminated.
  25:main.c        ****     // Set 6:4 to 100 and 7 to 1
ARM GAS  C:\Users\HELLOK~1\AppData\Local\Temp\cc8gm270.s 			page 2


  26:main.c        ****     ADC_SAR_CTRL_REG = (ADC_SAR_CTRL_REG & 0xFFFFFF0F) | 0x000000C0;
  33              		.loc 1 26 0
  34 0000 0349     		ldr	r1, .L2
  35 0002 0B68     		ldr	r3, [r1]
  36 0004 F022     		movs	r2, #240
  37 0006 9343     		bics	r3, r2
  38 0008 303A     		subs	r2, r2, #48
  39 000a 1343     		orrs	r3, r2
  40 000c 0B60     		str	r3, [r1]
  27:main.c        ****     // Set input to 0
  28:main.c        ****     //ADC_SetChanMask(0x0000);
  29:main.c        **** }
  41              		.loc 1 29 0
  42              		@ sp needed
  43 000e 7047     		bx	lr
  44              	.L3:
  45              		.align	2
  46              	.L2:
  47 0010 00003A40 		.word	1077542912
  48              		.cfi_endproc
  49              	.LFE35:
  50              		.size	tempInit, .-tempInit
  51              		.section	.text.potInit,"ax",%progbits
  52              		.align	2
  53              		.global	potInit
  54              		.code	16
  55              		.thumb_func
  56              		.type	potInit, %function
  57              	potInit:
  58              	.LFB36:
  30:main.c        **** /*
  31:main.c        **** This function simply initializes voltage readings. 
  32:main.c        **** 
  33:main.c        **** Init mate?
  34:main.c        **** */
  35:main.c        **** void potInit/*Mate*/(){
  59              		.loc 1 35 0
  60              		.cfi_startproc
  61              		@ args = 0, pretend = 0, frame = 0
  62              		@ frame_needed = 0, uses_anonymous_args = 0
  63              		@ link register save eliminated.
  36:main.c        ****     // Set 6:4 to 100 and 7 to 1
  37:main.c        ****     //ADC_Stop();
  38:main.c        ****     ADC_SAR_CTRL_REG = (ADC_SAR_CTRL_REG & 0xFFFFFF0F) | 0x000000E0;
  64              		.loc 1 38 0
  65 0000 0349     		ldr	r1, .L5
  66 0002 0B68     		ldr	r3, [r1]
  67 0004 F022     		movs	r2, #240
  68 0006 9343     		bics	r3, r2
  69 0008 103A     		subs	r2, r2, #16
  70 000a 1343     		orrs	r3, r2
  71 000c 0B60     		str	r3, [r1]
  39:main.c        ****     //ADC_Start();
  40:main.c        ****     // Set input to 0
  41:main.c        ****     //ADC_SetChanMask(0x0001);
  42:main.c        **** }
  72              		.loc 1 42 0
ARM GAS  C:\Users\HELLOK~1\AppData\Local\Temp\cc8gm270.s 			page 3


  73              		@ sp needed
  74 000e 7047     		bx	lr
  75              	.L6:
  76              		.align	2
  77              	.L5:
  78 0010 00003A40 		.word	1077542912
  79              		.cfi_endproc
  80              	.LFE36:
  81              		.size	potInit, .-potInit
  82              		.global	__aeabi_i2d
  83              		.global	__aeabi_dmul
  84              		.global	__aeabi_d2f
  85              		.global	__aeabi_f2d
  86              		.global	__aeabi_dsub
  87              		.global	__aeabi_ddiv
  88              		.section	.text.getTempValue,"ax",%progbits
  89              		.align	2
  90              		.global	getTempValue
  91              		.code	16
  92              		.thumb_func
  93              		.type	getTempValue, %function
  94              	getTempValue:
  95              	.LFB37:
  43:main.c        **** /*
  44:main.c        **** This function gets the temperature value from the ADC.
  45:main.c        **** 
  46:main.c        **** It returns the value in degrees celsius
  47:main.c        **** */
  48:main.c        **** float getTempValue(){
  96              		.loc 1 48 0
  97              		.cfi_startproc
  98              		@ args = 0, pretend = 0, frame = 0
  99              		@ frame_needed = 0, uses_anonymous_args = 0
 100 0000 10B5     		push	{r4, lr}
 101              		.cfi_def_cfa_offset 8
 102              		.cfi_offset 4, -8
 103              		.cfi_offset 14, -4
  49:main.c        ****     // Variable for voltage
  50:main.c        ****     float Vout;
  51:main.c        ****     // Starts the conversion in the ADC
  52:main.c        ****     ADC_StartConvert();
 104              		.loc 1 52 0
 105 0002 FFF7FEFF 		bl	ADC_StartConvert
 106              	.LVL0:
  53:main.c        ****     // Wait for ADC to stop
  54:main.c        ****     ADC_IsEndConversion(ADC_WAIT_FOR_RESULT);
 107              		.loc 1 54 0
 108 0006 0220     		movs	r0, #2
 109 0008 FFF7FEFF 		bl	ADC_IsEndConversion
 110              	.LVL1:
  55:main.c        ****     // Get result from channel 0
  56:main.c        ****     int out = ADC_GetResult16(0);
 111              		.loc 1 56 0
 112 000c 0020     		movs	r0, #0
 113 000e FFF7FEFF 		bl	ADC_GetResult16
 114              	.LVL2:
 115 0012 0400     		movs	r4, r0
ARM GAS  C:\Users\HELLOK~1\AppData\Local\Temp\cc8gm270.s 			page 4


 116              	.LVL3:
  57:main.c        ****     // Stop the ADC, saves power
  58:main.c        ****     ADC_StopConvert();
 117              		.loc 1 58 0
 118 0014 FFF7FEFF 		bl	ADC_StopConvert
 119              	.LVL4:
  59:main.c        ****     // Convert digital to voltage
  60:main.c        ****     Vout = out * (2.048/4095);
 120              		.loc 1 60 0
 121 0018 2000     		movs	r0, r4
 122 001a FFF7FEFF 		bl	__aeabi_i2d
 123              	.LVL5:
 124 001e 094A     		ldr	r2, .L8
 125 0020 094B     		ldr	r3, .L8+4
 126 0022 FFF7FEFF 		bl	__aeabi_dmul
 127              	.LVL6:
 128 0026 FFF7FEFF 		bl	__aeabi_d2f
 129              	.LVL7:
  61:main.c        ****     
  62:main.c        ****     // (Vout - V0)/Tc = Ta
  63:main.c        ****     return (Vout - .400)/(.0195);
 130              		.loc 1 63 0
 131 002a FFF7FEFF 		bl	__aeabi_f2d
 132              	.LVL8:
 133 002e 074A     		ldr	r2, .L8+8
 134 0030 074B     		ldr	r3, .L8+12
 135 0032 FFF7FEFF 		bl	__aeabi_dsub
 136              	.LVL9:
 137 0036 074A     		ldr	r2, .L8+16
 138 0038 074B     		ldr	r3, .L8+20
 139 003a FFF7FEFF 		bl	__aeabi_ddiv
 140              	.LVL10:
 141 003e FFF7FEFF 		bl	__aeabi_d2f
 142              	.LVL11:
  64:main.c        **** }
 143              		.loc 1 64 0
 144              		@ sp needed
 145              	.LVL12:
 146 0042 10BD     		pop	{r4, pc}
 147              	.L9:
 148              		.align	2
 149              	.L8:
 150 0044 1F2D3208 		.word	137506079
 151 0048 5463403F 		.word	1061184340
 152 004c 9A999999 		.word	-1717986918
 153 0050 9999D93F 		.word	1071225241
 154 0054 2B8716D9 		.word	-652835029
 155 0058 CEF7933F 		.word	1066661838
 156              		.cfi_endproc
 157              	.LFE37:
 158              		.size	getTempValue, .-getTempValue
 159              		.global	__aeabi_fmul
 160              		.global	__aeabi_fadd
 161              		.section	.text.convertCtoF,"ax",%progbits
 162              		.align	2
 163              		.global	convertCtoF
 164              		.code	16
ARM GAS  C:\Users\HELLOK~1\AppData\Local\Temp\cc8gm270.s 			page 5


 165              		.thumb_func
 166              		.type	convertCtoF, %function
 167              	convertCtoF:
 168              	.LFB38:
  65:main.c        **** /*
  66:main.c        **** This converts value in celsius to value in farenheit
  67:main.c        **** 
  68:main.c        **** Returns value in farenheit
  69:main.c        **** */
  70:main.c        **** float convertCtoF(float C){
 169              		.loc 1 70 0
 170              		.cfi_startproc
 171              		@ args = 0, pretend = 0, frame = 0
 172              		@ frame_needed = 0, uses_anonymous_args = 0
 173              	.LVL13:
 174 0000 10B5     		push	{r4, lr}
 175              		.cfi_def_cfa_offset 8
 176              		.cfi_offset 4, -8
 177              		.cfi_offset 14, -4
  71:main.c        ****     return (9/((float)5))*C + 32;
 178              		.loc 1 71 0
 179 0002 0449     		ldr	r1, .L11
 180 0004 FFF7FEFF 		bl	__aeabi_fmul
 181              	.LVL14:
 182 0008 8421     		movs	r1, #132
 183 000a C905     		lsls	r1, r1, #23
 184 000c FFF7FEFF 		bl	__aeabi_fadd
 185              	.LVL15:
  72:main.c        **** }
 186              		.loc 1 72 0
 187              		@ sp needed
 188 0010 10BD     		pop	{r4, pc}
 189              	.L12:
 190 0012 C046     		.align	2
 191              	.L11:
 192 0014 6666E63F 		.word	1072064102
 193              		.cfi_endproc
 194              	.LFE38:
 195              		.size	convertCtoF, .-convertCtoF
 196              		.global	__aeabi_fcmplt
 197              		.global	__aeabi_d2iz
 198              		.section	.text.selectTempLED,"ax",%progbits
 199              		.align	2
 200              		.global	selectTempLED
 201              		.code	16
 202              		.thumb_func
 203              		.type	selectTempLED, %function
 204              	selectTempLED:
 205              	.LFB39:
  73:main.c        **** /*
  74:main.c        **** This function selects the LED based on the temperature.
  75:main.c        **** 
  76:main.c        **** Blue for 75°F and under
  77:main.c        **** Green for 75°F-80°F
  78:main.c        **** Yellow for 80°F-85°F
  79:main.c        **** Red for 85°F-212°F
  80:main.c        **** 
ARM GAS  C:\Users\HELLOK~1\AppData\Local\Temp\cc8gm270.s 			page 6


  81:main.c        **** Duty cycle goes linearly between these values.
  82:main.c        **** */
  83:main.c        **** void selectTempLED(float temp){
 206              		.loc 1 83 0
 207              		.cfi_startproc
 208              		@ args = 0, pretend = 0, frame = 0
 209              		@ frame_needed = 0, uses_anonymous_args = 0
 210              	.LVL16:
 211 0000 10B5     		push	{r4, lr}
 212              		.cfi_def_cfa_offset 8
 213              		.cfi_offset 4, -8
 214              		.cfi_offset 14, -4
 215 0002 041C     		adds	r4, r0, #0
  84:main.c        ****     PWM_WritePeriod(1000);
 216              		.loc 1 84 0
 217 0004 FA20     		movs	r0, #250
 218              	.LVL17:
 219 0006 8000     		lsls	r0, r0, #2
 220 0008 FFF7FEFF 		bl	PWM_WritePeriod
 221              	.LVL18:
  85:main.c        ****     if(temp < 75.0){
 222              		.loc 1 85 0
 223 000c 3749     		ldr	r1, .L29
 224 000e 201C     		adds	r0, r4, #0
 225 0010 FFF7FEFF 		bl	__aeabi_fcmplt
 226              	.LVL19:
 227 0014 0028     		cmp	r0, #0
 228 0016 12D0     		beq	.L26
  86:main.c        ****         PWM_WriteCompare((int)((temp/75.0) * 1000));
 229              		.loc 1 86 0
 230 0018 201C     		adds	r0, r4, #0
 231 001a FFF7FEFF 		bl	__aeabi_f2d
 232              	.LVL20:
 233 001e 0022     		movs	r2, #0
 234 0020 334B     		ldr	r3, .L29+4
 235 0022 FFF7FEFF 		bl	__aeabi_ddiv
 236              	.LVL21:
 237 0026 0022     		movs	r2, #0
 238 0028 324B     		ldr	r3, .L29+8
 239 002a FFF7FEFF 		bl	__aeabi_dmul
 240              	.LVL22:
 241 002e FFF7FEFF 		bl	__aeabi_d2iz
 242              	.LVL23:
 243 0032 FFF7FEFF 		bl	PWM_WriteCompare
 244              	.LVL24:
  87:main.c        ****         LED_SEL_Write(2);
 245              		.loc 1 87 0
 246 0036 0220     		movs	r0, #2
 247 0038 FFF7FEFF 		bl	LED_SEL_Write
 248              	.LVL25:
 249 003c 55E0     		b	.L13
 250              	.L26:
  88:main.c        ****     } else if(temp < 80.0) {
 251              		.loc 1 88 0
 252 003e 2E49     		ldr	r1, .L29+12
 253 0040 201C     		adds	r0, r4, #0
 254 0042 FFF7FEFF 		bl	__aeabi_fcmplt
ARM GAS  C:\Users\HELLOK~1\AppData\Local\Temp\cc8gm270.s 			page 7


 255              	.LVL26:
 256 0046 0028     		cmp	r0, #0
 257 0048 16D0     		beq	.L27
  89:main.c        ****         PWM_WriteCompare((int)((temp-75.0)/(5.0) * 1000));
 258              		.loc 1 89 0
 259 004a 201C     		adds	r0, r4, #0
 260 004c FFF7FEFF 		bl	__aeabi_f2d
 261              	.LVL27:
 262 0050 0022     		movs	r2, #0
 263 0052 274B     		ldr	r3, .L29+4
 264 0054 FFF7FEFF 		bl	__aeabi_dsub
 265              	.LVL28:
 266 0058 0022     		movs	r2, #0
 267 005a 284B     		ldr	r3, .L29+16
 268 005c FFF7FEFF 		bl	__aeabi_ddiv
 269              	.LVL29:
 270 0060 0022     		movs	r2, #0
 271 0062 244B     		ldr	r3, .L29+8
 272 0064 FFF7FEFF 		bl	__aeabi_dmul
 273              	.LVL30:
 274 0068 FFF7FEFF 		bl	__aeabi_d2iz
 275              	.LVL31:
 276 006c FFF7FEFF 		bl	PWM_WriteCompare
 277              	.LVL32:
  90:main.c        ****         LED_SEL_Write(1);
 278              		.loc 1 90 0
 279 0070 0120     		movs	r0, #1
 280 0072 FFF7FEFF 		bl	LED_SEL_Write
 281              	.LVL33:
 282 0076 38E0     		b	.L13
 283              	.L27:
  91:main.c        ****     } else if(temp < 85.0) {
 284              		.loc 1 91 0
 285 0078 2149     		ldr	r1, .L29+20
 286 007a 201C     		adds	r0, r4, #0
 287 007c FFF7FEFF 		bl	__aeabi_fcmplt
 288              	.LVL34:
 289 0080 0028     		cmp	r0, #0
 290 0082 16D0     		beq	.L28
  92:main.c        ****         PWM_WriteCompare((int)((temp-80.0)/(5.0) * 1000));
 291              		.loc 1 92 0
 292 0084 201C     		adds	r0, r4, #0
 293 0086 FFF7FEFF 		bl	__aeabi_f2d
 294              	.LVL35:
 295 008a 0022     		movs	r2, #0
 296 008c 1D4B     		ldr	r3, .L29+24
 297 008e FFF7FEFF 		bl	__aeabi_dsub
 298              	.LVL36:
 299 0092 0022     		movs	r2, #0
 300 0094 194B     		ldr	r3, .L29+16
 301 0096 FFF7FEFF 		bl	__aeabi_ddiv
 302              	.LVL37:
 303 009a 0022     		movs	r2, #0
 304 009c 154B     		ldr	r3, .L29+8
 305 009e FFF7FEFF 		bl	__aeabi_dmul
 306              	.LVL38:
 307 00a2 FFF7FEFF 		bl	__aeabi_d2iz
ARM GAS  C:\Users\HELLOK~1\AppData\Local\Temp\cc8gm270.s 			page 8


 308              	.LVL39:
 309 00a6 FFF7FEFF 		bl	PWM_WriteCompare
 310              	.LVL40:
  93:main.c        ****         LED_SEL_Write(3);
 311              		.loc 1 93 0
 312 00aa 0320     		movs	r0, #3
 313 00ac FFF7FEFF 		bl	LED_SEL_Write
 314              	.LVL41:
 315 00b0 1BE0     		b	.L13
 316              	.L28:
  94:main.c        ****     } else if(temp < 212.0) {
 317              		.loc 1 94 0
 318 00b2 1549     		ldr	r1, .L29+28
 319 00b4 201C     		adds	r0, r4, #0
 320 00b6 FFF7FEFF 		bl	__aeabi_fcmplt
 321              	.LVL42:
 322 00ba 0028     		cmp	r0, #0
 323 00bc 15D0     		beq	.L13
  95:main.c        ****         PWM_WriteCompare((int)((temp-85.0)/(127.0) * 1000));
 324              		.loc 1 95 0
 325 00be 201C     		adds	r0, r4, #0
 326 00c0 FFF7FEFF 		bl	__aeabi_f2d
 327              	.LVL43:
 328 00c4 0022     		movs	r2, #0
 329 00c6 114B     		ldr	r3, .L29+32
 330 00c8 FFF7FEFF 		bl	__aeabi_dsub
 331              	.LVL44:
 332 00cc 0022     		movs	r2, #0
 333 00ce 104B     		ldr	r3, .L29+36
 334 00d0 FFF7FEFF 		bl	__aeabi_ddiv
 335              	.LVL45:
 336 00d4 0022     		movs	r2, #0
 337 00d6 074B     		ldr	r3, .L29+8
 338 00d8 FFF7FEFF 		bl	__aeabi_dmul
 339              	.LVL46:
 340 00dc FFF7FEFF 		bl	__aeabi_d2iz
 341              	.LVL47:
 342 00e0 FFF7FEFF 		bl	PWM_WriteCompare
 343              	.LVL48:
  96:main.c        ****         LED_SEL_Write(0);
 344              		.loc 1 96 0
 345 00e4 0020     		movs	r0, #0
 346 00e6 FFF7FEFF 		bl	LED_SEL_Write
 347              	.LVL49:
 348              	.L13:
  97:main.c        ****     }
  98:main.c        **** }
 349              		.loc 1 98 0
 350              		@ sp needed
 351              	.LVL50:
 352 00ea 10BD     		pop	{r4, pc}
 353              	.L30:
 354              		.align	2
 355              	.L29:
 356 00ec 00009642 		.word	1117126656
 357 00f0 00C05240 		.word	1079164928
 358 00f4 00408F40 		.word	1083129856
ARM GAS  C:\Users\HELLOK~1\AppData\Local\Temp\cc8gm270.s 			page 9


 359 00f8 0000A042 		.word	1117782016
 360 00fc 00001440 		.word	1075052544
 361 0100 0000AA42 		.word	1118437376
 362 0104 00005440 		.word	1079246848
 363 0108 00005443 		.word	1129578496
 364 010c 00405540 		.word	1079328768
 365 0110 00C05F40 		.word	1080016896
 366              		.cfi_endproc
 367              	.LFE39:
 368              		.size	selectTempLED, .-selectTempLED
 369              		.global	__aeabi_dcmplt
 370              		.section	.text.selectVoltageLED,"ax",%progbits
 371              		.align	2
 372              		.global	selectVoltageLED
 373              		.code	16
 374              		.thumb_func
 375              		.type	selectVoltageLED, %function
 376              	selectVoltageLED:
 377              	.LFB40:
  99:main.c        **** /*
 100:main.c        **** This function selects the LED based on the voltage.
 101:main.c        **** 
 102:main.c        **** Blue for 0.8V and under
 103:main.c        **** Green for 0.8V-1.6V
 104:main.c        **** Yellow for 1.6V-2.4V
 105:main.c        **** Red for 2.4V-3.3V
 106:main.c        **** 
 107:main.c        **** Duty cycle goes linearly between these values.
 108:main.c        **** */
 109:main.c        **** void selectVoltageLED(float voltage){
 378              		.loc 1 109 0
 379              		.cfi_startproc
 380              		@ args = 0, pretend = 0, frame = 0
 381              		@ frame_needed = 0, uses_anonymous_args = 0
 382              	.LVL51:
 383 0000 70B5     		push	{r4, r5, r6, lr}
 384              		.cfi_def_cfa_offset 16
 385              		.cfi_offset 4, -16
 386              		.cfi_offset 5, -12
 387              		.cfi_offset 6, -8
 388              		.cfi_offset 14, -4
 389 0002 041C     		adds	r4, r0, #0
 110:main.c        ****      PWM_WritePeriod(1000);
 390              		.loc 1 110 0
 391 0004 FA20     		movs	r0, #250
 392              	.LVL52:
 393 0006 8000     		lsls	r0, r0, #2
 394 0008 FFF7FEFF 		bl	PWM_WritePeriod
 395              	.LVL53:
 111:main.c        ****     if(voltage < 0.8){
 396              		.loc 1 111 0
 397 000c 201C     		adds	r0, r4, #0
 398 000e FFF7FEFF 		bl	__aeabi_f2d
 399              	.LVL54:
 400 0012 0400     		movs	r4, r0
 401              	.LVL55:
 402 0014 0D00     		movs	r5, r1
ARM GAS  C:\Users\HELLOK~1\AppData\Local\Temp\cc8gm270.s 			page 10


 403 0016 394A     		ldr	r2, .L47
 404 0018 394B     		ldr	r3, .L47+4
 405 001a FFF7FEFF 		bl	__aeabi_dcmplt
 406              	.LVL56:
 407 001e 0028     		cmp	r0, #0
 408 0020 11D0     		beq	.L44
 112:main.c        ****         PWM_WriteCompare((int)((voltage/0.8) * 1000));
 409              		.loc 1 112 0
 410 0022 364A     		ldr	r2, .L47
 411 0024 364B     		ldr	r3, .L47+4
 412 0026 2000     		movs	r0, r4
 413 0028 2900     		movs	r1, r5
 414 002a FFF7FEFF 		bl	__aeabi_ddiv
 415              	.LVL57:
 416 002e 0022     		movs	r2, #0
 417 0030 344B     		ldr	r3, .L47+8
 418 0032 FFF7FEFF 		bl	__aeabi_dmul
 419              	.LVL58:
 420 0036 FFF7FEFF 		bl	__aeabi_d2iz
 421              	.LVL59:
 422 003a FFF7FEFF 		bl	PWM_WriteCompare
 423              	.LVL60:
 113:main.c        ****         LED_SEL_Write(2);
 424              		.loc 1 113 0
 425 003e 0220     		movs	r0, #2
 426 0040 FFF7FEFF 		bl	LED_SEL_Write
 427              	.LVL61:
 428 0044 58E0     		b	.L31
 429              	.L44:
 114:main.c        ****     } else if(voltage < 1.6) {
 430              		.loc 1 114 0
 431 0046 2D4A     		ldr	r2, .L47
 432 0048 2F4B     		ldr	r3, .L47+12
 433 004a 2000     		movs	r0, r4
 434 004c 2900     		movs	r1, r5
 435 004e FFF7FEFF 		bl	__aeabi_dcmplt
 436              	.LVL62:
 437 0052 0028     		cmp	r0, #0
 438 0054 15D0     		beq	.L45
 115:main.c        ****         PWM_WriteCompare((int)((voltage-0.8)/(0.8) * 1000));
 439              		.loc 1 115 0
 440 0056 294A     		ldr	r2, .L47
 441 0058 294B     		ldr	r3, .L47+4
 442 005a 2000     		movs	r0, r4
 443 005c 2900     		movs	r1, r5
 444 005e FFF7FEFF 		bl	__aeabi_dsub
 445              	.LVL63:
 446 0062 264A     		ldr	r2, .L47
 447 0064 264B     		ldr	r3, .L47+4
 448 0066 FFF7FEFF 		bl	__aeabi_ddiv
 449              	.LVL64:
 450 006a 0022     		movs	r2, #0
 451 006c 254B     		ldr	r3, .L47+8
 452 006e FFF7FEFF 		bl	__aeabi_dmul
 453              	.LVL65:
 454 0072 FFF7FEFF 		bl	__aeabi_d2iz
 455              	.LVL66:
ARM GAS  C:\Users\HELLOK~1\AppData\Local\Temp\cc8gm270.s 			page 11


 456 0076 FFF7FEFF 		bl	PWM_WriteCompare
 457              	.LVL67:
 116:main.c        ****         LED_SEL_Write(1);
 458              		.loc 1 116 0
 459 007a 0120     		movs	r0, #1
 460 007c FFF7FEFF 		bl	LED_SEL_Write
 461              	.LVL68:
 462 0080 3AE0     		b	.L31
 463              	.L45:
 117:main.c        ****     } else if(voltage < 2.4) {
 464              		.loc 1 117 0
 465 0082 224A     		ldr	r2, .L47+16
 466 0084 224B     		ldr	r3, .L47+20
 467 0086 2000     		movs	r0, r4
 468 0088 2900     		movs	r1, r5
 469 008a FFF7FEFF 		bl	__aeabi_dcmplt
 470              	.LVL69:
 471 008e 0028     		cmp	r0, #0
 472 0090 15D0     		beq	.L46
 118:main.c        ****         PWM_WriteCompare((int)((voltage-1.6)/(0.8) * 1000));
 473              		.loc 1 118 0
 474 0092 1A4A     		ldr	r2, .L47
 475 0094 1C4B     		ldr	r3, .L47+12
 476 0096 2000     		movs	r0, r4
 477 0098 2900     		movs	r1, r5
 478 009a FFF7FEFF 		bl	__aeabi_dsub
 479              	.LVL70:
 480 009e 174A     		ldr	r2, .L47
 481 00a0 174B     		ldr	r3, .L47+4
 482 00a2 FFF7FEFF 		bl	__aeabi_ddiv
 483              	.LVL71:
 484 00a6 0022     		movs	r2, #0
 485 00a8 164B     		ldr	r3, .L47+8
 486 00aa FFF7FEFF 		bl	__aeabi_dmul
 487              	.LVL72:
 488 00ae FFF7FEFF 		bl	__aeabi_d2iz
 489              	.LVL73:
 490 00b2 FFF7FEFF 		bl	PWM_WriteCompare
 491              	.LVL74:
 119:main.c        ****         LED_SEL_Write(3);
 492              		.loc 1 119 0
 493 00b6 0320     		movs	r0, #3
 494 00b8 FFF7FEFF 		bl	LED_SEL_Write
 495              	.LVL75:
 496 00bc 1CE0     		b	.L31
 497              	.L46:
 120:main.c        ****     } else if(voltage < 3.3) {
 498              		.loc 1 120 0
 499 00be 154A     		ldr	r2, .L47+24
 500 00c0 154B     		ldr	r3, .L47+28
 501 00c2 2000     		movs	r0, r4
 502 00c4 2900     		movs	r1, r5
 503 00c6 FFF7FEFF 		bl	__aeabi_dcmplt
 504              	.LVL76:
 505 00ca 0028     		cmp	r0, #0
 506 00cc 14D0     		beq	.L31
 121:main.c        ****         PWM_WriteCompare((int)((voltage-2.4)/(0.9) * 1000));
ARM GAS  C:\Users\HELLOK~1\AppData\Local\Temp\cc8gm270.s 			page 12


 507              		.loc 1 121 0
 508 00ce 0F4A     		ldr	r2, .L47+16
 509 00d0 0F4B     		ldr	r3, .L47+20
 510 00d2 2000     		movs	r0, r4
 511 00d4 2900     		movs	r1, r5
 512 00d6 FFF7FEFF 		bl	__aeabi_dsub
 513              	.LVL77:
 514 00da 104A     		ldr	r2, .L47+32
 515 00dc 104B     		ldr	r3, .L47+36
 516 00de FFF7FEFF 		bl	__aeabi_ddiv
 517              	.LVL78:
 518 00e2 0022     		movs	r2, #0
 519 00e4 074B     		ldr	r3, .L47+8
 520 00e6 FFF7FEFF 		bl	__aeabi_dmul
 521              	.LVL79:
 522 00ea FFF7FEFF 		bl	__aeabi_d2iz
 523              	.LVL80:
 524 00ee FFF7FEFF 		bl	PWM_WriteCompare
 525              	.LVL81:
 122:main.c        ****         LED_SEL_Write(0);
 526              		.loc 1 122 0
 527 00f2 0020     		movs	r0, #0
 528 00f4 FFF7FEFF 		bl	LED_SEL_Write
 529              	.LVL82:
 530              	.L31:
 123:main.c        ****     }
 124:main.c        **** }
 531              		.loc 1 124 0
 532              		@ sp needed
 533 00f8 70BD     		pop	{r4, r5, r6, pc}
 534              	.L48:
 535 00fa C046     		.align	2
 536              	.L47:
 537 00fc 9A999999 		.word	-1717986918
 538 0100 9999E93F 		.word	1072273817
 539 0104 00408F40 		.word	1083129856
 540 0108 9999F93F 		.word	1073322393
 541 010c 33333333 		.word	858993459
 542 0110 33330340 		.word	1073951539
 543 0114 66666666 		.word	1717986918
 544 0118 66660A40 		.word	1074423398
 545 011c CDCCCCCC 		.word	-858993459
 546 0120 CCCCEC3F 		.word	1072483532
 547              		.cfi_endproc
 548              	.LFE40:
 549              		.size	selectVoltageLED, .-selectVoltageLED
 550              		.section	.text.getVoltage,"ax",%progbits
 551              		.align	2
 552              		.global	getVoltage
 553              		.code	16
 554              		.thumb_func
 555              		.type	getVoltage, %function
 556              	getVoltage:
 557              	.LFB41:
 125:main.c        **** /*
 126:main.c        **** This function gets the voltage value from the ADC.
 127:main.c        **** 
ARM GAS  C:\Users\HELLOK~1\AppData\Local\Temp\cc8gm270.s 			page 13


 128:main.c        **** It returns the value in volts
 129:main.c        **** */
 130:main.c        **** float getVoltage(){
 558              		.loc 1 130 0
 559              		.cfi_startproc
 560              		@ args = 0, pretend = 0, frame = 0
 561              		@ frame_needed = 0, uses_anonymous_args = 0
 562 0000 10B5     		push	{r4, lr}
 563              		.cfi_def_cfa_offset 8
 564              		.cfi_offset 4, -8
 565              		.cfi_offset 14, -4
 131:main.c        ****     // Variable for voltage
 132:main.c        ****     float Vout;
 133:main.c        ****     // Starts the conversion in the ADC
 134:main.c        ****     ADC_StartConvert();
 566              		.loc 1 134 0
 567 0002 FFF7FEFF 		bl	ADC_StartConvert
 568              	.LVL83:
 135:main.c        ****     // Wait for ADC to stop
 136:main.c        ****     ADC_IsEndConversion(ADC_WAIT_FOR_RESULT);
 569              		.loc 1 136 0
 570 0006 0220     		movs	r0, #2
 571 0008 FFF7FEFF 		bl	ADC_IsEndConversion
 572              	.LVL84:
 137:main.c        ****     // Get result from channel 1
 138:main.c        ****     int out = ADC_GetResult16(1);
 573              		.loc 1 138 0
 574 000c 0120     		movs	r0, #1
 575 000e FFF7FEFF 		bl	ADC_GetResult16
 576              	.LVL85:
 577 0012 0400     		movs	r4, r0
 578              	.LVL86:
 139:main.c        ****     // Stop the ADC, saves power
 140:main.c        ****     ADC_StopConvert();
 579              		.loc 1 140 0
 580 0014 FFF7FEFF 		bl	ADC_StopConvert
 581              	.LVL87:
 141:main.c        ****     // Converts digital value to voltage
 142:main.c        ****     Vout = out * (3.3/4095);
 582              		.loc 1 142 0
 583 0018 2000     		movs	r0, r4
 584 001a FFF7FEFF 		bl	__aeabi_i2d
 585              	.LVL88:
 586 001e 034A     		ldr	r2, .L50
 587 0020 034B     		ldr	r3, .L50+4
 588 0022 FFF7FEFF 		bl	__aeabi_dmul
 589              	.LVL89:
 590 0026 FFF7FEFF 		bl	__aeabi_d2f
 591              	.LVL90:
 143:main.c        ****     return Vout;
 144:main.c        **** }
 592              		.loc 1 144 0
 593              		@ sp needed
 594              	.LVL91:
 595 002a 10BD     		pop	{r4, pc}
 596              	.L51:
 597              		.align	2
ARM GAS  C:\Users\HELLOK~1\AppData\Local\Temp\cc8gm270.s 			page 14


 598              	.L50:
 599 002c B4D934E7 		.word	-415966796
 600 0030 0C684A3F 		.word	1061840908
 601              		.cfi_endproc
 602              	.LFE41:
 603              		.size	getVoltage, .-getVoltage
 604              		.section	.text.main,"ax",%progbits
 605              		.align	2
 606              		.global	main
 607              		.code	16
 608              		.thumb_func
 609              		.type	main, %function
 610              	main:
 611              	.LFB42:
 145:main.c        **** 
 146:main.c        **** int main(void)
 147:main.c        **** {
 612              		.loc 1 147 0
 613              		.cfi_startproc
 614              		@ args = 0, pretend = 0, frame = 32
 615              		@ frame_needed = 0, uses_anonymous_args = 0
 616 0000 30B5     		push	{r4, r5, lr}
 617              		.cfi_def_cfa_offset 12
 618              		.cfi_offset 4, -12
 619              		.cfi_offset 5, -8
 620              		.cfi_offset 14, -4
 621 0002 8DB0     		sub	sp, sp, #52
 622              		.cfi_def_cfa_offset 64
 148:main.c        ****     CyGlobalIntEnable; /* Enable global interrupts. */
 623              		.loc 1 148 0
 624              		.syntax divided
 625              	@ 148 "main.c" 1
 626 0004 62B6     		CPSIE   i
 627              	@ 0 "" 2
 149:main.c        **** 
 150:main.c        ****     /* Place your initialization/startup code here (e.g. MyInst_Start()) */
 151:main.c        ****     ADC_Start();
 628              		.loc 1 151 0
 629              		.thumb
 630              		.syntax unified
 631 0006 FFF7FEFF 		bl	ADC_Start
 632              	.LVL92:
 152:main.c        ****     BTN_ISR_Start();
 633              		.loc 1 152 0
 634 000a FFF7FEFF 		bl	BTN_ISR_Start
 635              	.LVL93:
 153:main.c        ****     LCD_Start();
 636              		.loc 1 153 0
 637 000e FFF7FEFF 		bl	LCD_Start
 638              	.LVL94:
 154:main.c        ****     PWM_Start();
 639              		.loc 1 154 0
 640 0012 FFF7FEFF 		bl	PWM_Start
 641              	.LVL95:
 155:main.c        ****     
 156:main.c        ****     tempInit/*Mate*/();
 642              		.loc 1 156 0
ARM GAS  C:\Users\HELLOK~1\AppData\Local\Temp\cc8gm270.s 			page 15


 643 0016 FFF7FEFF 		bl	tempInit
 644              	.LVL96:
 645              	.L53:
 157:main.c        ****     for(;;)
 158:main.c        ****     { 
 159:main.c        ****         // Check for button interrupt
 160:main.c        ****         if(buttonFlag == 1){
 646              		.loc 1 160 0
 647 001a 344B     		ldr	r3, .L58
 648 001c 1B68     		ldr	r3, [r3]
 649 001e 012B     		cmp	r3, #1
 650 0020 16D1     		bne	.L54
 161:main.c        ****             // Clear flag
 162:main.c        ****             buttonFlag = 0;
 651              		.loc 1 162 0
 652 0022 0022     		movs	r2, #0
 653 0024 314B     		ldr	r3, .L58
 654 0026 1A60     		str	r2, [r3]
 163:main.c        ****             // Change mode
 164:main.c        ****             if(mode == 1){
 655              		.loc 1 164 0
 656 0028 314B     		ldr	r3, .L58+4
 657 002a 1B78     		ldrb	r3, [r3]
 658 002c 012B     		cmp	r3, #1
 659 002e 07D1     		bne	.L55
 165:main.c        ****                 mode = 0;
 660              		.loc 1 165 0
 661 0030 2F4B     		ldr	r3, .L58+4
 662 0032 1A70     		strb	r2, [r3]
 166:main.c        ****                 tempInit();
 663              		.loc 1 166 0
 664 0034 FFF7FEFF 		bl	tempInit
 665              	.LVL97:
 167:main.c        ****                 CyDelay(100);
 666              		.loc 1 167 0
 667 0038 6420     		movs	r0, #100
 668 003a FFF7FEFF 		bl	CyDelay
 669              	.LVL98:
 670 003e 07E0     		b	.L54
 671              	.L55:
 168:main.c        ****             } else {
 169:main.c        ****                 mode = 1;
 672              		.loc 1 169 0
 673 0040 0122     		movs	r2, #1
 674 0042 2B4B     		ldr	r3, .L58+4
 675 0044 1A70     		strb	r2, [r3]
 170:main.c        ****                 potInit();
 676              		.loc 1 170 0
 677 0046 FFF7FEFF 		bl	potInit
 678              	.LVL99:
 171:main.c        ****                 CyDelay(100);
 679              		.loc 1 171 0
 680 004a 6420     		movs	r0, #100
 681 004c FFF7FEFF 		bl	CyDelay
 682              	.LVL100:
 683              	.L54:
 172:main.c        ****             }
ARM GAS  C:\Users\HELLOK~1\AppData\Local\Temp\cc8gm270.s 			page 16


 173:main.c        ****         }
 174:main.c        ****         // Temperature mode
 175:main.c        ****         if(mode ==  0){
 684              		.loc 1 175 0
 685 0050 274B     		ldr	r3, .L58+4
 686 0052 1B78     		ldrb	r3, [r3]
 687 0054 002B     		cmp	r3, #0
 688 0056 2FD1     		bne	.L56
 689              	.LBB2:
 176:main.c        ****             // Delay for refresh rate
 177:main.c        ****             CyDelay(100);
 690              		.loc 1 177 0
 691 0058 6420     		movs	r0, #100
 692 005a FFF7FEFF 		bl	CyDelay
 693              	.LVL101:
 178:main.c        ****             float temp = getTempValue();
 694              		.loc 1 178 0
 695 005e FFF7FEFF 		bl	getTempValue
 696              	.LVL102:
 697 0062 041C     		adds	r4, r0, #0
 698              	.LVL103:
 179:main.c        ****             // Variables for LCD prints
 180:main.c        ****             char topLine[16];
 181:main.c        ****             char bottomLine[16];
 182:main.c        ****             // Format the output
 183:main.c        ****             snprintf(topLine, 16, "Temp: %.2f %cC", temp, 223);
 699              		.loc 1 183 0
 700 0064 DF25     		movs	r5, #223
 701 0066 0295     		str	r5, [sp, #8]
 702 0068 FFF7FEFF 		bl	__aeabi_f2d
 703              	.LVL104:
 704 006c 0090     		str	r0, [sp]
 705 006e 0191     		str	r1, [sp, #4]
 706 0070 204A     		ldr	r2, .L58+8
 707 0072 1021     		movs	r1, #16
 708 0074 04A8     		add	r0, sp, #16
 709 0076 FFF7FEFF 		bl	snprintf
 710              	.LVL105:
 184:main.c        ****             snprintf(bottomLine, 16, "      %.2f %cF",convertCtoF(temp), 223);
 711              		.loc 1 184 0
 712 007a 201C     		adds	r0, r4, #0
 713 007c FFF7FEFF 		bl	convertCtoF
 714              	.LVL106:
 715 0080 041C     		adds	r4, r0, #0
 716              	.LVL107:
 717 0082 0295     		str	r5, [sp, #8]
 718 0084 FFF7FEFF 		bl	__aeabi_f2d
 719              	.LVL108:
 720 0088 0090     		str	r0, [sp]
 721 008a 0191     		str	r1, [sp, #4]
 722 008c 1A4A     		ldr	r2, .L58+12
 723 008e 1021     		movs	r1, #16
 724 0090 08A8     		add	r0, sp, #32
 725 0092 FFF7FEFF 		bl	snprintf
 726              	.LVL109:
 185:main.c        ****             // Clear display and print lines
 186:main.c        ****             LCD_ClearDisplay();
ARM GAS  C:\Users\HELLOK~1\AppData\Local\Temp\cc8gm270.s 			page 17


 727              		.loc 1 186 0
 728 0096 0120     		movs	r0, #1
 729 0098 FFF7FEFF 		bl	LCD_WriteControl
 730              	.LVL110:
 187:main.c        ****             LCD_PrintString(topLine);
 731              		.loc 1 187 0
 732 009c 04A8     		add	r0, sp, #16
 733 009e FFF7FEFF 		bl	LCD_PrintString
 734              	.LVL111:
 188:main.c        ****             LCD_Position(1,0);
 735              		.loc 1 188 0
 736 00a2 0021     		movs	r1, #0
 737 00a4 0120     		movs	r0, #1
 738 00a6 FFF7FEFF 		bl	LCD_Position
 739              	.LVL112:
 189:main.c        ****             LCD_PrintString(bottomLine);
 740              		.loc 1 189 0
 741 00aa 08A8     		add	r0, sp, #32
 742 00ac FFF7FEFF 		bl	LCD_PrintString
 743              	.LVL113:
 190:main.c        ****             // Select LED
 191:main.c        ****             selectTempLED(convertCtoF(temp));
 744              		.loc 1 191 0
 745 00b0 201C     		adds	r0, r4, #0
 746 00b2 FFF7FEFF 		bl	selectTempLED
 747              	.LVL114:
 748              	.LBE2:
 749 00b6 B0E7     		b	.L53
 750              	.L56:
 751              	.LBB3:
 192:main.c        ****         }
 193:main.c        ****         // Voltage mode
 194:main.c        ****         else {
 195:main.c        ****             // Refresh rate for LCD
 196:main.c        ****             CyDelay(100);
 752              		.loc 1 196 0 discriminator 2
 753 00b8 6420     		movs	r0, #100
 754 00ba FFF7FEFF 		bl	CyDelay
 755              	.LVL115:
 197:main.c        ****             float voltage = getVoltage();
 756              		.loc 1 197 0 discriminator 2
 757 00be FFF7FEFF 		bl	getVoltage
 758              	.LVL116:
 759 00c2 041C     		adds	r4, r0, #0
 760              	.LVL117:
 198:main.c        ****             // Variable for LCD printing
 199:main.c        ****             char topLine[16];
 200:main.c        ****             // Format print
 201:main.c        ****             snprintf(topLine, 16, "Voltage: %.2f V", voltage);
 761              		.loc 1 201 0 discriminator 2
 762 00c4 FFF7FEFF 		bl	__aeabi_f2d
 763              	.LVL118:
 764 00c8 0090     		str	r0, [sp]
 765 00ca 0191     		str	r1, [sp, #4]
 766 00cc 0B4A     		ldr	r2, .L58+16
 767 00ce 1021     		movs	r1, #16
 768 00d0 08A8     		add	r0, sp, #32
ARM GAS  C:\Users\HELLOK~1\AppData\Local\Temp\cc8gm270.s 			page 18


 769 00d2 FFF7FEFF 		bl	snprintf
 770              	.LVL119:
 202:main.c        ****             // Clear display, print string
 203:main.c        ****             LCD_ClearDisplay();
 771              		.loc 1 203 0 discriminator 2
 772 00d6 0120     		movs	r0, #1
 773 00d8 FFF7FEFF 		bl	LCD_WriteControl
 774              	.LVL120:
 204:main.c        ****             LCD_PrintString(topLine);
 775              		.loc 1 204 0 discriminator 2
 776 00dc 08A8     		add	r0, sp, #32
 777 00de FFF7FEFF 		bl	LCD_PrintString
 778              	.LVL121:
 205:main.c        ****             // Select LED for voltage
 206:main.c        ****             selectVoltageLED(voltage);
 779              		.loc 1 206 0 discriminator 2
 780 00e2 201C     		adds	r0, r4, #0
 781 00e4 FFF7FEFF 		bl	selectVoltageLED
 782              	.LVL122:
 783 00e8 97E7     		b	.L53
 784              	.L59:
 785 00ea C046     		.align	2
 786              	.L58:
 787 00ec 00000000 		.word	buttonFlag
 788 00f0 00000000 		.word	.LANCHOR0
 789 00f4 00000000 		.word	.LC2
 790 00f8 10000000 		.word	.LC4
 791 00fc 20000000 		.word	.LC6
 792              	.LBE3:
 793              		.cfi_endproc
 794              	.LFE42:
 795              		.size	main, .-main
 796              		.comm	buttonFlag,4,4
 797              		.global	mode
 798              		.section	.rodata.str1.4,"aMS",%progbits,1
 799              		.align	2
 800              	.LC2:
 801 0000 54656D70 		.ascii	"Temp: %.2f %cC\000"
 801      3A20252E 
 801      32662025 
 801      634300
 802 000f 00       		.space	1
 803              	.LC4:
 804 0010 20202020 		.ascii	"      %.2f %cF\000"
 804      2020252E 
 804      32662025 
 804      634600
 805 001f 00       		.space	1
 806              	.LC6:
 807 0020 566F6C74 		.ascii	"Voltage: %.2f V\000"
 807      6167653A 
 807      20252E32 
 807      66205600 
 808              		.bss
 809              		.set	.LANCHOR0,. + 0
 810              		.type	mode, %object
 811              		.size	mode, 1
ARM GAS  C:\Users\HELLOK~1\AppData\Local\Temp\cc8gm270.s 			page 19


 812              	mode:
 813 0000 00       		.space	1
 814              		.text
 815              	.Letext0:
 816              		.file 2 "Generated_Source\\PSoC4/cytypes.h"
 817              		.file 3 "Generated_Source\\PSoC4/ADC.h"
 818              		.file 4 "Generated_Source\\PSoC4/PWM.h"
 819              		.file 5 "Generated_Source\\PSoC4/LED_SEL.h"
 820              		.file 6 "Generated_Source\\PSoC4/CyLib.h"
 821              		.file 7 "c:\\program files (x86)\\cypress\\psoc creator\\4.2\\psoc creator\\import\\gnu\\arm\\5.4.
 822              		.file 8 "Generated_Source\\PSoC4/LCD.h"
 823              		.file 9 "Generated_Source\\PSoC4/BTN_ISR.h"