ARM GAS  C:\Users\HELLOK~1\AppData\Local\Temp\ccE84a6V.s 			page 1


   1              		.syntax unified
   2              		.cpu cortex-m0
   3              		.fpu softvfp
   4              		.eabi_attribute 20, 1
   5              		.eabi_attribute 21, 1
   6              		.eabi_attribute 23, 3
   7              		.eabi_attribute 24, 1
   8              		.eabi_attribute 25, 1
   9              		.eabi_attribute 26, 1
  10              		.eabi_attribute 30, 1
  11              		.eabi_attribute 34, 0
  12              		.eabi_attribute 18, 4
  13              		.thumb
  14              		.syntax unified
  15              		.file	"main.c"
  16              		.text
  17              	.Ltext0:
  18              		.cfi_sections	.debug_frame
  19              		.section	.text.main,"ax",%progbits
  20              		.align	2
  21              		.global	main
  22              		.code	16
  23              		.thumb_func
  24              		.type	main, %function
  25              	main:
  26              	.LFB34:
  27              		.file 1 "main.c"
   1:main.c        **** /* ========================================
   2:main.c        ****  *
   3:main.c        ****  * Copyright YOUR COMPANY, THE YEAR
   4:main.c        ****  * All Rights Reserved
   5:main.c        ****  * UNPUBLISHED, LICENSED SOFTWARE.
   6:main.c        ****  *
   7:main.c        ****  * CONFIDENTIAL AND PROPRIETARY INFORMATION
   8:main.c        ****  * WHICH IS THE PROPERTY OF your company.
   9:main.c        ****  *
  10:main.c        ****  * ========================================
  11:main.c        **** */
  12:main.c        **** #include "project.h"
  13:main.c        **** 
  14:main.c        **** int main(void)
  15:main.c        **** {
  28              		.loc 1 15 0
  29              		.cfi_startproc
  30              		@ args = 0, pretend = 0, frame = 0
  31              		@ frame_needed = 0, uses_anonymous_args = 0
  32 0000 70B5     		push	{r4, r5, r6, lr}
  33              		.cfi_def_cfa_offset 16
  34              		.cfi_offset 4, -16
  35              		.cfi_offset 5, -12
  36              		.cfi_offset 6, -8
  37              		.cfi_offset 14, -4
  16:main.c        ****     CyGlobalIntEnable; /* Enable global interrupts. */
  38              		.loc 1 16 0
  39              		.syntax divided
  40              	@ 16 "main.c" 1
  41 0002 62B6     		CPSIE   i
ARM GAS  C:\Users\HELLOK~1\AppData\Local\Temp\ccE84a6V.s 			page 2


  42              	@ 0 "" 2
  43              	.LVL0:
  17:main.c        **** 
  18:main.c        ****     /* Place your initialization/startup code here (e.g. MyInst_Start()) */
  19:main.c        ****     int x = 0;
  20:main.c        ****     int length = 0;
  21:main.c        ****     LCD_Start();
  44              		.loc 1 21 0
  45              		.thumb
  46              		.syntax unified
  47 0004 FFF7FEFF 		bl	LCD_Start
  48              	.LVL1:
  22:main.c        ****     LCD_ClearDisplay();
  49              		.loc 1 22 0
  50 0008 0120     		movs	r0, #1
  51 000a FFF7FEFF 		bl	LCD_WriteControl
  52              	.LVL2:
  20:main.c        ****     LCD_Start();
  53              		.loc 1 20 0
  54 000e 0024     		movs	r4, #0
  19:main.c        ****     int length = 0;
  55              		.loc 1 19 0
  56 0010 0025     		movs	r5, #0
  57 0012 29E0     		b	.L2
  58              	.LVL3:
  59              	.L10:
  23:main.c        ****     for(;;)
  24:main.c        ****     {
  25:main.c        ****         // Works
  26:main.c        ****         // Polling Process
  27:main.c        ****         while(C0_Read() == 0 && C1_Read() == 0 && C2_Read() == 0 && C3_Read() == 0){
  28:main.c        ****             switch(x){
  60              		.loc 1 28 0
  61 0014 012D     		cmp	r5, #1
  62 0016 10D0     		beq	.L4
  63 0018 02DC     		bgt	.L5
  64 001a 002D     		cmp	r5, #0
  65 001c 05D0     		beq	.L6
  66 001e 23E0     		b	.L2
  67              	.L5:
  68 0020 022D     		cmp	r5, #2
  69 0022 12D0     		beq	.L7
  70 0024 032D     		cmp	r5, #3
  71 0026 18D0     		beq	.L8
  72 0028 1EE0     		b	.L2
  73              	.L6:
  29:main.c        ****                 case 0:
  30:main.c        ****                     R3_Write(0);
  74              		.loc 1 30 0
  75 002a 0020     		movs	r0, #0
  76 002c FFF7FEFF 		bl	R3_Write
  77              	.LVL4:
  31:main.c        ****                     R0_Write(1);
  78              		.loc 1 31 0
  79 0030 0120     		movs	r0, #1
  80 0032 FFF7FEFF 		bl	R0_Write
  81              	.LVL5:
ARM GAS  C:\Users\HELLOK~1\AppData\Local\Temp\ccE84a6V.s 			page 3


  32:main.c        ****                     x++;
  82              		.loc 1 32 0
  83 0036 0135     		adds	r5, r5, #1
  84              	.LVL6:
  33:main.c        ****                     break;
  85              		.loc 1 33 0
  86 0038 16E0     		b	.L2
  87              	.L4:
  34:main.c        ****                 case 1:
  35:main.c        ****                     R0_Write(0);
  88              		.loc 1 35 0
  89 003a 0020     		movs	r0, #0
  90 003c FFF7FEFF 		bl	R0_Write
  91              	.LVL7:
  36:main.c        ****                     R1_Write(1);
  92              		.loc 1 36 0
  93 0040 0120     		movs	r0, #1
  94 0042 FFF7FEFF 		bl	R1_Write
  95              	.LVL8:
  37:main.c        ****                     x++;
  96              		.loc 1 37 0
  97 0046 0135     		adds	r5, r5, #1
  98              	.LVL9:
  38:main.c        ****                     break;
  99              		.loc 1 38 0
 100 0048 0EE0     		b	.L2
 101              	.L7:
  39:main.c        ****                 case 2:
  40:main.c        ****                     R1_Write(0);
 102              		.loc 1 40 0
 103 004a 0020     		movs	r0, #0
 104 004c FFF7FEFF 		bl	R1_Write
 105              	.LVL10:
  41:main.c        ****                     R2_Write(1);
 106              		.loc 1 41 0
 107 0050 0120     		movs	r0, #1
 108 0052 FFF7FEFF 		bl	R2_Write
 109              	.LVL11:
  42:main.c        ****                     x++;
 110              		.loc 1 42 0
 111 0056 0135     		adds	r5, r5, #1
 112              	.LVL12:
  43:main.c        ****                     break;
 113              		.loc 1 43 0
 114 0058 06E0     		b	.L2
 115              	.L8:
  44:main.c        ****                 case 3:
  45:main.c        ****                     R2_Write(0);
 116              		.loc 1 45 0
 117 005a 0020     		movs	r0, #0
 118 005c FFF7FEFF 		bl	R2_Write
 119              	.LVL13:
  46:main.c        ****                     R3_Write(1);
 120              		.loc 1 46 0
 121 0060 0120     		movs	r0, #1
 122 0062 FFF7FEFF 		bl	R3_Write
 123              	.LVL14:
ARM GAS  C:\Users\HELLOK~1\AppData\Local\Temp\ccE84a6V.s 			page 4


  47:main.c        ****                     x=0;
 124              		.loc 1 47 0
 125 0066 0025     		movs	r5, #0
 126              	.LVL15:
 127              	.L2:
  27:main.c        ****             switch(x){
 128              		.loc 1 27 0
 129 0068 FFF7FEFF 		bl	C0_Read
 130              	.LVL16:
 131 006c 0028     		cmp	r0, #0
 132 006e 0BD1     		bne	.L9
  27:main.c        ****             switch(x){
 133              		.loc 1 27 0 is_stmt 0 discriminator 1
 134 0070 FFF7FEFF 		bl	C1_Read
 135              	.LVL17:
 136 0074 0028     		cmp	r0, #0
 137 0076 07D1     		bne	.L9
  27:main.c        ****             switch(x){
 138              		.loc 1 27 0 discriminator 2
 139 0078 FFF7FEFF 		bl	C2_Read
 140              	.LVL18:
 141 007c 0028     		cmp	r0, #0
 142 007e 03D1     		bne	.L9
  27:main.c        ****             switch(x){
 143              		.loc 1 27 0 discriminator 3
 144 0080 FFF7FEFF 		bl	C3_Read
 145              	.LVL19:
 146 0084 0028     		cmp	r0, #0
 147 0086 C5D0     		beq	.L10
 148              	.L9:
  48:main.c        ****                     break;
  49:main.c        ****             }
  50:main.c        ****         }
  51:main.c        ****         // End Polling
  52:main.c        ****         // Delay
  53:main.c        ****         CyDelay(10);
 149              		.loc 1 53 0 is_stmt 1
 150 0088 0A20     		movs	r0, #10
 151 008a FFF7FEFF 		bl	CyDelay
 152              	.LVL20:
  54:main.c        ****         // Do whatever
  55:main.c        ****         if(C0_Read() == 1){
 153              		.loc 1 55 0
 154 008e FFF7FEFF 		bl	C0_Read
 155              	.LVL21:
 156 0092 0128     		cmp	r0, #1
 157 0094 36D1     		bne	.L11
  56:main.c        ****             switch(x){
 158              		.loc 1 56 0
 159 0096 012D     		cmp	r5, #1
 160 0098 08D0     		beq	.L13
 161 009a 02DC     		bgt	.L14
 162 009c 002D     		cmp	r5, #0
 163 009e 26D0     		beq	.L15
 164 00a0 E0E0     		b	.L52
 165              	.L14:
 166 00a2 022D     		cmp	r5, #2
ARM GAS  C:\Users\HELLOK~1\AppData\Local\Temp\ccE84a6V.s 			page 5


 167 00a4 0DD0     		beq	.L16
 168 00a6 032D     		cmp	r5, #3
 169 00a8 16D0     		beq	.L17
 170 00aa DBE0     		b	.L52
 171              	.L13:
  57:main.c        ****                 case 1:
  58:main.c        ****                     // 0, 0 (Print 1)
  59:main.c        ****                     if(length == 16){
 172              		.loc 1 59 0
 173 00ac 102C     		cmp	r4, #16
 174 00ae 03D1     		bne	.L18
 175              	.LVL22:
  60:main.c        ****                         length = 0;
  61:main.c        ****                         LCD_ClearDisplay();
 176              		.loc 1 61 0
 177 00b0 0120     		movs	r0, #1
 178 00b2 FFF7FEFF 		bl	LCD_WriteControl
 179              	.LVL23:
  60:main.c        ****                         length = 0;
 180              		.loc 1 60 0
 181 00b6 0024     		movs	r4, #0
 182              	.LVL24:
 183              	.L18:
  62:main.c        ****                     }
  63:main.c        ****                     LCD_WriteData('1');
 184              		.loc 1 63 0
 185 00b8 3120     		movs	r0, #49
 186 00ba FFF7FEFF 		bl	LCD_WriteData
 187              	.LVL25:
  64:main.c        ****                     length++;
 188              		.loc 1 64 0
 189 00be 0134     		adds	r4, r4, #1
 190              	.LVL26:
  65:main.c        ****                     break;
 191              		.loc 1 65 0
 192 00c0 D0E0     		b	.L52
 193              	.L16:
  66:main.c        ****                 case 2:
  67:main.c        ****                     // 0, 1 (Print 4)
  68:main.c        ****                     if(length == 16){
 194              		.loc 1 68 0
 195 00c2 102C     		cmp	r4, #16
 196 00c4 03D1     		bne	.L19
 197              	.LVL27:
  69:main.c        ****                         length = 0;
  70:main.c        ****                         LCD_ClearDisplay();
 198              		.loc 1 70 0
 199 00c6 0120     		movs	r0, #1
 200 00c8 FFF7FEFF 		bl	LCD_WriteControl
 201              	.LVL28:
  69:main.c        ****                         length = 0;
 202              		.loc 1 69 0
 203 00cc 0024     		movs	r4, #0
 204              	.LVL29:
 205              	.L19:
  71:main.c        ****                     }
  72:main.c        ****                     LCD_WriteData('4');
ARM GAS  C:\Users\HELLOK~1\AppData\Local\Temp\ccE84a6V.s 			page 6


 206              		.loc 1 72 0
 207 00ce 3420     		movs	r0, #52
 208 00d0 FFF7FEFF 		bl	LCD_WriteData
 209              	.LVL30:
  73:main.c        ****                     length++;
 210              		.loc 1 73 0
 211 00d4 0134     		adds	r4, r4, #1
 212              	.LVL31:
  74:main.c        ****                     break;
 213              		.loc 1 74 0
 214 00d6 C5E0     		b	.L52
 215              	.L17:
  75:main.c        ****                 case 3:
  76:main.c        ****                     // 0, 2 (Print 7)
  77:main.c        ****                     if(length == 16){
 216              		.loc 1 77 0
 217 00d8 102C     		cmp	r4, #16
 218 00da 03D1     		bne	.L20
 219              	.LVL32:
  78:main.c        ****                         length = 0;
  79:main.c        ****                         LCD_ClearDisplay();
 220              		.loc 1 79 0
 221 00dc 0120     		movs	r0, #1
 222 00de FFF7FEFF 		bl	LCD_WriteControl
 223              	.LVL33:
  78:main.c        ****                         length = 0;
 224              		.loc 1 78 0
 225 00e2 0024     		movs	r4, #0
 226              	.LVL34:
 227              	.L20:
  80:main.c        ****                     }
  81:main.c        ****                     LCD_WriteData('7');
 228              		.loc 1 81 0
 229 00e4 3720     		movs	r0, #55
 230 00e6 FFF7FEFF 		bl	LCD_WriteData
 231              	.LVL35:
  82:main.c        ****                     length++;
 232              		.loc 1 82 0
 233 00ea 0134     		adds	r4, r4, #1
 234              	.LVL36:
  83:main.c        ****                     break;
 235              		.loc 1 83 0
 236 00ec BAE0     		b	.L52
 237              	.L15:
  84:main.c        ****                 case 0:
  85:main.c        ****                     // 0, 3 (Print *)
  86:main.c        ****                     if(length == 16){
 238              		.loc 1 86 0
 239 00ee 102C     		cmp	r4, #16
 240 00f0 03D1     		bne	.L21
 241              	.LVL37:
  87:main.c        ****                         length = 0;
  88:main.c        ****                         LCD_ClearDisplay();
 242              		.loc 1 88 0
 243 00f2 0120     		movs	r0, #1
 244 00f4 FFF7FEFF 		bl	LCD_WriteControl
 245              	.LVL38:
ARM GAS  C:\Users\HELLOK~1\AppData\Local\Temp\ccE84a6V.s 			page 7


  87:main.c        ****                         length = 0;
 246              		.loc 1 87 0
 247 00f8 0024     		movs	r4, #0
 248              	.LVL39:
 249              	.L21:
  89:main.c        ****                     }
  90:main.c        ****                     LCD_WriteData('*');
 250              		.loc 1 90 0
 251 00fa 2A20     		movs	r0, #42
 252 00fc FFF7FEFF 		bl	LCD_WriteData
 253              	.LVL40:
  91:main.c        ****                     length++;
 254              		.loc 1 91 0
 255 0100 0134     		adds	r4, r4, #1
 256              	.LVL41:
  92:main.c        ****                     break;
 257              		.loc 1 92 0
 258 0102 AFE0     		b	.L52
 259              	.L11:
  93:main.c        ****             }
  94:main.c        ****         }
  95:main.c        ****         else if(C1_Read() == 1){
 260              		.loc 1 95 0
 261 0104 FFF7FEFF 		bl	C1_Read
 262              	.LVL42:
 263 0108 0128     		cmp	r0, #1
 264 010a 36D1     		bne	.L22
  96:main.c        ****             switch(x){
 265              		.loc 1 96 0
 266 010c 012D     		cmp	r5, #1
 267 010e 08D0     		beq	.L23
 268 0110 02DC     		bgt	.L24
 269 0112 002D     		cmp	r5, #0
 270 0114 26D0     		beq	.L25
 271 0116 A5E0     		b	.L52
 272              	.L24:
 273 0118 022D     		cmp	r5, #2
 274 011a 0DD0     		beq	.L26
 275 011c 032D     		cmp	r5, #3
 276 011e 16D0     		beq	.L27
 277 0120 A0E0     		b	.L52
 278              	.L23:
  97:main.c        ****                 case 1:
  98:main.c        ****                     // 1, 0 (Print 2)
  99:main.c        ****                     if(length == 16){
 279              		.loc 1 99 0
 280 0122 102C     		cmp	r4, #16
 281 0124 03D1     		bne	.L28
 282              	.LVL43:
 100:main.c        ****                         length = 0;
 101:main.c        ****                         LCD_ClearDisplay();
 283              		.loc 1 101 0
 284 0126 0120     		movs	r0, #1
 285 0128 FFF7FEFF 		bl	LCD_WriteControl
 286              	.LVL44:
 100:main.c        ****                         length = 0;
 287              		.loc 1 100 0
ARM GAS  C:\Users\HELLOK~1\AppData\Local\Temp\ccE84a6V.s 			page 8


 288 012c 0024     		movs	r4, #0
 289              	.LVL45:
 290              	.L28:
 102:main.c        ****                     }
 103:main.c        ****                     LCD_WriteData('2');
 291              		.loc 1 103 0
 292 012e 3220     		movs	r0, #50
 293 0130 FFF7FEFF 		bl	LCD_WriteData
 294              	.LVL46:
 104:main.c        ****                     length++;
 295              		.loc 1 104 0
 296 0134 0134     		adds	r4, r4, #1
 297              	.LVL47:
 105:main.c        ****                     break;
 298              		.loc 1 105 0
 299 0136 95E0     		b	.L52
 300              	.L26:
 106:main.c        ****                 case 2:
 107:main.c        ****                     // 1, 1 (Print 5)
 108:main.c        ****                     if(length == 16){
 301              		.loc 1 108 0
 302 0138 102C     		cmp	r4, #16
 303 013a 03D1     		bne	.L29
 304              	.LVL48:
 109:main.c        ****                         length = 0;
 110:main.c        ****                         LCD_ClearDisplay();
 305              		.loc 1 110 0
 306 013c 0120     		movs	r0, #1
 307 013e FFF7FEFF 		bl	LCD_WriteControl
 308              	.LVL49:
 109:main.c        ****                         length = 0;
 309              		.loc 1 109 0
 310 0142 0024     		movs	r4, #0
 311              	.LVL50:
 312              	.L29:
 111:main.c        ****                     }
 112:main.c        ****                     LCD_WriteData('5');
 313              		.loc 1 112 0
 314 0144 3520     		movs	r0, #53
 315 0146 FFF7FEFF 		bl	LCD_WriteData
 316              	.LVL51:
 113:main.c        ****                     length++;
 317              		.loc 1 113 0
 318 014a 0134     		adds	r4, r4, #1
 319              	.LVL52:
 114:main.c        ****                     break;
 320              		.loc 1 114 0
 321 014c 8AE0     		b	.L52
 322              	.L27:
 115:main.c        ****                 case 3:
 116:main.c        ****                     // 1, 2 (Print 8)
 117:main.c        ****                     if(length == 16){
 323              		.loc 1 117 0
 324 014e 102C     		cmp	r4, #16
 325 0150 03D1     		bne	.L30
 326              	.LVL53:
 118:main.c        ****                         length = 0;
ARM GAS  C:\Users\HELLOK~1\AppData\Local\Temp\ccE84a6V.s 			page 9


 119:main.c        ****                         LCD_ClearDisplay();
 327              		.loc 1 119 0
 328 0152 0120     		movs	r0, #1
 329 0154 FFF7FEFF 		bl	LCD_WriteControl
 330              	.LVL54:
 118:main.c        ****                         length = 0;
 331              		.loc 1 118 0
 332 0158 0024     		movs	r4, #0
 333              	.LVL55:
 334              	.L30:
 120:main.c        ****                     }
 121:main.c        ****                     LCD_WriteData('8');
 335              		.loc 1 121 0
 336 015a 3820     		movs	r0, #56
 337 015c FFF7FEFF 		bl	LCD_WriteData
 338              	.LVL56:
 122:main.c        ****                     length++;
 339              		.loc 1 122 0
 340 0160 0134     		adds	r4, r4, #1
 341              	.LVL57:
 123:main.c        ****                     break;
 342              		.loc 1 123 0
 343 0162 7FE0     		b	.L52
 344              	.L25:
 124:main.c        ****                 case 0:
 125:main.c        ****                     // 1, 3 (Print 0)
 126:main.c        ****                     if(length == 16){
 345              		.loc 1 126 0
 346 0164 102C     		cmp	r4, #16
 347 0166 03D1     		bne	.L31
 348              	.LVL58:
 127:main.c        ****                         length = 0;
 128:main.c        ****                         LCD_ClearDisplay();
 349              		.loc 1 128 0
 350 0168 0120     		movs	r0, #1
 351 016a FFF7FEFF 		bl	LCD_WriteControl
 352              	.LVL59:
 127:main.c        ****                         length = 0;
 353              		.loc 1 127 0
 354 016e 0024     		movs	r4, #0
 355              	.LVL60:
 356              	.L31:
 129:main.c        ****                     }
 130:main.c        ****                     LCD_WriteData('0');
 357              		.loc 1 130 0
 358 0170 3020     		movs	r0, #48
 359 0172 FFF7FEFF 		bl	LCD_WriteData
 360              	.LVL61:
 131:main.c        ****                     length++;
 361              		.loc 1 131 0
 362 0176 0134     		adds	r4, r4, #1
 363              	.LVL62:
 132:main.c        ****                     break;
 364              		.loc 1 132 0
 365 0178 74E0     		b	.L52
 366              	.L22:
 133:main.c        ****             }
ARM GAS  C:\Users\HELLOK~1\AppData\Local\Temp\ccE84a6V.s 			page 10


 134:main.c        ****         }
 135:main.c        ****         else if(C2_Read() == 1){
 367              		.loc 1 135 0
 368 017a FFF7FEFF 		bl	C2_Read
 369              	.LVL63:
 370 017e 0128     		cmp	r0, #1
 371 0180 36D1     		bne	.L32
 136:main.c        ****             switch(x){
 372              		.loc 1 136 0
 373 0182 012D     		cmp	r5, #1
 374 0184 08D0     		beq	.L33
 375 0186 02DC     		bgt	.L34
 376 0188 002D     		cmp	r5, #0
 377 018a 26D0     		beq	.L35
 378 018c 6AE0     		b	.L52
 379              	.L34:
 380 018e 022D     		cmp	r5, #2
 381 0190 0DD0     		beq	.L36
 382 0192 032D     		cmp	r5, #3
 383 0194 16D0     		beq	.L37
 384 0196 65E0     		b	.L52
 385              	.L33:
 137:main.c        ****                 case 1:
 138:main.c        ****                     // 2, 0 (Print 3)
 139:main.c        ****                     if(length == 16){
 386              		.loc 1 139 0
 387 0198 102C     		cmp	r4, #16
 388 019a 03D1     		bne	.L38
 389              	.LVL64:
 140:main.c        ****                         length = 0;
 141:main.c        ****                         LCD_ClearDisplay();
 390              		.loc 1 141 0
 391 019c 0120     		movs	r0, #1
 392 019e FFF7FEFF 		bl	LCD_WriteControl
 393              	.LVL65:
 140:main.c        ****                         length = 0;
 394              		.loc 1 140 0
 395 01a2 0024     		movs	r4, #0
 396              	.LVL66:
 397              	.L38:
 142:main.c        ****                     }
 143:main.c        ****                     LCD_WriteData('3');
 398              		.loc 1 143 0
 399 01a4 3320     		movs	r0, #51
 400 01a6 FFF7FEFF 		bl	LCD_WriteData
 401              	.LVL67:
 144:main.c        ****                     length++;
 402              		.loc 1 144 0
 403 01aa 0134     		adds	r4, r4, #1
 404              	.LVL68:
 145:main.c        ****                     break;
 405              		.loc 1 145 0
 406 01ac 5AE0     		b	.L52
 407              	.L36:
 146:main.c        ****                 case 2:
 147:main.c        ****                     // 2, 1 (Print 6)
 148:main.c        ****                     if(length == 16){
ARM GAS  C:\Users\HELLOK~1\AppData\Local\Temp\ccE84a6V.s 			page 11


 408              		.loc 1 148 0
 409 01ae 102C     		cmp	r4, #16
 410 01b0 03D1     		bne	.L40
 411              	.LVL69:
 149:main.c        ****                         length = 0;
 150:main.c        ****                         LCD_ClearDisplay();
 412              		.loc 1 150 0
 413 01b2 0120     		movs	r0, #1
 414 01b4 FFF7FEFF 		bl	LCD_WriteControl
 415              	.LVL70:
 149:main.c        ****                         length = 0;
 416              		.loc 1 149 0
 417 01b8 0024     		movs	r4, #0
 418              	.LVL71:
 419              	.L40:
 151:main.c        ****                     }
 152:main.c        ****                     LCD_WriteData('6');
 420              		.loc 1 152 0
 421 01ba 3620     		movs	r0, #54
 422 01bc FFF7FEFF 		bl	LCD_WriteData
 423              	.LVL72:
 153:main.c        ****                     length++;
 424              		.loc 1 153 0
 425 01c0 0134     		adds	r4, r4, #1
 426              	.LVL73:
 154:main.c        ****                     break;
 427              		.loc 1 154 0
 428 01c2 4FE0     		b	.L52
 429              	.L37:
 155:main.c        ****                 case 3:
 156:main.c        ****                     // 2, 2 (Print 9)
 157:main.c        ****                     if(length == 16){
 430              		.loc 1 157 0
 431 01c4 102C     		cmp	r4, #16
 432 01c6 03D1     		bne	.L41
 433              	.LVL74:
 158:main.c        ****                         length = 0;
 159:main.c        ****                         LCD_ClearDisplay();
 434              		.loc 1 159 0
 435 01c8 0120     		movs	r0, #1
 436 01ca FFF7FEFF 		bl	LCD_WriteControl
 437              	.LVL75:
 158:main.c        ****                         length = 0;
 438              		.loc 1 158 0
 439 01ce 0024     		movs	r4, #0
 440              	.LVL76:
 441              	.L41:
 160:main.c        ****                     }
 161:main.c        ****                     LCD_WriteData('9');
 442              		.loc 1 161 0
 443 01d0 3920     		movs	r0, #57
 444 01d2 FFF7FEFF 		bl	LCD_WriteData
 445              	.LVL77:
 162:main.c        ****                     length++;
 446              		.loc 1 162 0
 447 01d6 0134     		adds	r4, r4, #1
 448              	.LVL78:
ARM GAS  C:\Users\HELLOK~1\AppData\Local\Temp\ccE84a6V.s 			page 12


 163:main.c        ****                     break;
 449              		.loc 1 163 0
 450 01d8 44E0     		b	.L52
 451              	.L35:
 164:main.c        ****                 case 0:
 165:main.c        ****                     // 2, 3 (Print #)
 166:main.c        ****                     if(length == 16){
 452              		.loc 1 166 0
 453 01da 102C     		cmp	r4, #16
 454 01dc 03D1     		bne	.L42
 455              	.LVL79:
 167:main.c        ****                         length = 0;
 168:main.c        ****                         LCD_ClearDisplay();
 456              		.loc 1 168 0
 457 01de 0120     		movs	r0, #1
 458 01e0 FFF7FEFF 		bl	LCD_WriteControl
 459              	.LVL80:
 167:main.c        ****                         length = 0;
 460              		.loc 1 167 0
 461 01e4 0024     		movs	r4, #0
 462              	.LVL81:
 463              	.L42:
 169:main.c        ****                     }
 170:main.c        ****                     LCD_WriteData('#');
 464              		.loc 1 170 0
 465 01e6 2320     		movs	r0, #35
 466 01e8 FFF7FEFF 		bl	LCD_WriteData
 467              	.LVL82:
 171:main.c        ****                     length++;
 468              		.loc 1 171 0
 469 01ec 0134     		adds	r4, r4, #1
 470              	.LVL83:
 172:main.c        ****                     break;
 471              		.loc 1 172 0
 472 01ee 39E0     		b	.L52
 473              	.L32:
 173:main.c        ****             }
 174:main.c        ****         }
 175:main.c        ****         else if(C3_Read() == 1){
 474              		.loc 1 175 0
 475 01f0 FFF7FEFF 		bl	C3_Read
 476              	.LVL84:
 477 01f4 0128     		cmp	r0, #1
 478 01f6 35D1     		bne	.L52
 176:main.c        ****             switch(x){
 479              		.loc 1 176 0
 480 01f8 012D     		cmp	r5, #1
 481 01fa 08D0     		beq	.L43
 482 01fc 02DC     		bgt	.L44
 483 01fe 002D     		cmp	r5, #0
 484 0200 26D0     		beq	.L45
 485 0202 2FE0     		b	.L52
 486              	.L44:
 487 0204 022D     		cmp	r5, #2
 488 0206 0DD0     		beq	.L46
 489 0208 032D     		cmp	r5, #3
 490 020a 16D0     		beq	.L47
ARM GAS  C:\Users\HELLOK~1\AppData\Local\Temp\ccE84a6V.s 			page 13


 491 020c 2AE0     		b	.L52
 492              	.L43:
 177:main.c        ****                 case 1:
 178:main.c        ****                     // 3, 0 (Print A)
 179:main.c        ****                     if(length == 16){
 493              		.loc 1 179 0
 494 020e 102C     		cmp	r4, #16
 495 0210 03D1     		bne	.L48
 496              	.LVL85:
 180:main.c        ****                         length = 0;
 181:main.c        ****                         LCD_ClearDisplay();
 497              		.loc 1 181 0
 498 0212 0120     		movs	r0, #1
 499 0214 FFF7FEFF 		bl	LCD_WriteControl
 500              	.LVL86:
 180:main.c        ****                         length = 0;
 501              		.loc 1 180 0
 502 0218 0024     		movs	r4, #0
 503              	.LVL87:
 504              	.L48:
 182:main.c        ****                     }
 183:main.c        ****                     LCD_WriteData('A');
 505              		.loc 1 183 0
 506 021a 4120     		movs	r0, #65
 507 021c FFF7FEFF 		bl	LCD_WriteData
 508              	.LVL88:
 184:main.c        ****                     length++;
 509              		.loc 1 184 0
 510 0220 0134     		adds	r4, r4, #1
 511              	.LVL89:
 185:main.c        ****                     break;
 512              		.loc 1 185 0
 513 0222 1FE0     		b	.L52
 514              	.L46:
 186:main.c        ****                 case 2:
 187:main.c        ****                     // 3, 1 (Print B)
 188:main.c        ****                     if(length == 16){
 515              		.loc 1 188 0
 516 0224 102C     		cmp	r4, #16
 517 0226 03D1     		bne	.L49
 518              	.LVL90:
 189:main.c        ****                         length = 0;
 190:main.c        ****                         LCD_ClearDisplay();
 519              		.loc 1 190 0
 520 0228 0120     		movs	r0, #1
 521 022a FFF7FEFF 		bl	LCD_WriteControl
 522              	.LVL91:
 189:main.c        ****                         length = 0;
 523              		.loc 1 189 0
 524 022e 0024     		movs	r4, #0
 525              	.LVL92:
 526              	.L49:
 191:main.c        ****                     }
 192:main.c        ****                     LCD_WriteData('B');
 527              		.loc 1 192 0
 528 0230 4220     		movs	r0, #66
 529 0232 FFF7FEFF 		bl	LCD_WriteData
ARM GAS  C:\Users\HELLOK~1\AppData\Local\Temp\ccE84a6V.s 			page 14


 530              	.LVL93:
 193:main.c        ****                     length++;
 531              		.loc 1 193 0
 532 0236 0134     		adds	r4, r4, #1
 533              	.LVL94:
 194:main.c        ****                     break;
 534              		.loc 1 194 0
 535 0238 14E0     		b	.L52
 536              	.L47:
 195:main.c        ****                 case 3:
 196:main.c        ****                     // 3, 2 (Print C)
 197:main.c        ****                     if(length == 16){
 537              		.loc 1 197 0
 538 023a 102C     		cmp	r4, #16
 539 023c 03D1     		bne	.L50
 540              	.LVL95:
 198:main.c        ****                         length = 0;
 199:main.c        ****                         LCD_ClearDisplay();
 541              		.loc 1 199 0
 542 023e 0120     		movs	r0, #1
 543 0240 FFF7FEFF 		bl	LCD_WriteControl
 544              	.LVL96:
 198:main.c        ****                         length = 0;
 545              		.loc 1 198 0
 546 0244 0024     		movs	r4, #0
 547              	.LVL97:
 548              	.L50:
 200:main.c        ****                     }
 201:main.c        ****                     LCD_WriteData('C');
 549              		.loc 1 201 0
 550 0246 4320     		movs	r0, #67
 551 0248 FFF7FEFF 		bl	LCD_WriteData
 552              	.LVL98:
 202:main.c        ****                     length++;
 553              		.loc 1 202 0
 554 024c 0134     		adds	r4, r4, #1
 555              	.LVL99:
 203:main.c        ****                     break;
 556              		.loc 1 203 0
 557 024e 09E0     		b	.L52
 558              	.L45:
 204:main.c        ****                 case 0:
 205:main.c        ****                     // 3, 3 (Print D)
 206:main.c        ****                     if(length == 16){
 559              		.loc 1 206 0
 560 0250 102C     		cmp	r4, #16
 561 0252 03D1     		bne	.L51
 562              	.LVL100:
 207:main.c        ****                         length = 0;
 208:main.c        ****                         LCD_ClearDisplay();
 563              		.loc 1 208 0
 564 0254 0120     		movs	r0, #1
 565 0256 FFF7FEFF 		bl	LCD_WriteControl
 566              	.LVL101:
 207:main.c        ****                         length = 0;
 567              		.loc 1 207 0
 568 025a 0024     		movs	r4, #0
ARM GAS  C:\Users\HELLOK~1\AppData\Local\Temp\ccE84a6V.s 			page 15


 569              	.LVL102:
 570              	.L51:
 209:main.c        ****                     }
 210:main.c        ****                     LCD_WriteData('D');
 571              		.loc 1 210 0
 572 025c 4420     		movs	r0, #68
 573 025e FFF7FEFF 		bl	LCD_WriteData
 574              	.LVL103:
 211:main.c        ****                     length++;
 575              		.loc 1 211 0
 576 0262 0134     		adds	r4, r4, #1
 577              	.LVL104:
 578              	.L52:
 212:main.c        ****                     break;
 213:main.c        ****             }
 214:main.c        ****         }
 215:main.c        ****         // Check for release
 216:main.c        ****         while(C0_Read() == 1 || C1_Read() == 1 || C2_Read() == 1 || C3_Read() == 1);
 579              		.loc 1 216 0 discriminator 7
 580 0264 FFF7FEFF 		bl	C0_Read
 581              	.LVL105:
 582 0268 0128     		cmp	r0, #1
 583 026a FBD0     		beq	.L52
 584              		.loc 1 216 0 is_stmt 0 discriminator 2
 585 026c FFF7FEFF 		bl	C1_Read
 586              	.LVL106:
 587 0270 0128     		cmp	r0, #1
 588 0272 F7D0     		beq	.L52
 589              		.loc 1 216 0 discriminator 4
 590 0274 FFF7FEFF 		bl	C2_Read
 591              	.LVL107:
 592 0278 0128     		cmp	r0, #1
 593 027a F3D0     		beq	.L52
 594              		.loc 1 216 0 discriminator 6
 595 027c FFF7FEFF 		bl	C3_Read
 596              	.LVL108:
 597 0280 0128     		cmp	r0, #1
 598 0282 EFD0     		beq	.L52
 599 0284 F0E6     		b	.L2
 600              		.cfi_endproc
 601              	.LFE34:
 602              		.size	main, .-main
 603 0286 C046     		.text
 604              	.Letext0:
 605              		.file 2 "Generated_Source\\PSoC4/LCD.h"
 606              		.file 3 "Generated_Source\\PSoC4/R3.h"
 607              		.file 4 "Generated_Source\\PSoC4/R0.h"
 608              		.file 5 "Generated_Source\\PSoC4/R1.h"
 609              		.file 6 "Generated_Source\\PSoC4/R2.h"
 610              		.file 7 "Generated_Source\\PSoC4/C0.h"
 611              		.file 8 "Generated_Source\\PSoC4/C1.h"
 612              		.file 9 "Generated_Source\\PSoC4/C2.h"
 613              		.file 10 "Generated_Source\\PSoC4/C3.h"
 614              		.file 11 "Generated_Source\\PSoC4/CyLib.h"