ARM GAS  C:\Users\HELLOK~1\AppData\Local\Temp\ccTWRgqh.s 			page 1


   1              		.syntax unified
   2              		.cpu cortex-m0
   3              		.fpu softvfp
   4              		.eabi_attribute 20, 1
   5              		.eabi_attribute 21, 1
   6              		.eabi_attribute 23, 3
   7              		.eabi_attribute 24, 1
   8              		.eabi_attribute 25, 1
   9              		.eabi_attribute 26, 1
  10              		.eabi_attribute 30, 1
  11              		.eabi_attribute 34, 0
  12              		.eabi_attribute 18, 4
  13              		.thumb
  14              		.syntax unified
  15              		.file	"main.c"
  16              		.text
  17              	.Ltext0:
  18              		.cfi_sections	.debug_frame
  19              		.section	.text.printChar,"ax",%progbits
  20              		.align	2
  21              		.global	printChar
  22              		.code	16
  23              		.thumb_func
  24              		.type	printChar, %function
  25              	printChar:
  26              	.LFB34:
  27              		.file 1 "main.c"
   1:main.c        **** /* ========================================
   2:main.c        ****  *
   3:main.c        ****  * Copyright YOUR COMPANY, THE YEAR
   4:main.c        ****  * All Rights Reserved
   5:main.c        ****  * UNPUBLISHED, LICENSED SOFTWARE.
   6:main.c        ****  *
   7:main.c        ****  * CONFIDENTIAL AND PROPRIETARY INFORMATION
   8:main.c        ****  * WHICH IS THE PROPERTY OF your company.
   9:main.c        ****  *
  10:main.c        ****  * ========================================
  11:main.c        **** */
  12:main.c        **** #include "project.h"
  13:main.c        **** int printChar(char print, int length){
  28              		.loc 1 13 0
  29              		.cfi_startproc
  30              		@ args = 0, pretend = 0, frame = 0
  31              		@ frame_needed = 0, uses_anonymous_args = 0
  32              	.LVL0:
  33 0000 70B5     		push	{r4, r5, r6, lr}
  34              		.cfi_def_cfa_offset 16
  35              		.cfi_offset 4, -16
  36              		.cfi_offset 5, -12
  37              		.cfi_offset 6, -8
  38              		.cfi_offset 14, -4
  39 0002 0500     		movs	r5, r0
  40 0004 0C00     		movs	r4, r1
  14:main.c        ****     if(length == 16){
  41              		.loc 1 14 0
  42 0006 1029     		cmp	r1, #16
  43 0008 03D1     		bne	.L2
ARM GAS  C:\Users\HELLOK~1\AppData\Local\Temp\ccTWRgqh.s 			page 2


  44              	.LVL1:
  15:main.c        ****         length = 0;
  16:main.c        ****         LCD_ClearDisplay();
  45              		.loc 1 16 0
  46 000a 0120     		movs	r0, #1
  47              	.LVL2:
  48 000c FFF7FEFF 		bl	LCD_WriteControl
  49              	.LVL3:
  15:main.c        ****         length = 0;
  50              		.loc 1 15 0
  51 0010 0024     		movs	r4, #0
  52              	.LVL4:
  53              	.L2:
  17:main.c        ****     }
  18:main.c        ****     LCD_WriteData(print);
  54              		.loc 1 18 0
  55 0012 2800     		movs	r0, r5
  56 0014 FFF7FEFF 		bl	LCD_WriteData
  57              	.LVL5:
  19:main.c        ****     length++;
  58              		.loc 1 19 0
  59 0018 601C     		adds	r0, r4, #1
  60              	.LVL6:
  20:main.c        ****     return length;
  21:main.c        **** }
  61              		.loc 1 21 0
  62              		@ sp needed
  63 001a 70BD     		pop	{r4, r5, r6, pc}
  64              		.cfi_endproc
  65              	.LFE34:
  66              		.size	printChar, .-printChar
  67              		.section	.text.main,"ax",%progbits
  68              		.align	2
  69              		.global	main
  70              		.code	16
  71              		.thumb_func
  72              		.type	main, %function
  73              	main:
  74              	.LFB35:
  22:main.c        **** int main(void)
  23:main.c        **** {
  75              		.loc 1 23 0
  76              		.cfi_startproc
  77              		@ args = 0, pretend = 0, frame = 0
  78              		@ frame_needed = 0, uses_anonymous_args = 0
  79 0000 70B5     		push	{r4, r5, r6, lr}
  80              		.cfi_def_cfa_offset 16
  81              		.cfi_offset 4, -16
  82              		.cfi_offset 5, -12
  83              		.cfi_offset 6, -8
  84              		.cfi_offset 14, -4
  24:main.c        ****     CyGlobalIntEnable; /* Enable global interrupts. */
  85              		.loc 1 24 0
  86              		.syntax divided
  87              	@ 24 "main.c" 1
  88 0002 62B6     		CPSIE   i
  89              	@ 0 "" 2
ARM GAS  C:\Users\HELLOK~1\AppData\Local\Temp\ccTWRgqh.s 			page 3


  90              	.LVL7:
  25:main.c        **** 
  26:main.c        ****     /* Place your initialization/startup code here (e.g. MyInst_Start()) */
  27:main.c        ****     int x = 0;
  28:main.c        ****     int length = 0;
  29:main.c        ****     LCD_Start();
  91              		.loc 1 29 0
  92              		.thumb
  93              		.syntax unified
  94 0004 FFF7FEFF 		bl	LCD_Start
  95              	.LVL8:
  30:main.c        ****     LCD_ClearDisplay();
  96              		.loc 1 30 0
  97 0008 0120     		movs	r0, #1
  98 000a FFF7FEFF 		bl	LCD_WriteControl
  99              	.LVL9:
  28:main.c        ****     LCD_Start();
 100              		.loc 1 28 0
 101 000e 0024     		movs	r4, #0
  27:main.c        ****     int length = 0;
 102              		.loc 1 27 0
 103 0010 0025     		movs	r5, #0
 104 0012 29E0     		b	.L4
 105              	.LVL10:
 106              	.L12:
  31:main.c        ****     for(;;)
  32:main.c        ****     {
  33:main.c        ****         // Works
  34:main.c        ****         // Polling Process
  35:main.c        ****         while(C0_Read() == 0 && C1_Read() == 0 && C2_Read() == 0 && C3_Read() == 0){
  36:main.c        ****             switch(x){
 107              		.loc 1 36 0
 108 0014 012D     		cmp	r5, #1
 109 0016 10D0     		beq	.L6
 110 0018 02DC     		bgt	.L7
 111 001a 002D     		cmp	r5, #0
 112 001c 05D0     		beq	.L8
 113 001e 23E0     		b	.L4
 114              	.L7:
 115 0020 022D     		cmp	r5, #2
 116 0022 12D0     		beq	.L9
 117 0024 032D     		cmp	r5, #3
 118 0026 18D0     		beq	.L10
 119 0028 1EE0     		b	.L4
 120              	.L8:
  37:main.c        ****                 case 0:
  38:main.c        ****                     R3_Write(0);
 121              		.loc 1 38 0
 122 002a 0020     		movs	r0, #0
 123 002c FFF7FEFF 		bl	R3_Write
 124              	.LVL11:
  39:main.c        ****                     R0_Write(1);
 125              		.loc 1 39 0
 126 0030 0120     		movs	r0, #1
 127 0032 FFF7FEFF 		bl	R0_Write
 128              	.LVL12:
  40:main.c        ****                     x++;
ARM GAS  C:\Users\HELLOK~1\AppData\Local\Temp\ccTWRgqh.s 			page 4


 129              		.loc 1 40 0
 130 0036 0135     		adds	r5, r5, #1
 131              	.LVL13:
  41:main.c        ****                     break;
 132              		.loc 1 41 0
 133 0038 16E0     		b	.L4
 134              	.L6:
  42:main.c        ****                 case 1:
  43:main.c        ****                     R0_Write(0);
 135              		.loc 1 43 0
 136 003a 0020     		movs	r0, #0
 137 003c FFF7FEFF 		bl	R0_Write
 138              	.LVL14:
  44:main.c        ****                     R1_Write(1);
 139              		.loc 1 44 0
 140 0040 0120     		movs	r0, #1
 141 0042 FFF7FEFF 		bl	R1_Write
 142              	.LVL15:
  45:main.c        ****                     x++;
 143              		.loc 1 45 0
 144 0046 0135     		adds	r5, r5, #1
 145              	.LVL16:
  46:main.c        ****                     break;
 146              		.loc 1 46 0
 147 0048 0EE0     		b	.L4
 148              	.L9:
  47:main.c        ****                 case 2:
  48:main.c        ****                     R1_Write(0);
 149              		.loc 1 48 0
 150 004a 0020     		movs	r0, #0
 151 004c FFF7FEFF 		bl	R1_Write
 152              	.LVL17:
  49:main.c        ****                     R2_Write(1);
 153              		.loc 1 49 0
 154 0050 0120     		movs	r0, #1
 155 0052 FFF7FEFF 		bl	R2_Write
 156              	.LVL18:
  50:main.c        ****                     x++;
 157              		.loc 1 50 0
 158 0056 0135     		adds	r5, r5, #1
 159              	.LVL19:
  51:main.c        ****                     break;
 160              		.loc 1 51 0
 161 0058 06E0     		b	.L4
 162              	.L10:
  52:main.c        ****                 case 3:
  53:main.c        ****                     R2_Write(0);
 163              		.loc 1 53 0
 164 005a 0020     		movs	r0, #0
 165 005c FFF7FEFF 		bl	R2_Write
 166              	.LVL20:
  54:main.c        ****                     R3_Write(1);
 167              		.loc 1 54 0
 168 0060 0120     		movs	r0, #1
 169 0062 FFF7FEFF 		bl	R3_Write
 170              	.LVL21:
  55:main.c        ****                     x=0;
ARM GAS  C:\Users\HELLOK~1\AppData\Local\Temp\ccTWRgqh.s 			page 5


 171              		.loc 1 55 0
 172 0066 0025     		movs	r5, #0
 173              	.LVL22:
 174              	.L4:
  35:main.c        ****             switch(x){
 175              		.loc 1 35 0
 176 0068 FFF7FEFF 		bl	C0_Read
 177              	.LVL23:
 178 006c 0028     		cmp	r0, #0
 179 006e 0BD1     		bne	.L11
  35:main.c        ****             switch(x){
 180              		.loc 1 35 0 is_stmt 0 discriminator 1
 181 0070 FFF7FEFF 		bl	C1_Read
 182              	.LVL24:
 183 0074 0028     		cmp	r0, #0
 184 0076 07D1     		bne	.L11
  35:main.c        ****             switch(x){
 185              		.loc 1 35 0 discriminator 2
 186 0078 FFF7FEFF 		bl	C2_Read
 187              	.LVL25:
 188 007c 0028     		cmp	r0, #0
 189 007e 03D1     		bne	.L11
  35:main.c        ****             switch(x){
 190              		.loc 1 35 0 discriminator 3
 191 0080 FFF7FEFF 		bl	C3_Read
 192              	.LVL26:
 193 0084 0028     		cmp	r0, #0
 194 0086 C5D0     		beq	.L12
 195              	.L11:
  56:main.c        ****                     break;
  57:main.c        ****             }
  58:main.c        ****         }
  59:main.c        ****         // End Polling
  60:main.c        ****         // Delay
  61:main.c        ****         CyDelay(10);
 196              		.loc 1 61 0 is_stmt 1
 197 0088 0A20     		movs	r0, #10
 198 008a FFF7FEFF 		bl	CyDelay
 199              	.LVL27:
  62:main.c        ****         // Do whatever
  63:main.c        ****         if(C0_Read() == 1){
 200              		.loc 1 63 0
 201 008e FFF7FEFF 		bl	C0_Read
 202              	.LVL28:
 203 0092 0128     		cmp	r0, #1
 204 0094 22D1     		bne	.L13
  64:main.c        ****             switch(x){
 205              		.loc 1 64 0
 206 0096 012D     		cmp	r5, #1
 207 0098 08D0     		beq	.L15
 208 009a 02DC     		bgt	.L16
 209 009c 002D     		cmp	r5, #0
 210 009e 17D0     		beq	.L17
 211 00a0 90E0     		b	.L38
 212              	.L16:
 213 00a2 022D     		cmp	r5, #2
 214 00a4 08D0     		beq	.L18
ARM GAS  C:\Users\HELLOK~1\AppData\Local\Temp\ccTWRgqh.s 			page 6


 215 00a6 032D     		cmp	r5, #3
 216 00a8 0CD0     		beq	.L19
 217 00aa 8BE0     		b	.L38
 218              	.L15:
  65:main.c        ****                 case 1:
  66:main.c        ****                     // Print 1 (0,0)
  67:main.c        ****                     length = printChar('1', length);
 219              		.loc 1 67 0
 220 00ac 2100     		movs	r1, r4
 221 00ae 3120     		movs	r0, #49
 222 00b0 FFF7FEFF 		bl	printChar
 223              	.LVL29:
 224 00b4 0400     		movs	r4, r0
 225              	.LVL30:
  68:main.c        ****                     break;
 226              		.loc 1 68 0
 227 00b6 85E0     		b	.L38
 228              	.LVL31:
 229              	.L18:
  69:main.c        ****                 case 2:
  70:main.c        ****                     // Print 4 (0,1)
  71:main.c        ****                     length = printChar('4',length);
 230              		.loc 1 71 0
 231 00b8 2100     		movs	r1, r4
 232 00ba 3420     		movs	r0, #52
 233 00bc FFF7FEFF 		bl	printChar
 234              	.LVL32:
 235 00c0 0400     		movs	r4, r0
 236              	.LVL33:
  72:main.c        ****                     break;
 237              		.loc 1 72 0
 238 00c2 7FE0     		b	.L38
 239              	.LVL34:
 240              	.L19:
  73:main.c        ****                 case 3:
  74:main.c        ****                     // Print 7 (0,2)
  75:main.c        ****                     length = printChar('7',length);
 241              		.loc 1 75 0
 242 00c4 2100     		movs	r1, r4
 243 00c6 3720     		movs	r0, #55
 244 00c8 FFF7FEFF 		bl	printChar
 245              	.LVL35:
 246 00cc 0400     		movs	r4, r0
 247              	.LVL36:
  76:main.c        ****                     break;
 248              		.loc 1 76 0
 249 00ce 79E0     		b	.L38
 250              	.LVL37:
 251              	.L17:
  77:main.c        ****                 case 0:
  78:main.c        ****                     // Print * (0,3)
  79:main.c        ****                     length = printChar('*',length);
 252              		.loc 1 79 0
 253 00d0 2100     		movs	r1, r4
 254 00d2 2A20     		movs	r0, #42
 255 00d4 FFF7FEFF 		bl	printChar
 256              	.LVL38:
ARM GAS  C:\Users\HELLOK~1\AppData\Local\Temp\ccTWRgqh.s 			page 7


 257 00d8 0400     		movs	r4, r0
 258              	.LVL39:
  80:main.c        ****                     break;
 259              		.loc 1 80 0
 260 00da 73E0     		b	.L38
 261              	.LVL40:
 262              	.L13:
  81:main.c        ****             }
  82:main.c        ****         }
  83:main.c        ****         else if(C1_Read() == 1){
 263              		.loc 1 83 0
 264 00dc FFF7FEFF 		bl	C1_Read
 265              	.LVL41:
 266 00e0 0128     		cmp	r0, #1
 267 00e2 22D1     		bne	.L20
  84:main.c        ****             switch(x){
 268              		.loc 1 84 0
 269 00e4 012D     		cmp	r5, #1
 270 00e6 08D0     		beq	.L21
 271 00e8 02DC     		bgt	.L22
 272 00ea 002D     		cmp	r5, #0
 273 00ec 17D0     		beq	.L23
 274 00ee 69E0     		b	.L38
 275              	.L22:
 276 00f0 022D     		cmp	r5, #2
 277 00f2 08D0     		beq	.L24
 278 00f4 032D     		cmp	r5, #3
 279 00f6 0CD0     		beq	.L25
 280 00f8 64E0     		b	.L38
 281              	.L21:
  85:main.c        ****                 case 1:
  86:main.c        ****                     // Print 2 (1,0)
  87:main.c        ****                     length = printChar('2',length);
 282              		.loc 1 87 0
 283 00fa 2100     		movs	r1, r4
 284 00fc 3220     		movs	r0, #50
 285 00fe FFF7FEFF 		bl	printChar
 286              	.LVL42:
 287 0102 0400     		movs	r4, r0
 288              	.LVL43:
  88:main.c        ****                     break;
 289              		.loc 1 88 0
 290 0104 5EE0     		b	.L38
 291              	.LVL44:
 292              	.L24:
  89:main.c        ****                 case 2:
  90:main.c        ****                     // Print 5 (1,1)
  91:main.c        ****                     length = printChar('5',length);
 293              		.loc 1 91 0
 294 0106 2100     		movs	r1, r4
 295 0108 3520     		movs	r0, #53
 296 010a FFF7FEFF 		bl	printChar
 297              	.LVL45:
 298 010e 0400     		movs	r4, r0
 299              	.LVL46:
  92:main.c        ****                     break;
 300              		.loc 1 92 0
ARM GAS  C:\Users\HELLOK~1\AppData\Local\Temp\ccTWRgqh.s 			page 8


 301 0110 58E0     		b	.L38
 302              	.LVL47:
 303              	.L25:
  93:main.c        ****                 case 3:
  94:main.c        ****                     // Print 8 (1,2)
  95:main.c        ****                     length = printChar('8',length);
 304              		.loc 1 95 0
 305 0112 2100     		movs	r1, r4
 306 0114 3820     		movs	r0, #56
 307 0116 FFF7FEFF 		bl	printChar
 308              	.LVL48:
 309 011a 0400     		movs	r4, r0
 310              	.LVL49:
  96:main.c        ****                     break;
 311              		.loc 1 96 0
 312 011c 52E0     		b	.L38
 313              	.LVL50:
 314              	.L23:
  97:main.c        ****                 case 0:
  98:main.c        ****                     // Print 0 (1,3)
  99:main.c        ****                     length = printChar('0',length);
 315              		.loc 1 99 0
 316 011e 2100     		movs	r1, r4
 317 0120 3020     		movs	r0, #48
 318 0122 FFF7FEFF 		bl	printChar
 319              	.LVL51:
 320 0126 0400     		movs	r4, r0
 321              	.LVL52:
 100:main.c        ****                     break;
 322              		.loc 1 100 0
 323 0128 4CE0     		b	.L38
 324              	.LVL53:
 325              	.L20:
 101:main.c        ****             }
 102:main.c        ****         }
 103:main.c        ****         else if(C2_Read() == 1){
 326              		.loc 1 103 0
 327 012a FFF7FEFF 		bl	C2_Read
 328              	.LVL54:
 329 012e 0128     		cmp	r0, #1
 330 0130 22D1     		bne	.L26
 104:main.c        ****             switch(x){
 331              		.loc 1 104 0
 332 0132 012D     		cmp	r5, #1
 333 0134 08D0     		beq	.L27
 334 0136 02DC     		bgt	.L28
 335 0138 002D     		cmp	r5, #0
 336 013a 17D0     		beq	.L29
 337 013c 42E0     		b	.L38
 338              	.L28:
 339 013e 022D     		cmp	r5, #2
 340 0140 08D0     		beq	.L30
 341 0142 032D     		cmp	r5, #3
 342 0144 0CD0     		beq	.L31
 343 0146 3DE0     		b	.L38
 344              	.L27:
 105:main.c        ****                 case 1:
ARM GAS  C:\Users\HELLOK~1\AppData\Local\Temp\ccTWRgqh.s 			page 9


 106:main.c        ****                     // Print 3 (2,0)
 107:main.c        ****                     length = printChar('3',length);
 345              		.loc 1 107 0
 346 0148 2100     		movs	r1, r4
 347 014a 3320     		movs	r0, #51
 348 014c FFF7FEFF 		bl	printChar
 349              	.LVL55:
 350 0150 0400     		movs	r4, r0
 351              	.LVL56:
 108:main.c        ****                     break;
 352              		.loc 1 108 0
 353 0152 37E0     		b	.L38
 354              	.LVL57:
 355              	.L30:
 109:main.c        ****                 case 2:
 110:main.c        ****                     // Print 6 (2,1)
 111:main.c        ****                     length = printChar('6',length);
 356              		.loc 1 111 0
 357 0154 2100     		movs	r1, r4
 358 0156 3620     		movs	r0, #54
 359 0158 FFF7FEFF 		bl	printChar
 360              	.LVL58:
 361 015c 0400     		movs	r4, r0
 362              	.LVL59:
 112:main.c        ****                     break;
 363              		.loc 1 112 0
 364 015e 31E0     		b	.L38
 365              	.LVL60:
 366              	.L31:
 113:main.c        ****                 case 3:
 114:main.c        ****                     // Print 9 (2,2)
 115:main.c        ****                     length = printChar('9',length);
 367              		.loc 1 115 0
 368 0160 2100     		movs	r1, r4
 369 0162 3920     		movs	r0, #57
 370 0164 FFF7FEFF 		bl	printChar
 371              	.LVL61:
 372 0168 0400     		movs	r4, r0
 373              	.LVL62:
 116:main.c        ****                     break;
 374              		.loc 1 116 0
 375 016a 2BE0     		b	.L38
 376              	.LVL63:
 377              	.L29:
 117:main.c        ****                 case 0:
 118:main.c        ****                     // Print # (2,3)
 119:main.c        ****                     length = printChar('#',length);
 378              		.loc 1 119 0
 379 016c 2100     		movs	r1, r4
 380 016e 2320     		movs	r0, #35
 381 0170 FFF7FEFF 		bl	printChar
 382              	.LVL64:
 383 0174 0400     		movs	r4, r0
 384              	.LVL65:
 120:main.c        ****                     break;
 385              		.loc 1 120 0
 386 0176 25E0     		b	.L38
ARM GAS  C:\Users\HELLOK~1\AppData\Local\Temp\ccTWRgqh.s 			page 10


 387              	.LVL66:
 388              	.L26:
 121:main.c        ****             }
 122:main.c        ****         }
 123:main.c        ****         else if(C3_Read() == 1){
 389              		.loc 1 123 0
 390 0178 FFF7FEFF 		bl	C3_Read
 391              	.LVL67:
 392 017c 0128     		cmp	r0, #1
 393 017e 21D1     		bne	.L38
 124:main.c        ****             switch(x){
 394              		.loc 1 124 0
 395 0180 012D     		cmp	r5, #1
 396 0182 08D0     		beq	.L33
 397 0184 02DC     		bgt	.L34
 398 0186 002D     		cmp	r5, #0
 399 0188 17D0     		beq	.L35
 400 018a 1BE0     		b	.L38
 401              	.L34:
 402 018c 022D     		cmp	r5, #2
 403 018e 08D0     		beq	.L36
 404 0190 032D     		cmp	r5, #3
 405 0192 0CD0     		beq	.L37
 406 0194 16E0     		b	.L38
 407              	.L33:
 125:main.c        ****                 case 1:
 126:main.c        ****                     // Print A (3,0)
 127:main.c        ****                     length = printChar('A',length);
 408              		.loc 1 127 0
 409 0196 2100     		movs	r1, r4
 410 0198 4120     		movs	r0, #65
 411 019a FFF7FEFF 		bl	printChar
 412              	.LVL68:
 413 019e 0400     		movs	r4, r0
 414              	.LVL69:
 128:main.c        ****                     break;
 415              		.loc 1 128 0
 416 01a0 10E0     		b	.L38
 417              	.LVL70:
 418              	.L36:
 129:main.c        ****                 case 2:
 130:main.c        ****                     // Print B (3,1)
 131:main.c        ****                     length = printChar('B',length);
 419              		.loc 1 131 0
 420 01a2 2100     		movs	r1, r4
 421 01a4 4220     		movs	r0, #66
 422 01a6 FFF7FEFF 		bl	printChar
 423              	.LVL71:
 424 01aa 0400     		movs	r4, r0
 425              	.LVL72:
 132:main.c        ****                     break;
 426              		.loc 1 132 0
 427 01ac 0AE0     		b	.L38
 428              	.LVL73:
 429              	.L37:
 133:main.c        ****                 case 3:
 134:main.c        ****                     // Print C (3,2)
ARM GAS  C:\Users\HELLOK~1\AppData\Local\Temp\ccTWRgqh.s 			page 11


 135:main.c        ****                     length = printChar('C',length);
 430              		.loc 1 135 0
 431 01ae 2100     		movs	r1, r4
 432 01b0 4320     		movs	r0, #67
 433 01b2 FFF7FEFF 		bl	printChar
 434              	.LVL74:
 435 01b6 0400     		movs	r4, r0
 436              	.LVL75:
 136:main.c        ****                     break;
 437              		.loc 1 136 0
 438 01b8 04E0     		b	.L38
 439              	.LVL76:
 440              	.L35:
 137:main.c        ****                 case 0:
 138:main.c        ****                     // Print D (3,3)
 139:main.c        ****                     length = printChar('D',length);
 441              		.loc 1 139 0
 442 01ba 2100     		movs	r1, r4
 443 01bc 4420     		movs	r0, #68
 444 01be FFF7FEFF 		bl	printChar
 445              	.LVL77:
 446 01c2 0400     		movs	r4, r0
 447              	.LVL78:
 448              	.L38:
 140:main.c        ****                     break;
 141:main.c        ****             }
 142:main.c        ****         }
 143:main.c        ****         // Check for release
 144:main.c        ****         while(C0_Read() == 1 || C1_Read() == 1 || C2_Read() == 1 || C3_Read() == 1);
 449              		.loc 1 144 0 discriminator 7
 450 01c4 FFF7FEFF 		bl	C0_Read
 451              	.LVL79:
 452 01c8 0128     		cmp	r0, #1
 453 01ca FBD0     		beq	.L38
 454              		.loc 1 144 0 is_stmt 0 discriminator 2
 455 01cc FFF7FEFF 		bl	C1_Read
 456              	.LVL80:
 457 01d0 0128     		cmp	r0, #1
 458 01d2 F7D0     		beq	.L38
 459              		.loc 1 144 0 discriminator 4
 460 01d4 FFF7FEFF 		bl	C2_Read
 461              	.LVL81:
 462 01d8 0128     		cmp	r0, #1
 463 01da F3D0     		beq	.L38
 464              		.loc 1 144 0 discriminator 6
 465 01dc FFF7FEFF 		bl	C3_Read
 466              	.LVL82:
 467 01e0 0128     		cmp	r0, #1
 468 01e2 EFD0     		beq	.L38
 469 01e4 40E7     		b	.L4
 470              		.cfi_endproc
 471              	.LFE35:
 472              		.size	main, .-main
 473 01e6 C046     		.text
 474              	.Letext0:
 475              		.file 2 "Generated_Source\\PSoC4/LCD.h"
 476              		.file 3 "Generated_Source\\PSoC4/R3.h"
ARM GAS  C:\Users\HELLOK~1\AppData\Local\Temp\ccTWRgqh.s 			page 12


 477              		.file 4 "Generated_Source\\PSoC4/R0.h"
 478              		.file 5 "Generated_Source\\PSoC4/R1.h"
 479              		.file 6 "Generated_Source\\PSoC4/R2.h"
 480              		.file 7 "Generated_Source\\PSoC4/C0.h"
 481              		.file 8 "Generated_Source\\PSoC4/C1.h"
 482              		.file 9 "Generated_Source\\PSoC4/C2.h"
 483              		.file 10 "Generated_Source\\PSoC4/C3.h"
 484              		.file 11 "Generated_Source\\PSoC4/CyLib.h"