ARM GAS  C:\Users\HELLOK~1\AppData\Local\Temp\ccArksle.s 			page 1


   1              		.syntax unified
   2              		.cpu cortex-m0
   3              		.fpu softvfp
   4              		.eabi_attribute 20, 1
   5              		.eabi_attribute 21, 1
   6              		.eabi_attribute 23, 3
   7              		.eabi_attribute 24, 1
   8              		.eabi_attribute 25, 1
   9              		.eabi_attribute 26, 1
  10              		.eabi_attribute 30, 1
  11              		.eabi_attribute 34, 0
  12              		.eabi_attribute 18, 4
  13              		.thumb
  14              		.syntax unified
  15              		.file	"IDAC.c"
  16              		.text
  17              	.Ltext0:
  18              		.cfi_sections	.debug_frame
  19              		.section	.text.IDAC_Init,"ax",%progbits
  20              		.align	2
  21              		.global	IDAC_Init
  22              		.code	16
  23              		.thumb_func
  24              		.type	IDAC_Init, %function
  25              	IDAC_Init:
  26              	.LFB1:
  27              		.file 1 "Generated_Source\\PSoC4\\IDAC.c"
   1:Generated_Source\PSoC4/IDAC.c **** /*******************************************************************************
   2:Generated_Source\PSoC4/IDAC.c **** * File Name: IDAC.c
   3:Generated_Source\PSoC4/IDAC.c **** * Version 1.10
   4:Generated_Source\PSoC4/IDAC.c **** *
   5:Generated_Source\PSoC4/IDAC.c **** * Description:
   6:Generated_Source\PSoC4/IDAC.c **** *  This file provides the source code of APIs for the IDAC_P4 component.
   7:Generated_Source\PSoC4/IDAC.c **** *
   8:Generated_Source\PSoC4/IDAC.c **** *******************************************************************************
   9:Generated_Source\PSoC4/IDAC.c **** * Copyright 2013-2015, Cypress Semiconductor Corporation.  All rights reserved.
  10:Generated_Source\PSoC4/IDAC.c **** * You may use this file only in accordance with the license, terms, conditions,
  11:Generated_Source\PSoC4/IDAC.c **** * disclaimers, and limitations in the end user license agreement accompanying
  12:Generated_Source\PSoC4/IDAC.c **** * the software package with which this file was provided.
  13:Generated_Source\PSoC4/IDAC.c **** *******************************************************************************/
  14:Generated_Source\PSoC4/IDAC.c **** 
  15:Generated_Source\PSoC4/IDAC.c **** #include "IDAC.h"
  16:Generated_Source\PSoC4/IDAC.c **** 
  17:Generated_Source\PSoC4/IDAC.c **** uint32 IDAC_initVar = 0u;
  18:Generated_Source\PSoC4/IDAC.c **** 
  19:Generated_Source\PSoC4/IDAC.c **** 
  20:Generated_Source\PSoC4/IDAC.c **** /*******************************************************************************
  21:Generated_Source\PSoC4/IDAC.c **** * Function Name: IDAC_Init
  22:Generated_Source\PSoC4/IDAC.c **** ********************************************************************************
  23:Generated_Source\PSoC4/IDAC.c **** *
  24:Generated_Source\PSoC4/IDAC.c **** * Summary:
  25:Generated_Source\PSoC4/IDAC.c **** *  Initializes IDAC registers with initial values provided from customizer.
  26:Generated_Source\PSoC4/IDAC.c **** *
  27:Generated_Source\PSoC4/IDAC.c **** * Parameters:
  28:Generated_Source\PSoC4/IDAC.c **** *  None
  29:Generated_Source\PSoC4/IDAC.c **** *
  30:Generated_Source\PSoC4/IDAC.c **** * Return:
ARM GAS  C:\Users\HELLOK~1\AppData\Local\Temp\ccArksle.s 			page 2


  31:Generated_Source\PSoC4/IDAC.c **** *  None
  32:Generated_Source\PSoC4/IDAC.c **** *
  33:Generated_Source\PSoC4/IDAC.c **** * Global variables:
  34:Generated_Source\PSoC4/IDAC.c **** *  None
  35:Generated_Source\PSoC4/IDAC.c **** *
  36:Generated_Source\PSoC4/IDAC.c **** *******************************************************************************/
  37:Generated_Source\PSoC4/IDAC.c **** void IDAC_Init(void)
  38:Generated_Source\PSoC4/IDAC.c **** {
  28              		.loc 1 38 0
  29              		.cfi_startproc
  30              		@ args = 0, pretend = 0, frame = 0
  31              		@ frame_needed = 0, uses_anonymous_args = 0
  32 0000 10B5     		push	{r4, lr}
  33              		.cfi_def_cfa_offset 8
  34              		.cfi_offset 4, -8
  35              		.cfi_offset 14, -4
  39:Generated_Source\PSoC4/IDAC.c ****     uint32 regVal;
  40:Generated_Source\PSoC4/IDAC.c ****     uint8 enableInterrupts;
  41:Generated_Source\PSoC4/IDAC.c **** 
  42:Generated_Source\PSoC4/IDAC.c ****     /* Set initial configuration */
  43:Generated_Source\PSoC4/IDAC.c ****     enableInterrupts = CyEnterCriticalSection();
  36              		.loc 1 43 0
  37 0002 FFF7FEFF 		bl	CyEnterCriticalSection
  38              	.LVL0:
  44:Generated_Source\PSoC4/IDAC.c ****     
  45:Generated_Source\PSoC4/IDAC.c ****     #if(IDAC_MODE_SOURCE == IDAC_IDAC_POLARITY)
  46:Generated_Source\PSoC4/IDAC.c ****         regVal  = IDAC_CSD_TRIM1_REG & ~(IDAC_CSD_IDAC_TRIM1_MASK);
  39              		.loc 1 46 0
  40 0006 0D4C     		ldr	r4, .L2
  41 0008 2368     		ldr	r3, [r4]
  42 000a 0F22     		movs	r2, #15
  43 000c 9343     		bics	r3, r2
  44 000e 1900     		movs	r1, r3
  45              	.LVL1:
  47:Generated_Source\PSoC4/IDAC.c ****         regVal |=  (IDAC_SFLASH_TRIM1_REG & IDAC_CSD_IDAC_TRIM1_MASK);
  46              		.loc 1 47 0
  47 0010 0B4B     		ldr	r3, .L2+4
  48 0012 1B78     		ldrb	r3, [r3]
  49 0014 1340     		ands	r3, r2
  50 0016 0B43     		orrs	r3, r1
  51              	.LVL2:
  48:Generated_Source\PSoC4/IDAC.c ****         IDAC_CSD_TRIM1_REG = regVal;
  52              		.loc 1 48 0
  53 0018 2360     		str	r3, [r4]
  49:Generated_Source\PSoC4/IDAC.c ****     #else
  50:Generated_Source\PSoC4/IDAC.c ****         regVal  = IDAC_CSD_TRIM2_REG & ~(IDAC_CSD_IDAC_TRIM2_MASK);
  51:Generated_Source\PSoC4/IDAC.c ****         regVal |=  (IDAC_SFLASH_TRIM2_REG & IDAC_CSD_IDAC_TRIM2_MASK);
  52:Generated_Source\PSoC4/IDAC.c ****         IDAC_CSD_TRIM2_REG = regVal;
  53:Generated_Source\PSoC4/IDAC.c ****     #endif /* (IDAC_MODE_SOURCE == IDAC_IDAC_POLARITY) */
  54:Generated_Source\PSoC4/IDAC.c **** 
  55:Generated_Source\PSoC4/IDAC.c ****     /* clear previous values */
  56:Generated_Source\PSoC4/IDAC.c ****     IDAC_IDAC_CONTROL_REG &= ((uint32)~((uint32)IDAC_IDAC_VALUE_MASK <<
  54              		.loc 1 56 0
  55 001a 0A4A     		ldr	r2, .L2+8
  56 001c 1368     		ldr	r3, [r2]
  57              	.LVL3:
  58 001e 1360     		str	r3, [r2]
ARM GAS  C:\Users\HELLOK~1\AppData\Local\Temp\ccArksle.s 			page 3


  59              	.LVL4:
  57:Generated_Source\PSoC4/IDAC.c ****         IDAC_IDAC_VALUE_POSITION)) | ((uint32)~((uint32)IDAC_IDAC_MODE_MASK <<
  58:Generated_Source\PSoC4/IDAC.c ****         IDAC_IDAC_MODE_POSITION))  | ((uint32)~((uint32)IDAC_IDAC_RANGE_MASK  <<
  59:Generated_Source\PSoC4/IDAC.c ****         IDAC_IDAC_RANGE_POSITION));
  60:Generated_Source\PSoC4/IDAC.c **** 
  61:Generated_Source\PSoC4/IDAC.c ****     IDAC_IDAC_POLARITY_CONTROL_REG &= (~(uint32)((uint32)IDAC_IDAC_POLARITY_MASK <<
  60              		.loc 1 61 0
  61 0020 094B     		ldr	r3, .L2+12
  62 0022 1C68     		ldr	r4, [r3]
  63 0024 0949     		ldr	r1, .L2+16
  64 0026 2140     		ands	r1, r4
  65 0028 1960     		str	r1, [r3]
  62:Generated_Source\PSoC4/IDAC.c ****         IDAC_IDAC_POLARITY_POSITION));
  63:Generated_Source\PSoC4/IDAC.c **** 
  64:Generated_Source\PSoC4/IDAC.c ****     /* set new configuration */
  65:Generated_Source\PSoC4/IDAC.c ****     IDAC_IDAC_CONTROL_REG |= (((uint32)IDAC_IDAC_INIT_VALUE <<
  66              		.loc 1 65 0
  67 002a 1468     		ldr	r4, [r2]
  68 002c 7821     		movs	r1, #120
  69 002e 2143     		orrs	r1, r4
  70 0030 1160     		str	r1, [r2]
  66:Generated_Source\PSoC4/IDAC.c ****         IDAC_IDAC_VALUE_POSITION) | ((uint32)IDAC_IDAC_RANGE <<
  67:Generated_Source\PSoC4/IDAC.c ****         IDAC_IDAC_RANGE_POSITION));
  68:Generated_Source\PSoC4/IDAC.c **** 
  69:Generated_Source\PSoC4/IDAC.c ****     IDAC_IDAC_POLARITY_CONTROL_REG |= ((uint32)IDAC_IDAC_POLARITY <<
  71              		.loc 1 69 0
  72 0032 1A68     		ldr	r2, [r3]
  73 0034 1A60     		str	r2, [r3]
  70:Generated_Source\PSoC4/IDAC.c ****                                                            IDAC_IDAC_POLARITY_POSITION);
  71:Generated_Source\PSoC4/IDAC.c **** 
  72:Generated_Source\PSoC4/IDAC.c ****     CyExitCriticalSection(enableInterrupts);
  74              		.loc 1 72 0
  75 0036 FFF7FEFF 		bl	CyExitCriticalSection
  76              	.LVL5:
  73:Generated_Source\PSoC4/IDAC.c **** 
  74:Generated_Source\PSoC4/IDAC.c **** }
  77              		.loc 1 74 0
  78              		@ sp needed
  79 003a 10BD     		pop	{r4, pc}
  80              	.L3:
  81              		.align	2
  82              	.L2:
  83 003c 00FF2840 		.word	1076428544
  84 0040 60F1FF0F 		.word	268431712
  85 0044 08002840 		.word	1076363272
  86 0048 04002840 		.word	1076363268
  87 004c FFFFFEFF 		.word	-65537
  88              		.cfi_endproc
  89              	.LFE1:
  90              		.size	IDAC_Init, .-IDAC_Init
  91              		.section	.text.IDAC_Enable,"ax",%progbits
  92              		.align	2
  93              		.global	IDAC_Enable
  94              		.code	16
  95              		.thumb_func
  96              		.type	IDAC_Enable, %function
  97              	IDAC_Enable:
ARM GAS  C:\Users\HELLOK~1\AppData\Local\Temp\ccArksle.s 			page 4


  98              	.LFB2:
  75:Generated_Source\PSoC4/IDAC.c **** 
  76:Generated_Source\PSoC4/IDAC.c **** 
  77:Generated_Source\PSoC4/IDAC.c **** /*******************************************************************************
  78:Generated_Source\PSoC4/IDAC.c **** * Function Name: IDAC_Enable
  79:Generated_Source\PSoC4/IDAC.c **** ********************************************************************************
  80:Generated_Source\PSoC4/IDAC.c **** *
  81:Generated_Source\PSoC4/IDAC.c **** * Summary:
  82:Generated_Source\PSoC4/IDAC.c **** *  Enables IDAC operations.
  83:Generated_Source\PSoC4/IDAC.c **** *
  84:Generated_Source\PSoC4/IDAC.c **** * Parameters:
  85:Generated_Source\PSoC4/IDAC.c **** *  None
  86:Generated_Source\PSoC4/IDAC.c **** *
  87:Generated_Source\PSoC4/IDAC.c **** * Return:
  88:Generated_Source\PSoC4/IDAC.c **** *  None
  89:Generated_Source\PSoC4/IDAC.c **** *
  90:Generated_Source\PSoC4/IDAC.c **** * Global variables:
  91:Generated_Source\PSoC4/IDAC.c **** *  None
  92:Generated_Source\PSoC4/IDAC.c **** *
  93:Generated_Source\PSoC4/IDAC.c **** *******************************************************************************/
  94:Generated_Source\PSoC4/IDAC.c **** void IDAC_Enable(void)
  95:Generated_Source\PSoC4/IDAC.c **** {
  99              		.loc 1 95 0
 100              		.cfi_startproc
 101              		@ args = 0, pretend = 0, frame = 0
 102              		@ frame_needed = 0, uses_anonymous_args = 0
 103 0000 10B5     		push	{r4, lr}
 104              		.cfi_def_cfa_offset 8
 105              		.cfi_offset 4, -8
 106              		.cfi_offset 14, -4
  96:Generated_Source\PSoC4/IDAC.c ****     uint8 enableInterrupts;
  97:Generated_Source\PSoC4/IDAC.c **** 
  98:Generated_Source\PSoC4/IDAC.c ****     enableInterrupts = CyEnterCriticalSection();
 107              		.loc 1 98 0
 108 0002 FFF7FEFF 		bl	CyEnterCriticalSection
 109              	.LVL6:
  99:Generated_Source\PSoC4/IDAC.c **** 
 100:Generated_Source\PSoC4/IDAC.c ****     /* Enable the IDAC */
 101:Generated_Source\PSoC4/IDAC.c ****     IDAC_IDAC_CONTROL_REG |= ((uint32)IDAC_IDAC_EN_MODE <<
 110              		.loc 1 101 0
 111 0006 074A     		ldr	r2, .L5
 112 0008 1368     		ldr	r3, [r2]
 113 000a C021     		movs	r1, #192
 114 000c 8900     		lsls	r1, r1, #2
 115 000e 0B43     		orrs	r3, r1
 116 0010 1360     		str	r3, [r2]
 102:Generated_Source\PSoC4/IDAC.c ****                                                   IDAC_IDAC_MODE_POSITION);
 103:Generated_Source\PSoC4/IDAC.c ****     IDAC_IDAC_POLARITY_CONTROL_REG |= ((uint32)IDAC_IDAC_CSD_EN <<
 117              		.loc 1 103 0
 118 0012 054A     		ldr	r2, .L5+4
 119 0014 1368     		ldr	r3, [r2]
 120 0016 8021     		movs	r1, #128
 121 0018 0906     		lsls	r1, r1, #24
 122 001a 0B43     		orrs	r3, r1
 123 001c 1360     		str	r3, [r2]
 104:Generated_Source\PSoC4/IDAC.c ****                                                            IDAC_IDAC_CSD_EN_POSITION);
 105:Generated_Source\PSoC4/IDAC.c ****     CyExitCriticalSection(enableInterrupts);
ARM GAS  C:\Users\HELLOK~1\AppData\Local\Temp\ccArksle.s 			page 5


 124              		.loc 1 105 0
 125 001e FFF7FEFF 		bl	CyExitCriticalSection
 126              	.LVL7:
 106:Generated_Source\PSoC4/IDAC.c **** 
 107:Generated_Source\PSoC4/IDAC.c **** }
 127              		.loc 1 107 0
 128              		@ sp needed
 129 0022 10BD     		pop	{r4, pc}
 130              	.L6:
 131              		.align	2
 132              	.L5:
 133 0024 08002840 		.word	1076363272
 134 0028 04002840 		.word	1076363268
 135              		.cfi_endproc
 136              	.LFE2:
 137              		.size	IDAC_Enable, .-IDAC_Enable
 138              		.section	.text.IDAC_Start,"ax",%progbits
 139              		.align	2
 140              		.global	IDAC_Start
 141              		.code	16
 142              		.thumb_func
 143              		.type	IDAC_Start, %function
 144              	IDAC_Start:
 145              	.LFB3:
 108:Generated_Source\PSoC4/IDAC.c **** 
 109:Generated_Source\PSoC4/IDAC.c **** 
 110:Generated_Source\PSoC4/IDAC.c **** /*******************************************************************************
 111:Generated_Source\PSoC4/IDAC.c **** * Function Name: IDAC_Start
 112:Generated_Source\PSoC4/IDAC.c **** ********************************************************************************
 113:Generated_Source\PSoC4/IDAC.c **** *
 114:Generated_Source\PSoC4/IDAC.c **** * Summary:
 115:Generated_Source\PSoC4/IDAC.c **** *  Starts the IDAC hardware.
 116:Generated_Source\PSoC4/IDAC.c **** *
 117:Generated_Source\PSoC4/IDAC.c **** * Parameters:
 118:Generated_Source\PSoC4/IDAC.c **** *  None
 119:Generated_Source\PSoC4/IDAC.c **** *
 120:Generated_Source\PSoC4/IDAC.c **** * Return:
 121:Generated_Source\PSoC4/IDAC.c **** *  None
 122:Generated_Source\PSoC4/IDAC.c **** *
 123:Generated_Source\PSoC4/IDAC.c **** * Global variables:
 124:Generated_Source\PSoC4/IDAC.c **** *  IDAC_initVar
 125:Generated_Source\PSoC4/IDAC.c **** *
 126:Generated_Source\PSoC4/IDAC.c **** *******************************************************************************/
 127:Generated_Source\PSoC4/IDAC.c **** void IDAC_Start(void)
 128:Generated_Source\PSoC4/IDAC.c **** {
 146              		.loc 1 128 0
 147              		.cfi_startproc
 148              		@ args = 0, pretend = 0, frame = 0
 149              		@ frame_needed = 0, uses_anonymous_args = 0
 150 0000 10B5     		push	{r4, lr}
 151              		.cfi_def_cfa_offset 8
 152              		.cfi_offset 4, -8
 153              		.cfi_offset 14, -4
 129:Generated_Source\PSoC4/IDAC.c ****     if(0u == IDAC_initVar)
 154              		.loc 1 129 0
 155 0002 064B     		ldr	r3, .L9
 156 0004 1B68     		ldr	r3, [r3]
ARM GAS  C:\Users\HELLOK~1\AppData\Local\Temp\ccArksle.s 			page 6


 157 0006 002B     		cmp	r3, #0
 158 0008 04D1     		bne	.L8
 130:Generated_Source\PSoC4/IDAC.c ****     {
 131:Generated_Source\PSoC4/IDAC.c ****         IDAC_Init();
 159              		.loc 1 131 0
 160 000a FFF7FEFF 		bl	IDAC_Init
 161              	.LVL8:
 132:Generated_Source\PSoC4/IDAC.c ****         IDAC_initVar = 1u;
 162              		.loc 1 132 0
 163 000e 0122     		movs	r2, #1
 164 0010 024B     		ldr	r3, .L9
 165 0012 1A60     		str	r2, [r3]
 166              	.L8:
 133:Generated_Source\PSoC4/IDAC.c ****     }
 134:Generated_Source\PSoC4/IDAC.c **** 
 135:Generated_Source\PSoC4/IDAC.c ****     IDAC_Enable();
 167              		.loc 1 135 0
 168 0014 FFF7FEFF 		bl	IDAC_Enable
 169              	.LVL9:
 136:Generated_Source\PSoC4/IDAC.c **** 
 137:Generated_Source\PSoC4/IDAC.c **** }
 170              		.loc 1 137 0
 171              		@ sp needed
 172 0018 10BD     		pop	{r4, pc}
 173              	.L10:
 174 001a C046     		.align	2
 175              	.L9:
 176 001c 00000000 		.word	.LANCHOR0
 177              		.cfi_endproc
 178              	.LFE3:
 179              		.size	IDAC_Start, .-IDAC_Start
 180              		.section	.text.IDAC_Stop,"ax",%progbits
 181              		.align	2
 182              		.global	IDAC_Stop
 183              		.code	16
 184              		.thumb_func
 185              		.type	IDAC_Stop, %function
 186              	IDAC_Stop:
 187              	.LFB4:
 138:Generated_Source\PSoC4/IDAC.c **** 
 139:Generated_Source\PSoC4/IDAC.c **** 
 140:Generated_Source\PSoC4/IDAC.c **** /*******************************************************************************
 141:Generated_Source\PSoC4/IDAC.c **** * Function Name: IDAC_Stop
 142:Generated_Source\PSoC4/IDAC.c **** ********************************************************************************
 143:Generated_Source\PSoC4/IDAC.c **** *
 144:Generated_Source\PSoC4/IDAC.c **** * Summary:
 145:Generated_Source\PSoC4/IDAC.c **** *  Stops the IDAC hardware.
 146:Generated_Source\PSoC4/IDAC.c **** *
 147:Generated_Source\PSoC4/IDAC.c **** * Parameters:
 148:Generated_Source\PSoC4/IDAC.c **** *  None
 149:Generated_Source\PSoC4/IDAC.c **** *
 150:Generated_Source\PSoC4/IDAC.c **** * Return:
 151:Generated_Source\PSoC4/IDAC.c **** *  None
 152:Generated_Source\PSoC4/IDAC.c **** *
 153:Generated_Source\PSoC4/IDAC.c **** * Global variables:
 154:Generated_Source\PSoC4/IDAC.c **** *  None
 155:Generated_Source\PSoC4/IDAC.c **** *
ARM GAS  C:\Users\HELLOK~1\AppData\Local\Temp\ccArksle.s 			page 7


 156:Generated_Source\PSoC4/IDAC.c **** *******************************************************************************/
 157:Generated_Source\PSoC4/IDAC.c **** void IDAC_Stop(void)
 158:Generated_Source\PSoC4/IDAC.c **** {
 188              		.loc 1 158 0
 189              		.cfi_startproc
 190              		@ args = 0, pretend = 0, frame = 0
 191              		@ frame_needed = 0, uses_anonymous_args = 0
 192 0000 10B5     		push	{r4, lr}
 193              		.cfi_def_cfa_offset 8
 194              		.cfi_offset 4, -8
 195              		.cfi_offset 14, -4
 159:Generated_Source\PSoC4/IDAC.c ****     uint8 enableInterrupts;
 160:Generated_Source\PSoC4/IDAC.c **** 
 161:Generated_Source\PSoC4/IDAC.c ****     enableInterrupts = CyEnterCriticalSection();
 196              		.loc 1 161 0
 197 0002 FFF7FEFF 		bl	CyEnterCriticalSection
 198              	.LVL10:
 162:Generated_Source\PSoC4/IDAC.c **** 
 163:Generated_Source\PSoC4/IDAC.c ****     /* Disable the IDAC */
 164:Generated_Source\PSoC4/IDAC.c ****     IDAC_IDAC_CONTROL_REG &= ((uint32)~((uint32)IDAC_IDAC_MODE_MASK <<
 199              		.loc 1 164 0
 200 0006 044A     		ldr	r2, .L12
 201 0008 1168     		ldr	r1, [r2]
 202 000a 044B     		ldr	r3, .L12+4
 203 000c 0B40     		ands	r3, r1
 204 000e 1360     		str	r3, [r2]
 165:Generated_Source\PSoC4/IDAC.c ****         IDAC_IDAC_MODE_POSITION));
 166:Generated_Source\PSoC4/IDAC.c ****     CyExitCriticalSection(enableInterrupts);
 205              		.loc 1 166 0
 206 0010 FFF7FEFF 		bl	CyExitCriticalSection
 207              	.LVL11:
 167:Generated_Source\PSoC4/IDAC.c **** }
 208              		.loc 1 167 0
 209              		@ sp needed
 210 0014 10BD     		pop	{r4, pc}
 211              	.L13:
 212 0016 C046     		.align	2
 213              	.L12:
 214 0018 08002840 		.word	1076363272
 215 001c FFFCFFFF 		.word	-769
 216              		.cfi_endproc
 217              	.LFE4:
 218              		.size	IDAC_Stop, .-IDAC_Stop
 219              		.section	.text.IDAC_SetValue,"ax",%progbits
 220              		.align	2
 221              		.global	IDAC_SetValue
 222              		.code	16
 223              		.thumb_func
 224              		.type	IDAC_SetValue, %function
 225              	IDAC_SetValue:
 226              	.LFB5:
 168:Generated_Source\PSoC4/IDAC.c **** 
 169:Generated_Source\PSoC4/IDAC.c **** 
 170:Generated_Source\PSoC4/IDAC.c **** /*******************************************************************************
 171:Generated_Source\PSoC4/IDAC.c **** * Function Name: IDAC_SetValue
 172:Generated_Source\PSoC4/IDAC.c **** ********************************************************************************
 173:Generated_Source\PSoC4/IDAC.c **** *
ARM GAS  C:\Users\HELLOK~1\AppData\Local\Temp\ccArksle.s 			page 8


 174:Generated_Source\PSoC4/IDAC.c **** * Summary:
 175:Generated_Source\PSoC4/IDAC.c **** *  Sets the IDAC value.
 176:Generated_Source\PSoC4/IDAC.c **** *
 177:Generated_Source\PSoC4/IDAC.c **** * Parameters:
 178:Generated_Source\PSoC4/IDAC.c **** *  uint32 value
 179:Generated_Source\PSoC4/IDAC.c **** *
 180:Generated_Source\PSoC4/IDAC.c **** * Return:
 181:Generated_Source\PSoC4/IDAC.c **** *  None
 182:Generated_Source\PSoC4/IDAC.c **** *
 183:Generated_Source\PSoC4/IDAC.c **** * Global variables:
 184:Generated_Source\PSoC4/IDAC.c **** *  None
 185:Generated_Source\PSoC4/IDAC.c **** *
 186:Generated_Source\PSoC4/IDAC.c **** *******************************************************************************/
 187:Generated_Source\PSoC4/IDAC.c **** void IDAC_SetValue(uint32 value)
 188:Generated_Source\PSoC4/IDAC.c **** {
 227              		.loc 1 188 0
 228              		.cfi_startproc
 229              		@ args = 0, pretend = 0, frame = 0
 230              		@ frame_needed = 0, uses_anonymous_args = 0
 231              	.LVL12:
 232 0000 10B5     		push	{r4, lr}
 233              		.cfi_def_cfa_offset 8
 234              		.cfi_offset 4, -8
 235              		.cfi_offset 14, -4
 236 0002 0400     		movs	r4, r0
 189:Generated_Source\PSoC4/IDAC.c ****     uint8 enableInterrupts;
 190:Generated_Source\PSoC4/IDAC.c ****     uint32 newRegisterValue;
 191:Generated_Source\PSoC4/IDAC.c **** 
 192:Generated_Source\PSoC4/IDAC.c ****     enableInterrupts = CyEnterCriticalSection();
 237              		.loc 1 192 0
 238 0004 FFF7FEFF 		bl	CyEnterCriticalSection
 239              	.LVL13:
 193:Generated_Source\PSoC4/IDAC.c **** 
 194:Generated_Source\PSoC4/IDAC.c ****     #if(IDAC_IDAC_VALUE_POSITION != 0u)
 195:Generated_Source\PSoC4/IDAC.c ****         newRegisterValue = ((IDAC_IDAC_CONTROL_REG & (~(uint32)((uint32)IDAC_IDAC_VALUE_MASK <<
 196:Generated_Source\PSoC4/IDAC.c ****         IDAC_IDAC_VALUE_POSITION))) | (value << IDAC_IDAC_VALUE_POSITION));
 197:Generated_Source\PSoC4/IDAC.c ****     #else
 198:Generated_Source\PSoC4/IDAC.c ****         newRegisterValue = ((IDAC_IDAC_CONTROL_REG & (~(uint32)IDAC_IDAC_VALUE_MASK)) | value);
 240              		.loc 1 198 0
 241 0008 044A     		ldr	r2, .L15
 242 000a 1368     		ldr	r3, [r2]
 243 000c FF21     		movs	r1, #255
 244 000e 8B43     		bics	r3, r1
 245 0010 1C43     		orrs	r4, r3
 246              	.LVL14:
 199:Generated_Source\PSoC4/IDAC.c ****     #endif /* IDAC_IDAC_VALUE_POSITION != 0u */
 200:Generated_Source\PSoC4/IDAC.c **** 
 201:Generated_Source\PSoC4/IDAC.c ****     IDAC_IDAC_CONTROL_REG = newRegisterValue;
 247              		.loc 1 201 0
 248 0012 1460     		str	r4, [r2]
 202:Generated_Source\PSoC4/IDAC.c **** 
 203:Generated_Source\PSoC4/IDAC.c ****     CyExitCriticalSection(enableInterrupts);
 249              		.loc 1 203 0
 250 0014 FFF7FEFF 		bl	CyExitCriticalSection
 251              	.LVL15:
 204:Generated_Source\PSoC4/IDAC.c **** }
 252              		.loc 1 204 0
ARM GAS  C:\Users\HELLOK~1\AppData\Local\Temp\ccArksle.s 			page 9


 253              		@ sp needed
 254              	.LVL16:
 255 0018 10BD     		pop	{r4, pc}
 256              	.L16:
 257 001a C046     		.align	2
 258              	.L15:
 259 001c 08002840 		.word	1076363272
 260              		.cfi_endproc
 261              	.LFE5:
 262              		.size	IDAC_SetValue, .-IDAC_SetValue
 263              		.global	IDAC_initVar
 264              		.bss
 265              		.align	2
 266              		.set	.LANCHOR0,. + 0
 267              		.type	IDAC_initVar, %object
 268              		.size	IDAC_initVar, 4
 269              	IDAC_initVar:
 270 0000 00000000 		.space	4
 271              		.text
 272              	.Letext0:
 273              		.file 2 "Generated_Source\\PSoC4\\cytypes.h"
 274              		.file 3 "Generated_Source\\PSoC4\\CyLib.h"