ARM GAS  C:\Users\LEOTEJ~1\AppData\Local\Temp\ccBzcMaC.s 			page 1


   1              		.syntax unified
   2              		.cpu cortex-m0
   3              		.fpu softvfp
   4              		.eabi_attribute 20, 1
   5              		.eabi_attribute 21, 1
   6              		.eabi_attribute 23, 3
   7              		.eabi_attribute 24, 1
   8              		.eabi_attribute 25, 1
   9              		.eabi_attribute 26, 1
  10              		.eabi_attribute 30, 1
  11              		.eabi_attribute 34, 0
  12              		.eabi_attribute 18, 4
  13              		.thumb
  14              		.syntax unified
  15              		.file	"main.c"
  16              		.text
  17              	.Ltext0:
  18              		.cfi_sections	.debug_frame
  19              		.section	.text.poll_button,"ax",%progbits
  20              		.align	2
  21              		.global	poll_button
  22              		.code	16
  23              		.thumb_func
  24              		.type	poll_button, %function
  25              	poll_button:
  26              	.LFB34:
  27              		.file 1 "main.c"
   1:main.c        **** /* ========================================
   2:main.c        ****  *
   3:main.c        ****  * Copyright YOUR COMPANY, THE YEAR
   4:main.c        ****  * All Rights Reserved
   5:main.c        ****  * UNPUBLISHED, LICENSED SOFTWARE.
   6:main.c        ****  *
   7:main.c        ****  * CONFIDENTIAL AND PROPRIETARY INFORMATION
   8:main.c        ****  * WHICH IS THE PROPERTY OF your company.
   9:main.c        ****  *
  10:main.c        ****  * ========================================
  11:main.c        **** */
  12:main.c        **** #include "project.h"
  13:main.c        **** 
  14:main.c        **** static const int ROUNDS = 20;
  15:main.c        **** volatile int timeout, pressed;
  16:main.c        **** 
  17:main.c        **** // This function implements a non-blocking polling loop.
  18:main.c        **** // If neither of the buttons is pressed, it should return 0,
  19:main.c        **** // otherwise it should return a value that corresponds
  20:main.c        **** // to one of the colored buttons. To be consistent, this
  21:main.c        **** // should match the color used in the sequence
  22:main.c        **** int poll_button()
  23:main.c        **** {
  28              		.loc 1 23 0
  29              		.cfi_startproc
  30              		@ args = 0, pretend = 0, frame = 0
  31              		@ frame_needed = 0, uses_anonymous_args = 0
  32 0000 10B5     		push	{r4, lr}
  33              		.cfi_def_cfa_offset 8
  34              		.cfi_offset 4, -8
ARM GAS  C:\Users\LEOTEJ~1\AppData\Local\Temp\ccBzcMaC.s 			page 2


  35              		.cfi_offset 14, -4
  36              	.L2:
  24:main.c        ****     int button = 0;
  25:main.c        ****     
  26:main.c        ****     // XXX: Polling loop for button goes here
  27:main.c        ****     
  28:main.c        ****     while(BTN_Read() == 0){
  37              		.loc 1 28 0 discriminator 1
  38 0002 FFF7FEFF 		bl	BTN_Read
  39              	.LVL0:
  40 0006 0028     		cmp	r0, #0
  41 0008 FBD0     		beq	.L2
  42              	.LVL1:
  29:main.c        ****     }
  30:main.c        ****     button = 1;
  31:main.c        ****     
  32:main.c        ****     return button;
  33:main.c        **** }
  43              		.loc 1 33 0
  44 000a 0120     		movs	r0, #1
  45              		@ sp needed
  46 000c 10BD     		pop	{r4, pc}
  47              		.cfi_endproc
  48              	.LFE34:
  49              		.size	poll_button, .-poll_button
  50 000e C046     		.section	.text.play_color,"ax",%progbits
  51              		.align	2
  52              		.global	play_color
  53              		.code	16
  54              		.thumb_func
  55              		.type	play_color, %function
  56              	play_color:
  57              	.LFB35:
  34:main.c        **** 
  35:main.c        **** // The play color function illuminates an led
  36:main.c        **** // using a PWM at a duty cycle given by dc for
  37:main.c        **** // a number of milliseconds equal to delay and
  38:main.c        **** // plays the correpsonding note.
  39:main.c        **** //
  40:main.c        **** //  INPUTS:
  41:main.c        **** //      color (int): A mapping to determine the
  42:main.c        **** //                   LED to play.
  43:main.c        **** //                  Suggested Colors and Notes are
  44:main.c        **** //                  0: Red (310 Hz)
  45:main.c        **** //                  1: Green (415 Hz)
  46:main.c        **** //                  2: Blue (209 Hz)
  47:main.c        **** //                  3: Yellow (252 Hz)
  48:main.c        **** //
  49:main.c        **** //      dc (int): The duty cycle of the chosen LED's
  50:main.c        **** //                PWM. Only numbers 0-100 should be
  51:main.c        **** //                valid.
  52:main.c        **** //
  53:main.c        **** //      delay (uint32): How long to play the LED and
  54:main.c        **** //                      note, in milliseconds
  55:main.c        **** 
  56:main.c        **** void play_color(int color, int dc, uint32 delay)
  57:main.c        **** {
ARM GAS  C:\Users\LEOTEJ~1\AppData\Local\Temp\ccBzcMaC.s 			page 3


  58              		.loc 1 57 0
  59              		.cfi_startproc
  60              		@ args = 0, pretend = 0, frame = 0
  61              		@ frame_needed = 0, uses_anonymous_args = 0
  62              	.LVL2:
  63 0000 F8B5     		push	{r3, r4, r5, r6, r7, lr}
  64              		.cfi_def_cfa_offset 24
  65              		.cfi_offset 3, -24
  66              		.cfi_offset 4, -20
  67              		.cfi_offset 5, -16
  68              		.cfi_offset 6, -12
  69              		.cfi_offset 7, -8
  70              		.cfi_offset 14, -4
  71 0002 0400     		movs	r4, r0
  72 0004 0D00     		movs	r5, r1
  73 0006 1600     		movs	r6, r2
  74              	.LVL3:
  58:main.c        ****     int period = 0;
  59:main.c        ****  
  60:main.c        ****     switch(color){
  75              		.loc 1 60 0
  76 0008 0128     		cmp	r0, #1
  77 000a 09D0     		beq	.L5
  78 000c 02DC     		bgt	.L6
  79 000e 0028     		cmp	r0, #0
  80 0010 0DD0     		beq	.L10
  81 0012 03E0     		b	.L4
  82              	.L6:
  83 0014 0228     		cmp	r0, #2
  84 0016 05D0     		beq	.L8
  85 0018 0328     		cmp	r0, #3
  86 001a 05D0     		beq	.L9
  87              	.L4:
  58:main.c        ****     int period = 0;
  88              		.loc 1 58 0
  89 001c 0027     		movs	r7, #0
  90 001e 07E0     		b	.L7
  91              	.L5:
  92              	.LVL4:
  61:main.c        ****     case 0:
  62:main.c        ****         period = 3225;
  63:main.c        ****         break;
  64:main.c        ****     case 1:
  65:main.c        ****         period = 3174;
  93              		.loc 1 65 0
  94 0020 114F     		ldr	r7, .L11
  66:main.c        ****         break;
  95              		.loc 1 66 0
  96 0022 05E0     		b	.L7
  97              	.LVL5:
  98              	.L8:
  67:main.c        ****     case 2:
  68:main.c        ****         period = 4784;
  99              		.loc 1 68 0
 100 0024 114F     		ldr	r7, .L11+4
  69:main.c        ****         break;
 101              		.loc 1 69 0
ARM GAS  C:\Users\LEOTEJ~1\AppData\Local\Temp\ccBzcMaC.s 			page 4


 102 0026 03E0     		b	.L7
 103              	.LVL6:
 104              	.L9:
  70:main.c        ****     case 3:
  71:main.c        ****         period = 3968;
 105              		.loc 1 71 0
 106 0028 F827     		movs	r7, #248
 107 002a 3F01     		lsls	r7, r7, #4
  72:main.c        ****         break;
 108              		.loc 1 72 0
 109 002c 00E0     		b	.L7
 110              	.LVL7:
 111              	.L10:
  62:main.c        ****         break;
 112              		.loc 1 62 0
 113 002e 104F     		ldr	r7, .L11+8
 114              	.LVL8:
 115              	.L7:
  73:main.c        ****      
  74:main.c        ****     
  75:main.c        ****     
  76:main.c        ****     }
  77:main.c        ****     
  78:main.c        ****     SPEAKER_PWM_WritePeriod(period);
 116              		.loc 1 78 0
 117 0030 3800     		movs	r0, r7
 118              	.LVL9:
 119 0032 FFF7FEFF 		bl	SPEAKER_PWM_WritePeriod
 120              	.LVL10:
  79:main.c        ****     SPEAKER_PWM_WriteCompare((int) (period/2));
 121              		.loc 1 79 0
 122 0036 7808     		lsrs	r0, r7, #1
 123 0038 FFF7FEFF 		bl	SPEAKER_PWM_WriteCompare
 124              	.LVL11:
  80:main.c        ****     LED_PWM_WritePeriod(1000);
 125              		.loc 1 80 0
 126 003c FA20     		movs	r0, #250
 127 003e 8000     		lsls	r0, r0, #2
 128 0040 FFF7FEFF 		bl	LED_PWM_WritePeriod
 129              	.LVL12:
  81:main.c        ****     LED_PWM_WriteCompare(dc * 10);
 130              		.loc 1 81 0
 131 0044 AB00     		lsls	r3, r5, #2
 132 0046 5D19     		adds	r5, r3, r5
 133              	.LVL13:
 134 0048 6800     		lsls	r0, r5, #1
 135 004a FFF7FEFF 		bl	LED_PWM_WriteCompare
 136              	.LVL14:
  82:main.c        ****     LED_PWM_Start();
 137              		.loc 1 82 0
 138 004e FFF7FEFF 		bl	LED_PWM_Start
 139              	.LVL15:
  83:main.c        ****     SPEAKER_PWM_Start();
 140              		.loc 1 83 0
 141 0052 FFF7FEFF 		bl	SPEAKER_PWM_Start
 142              	.LVL16:
  84:main.c        ****     LED_SEL_Write(color);
ARM GAS  C:\Users\LEOTEJ~1\AppData\Local\Temp\ccBzcMaC.s 			page 5


 143              		.loc 1 84 0
 144 0056 E0B2     		uxtb	r0, r4
 145 0058 FFF7FEFF 		bl	LED_SEL_Write
 146              	.LVL17:
  85:main.c        ****     CyDelay(delay);
 147              		.loc 1 85 0
 148 005c 3000     		movs	r0, r6
 149 005e FFF7FEFF 		bl	CyDelay
 150              	.LVL18:
  86:main.c        ****     SPEAKER_PWM_Stop(); 
 151              		.loc 1 86 0
 152 0062 FFF7FEFF 		bl	SPEAKER_PWM_Stop
 153              	.LVL19:
  87:main.c        ****     
  88:main.c        **** }
 154              		.loc 1 88 0
 155              		@ sp needed
 156              	.LVL20:
 157              	.LVL21:
 158              	.LVL22:
 159 0066 F8BD     		pop	{r3, r4, r5, r6, r7, pc}
 160              	.L12:
 161              		.align	2
 162              	.L11:
 163 0068 660C0000 		.word	3174
 164 006c B0120000 		.word	4784
 165 0070 990C0000 		.word	3225
 166              		.cfi_endproc
 167              	.LFE35:
 168              		.size	play_color, .-play_color
 169              		.section	.text.play_start,"ax",%progbits
 170              		.align	2
 171              		.global	play_start
 172              		.code	16
 173              		.thumb_func
 174              		.type	play_start, %function
 175              	play_start:
 176              	.LFB36:
  89:main.c        **** 
  90:main.c        **** // This should play the start sequence of Simon, which is
  91:main.c        **** // to turn all 4 LEDs on and play a 600Hz tone for 500 ms,
  92:main.c        **** // then turn them off for 500ms, then repeat 2 more times
  93:main.c        **** void play_start()
  94:main.c        **** {
 177              		.loc 1 94 0
 178              		.cfi_startproc
 179              		@ args = 0, pretend = 0, frame = 0
 180              		@ frame_needed = 0, uses_anonymous_args = 0
 181 0000 70B5     		push	{r4, r5, r6, lr}
 182              		.cfi_def_cfa_offset 16
 183              		.cfi_offset 4, -16
 184              		.cfi_offset 5, -12
 185              		.cfi_offset 6, -8
 186              		.cfi_offset 14, -4
  95:main.c        ****    
  96:main.c        ****     // 50% duty cycle, 600 Hz
  97:main.c        ****     
ARM GAS  C:\Users\LEOTEJ~1\AppData\Local\Temp\ccBzcMaC.s 			page 6


  98:main.c        ****     /*
  99:main.c        ****     How to calculate Hz
 100:main.c        ****     Take clock rate (1MHz) and divide by frequency. (in microsec) - WritePeriod
 101:main.c        ****     Duty cycle : multiply %duty cycle to the period - WriteCompare
 102:main.c        ****     Period = (1000000/600) + 1
 103:main.c        ****     Compare = .5 * Period
 104:main.c        ****         
 105:main.c        ****     
 106:main.c        ****     
 107:main.c        ****     */
 108:main.c        ****     
 109:main.c        ****     SPEAKER_PWM_WritePeriod(1667);
 187              		.loc 1 109 0
 188 0002 1F48     		ldr	r0, .L18
 189 0004 FFF7FEFF 		bl	SPEAKER_PWM_WritePeriod
 190              	.LVL23:
 110:main.c        ****     SPEAKER_PWM_WriteCompare(833);
 191              		.loc 1 110 0
 192 0008 1E48     		ldr	r0, .L18+4
 193 000a FFF7FEFF 		bl	SPEAKER_PWM_WriteCompare
 194              	.LVL24:
 111:main.c        ****     LED_PWM_WritePeriod(1000);
 195              		.loc 1 111 0
 196 000e FA20     		movs	r0, #250
 197 0010 8000     		lsls	r0, r0, #2
 198 0012 FFF7FEFF 		bl	LED_PWM_WritePeriod
 199              	.LVL25:
 112:main.c        ****     LED_PWM_WriteCompare(999);
 200              		.loc 1 112 0
 201 0016 1C48     		ldr	r0, .L18+8
 202 0018 FFF7FEFF 		bl	LED_PWM_WriteCompare
 203              	.LVL26:
 204              	.LBB2:
 113:main.c        ****     for (int i = 0; i < 3; i++){
 205              		.loc 1 113 0
 206 001c 0025     		movs	r5, #0
 207 001e 29E0     		b	.L14
 208              	.LVL27:
 209              	.L17:
 114:main.c        ****         CyDelay(500);
 210              		.loc 1 114 0
 211 0020 FA20     		movs	r0, #250
 212 0022 4000     		lsls	r0, r0, #1
 213 0024 FFF7FEFF 		bl	CyDelay
 214              	.LVL28:
 115:main.c        ****         SPEAKER_PWM_Start();
 215              		.loc 1 115 0
 216 0028 FFF7FEFF 		bl	SPEAKER_PWM_Start
 217              	.LVL29:
 116:main.c        ****         LED_PWM_Start();
 218              		.loc 1 116 0
 219 002c FFF7FEFF 		bl	LED_PWM_Start
 220              	.LVL30:
 221              	.LBB3:
 117:main.c        ****         for(int i = 0; i < 125; i++){
 222              		.loc 1 117 0
 223 0030 0024     		movs	r4, #0
ARM GAS  C:\Users\LEOTEJ~1\AppData\Local\Temp\ccBzcMaC.s 			page 7


 224 0032 18E0     		b	.L15
 225              	.LVL31:
 226              	.L16:
 118:main.c        ****             LED_SEL_Write(0);
 227              		.loc 1 118 0 discriminator 3
 228 0034 0020     		movs	r0, #0
 229 0036 FFF7FEFF 		bl	LED_SEL_Write
 230              	.LVL32:
 119:main.c        ****             CyDelay(1);
 231              		.loc 1 119 0 discriminator 3
 232 003a 0120     		movs	r0, #1
 233 003c FFF7FEFF 		bl	CyDelay
 234              	.LVL33:
 120:main.c        ****             LED_SEL_Write(1);
 235              		.loc 1 120 0 discriminator 3
 236 0040 0120     		movs	r0, #1
 237 0042 FFF7FEFF 		bl	LED_SEL_Write
 238              	.LVL34:
 121:main.c        ****             CyDelay(1);
 239              		.loc 1 121 0 discriminator 3
 240 0046 0120     		movs	r0, #1
 241 0048 FFF7FEFF 		bl	CyDelay
 242              	.LVL35:
 122:main.c        ****             LED_SEL_Write(2);
 243              		.loc 1 122 0 discriminator 3
 244 004c 0220     		movs	r0, #2
 245 004e FFF7FEFF 		bl	LED_SEL_Write
 246              	.LVL36:
 123:main.c        ****             CyDelay(1);
 247              		.loc 1 123 0 discriminator 3
 248 0052 0120     		movs	r0, #1
 249 0054 FFF7FEFF 		bl	CyDelay
 250              	.LVL37:
 124:main.c        ****             LED_SEL_Write(3);
 251              		.loc 1 124 0 discriminator 3
 252 0058 0320     		movs	r0, #3
 253 005a FFF7FEFF 		bl	LED_SEL_Write
 254              	.LVL38:
 125:main.c        ****             CyDelay(1);
 255              		.loc 1 125 0 discriminator 3
 256 005e 0120     		movs	r0, #1
 257 0060 FFF7FEFF 		bl	CyDelay
 258              	.LVL39:
 117:main.c        ****             LED_SEL_Write(0);
 259              		.loc 1 117 0 discriminator 3
 260 0064 0134     		adds	r4, r4, #1
 261              	.LVL40:
 262              	.L15:
 117:main.c        ****             LED_SEL_Write(0);
 263              		.loc 1 117 0 is_stmt 0 discriminator 1
 264 0066 7C2C     		cmp	r4, #124
 265 0068 E4DD     		ble	.L16
 266              	.LBE3:
 126:main.c        ****         }
 127:main.c        ****         
 128:main.c        ****         
 129:main.c        ****         
ARM GAS  C:\Users\LEOTEJ~1\AppData\Local\Temp\ccBzcMaC.s 			page 8


 130:main.c        ****        // CyDelay(500);
 131:main.c        ****         SPEAKER_PWM_Stop();
 267              		.loc 1 131 0 is_stmt 1 discriminator 2
 268 006a FFF7FEFF 		bl	SPEAKER_PWM_Stop
 269              	.LVL41:
 132:main.c        ****         LED_PWM_Stop();
 270              		.loc 1 132 0 discriminator 2
 271 006e FFF7FEFF 		bl	LED_PWM_Stop
 272              	.LVL42:
 113:main.c        ****         CyDelay(500);
 273              		.loc 1 113 0 discriminator 2
 274 0072 0135     		adds	r5, r5, #1
 275              	.LVL43:
 276              	.L14:
 113:main.c        ****         CyDelay(500);
 277              		.loc 1 113 0 is_stmt 0 discriminator 1
 278 0074 022D     		cmp	r5, #2
 279 0076 D3DD     		ble	.L17
 280              	.LBE2:
 133:main.c        ****         
 134:main.c        ****         
 135:main.c        ****     }
 136:main.c        ****     SPEAKER_PWM_Stop();
 281              		.loc 1 136 0 is_stmt 1
 282 0078 FFF7FEFF 		bl	SPEAKER_PWM_Stop
 283              	.LVL44:
 137:main.c        **** }
 284              		.loc 1 137 0
 285              		@ sp needed
 286              	.LVL45:
 287 007c 70BD     		pop	{r4, r5, r6, pc}
 288              	.L19:
 289 007e C046     		.align	2
 290              	.L18:
 291 0080 83060000 		.word	1667
 292 0084 41030000 		.word	833
 293 0088 E7030000 		.word	999
 294              		.cfi_endproc
 295              	.LFE36:
 296              		.size	play_start, .-play_start
 297              		.section	.text.play_fail,"ax",%progbits
 298              		.align	2
 299              		.global	play_fail
 300              		.code	16
 301              		.thumb_func
 302              		.type	play_fail, %function
 303              	play_fail:
 304              	.LFB37:
 138:main.c        **** 
 139:main.c        **** // This should play the fail sequence, which is to turn on
 140:main.c        **** // all 4 LEDs and play a 42Hz tone for 1.5 seconds
 141:main.c        **** void play_fail()
 142:main.c        **** {
 305              		.loc 1 142 0
 306              		.cfi_startproc
 307              		@ args = 0, pretend = 0, frame = 0
 308              		@ frame_needed = 0, uses_anonymous_args = 0
ARM GAS  C:\Users\LEOTEJ~1\AppData\Local\Temp\ccBzcMaC.s 			page 9


 309              		@ link register save eliminated.
 143:main.c        ****     
 144:main.c        **** }
 310              		.loc 1 144 0
 311              		@ sp needed
 312 0000 7047     		bx	lr
 313              		.cfi_endproc
 314              	.LFE37:
 315              		.size	play_fail, .-play_fail
 316 0002 C046     		.section	.text.play_win,"ax",%progbits
 317              		.align	2
 318              		.global	play_win
 319              		.code	16
 320              		.thumb_func
 321              		.type	play_win, %function
 322              	play_win:
 323              	.LFB38:
 145:main.c        **** 
 146:main.c        **** // This should play back the victory sequence. In the original
 147:main.c        **** // Simon, that plays:
 148:main.c        **** // R, Y, B, G in sequence 0.1s apart, 3 times
 149:main.c        **** // then RY, 
 150:main.c        **** // then play failure tone for 0.8s, while the lights then
 151:main.c        **** // continually flash R Y B G 0.1s apart.
 152:main.c        **** //
 153:main.c        **** // You can implement whatever victory sequence you want if
 154:main.c        **** // you don't feel like doing the original one.
 155:main.c        **** void play_win()
 156:main.c        **** {
 324              		.loc 1 156 0
 325              		.cfi_startproc
 326              		@ args = 0, pretend = 0, frame = 0
 327              		@ frame_needed = 0, uses_anonymous_args = 0
 328              		@ link register save eliminated.
 157:main.c        ****     
 158:main.c        **** }
 329              		.loc 1 158 0
 330              		@ sp needed
 331 0000 7047     		bx	lr
 332              		.cfi_endproc
 333              	.LFE38:
 334              		.size	play_win, .-play_win
 335 0002 C046     		.section	.text.main,"ax",%progbits
 336              		.align	2
 337              		.global	main
 338              		.code	16
 339              		.thumb_func
 340              		.type	main, %function
 341              	main:
 342              	.LFB39:
 159:main.c        **** 
 160:main.c        **** int main(void)
 161:main.c        **** {
 343              		.loc 1 161 0
 344              		.cfi_startproc
 345              		@ args = 0, pretend = 0, frame = 80
 346              		@ frame_needed = 0, uses_anonymous_args = 0
ARM GAS  C:\Users\LEOTEJ~1\AppData\Local\Temp\ccBzcMaC.s 			page 10


 347 0000 F0B5     		push	{r4, r5, r6, r7, lr}
 348              		.cfi_def_cfa_offset 20
 349              		.cfi_offset 4, -20
 350              		.cfi_offset 5, -16
 351              		.cfi_offset 6, -12
 352              		.cfi_offset 7, -8
 353              		.cfi_offset 14, -4
 354 0002 95B0     		sub	sp, sp, #84
 355              		.cfi_def_cfa_offset 104
 162:main.c        ****     CyGlobalIntEnable; /* Enable global interrupts. */
 356              		.loc 1 162 0
 357              		.syntax divided
 358              	@ 162 "main.c" 1
 359 0004 62B6     		CPSIE   i
 360              	@ 0 "" 2
 361              	.LVL46:
 163:main.c        ****     
 164:main.c        ****     /* Variables */
 165:main.c        ****     int ix = 0, num_correct = 0, errors = 0, seq_ctr = 0;
 166:main.c        ****     int simon_sequence[ROUNDS];
 167:main.c        ****     
 168:main.c        **** 
 169:main.c        ****     /* Place your initialization/startup code here (e.g. MyInst_Start()) */
 170:main.c        ****     PRS_Start();
 362              		.loc 1 170 0
 363              		.thumb
 364              		.syntax unified
 365 0006 FFF7FEFF 		bl	PRS_Start
 366              	.LVL47:
 171:main.c        ****     SPEAKER_PWM_Start();
 367              		.loc 1 171 0
 368 000a FFF7FEFF 		bl	SPEAKER_PWM_Start
 369              	.LVL48:
 172:main.c        ****     SPEAKER_PWM_Stop();
 370              		.loc 1 172 0
 371 000e FFF7FEFF 		bl	SPEAKER_PWM_Stop
 372              	.LVL49:
 173:main.c        ****     LED_PWM_Start();
 373              		.loc 1 173 0
 374 0012 FFF7FEFF 		bl	LED_PWM_Start
 375              	.LVL50:
 174:main.c        ****     LED_PWM_Stop();
 376              		.loc 1 174 0
 377 0016 FFF7FEFF 		bl	LED_PWM_Stop
 378              	.LVL51:
 175:main.c        ****     INPUT_TIMER_Start();
 379              		.loc 1 175 0
 380 001a FFF7FEFF 		bl	INPUT_TIMER_Start
 381              	.LVL52:
 176:main.c        ****     INPUT_TIMER_Stop();
 382              		.loc 1 176 0
 383 001e FFF7FEFF 		bl	INPUT_TIMER_Stop
 384              	.LVL53:
 177:main.c        ****     INPUT_TIMER_ISR_Start();
 385              		.loc 1 177 0
 386 0022 FFF7FEFF 		bl	INPUT_TIMER_ISR_Start
 387              	.LVL54:
ARM GAS  C:\Users\LEOTEJ~1\AppData\Local\Temp\ccBzcMaC.s 			page 11


 388              	.L23:
 178:main.c        ****     
 179:main.c        ****     for(;;)
 180:main.c        ****     {
 181:main.c        ****         /* Place your application code here. */
 182:main.c        ****         
 183:main.c        ****         // Wait for any button press  
 184:main.c        ****         while (poll_button() == 0);
 389              		.loc 1 184 0 discriminator 1
 390 0026 FFF7FEFF 		bl	poll_button
 391              	.LVL55:
 392 002a 0028     		cmp	r0, #0
 393 002c FBD0     		beq	.L23
 185:main.c        ****         
 186:main.c        ****         // Play the start sequence
 187:main.c        ****         play_start();
 394              		.loc 1 187 0
 395 002e FFF7FEFF 		bl	play_start
 396              	.LVL56:
 397              	.LBB4:
 188:main.c        ****         
 189:main.c        ****         // Generate random sequnce of 20 rounds. Store it
 190:main.c        ****         // in simon_sequence
 191:main.c        ****         
 192:main.c        ****         
 193:main.c        ****         for(int i = 0; i < ROUNDS; i++){
 398              		.loc 1 193 0
 399 0032 0024     		movs	r4, #0
 400 0034 07E0     		b	.L24
 401              	.LVL57:
 402              	.L25:
 194:main.c        ****             simon_sequence[i] = PRS_Read() % 4;
 403              		.loc 1 194 0 discriminator 3
 404 0036 FFF7FEFF 		bl	PRS_Read
 405              	.LVL58:
 406 003a A300     		lsls	r3, r4, #2
 407 003c 0322     		movs	r2, #3
 408 003e 1040     		ands	r0, r2
 409 0040 6A46     		mov	r2, sp
 410 0042 9850     		str	r0, [r3, r2]
 193:main.c        ****             simon_sequence[i] = PRS_Read() % 4;
 411              		.loc 1 193 0 discriminator 3
 412 0044 0134     		adds	r4, r4, #1
 413              	.LVL59:
 414              	.L24:
 193:main.c        ****             simon_sequence[i] = PRS_Read() % 4;
 415              		.loc 1 193 0 is_stmt 0 discriminator 1
 416 0046 132C     		cmp	r4, #19
 417 0048 F5DD     		ble	.L25
 418 004a 0124     		movs	r4, #1
 419              	.LVL60:
 420 004c 0026     		movs	r6, #0
 421 004e 45E0     		b	.L26
 422              	.LVL61:
 423              	.L27:
 424              	.LBE4:
 195:main.c        ****             
ARM GAS  C:\Users\LEOTEJ~1\AppData\Local\Temp\ccBzcMaC.s 			page 12


 196:main.c        ****         }
 197:main.c        ****         
 198:main.c        ****        
 199:main.c        ****         
 200:main.c        ****         // Zero the sequence counter. We use this variable to keep
 201:main.c        ****         // track of how far along we are in the game        
 202:main.c        ****         seq_ctr = 1;
 203:main.c        ****         
 204:main.c        ****         // These variables keep track of how many are correct each round and
 205:main.c        ****         // if any errors are input.
 206:main.c        ****         num_correct = 0, errors = 0;
 207:main.c        **** 
 208:main.c        ****         // Start the counter at 1 (Why not zero? Due to the nature of
 209:main.c        ****         // for loops bounds checking! See below)
 210:main.c        ****         seq_ctr = 1;        
 211:main.c        ****         
 212:main.c        ****         
 213:main.c        ****         // The main game begins here. As long as there are no errors,
 214:main.c        ****         // and we haven't gone through all rounds, we are stuck in here        
 215:main.c        ****         while (seq_ctr < ROUNDS + 1 && errors == 0)
 216:main.c        ****         {
 217:main.c        ****             
 218:main.c        ****             // For each round of the game, we start with having no
 219:main.c        ****             // correct buttons pressed            
 220:main.c        ****             num_correct = 0;
 221:main.c        ****             
 222:main.c        ****             // Playback current sequence. The LED should get
 223:main.c        ****             // progressively dimmer for each color in the sequence
 224:main.c        ****             for (ix = 0; ix < seq_ctr; ix++)
 225:main.c        ****             {
 226:main.c        ****                 play_color(simon_sequence[ix], (100/ROUNDS)*(ROUNDS - seq_ctr + 1), 420); 
 425              		.loc 1 226 0 is_stmt 1 discriminator 3
 426 0050 1521     		movs	r1, #21
 427 0052 091B     		subs	r1, r1, r4
 428 0054 8B00     		lsls	r3, r1, #2
 429 0056 5918     		adds	r1, r3, r1
 430 0058 AB00     		lsls	r3, r5, #2
 431 005a 6A46     		mov	r2, sp
 432 005c 9858     		ldr	r0, [r3, r2]
 433 005e D222     		movs	r2, #210
 434 0060 5200     		lsls	r2, r2, #1
 435 0062 FFF7FEFF 		bl	play_color
 436              	.LVL62:
 224:main.c        ****             {
 437              		.loc 1 224 0 discriminator 3
 438 0066 0135     		adds	r5, r5, #1
 439              	.LVL63:
 440 0068 00E0     		b	.L36
 441              	.LVL64:
 442              	.L39:
 443 006a 0025     		movs	r5, #0
 444              	.L36:
 445              	.LVL65:
 224:main.c        ****             {
 446              		.loc 1 224 0 is_stmt 0 discriminator 1
 447 006c A542     		cmp	r5, r4
 448 006e EFDB     		blt	.L27
ARM GAS  C:\Users\LEOTEJ~1\AppData\Local\Temp\ccBzcMaC.s 			page 13


 449 0070 0025     		movs	r5, #0
 450              	.LVL66:
 451 0072 26E0     		b	.L28
 452              	.LVL67:
 453              	.L33:
 227:main.c        ****             }
 228:main.c        ****             
 229:main.c        ****             // Since seq_ctr keeps track of the current number we have
 230:main.c        ****             // gotten correct so far, for each round we have to keep looping
 231:main.c        ****             // until we get all correct (or break if an error)
 232:main.c        ****             while (num_correct < seq_ctr)
 233:main.c        ****             {
 234:main.c        ****                 // Pressed keeps track of the current (if any) button that
 235:main.c        ****                 // was pressed. Timeout starts at 0 and gets set from
 236:main.c        ****                 // INPUT_TIMER_ISR if a button hasn't been pressed in
 237:main.c        ****                 // 3s
 238:main.c        ****                 pressed = 0;
 454              		.loc 1 238 0 is_stmt 1
 455 0074 0023     		movs	r3, #0
 456 0076 1C4A     		ldr	r2, .L40
 457 0078 1360     		str	r3, [r2]
 239:main.c        ****                 timeout = 0;      
 458              		.loc 1 239 0
 459 007a 1C4A     		ldr	r2, .L40+4
 460 007c 1360     		str	r3, [r2]
 240:main.c        ****                 
 241:main.c        ****                 // This is the main input loop. When poll_button returns
 242:main.c        ****                 // something non-zero, that means a button is pressed.
 243:main.c        ****                 // If timeout gets set to 1, that means 3s have elapsed
 244:main.c        ****                 // without a button press
 245:main.c        ****                 while(pressed == 0 && timeout == 0)
 461              		.loc 1 245 0
 462 007e 03E0     		b	.L29
 463              	.L31:
 246:main.c        ****                 {
 247:main.c        ****                     pressed = poll_button();
 464              		.loc 1 247 0
 465 0080 FFF7FEFF 		bl	poll_button
 466              	.LVL68:
 467 0084 184B     		ldr	r3, .L40
 468 0086 1860     		str	r0, [r3]
 469              	.L29:
 245:main.c        ****                 {
 470              		.loc 1 245 0
 471 0088 174B     		ldr	r3, .L40
 472 008a 1B68     		ldr	r3, [r3]
 473 008c 002B     		cmp	r3, #0
 474 008e 03D1     		bne	.L30
 245:main.c        ****                 {
 475              		.loc 1 245 0 is_stmt 0 discriminator 1
 476 0090 164B     		ldr	r3, .L40+4
 477 0092 1B68     		ldr	r3, [r3]
 478 0094 002B     		cmp	r3, #0
 479 0096 F3D0     		beq	.L31
 480              	.L30:
 248:main.c        ****                 }                
 249:main.c        ****                 
ARM GAS  C:\Users\LEOTEJ~1\AppData\Local\Temp\ccBzcMaC.s 			page 14


 250:main.c        ****                 // If the main input loop breaks due a timeout, then 
 251:main.c        ****                 if (timeout == 1)
 481              		.loc 1 251 0 is_stmt 1
 482 0098 144B     		ldr	r3, .L40+4
 483 009a 1B68     		ldr	r3, [r3]
 484 009c 012B     		cmp	r3, #1
 485 009e 13D0     		beq	.L37
 252:main.c        ****                 {
 253:main.c        ****                     // Play the fail sequence
 254:main.c        ****                     play_fail();
 255:main.c        **** 
 256:main.c        ****                     // Set the error counter
 257:main.c        ****                     errors = 1;
 258:main.c        **** 
 259:main.c        ****                     // Break out of the loop for the current round.
 260:main.c        ****                     // This combined with setting errors should get
 261:main.c        ****                     // back to start of the gam
 262:main.c        ****                     break;
 263:main.c        ****                 }
 264:main.c        ****                 // otherwise, the main input loop broke due to a button press.
 265:main.c        ****                 else
 266:main.c        ****                 {
 267:main.c        ****                     // Whether right or wrong, playback the correct color
 268:main.c        ****                     play_color(pressed, (100/ROUNDS)*(ROUNDS - seq_ctr + 1), 420);
 486              		.loc 1 268 0
 487 00a0 114F     		ldr	r7, .L40
 488 00a2 3868     		ldr	r0, [r7]
 489 00a4 1521     		movs	r1, #21
 490 00a6 091B     		subs	r1, r1, r4
 491 00a8 8B00     		lsls	r3, r1, #2
 492 00aa 5918     		adds	r1, r3, r1
 493 00ac D222     		movs	r2, #210
 494 00ae 5200     		lsls	r2, r2, #1
 495 00b0 FFF7FEFF 		bl	play_color
 496              	.LVL69:
 269:main.c        **** 
 270:main.c        ****                     // Check here to see pressed button is correct
 271:main.c        ****                     if (pressed == simon_sequence[num_correct])
 497              		.loc 1 271 0
 498 00b4 AB00     		lsls	r3, r5, #2
 499 00b6 6A46     		mov	r2, sp
 500 00b8 9A58     		ldr	r2, [r3, r2]
 501 00ba 3B68     		ldr	r3, [r7]
 502 00bc 9A42     		cmp	r2, r3
 503 00be 05D1     		bne	.L38
 272:main.c        ****                     {
 273:main.c        ****                         // Increment the number of correctly input
 274:main.c        ****                         // buttons for the sequence
 275:main.c        ****                         num_correct++;
 504              		.loc 1 275 0
 505 00c0 0135     		adds	r5, r5, #1
 506              	.LVL70:
 507              	.L28:
 232:main.c        ****             {
 508              		.loc 1 232 0
 509 00c2 A542     		cmp	r5, r4
 510 00c4 D6DB     		blt	.L33
ARM GAS  C:\Users\LEOTEJ~1\AppData\Local\Temp\ccBzcMaC.s 			page 15


 511 00c6 02E0     		b	.L32
 512              	.L37:
 257:main.c        **** 
 513              		.loc 1 257 0
 514 00c8 0126     		movs	r6, #1
 515              	.LVL71:
 516 00ca 00E0     		b	.L32
 517              	.LVL72:
 518              	.L38:
 276:main.c        ****                     }
 277:main.c        ****                     // Otherwise, the button pressed didn't match the current sequence color
 278:main.c        ****                     else
 279:main.c        ****                     {
 280:main.c        ****                         // Play the fail sequence
 281:main.c        ****                         play_fail();
 282:main.c        **** 
 283:main.c        ****                         // Set the error counter
 284:main.c        ****                         errors = 1;
 519              		.loc 1 284 0
 520 00cc 0126     		movs	r6, #1
 521              	.LVL73:
 522              	.L32:
 285:main.c        **** 
 286:main.c        ****                         // Break out of the loop for the current round.
 287:main.c        ****                         // This combined with setting errors should get
 288:main.c        ****                         // back to start of the game
 289:main.c        ****                         break;
 290:main.c        ****                     }
 291:main.c        ****                 }                
 292:main.c        ****                 
 293:main.c        ****             }
 294:main.c        ****             
 295:main.c        ****             // If we get here, all the buttons entered for the current round
 296:main.c        ****             // matched the sequence! We can increment the sequence counter
 297:main.c        ****             // and go on to the next round. The original Simon delayed 0.8s
 298:main.c        ****             // between rounds.
 299:main.c        ****             if (errors == 0)
 523              		.loc 1 299 0
 524 00ce 002E     		cmp	r6, #0
 525 00d0 04D1     		bne	.L26
 300:main.c        ****             {
 301:main.c        ****                 seq_ctr++;
 526              		.loc 1 301 0
 527 00d2 0134     		adds	r4, r4, #1
 528              	.LVL74:
 302:main.c        ****                 CyDelay(800);
 529              		.loc 1 302 0
 530 00d4 C820     		movs	r0, #200
 531 00d6 8000     		lsls	r0, r0, #2
 532 00d8 FFF7FEFF 		bl	CyDelay
 533              	.LVL75:
 534              	.L26:
 215:main.c        ****         {
 535              		.loc 1 215 0
 536 00dc 142C     		cmp	r4, #20
 537 00de A2DC     		bgt	.L23
 215:main.c        ****         {
ARM GAS  C:\Users\LEOTEJ~1\AppData\Local\Temp\ccBzcMaC.s 			page 16


 538              		.loc 1 215 0 is_stmt 0 discriminator 1
 539 00e0 002E     		cmp	r6, #0
 540 00e2 C2D0     		beq	.L39
 541 00e4 9FE7     		b	.L23
 542              	.L41:
 543 00e6 C046     		.align	2
 544              	.L40:
 545 00e8 00000000 		.word	pressed
 546 00ec 00000000 		.word	timeout
 547              		.cfi_endproc
 548              	.LFE39:
 549              		.size	main, .-main
 550              		.comm	pressed,4,4
 551              		.comm	timeout,4,4
 552              		.text
 553              	.Letext0:
 554              		.file 2 "Generated_Source\\PSoC4/BTN.h"
 555              		.file 3 "Generated_Source\\PSoC4/SPEAKER_PWM.h"
 556              		.file 4 "Generated_Source\\PSoC4/LED_PWM.h"
 557              		.file 5 "Generated_Source\\PSoC4/LED_SEL.h"
 558              		.file 6 "Generated_Source\\PSoC4/CyLib.h"
 559              		.file 7 "Generated_Source\\PSoC4/PRS.h"
 560              		.file 8 "Generated_Source\\PSoC4/INPUT_TIMER.h"
 561              		.file 9 "Generated_Source\\PSoC4/INPUT_TIMER_ISR.h"
 562              		.file 10 "Generated_Source\\PSoC4/cytypes.h"