ARM GAS  C:\Users\HELLOK~1\AppData\Local\Temp\ccs6ImRh.s 			page 1


   1              		.syntax unified
   2              		.cpu cortex-m0
   3              		.fpu softvfp
   4              		.eabi_attribute 20, 1
   5              		.eabi_attribute 21, 1
   6              		.eabi_attribute 23, 3
   7              		.eabi_attribute 24, 1
   8              		.eabi_attribute 25, 1
   9              		.eabi_attribute 26, 1
  10              		.eabi_attribute 30, 1
  11              		.eabi_attribute 34, 0
  12              		.eabi_attribute 18, 4
  13              		.thumb
  14              		.syntax unified
  15              		.file	"ADC_ISR.c"
  16              		.text
  17              	.Ltext0:
  18              		.cfi_sections	.debug_frame
  19              		.section	.text.ADC_ISR_Interrupt,"ax",%progbits
  20              		.align	2
  21              		.global	ADC_ISR_Interrupt
  22              		.code	16
  23              		.thumb_func
  24              		.type	ADC_ISR_Interrupt, %function
  25              	ADC_ISR_Interrupt:
  26              	.LFB37:
  27              		.file 1 "Generated_Source\\PSoC4\\ADC_ISR.c"
   1:Generated_Source\PSoC4/ADC_ISR.c **** /*******************************************************************************
   2:Generated_Source\PSoC4/ADC_ISR.c **** * File Name: ADC_ISR.c  
   3:Generated_Source\PSoC4/ADC_ISR.c **** * Version 1.71
   4:Generated_Source\PSoC4/ADC_ISR.c **** *
   5:Generated_Source\PSoC4/ADC_ISR.c **** *  Description:
   6:Generated_Source\PSoC4/ADC_ISR.c **** *   API for controlling the state of an interrupt.
   7:Generated_Source\PSoC4/ADC_ISR.c **** *
   8:Generated_Source\PSoC4/ADC_ISR.c **** *
   9:Generated_Source\PSoC4/ADC_ISR.c **** *  Note:
  10:Generated_Source\PSoC4/ADC_ISR.c **** *
  11:Generated_Source\PSoC4/ADC_ISR.c **** ********************************************************************************
  12:Generated_Source\PSoC4/ADC_ISR.c **** * Copyright 2008-2015, Cypress Semiconductor Corporation.  All rights reserved.
  13:Generated_Source\PSoC4/ADC_ISR.c **** * You may use this file only in accordance with the license, terms, conditions, 
  14:Generated_Source\PSoC4/ADC_ISR.c **** * disclaimers, and limitations in the end user license agreement accompanying 
  15:Generated_Source\PSoC4/ADC_ISR.c **** * the software package with which this file was provided.
  16:Generated_Source\PSoC4/ADC_ISR.c **** *******************************************************************************/
  17:Generated_Source\PSoC4/ADC_ISR.c **** 
  18:Generated_Source\PSoC4/ADC_ISR.c **** 
  19:Generated_Source\PSoC4/ADC_ISR.c **** #include <cydevice_trm.h>
  20:Generated_Source\PSoC4/ADC_ISR.c **** #include <CyLib.h>
  21:Generated_Source\PSoC4/ADC_ISR.c **** #include <ADC_ISR.h>
  22:Generated_Source\PSoC4/ADC_ISR.c **** #include "cyapicallbacks.h"
  23:Generated_Source\PSoC4/ADC_ISR.c **** 
  24:Generated_Source\PSoC4/ADC_ISR.c **** #if !defined(ADC_ISR__REMOVED) /* Check for removal by optimization */
  25:Generated_Source\PSoC4/ADC_ISR.c **** 
  26:Generated_Source\PSoC4/ADC_ISR.c **** /*******************************************************************************
  27:Generated_Source\PSoC4/ADC_ISR.c **** *  Place your includes, defines and code here 
  28:Generated_Source\PSoC4/ADC_ISR.c **** ********************************************************************************/
  29:Generated_Source\PSoC4/ADC_ISR.c **** /* `#START ADC_ISR_intc` */
  30:Generated_Source\PSoC4/ADC_ISR.c **** #include "ADC.h"    
ARM GAS  C:\Users\HELLOK~1\AppData\Local\Temp\ccs6ImRh.s 			page 2


  31:Generated_Source\PSoC4/ADC_ISR.c **** #include "FreeRTOS.h"
  32:Generated_Source\PSoC4/ADC_ISR.c **** #include "task.h"
  33:Generated_Source\PSoC4/ADC_ISR.c **** #include "semphr.h"
  34:Generated_Source\PSoC4/ADC_ISR.c **** extern volatile int16 adcDV;
  35:Generated_Source\PSoC4/ADC_ISR.c **** extern SemaphoreHandle_t adc_mutex;
  36:Generated_Source\PSoC4/ADC_ISR.c **** /* `#END` */
  37:Generated_Source\PSoC4/ADC_ISR.c **** 
  38:Generated_Source\PSoC4/ADC_ISR.c **** extern cyisraddress CyRamVectors[CYINT_IRQ_BASE + CY_NUM_INTERRUPTS];
  39:Generated_Source\PSoC4/ADC_ISR.c **** 
  40:Generated_Source\PSoC4/ADC_ISR.c **** /* Declared in startup, used to set unused interrupts to. */
  41:Generated_Source\PSoC4/ADC_ISR.c **** CY_ISR_PROTO(IntDefaultHandler);
  42:Generated_Source\PSoC4/ADC_ISR.c **** 
  43:Generated_Source\PSoC4/ADC_ISR.c **** 
  44:Generated_Source\PSoC4/ADC_ISR.c **** /*******************************************************************************
  45:Generated_Source\PSoC4/ADC_ISR.c **** * Function Name: ADC_ISR_Start
  46:Generated_Source\PSoC4/ADC_ISR.c **** ********************************************************************************
  47:Generated_Source\PSoC4/ADC_ISR.c **** *
  48:Generated_Source\PSoC4/ADC_ISR.c **** * Summary:
  49:Generated_Source\PSoC4/ADC_ISR.c **** *  Set up the interrupt and enable it. This function disables the interrupt, 
  50:Generated_Source\PSoC4/ADC_ISR.c **** *  sets the default interrupt vector, sets the priority from the value in the
  51:Generated_Source\PSoC4/ADC_ISR.c **** *  Design Wide Resources Interrupt Editor, then enables the interrupt to the 
  52:Generated_Source\PSoC4/ADC_ISR.c **** *  interrupt controller.
  53:Generated_Source\PSoC4/ADC_ISR.c **** *
  54:Generated_Source\PSoC4/ADC_ISR.c **** * Parameters:  
  55:Generated_Source\PSoC4/ADC_ISR.c **** *   None
  56:Generated_Source\PSoC4/ADC_ISR.c **** *
  57:Generated_Source\PSoC4/ADC_ISR.c **** * Return:
  58:Generated_Source\PSoC4/ADC_ISR.c **** *   None
  59:Generated_Source\PSoC4/ADC_ISR.c **** *
  60:Generated_Source\PSoC4/ADC_ISR.c **** *******************************************************************************/
  61:Generated_Source\PSoC4/ADC_ISR.c **** void ADC_ISR_Start(void)
  62:Generated_Source\PSoC4/ADC_ISR.c **** {
  63:Generated_Source\PSoC4/ADC_ISR.c ****     /* For all we know the interrupt is active. */
  64:Generated_Source\PSoC4/ADC_ISR.c ****     ADC_ISR_Disable();
  65:Generated_Source\PSoC4/ADC_ISR.c **** 
  66:Generated_Source\PSoC4/ADC_ISR.c ****     /* Set the ISR to point to the ADC_ISR Interrupt. */
  67:Generated_Source\PSoC4/ADC_ISR.c ****     ADC_ISR_SetVector(&ADC_ISR_Interrupt);
  68:Generated_Source\PSoC4/ADC_ISR.c **** 
  69:Generated_Source\PSoC4/ADC_ISR.c ****     /* Set the priority. */
  70:Generated_Source\PSoC4/ADC_ISR.c ****     ADC_ISR_SetPriority((uint8)ADC_ISR_INTC_PRIOR_NUMBER);
  71:Generated_Source\PSoC4/ADC_ISR.c **** 
  72:Generated_Source\PSoC4/ADC_ISR.c ****     /* Enable it. */
  73:Generated_Source\PSoC4/ADC_ISR.c ****     ADC_ISR_Enable();
  74:Generated_Source\PSoC4/ADC_ISR.c **** }
  75:Generated_Source\PSoC4/ADC_ISR.c **** 
  76:Generated_Source\PSoC4/ADC_ISR.c **** 
  77:Generated_Source\PSoC4/ADC_ISR.c **** /*******************************************************************************
  78:Generated_Source\PSoC4/ADC_ISR.c **** * Function Name: ADC_ISR_StartEx
  79:Generated_Source\PSoC4/ADC_ISR.c **** ********************************************************************************
  80:Generated_Source\PSoC4/ADC_ISR.c **** *
  81:Generated_Source\PSoC4/ADC_ISR.c **** * Summary:
  82:Generated_Source\PSoC4/ADC_ISR.c **** *  Sets up the interrupt and enables it. This function disables the interrupt,
  83:Generated_Source\PSoC4/ADC_ISR.c **** *  sets the interrupt vector based on the address passed in, sets the priority 
  84:Generated_Source\PSoC4/ADC_ISR.c **** *  from the value in the Design Wide Resources Interrupt Editor, then enables 
  85:Generated_Source\PSoC4/ADC_ISR.c **** *  the interrupt to the interrupt controller.
  86:Generated_Source\PSoC4/ADC_ISR.c **** *  
  87:Generated_Source\PSoC4/ADC_ISR.c **** *  When defining ISR functions, the CY_ISR and CY_ISR_PROTO macros should be 
ARM GAS  C:\Users\HELLOK~1\AppData\Local\Temp\ccs6ImRh.s 			page 3


  88:Generated_Source\PSoC4/ADC_ISR.c **** *  used to provide consistent definition across compilers:
  89:Generated_Source\PSoC4/ADC_ISR.c **** *  
  90:Generated_Source\PSoC4/ADC_ISR.c **** *  Function definition example:
  91:Generated_Source\PSoC4/ADC_ISR.c **** *   CY_ISR(MyISR)
  92:Generated_Source\PSoC4/ADC_ISR.c **** *   {
  93:Generated_Source\PSoC4/ADC_ISR.c **** *   }
  94:Generated_Source\PSoC4/ADC_ISR.c **** *   Function prototype example:
  95:Generated_Source\PSoC4/ADC_ISR.c **** *   CY_ISR_PROTO(MyISR);
  96:Generated_Source\PSoC4/ADC_ISR.c **** *
  97:Generated_Source\PSoC4/ADC_ISR.c **** * Parameters:  
  98:Generated_Source\PSoC4/ADC_ISR.c **** *   address: Address of the ISR to set in the interrupt vector table.
  99:Generated_Source\PSoC4/ADC_ISR.c **** *
 100:Generated_Source\PSoC4/ADC_ISR.c **** * Return:
 101:Generated_Source\PSoC4/ADC_ISR.c **** *   None
 102:Generated_Source\PSoC4/ADC_ISR.c **** *
 103:Generated_Source\PSoC4/ADC_ISR.c **** *******************************************************************************/
 104:Generated_Source\PSoC4/ADC_ISR.c **** void ADC_ISR_StartEx(cyisraddress address)
 105:Generated_Source\PSoC4/ADC_ISR.c **** {
 106:Generated_Source\PSoC4/ADC_ISR.c ****     /* For all we know the interrupt is active. */
 107:Generated_Source\PSoC4/ADC_ISR.c ****     ADC_ISR_Disable();
 108:Generated_Source\PSoC4/ADC_ISR.c **** 
 109:Generated_Source\PSoC4/ADC_ISR.c ****     /* Set the ISR to point to the ADC_ISR Interrupt. */
 110:Generated_Source\PSoC4/ADC_ISR.c ****     ADC_ISR_SetVector(address);
 111:Generated_Source\PSoC4/ADC_ISR.c **** 
 112:Generated_Source\PSoC4/ADC_ISR.c ****     /* Set the priority. */
 113:Generated_Source\PSoC4/ADC_ISR.c ****     ADC_ISR_SetPriority((uint8)ADC_ISR_INTC_PRIOR_NUMBER);
 114:Generated_Source\PSoC4/ADC_ISR.c **** 
 115:Generated_Source\PSoC4/ADC_ISR.c ****     /* Enable it. */
 116:Generated_Source\PSoC4/ADC_ISR.c ****     ADC_ISR_Enable();
 117:Generated_Source\PSoC4/ADC_ISR.c **** }
 118:Generated_Source\PSoC4/ADC_ISR.c **** 
 119:Generated_Source\PSoC4/ADC_ISR.c **** 
 120:Generated_Source\PSoC4/ADC_ISR.c **** /*******************************************************************************
 121:Generated_Source\PSoC4/ADC_ISR.c **** * Function Name: ADC_ISR_Stop
 122:Generated_Source\PSoC4/ADC_ISR.c **** ********************************************************************************
 123:Generated_Source\PSoC4/ADC_ISR.c **** *
 124:Generated_Source\PSoC4/ADC_ISR.c **** * Summary:
 125:Generated_Source\PSoC4/ADC_ISR.c **** *   Disables and removes the interrupt.
 126:Generated_Source\PSoC4/ADC_ISR.c **** *
 127:Generated_Source\PSoC4/ADC_ISR.c **** * Parameters:  
 128:Generated_Source\PSoC4/ADC_ISR.c **** *   None
 129:Generated_Source\PSoC4/ADC_ISR.c **** *
 130:Generated_Source\PSoC4/ADC_ISR.c **** * Return:
 131:Generated_Source\PSoC4/ADC_ISR.c **** *   None
 132:Generated_Source\PSoC4/ADC_ISR.c **** *
 133:Generated_Source\PSoC4/ADC_ISR.c **** *******************************************************************************/
 134:Generated_Source\PSoC4/ADC_ISR.c **** void ADC_ISR_Stop(void)
 135:Generated_Source\PSoC4/ADC_ISR.c **** {
 136:Generated_Source\PSoC4/ADC_ISR.c ****     /* Disable this interrupt. */
 137:Generated_Source\PSoC4/ADC_ISR.c ****     ADC_ISR_Disable();
 138:Generated_Source\PSoC4/ADC_ISR.c **** 
 139:Generated_Source\PSoC4/ADC_ISR.c ****     /* Set the ISR to point to the passive one. */
 140:Generated_Source\PSoC4/ADC_ISR.c ****     ADC_ISR_SetVector(&IntDefaultHandler);
 141:Generated_Source\PSoC4/ADC_ISR.c **** }
 142:Generated_Source\PSoC4/ADC_ISR.c **** 
 143:Generated_Source\PSoC4/ADC_ISR.c **** 
 144:Generated_Source\PSoC4/ADC_ISR.c **** /*******************************************************************************
ARM GAS  C:\Users\HELLOK~1\AppData\Local\Temp\ccs6ImRh.s 			page 4


 145:Generated_Source\PSoC4/ADC_ISR.c **** * Function Name: ADC_ISR_Interrupt
 146:Generated_Source\PSoC4/ADC_ISR.c **** ********************************************************************************
 147:Generated_Source\PSoC4/ADC_ISR.c **** *
 148:Generated_Source\PSoC4/ADC_ISR.c **** * Summary:
 149:Generated_Source\PSoC4/ADC_ISR.c **** *   The default Interrupt Service Routine for ADC_ISR.
 150:Generated_Source\PSoC4/ADC_ISR.c **** *
 151:Generated_Source\PSoC4/ADC_ISR.c **** *   Add custom code between the START and END comments to keep the next version
 152:Generated_Source\PSoC4/ADC_ISR.c **** *   of this file from over-writing your code.
 153:Generated_Source\PSoC4/ADC_ISR.c **** *
 154:Generated_Source\PSoC4/ADC_ISR.c **** *   Note You may use either the default ISR by using this API, or you may define
 155:Generated_Source\PSoC4/ADC_ISR.c **** *   your own separate ISR through ISR_StartEx().
 156:Generated_Source\PSoC4/ADC_ISR.c **** *
 157:Generated_Source\PSoC4/ADC_ISR.c **** * Parameters:  
 158:Generated_Source\PSoC4/ADC_ISR.c **** *   None
 159:Generated_Source\PSoC4/ADC_ISR.c **** *
 160:Generated_Source\PSoC4/ADC_ISR.c **** * Return:
 161:Generated_Source\PSoC4/ADC_ISR.c **** *   None
 162:Generated_Source\PSoC4/ADC_ISR.c **** *
 163:Generated_Source\PSoC4/ADC_ISR.c **** *******************************************************************************/
 164:Generated_Source\PSoC4/ADC_ISR.c **** CY_ISR(ADC_ISR_Interrupt)
 165:Generated_Source\PSoC4/ADC_ISR.c **** {
  28              		.loc 1 165 0
  29              		.cfi_startproc
  30              		@ args = 0, pretend = 0, frame = 8
  31              		@ frame_needed = 0, uses_anonymous_args = 0
  32 0000 10B5     		push	{r4, lr}
  33              		.cfi_def_cfa_offset 8
  34              		.cfi_offset 4, -8
  35              		.cfi_offset 14, -4
  36 0002 82B0     		sub	sp, sp, #8
  37              		.cfi_def_cfa_offset 16
 166:Generated_Source\PSoC4/ADC_ISR.c ****     #ifdef ADC_ISR_INTERRUPT_INTERRUPT_CALLBACK
 167:Generated_Source\PSoC4/ADC_ISR.c ****         ADC_ISR_Interrupt_InterruptCallback();
 168:Generated_Source\PSoC4/ADC_ISR.c ****     #endif /* ADC_ISR_INTERRUPT_INTERRUPT_CALLBACK */ 
 169:Generated_Source\PSoC4/ADC_ISR.c **** 
 170:Generated_Source\PSoC4/ADC_ISR.c ****     /*  Place your Interrupt code here. */
 171:Generated_Source\PSoC4/ADC_ISR.c ****     /* `#START ADC_ISR_Interrupt` */
 172:Generated_Source\PSoC4/ADC_ISR.c ****     
 173:Generated_Source\PSoC4/ADC_ISR.c ****     BaseType_t higher_priority = pdFALSE; // Used for scheduling
  38              		.loc 1 173 0
  39 0004 0023     		movs	r3, #0
  40 0006 0193     		str	r3, [sp, #4]
 174:Generated_Source\PSoC4/ADC_ISR.c ****     
 175:Generated_Source\PSoC4/ADC_ISR.c ****     //Grab the mutex for the latest ADC digital value,    
 176:Generated_Source\PSoC4/ADC_ISR.c ****     xSemaphoreTakeFromISR(adc_mutex, &higher_priority);
  41              		.loc 1 176 0
  42 0008 084C     		ldr	r4, .L2
  43 000a 01AA     		add	r2, sp, #4
  44 000c 0021     		movs	r1, #0
  45 000e 2068     		ldr	r0, [r4]
  46 0010 FFF7FEFF 		bl	xQueueReceiveFromISR
  47              	.LVL0:
 177:Generated_Source\PSoC4/ADC_ISR.c ****     
 178:Generated_Source\PSoC4/ADC_ISR.c ****     adcDV = ADC_GetResult16(0); //update the ADC value atomically
  48              		.loc 1 178 0
  49 0014 0020     		movs	r0, #0
  50 0016 FFF7FEFF 		bl	ADC_GetResult16
ARM GAS  C:\Users\HELLOK~1\AppData\Local\Temp\ccs6ImRh.s 			page 5


  51              	.LVL1:
  52 001a 054B     		ldr	r3, .L2+4
  53 001c 1880     		strh	r0, [r3]
 179:Generated_Source\PSoC4/ADC_ISR.c ****     
 180:Generated_Source\PSoC4/ADC_ISR.c ****     xSemaphoreGiveFromISR(adc_mutex, &higher_priority); //Release mutex for LCD update
  54              		.loc 1 180 0
  55 001e 2068     		ldr	r0, [r4]
  56 0020 01A9     		add	r1, sp, #4
  57 0022 FFF7FEFF 		bl	xQueueGiveFromISR
  58              	.LVL2:
 181:Generated_Source\PSoC4/ADC_ISR.c ****     /* `#END` */
 182:Generated_Source\PSoC4/ADC_ISR.c **** }
  59              		.loc 1 182 0
  60 0026 02B0     		add	sp, sp, #8
  61              		@ sp needed
  62 0028 10BD     		pop	{r4, pc}
  63              	.L3:
  64 002a C046     		.align	2
  65              	.L2:
  66 002c 00000000 		.word	adc_mutex
  67 0030 00000000 		.word	adcDV
  68              		.cfi_endproc
  69              	.LFE37:
  70              		.size	ADC_ISR_Interrupt, .-ADC_ISR_Interrupt
  71              		.section	.text.ADC_ISR_SetVector,"ax",%progbits
  72              		.align	2
  73              		.global	ADC_ISR_SetVector
  74              		.code	16
  75              		.thumb_func
  76              		.type	ADC_ISR_SetVector, %function
  77              	ADC_ISR_SetVector:
  78              	.LFB38:
 183:Generated_Source\PSoC4/ADC_ISR.c **** 
 184:Generated_Source\PSoC4/ADC_ISR.c **** 
 185:Generated_Source\PSoC4/ADC_ISR.c **** /*******************************************************************************
 186:Generated_Source\PSoC4/ADC_ISR.c **** * Function Name: ADC_ISR_SetVector
 187:Generated_Source\PSoC4/ADC_ISR.c **** ********************************************************************************
 188:Generated_Source\PSoC4/ADC_ISR.c **** *
 189:Generated_Source\PSoC4/ADC_ISR.c **** * Summary:
 190:Generated_Source\PSoC4/ADC_ISR.c **** *   Change the ISR vector for the Interrupt. Note calling ADC_ISR_Start
 191:Generated_Source\PSoC4/ADC_ISR.c **** *   will override any effect this method would have had. To set the vector 
 192:Generated_Source\PSoC4/ADC_ISR.c **** *   before the component has been started use ADC_ISR_StartEx instead.
 193:Generated_Source\PSoC4/ADC_ISR.c **** * 
 194:Generated_Source\PSoC4/ADC_ISR.c **** *   When defining ISR functions, the CY_ISR and CY_ISR_PROTO macros should be 
 195:Generated_Source\PSoC4/ADC_ISR.c **** *   used to provide consistent definition across compilers:
 196:Generated_Source\PSoC4/ADC_ISR.c **** *
 197:Generated_Source\PSoC4/ADC_ISR.c **** *   Function definition example:
 198:Generated_Source\PSoC4/ADC_ISR.c **** *   CY_ISR(MyISR)
 199:Generated_Source\PSoC4/ADC_ISR.c **** *   {
 200:Generated_Source\PSoC4/ADC_ISR.c **** *   }
 201:Generated_Source\PSoC4/ADC_ISR.c **** *
 202:Generated_Source\PSoC4/ADC_ISR.c **** *   Function prototype example:
 203:Generated_Source\PSoC4/ADC_ISR.c **** *     CY_ISR_PROTO(MyISR);
 204:Generated_Source\PSoC4/ADC_ISR.c **** *
 205:Generated_Source\PSoC4/ADC_ISR.c **** * Parameters:
 206:Generated_Source\PSoC4/ADC_ISR.c **** *   address: Address of the ISR to set in the interrupt vector table.
 207:Generated_Source\PSoC4/ADC_ISR.c **** *
ARM GAS  C:\Users\HELLOK~1\AppData\Local\Temp\ccs6ImRh.s 			page 6


 208:Generated_Source\PSoC4/ADC_ISR.c **** * Return:
 209:Generated_Source\PSoC4/ADC_ISR.c **** *   None
 210:Generated_Source\PSoC4/ADC_ISR.c **** *
 211:Generated_Source\PSoC4/ADC_ISR.c **** *******************************************************************************/
 212:Generated_Source\PSoC4/ADC_ISR.c **** void ADC_ISR_SetVector(cyisraddress address)
 213:Generated_Source\PSoC4/ADC_ISR.c **** {
  79              		.loc 1 213 0
  80              		.cfi_startproc
  81              		@ args = 0, pretend = 0, frame = 0
  82              		@ frame_needed = 0, uses_anonymous_args = 0
  83              		@ link register save eliminated.
  84              	.LVL3:
 214:Generated_Source\PSoC4/ADC_ISR.c ****     CyRamVectors[CYINT_IRQ_BASE + ADC_ISR__INTC_NUMBER] = address;
  85              		.loc 1 214 0
  86 0000 014B     		ldr	r3, .L5
  87 0002 5864     		str	r0, [r3, #68]
 215:Generated_Source\PSoC4/ADC_ISR.c **** }
  88              		.loc 1 215 0
  89              		@ sp needed
  90 0004 7047     		bx	lr
  91              	.L6:
  92 0006 C046     		.align	2
  93              	.L5:
  94 0008 00000000 		.word	CyRamVectors
  95              		.cfi_endproc
  96              	.LFE38:
  97              		.size	ADC_ISR_SetVector, .-ADC_ISR_SetVector
  98              		.section	.text.ADC_ISR_GetVector,"ax",%progbits
  99              		.align	2
 100              		.global	ADC_ISR_GetVector
 101              		.code	16
 102              		.thumb_func
 103              		.type	ADC_ISR_GetVector, %function
 104              	ADC_ISR_GetVector:
 105              	.LFB39:
 216:Generated_Source\PSoC4/ADC_ISR.c **** 
 217:Generated_Source\PSoC4/ADC_ISR.c **** 
 218:Generated_Source\PSoC4/ADC_ISR.c **** /*******************************************************************************
 219:Generated_Source\PSoC4/ADC_ISR.c **** * Function Name: ADC_ISR_GetVector
 220:Generated_Source\PSoC4/ADC_ISR.c **** ********************************************************************************
 221:Generated_Source\PSoC4/ADC_ISR.c **** *
 222:Generated_Source\PSoC4/ADC_ISR.c **** * Summary:
 223:Generated_Source\PSoC4/ADC_ISR.c **** *   Gets the "address" of the current ISR vector for the Interrupt.
 224:Generated_Source\PSoC4/ADC_ISR.c **** *
 225:Generated_Source\PSoC4/ADC_ISR.c **** * Parameters:
 226:Generated_Source\PSoC4/ADC_ISR.c **** *   None
 227:Generated_Source\PSoC4/ADC_ISR.c **** *
 228:Generated_Source\PSoC4/ADC_ISR.c **** * Return:
 229:Generated_Source\PSoC4/ADC_ISR.c **** *   Address of the ISR in the interrupt vector table.
 230:Generated_Source\PSoC4/ADC_ISR.c **** *
 231:Generated_Source\PSoC4/ADC_ISR.c **** *******************************************************************************/
 232:Generated_Source\PSoC4/ADC_ISR.c **** cyisraddress ADC_ISR_GetVector(void)
 233:Generated_Source\PSoC4/ADC_ISR.c **** {
 106              		.loc 1 233 0
 107              		.cfi_startproc
 108              		@ args = 0, pretend = 0, frame = 0
 109              		@ frame_needed = 0, uses_anonymous_args = 0
ARM GAS  C:\Users\HELLOK~1\AppData\Local\Temp\ccs6ImRh.s 			page 7


 110              		@ link register save eliminated.
 234:Generated_Source\PSoC4/ADC_ISR.c ****     return CyRamVectors[CYINT_IRQ_BASE + ADC_ISR__INTC_NUMBER];
 111              		.loc 1 234 0
 112 0000 014B     		ldr	r3, .L8
 113 0002 586C     		ldr	r0, [r3, #68]
 235:Generated_Source\PSoC4/ADC_ISR.c **** }
 114              		.loc 1 235 0
 115              		@ sp needed
 116 0004 7047     		bx	lr
 117              	.L9:
 118 0006 C046     		.align	2
 119              	.L8:
 120 0008 00000000 		.word	CyRamVectors
 121              		.cfi_endproc
 122              	.LFE39:
 123              		.size	ADC_ISR_GetVector, .-ADC_ISR_GetVector
 124              		.section	.text.ADC_ISR_SetPriority,"ax",%progbits
 125              		.align	2
 126              		.global	ADC_ISR_SetPriority
 127              		.code	16
 128              		.thumb_func
 129              		.type	ADC_ISR_SetPriority, %function
 130              	ADC_ISR_SetPriority:
 131              	.LFB40:
 236:Generated_Source\PSoC4/ADC_ISR.c **** 
 237:Generated_Source\PSoC4/ADC_ISR.c **** 
 238:Generated_Source\PSoC4/ADC_ISR.c **** /*******************************************************************************
 239:Generated_Source\PSoC4/ADC_ISR.c **** * Function Name: ADC_ISR_SetPriority
 240:Generated_Source\PSoC4/ADC_ISR.c **** ********************************************************************************
 241:Generated_Source\PSoC4/ADC_ISR.c **** *
 242:Generated_Source\PSoC4/ADC_ISR.c **** * Summary:
 243:Generated_Source\PSoC4/ADC_ISR.c **** *   Sets the Priority of the Interrupt. 
 244:Generated_Source\PSoC4/ADC_ISR.c **** *
 245:Generated_Source\PSoC4/ADC_ISR.c **** *   Note calling ADC_ISR_Start or ADC_ISR_StartEx will 
 246:Generated_Source\PSoC4/ADC_ISR.c **** *   override any effect this API would have had. This API should only be called
 247:Generated_Source\PSoC4/ADC_ISR.c **** *   after ADC_ISR_Start or ADC_ISR_StartEx has been called. 
 248:Generated_Source\PSoC4/ADC_ISR.c **** *   To set the initial priority for the component, use the Design-Wide Resources
 249:Generated_Source\PSoC4/ADC_ISR.c **** *   Interrupt Editor.
 250:Generated_Source\PSoC4/ADC_ISR.c **** *
 251:Generated_Source\PSoC4/ADC_ISR.c **** *   Note This API has no effect on Non-maskable interrupt NMI).
 252:Generated_Source\PSoC4/ADC_ISR.c **** *
 253:Generated_Source\PSoC4/ADC_ISR.c **** * Parameters:
 254:Generated_Source\PSoC4/ADC_ISR.c **** *   priority: Priority of the interrupt, 0 being the highest priority
 255:Generated_Source\PSoC4/ADC_ISR.c **** *             PSoC 3 and PSoC 5LP: Priority is from 0 to 7.
 256:Generated_Source\PSoC4/ADC_ISR.c **** *             PSoC 4: Priority is from 0 to 3.
 257:Generated_Source\PSoC4/ADC_ISR.c **** *
 258:Generated_Source\PSoC4/ADC_ISR.c **** * Return:
 259:Generated_Source\PSoC4/ADC_ISR.c **** *   None
 260:Generated_Source\PSoC4/ADC_ISR.c **** *
 261:Generated_Source\PSoC4/ADC_ISR.c **** *******************************************************************************/
 262:Generated_Source\PSoC4/ADC_ISR.c **** void ADC_ISR_SetPriority(uint8 priority)
 263:Generated_Source\PSoC4/ADC_ISR.c **** {
 132              		.loc 1 263 0
 133              		.cfi_startproc
 134              		@ args = 0, pretend = 0, frame = 0
 135              		@ frame_needed = 0, uses_anonymous_args = 0
 136              	.LVL4:
ARM GAS  C:\Users\HELLOK~1\AppData\Local\Temp\ccs6ImRh.s 			page 8


 137 0000 10B5     		push	{r4, lr}
 138              		.cfi_def_cfa_offset 8
 139              		.cfi_offset 4, -8
 140              		.cfi_offset 14, -4
 141 0002 0400     		movs	r4, r0
 142              	.LVL5:
 264:Generated_Source\PSoC4/ADC_ISR.c **** 	uint8 interruptState;
 265:Generated_Source\PSoC4/ADC_ISR.c ****     uint32 priorityOffset = ((ADC_ISR__INTC_NUMBER % 4u) * 8u) + 6u;
 266:Generated_Source\PSoC4/ADC_ISR.c ****     
 267:Generated_Source\PSoC4/ADC_ISR.c **** 	interruptState = CyEnterCriticalSection();
 143              		.loc 1 267 0
 144 0004 FFF7FEFF 		bl	CyEnterCriticalSection
 145              	.LVL6:
 268:Generated_Source\PSoC4/ADC_ISR.c ****     *ADC_ISR_INTC_PRIOR = (*ADC_ISR_INTC_PRIOR & (uint32)(~(uint32)ADC_ISR__INTC_PRIOR_MASK)) |
 146              		.loc 1 268 0
 147 0008 044A     		ldr	r2, .L11
 148 000a 1168     		ldr	r1, [r2]
 149 000c 044B     		ldr	r3, .L11+4
 150 000e 0B40     		ands	r3, r1
 269:Generated_Source\PSoC4/ADC_ISR.c ****                                     ((uint32)priority << priorityOffset);
 151              		.loc 1 269 0
 152 0010 A403     		lsls	r4, r4, #14
 268:Generated_Source\PSoC4/ADC_ISR.c ****     *ADC_ISR_INTC_PRIOR = (*ADC_ISR_INTC_PRIOR & (uint32)(~(uint32)ADC_ISR__INTC_PRIOR_MASK)) |
 153              		.loc 1 268 0
 154 0012 1C43     		orrs	r4, r3
 155 0014 1460     		str	r4, [r2]
 270:Generated_Source\PSoC4/ADC_ISR.c **** 	CyExitCriticalSection(interruptState);
 156              		.loc 1 270 0
 157 0016 FFF7FEFF 		bl	CyExitCriticalSection
 158              	.LVL7:
 271:Generated_Source\PSoC4/ADC_ISR.c **** }
 159              		.loc 1 271 0
 160              		@ sp needed
 161 001a 10BD     		pop	{r4, pc}
 162              	.L12:
 163              		.align	2
 164              	.L11:
 165 001c 00E400E0 		.word	-536812544
 166 0020 FF3FFFFF 		.word	-49153
 167              		.cfi_endproc
 168              	.LFE40:
 169              		.size	ADC_ISR_SetPriority, .-ADC_ISR_SetPriority
 170              		.section	.text.ADC_ISR_GetPriority,"ax",%progbits
 171              		.align	2
 172              		.global	ADC_ISR_GetPriority
 173              		.code	16
 174              		.thumb_func
 175              		.type	ADC_ISR_GetPriority, %function
 176              	ADC_ISR_GetPriority:
 177              	.LFB41:
 272:Generated_Source\PSoC4/ADC_ISR.c **** 
 273:Generated_Source\PSoC4/ADC_ISR.c **** 
 274:Generated_Source\PSoC4/ADC_ISR.c **** /*******************************************************************************
 275:Generated_Source\PSoC4/ADC_ISR.c **** * Function Name: ADC_ISR_GetPriority
 276:Generated_Source\PSoC4/ADC_ISR.c **** ********************************************************************************
 277:Generated_Source\PSoC4/ADC_ISR.c **** *
 278:Generated_Source\PSoC4/ADC_ISR.c **** * Summary:
ARM GAS  C:\Users\HELLOK~1\AppData\Local\Temp\ccs6ImRh.s 			page 9


 279:Generated_Source\PSoC4/ADC_ISR.c **** *   Gets the Priority of the Interrupt.
 280:Generated_Source\PSoC4/ADC_ISR.c **** *
 281:Generated_Source\PSoC4/ADC_ISR.c **** * Parameters:
 282:Generated_Source\PSoC4/ADC_ISR.c **** *   None
 283:Generated_Source\PSoC4/ADC_ISR.c **** *
 284:Generated_Source\PSoC4/ADC_ISR.c **** * Return:
 285:Generated_Source\PSoC4/ADC_ISR.c **** *   Priority of the interrupt, 0 being the highest priority
 286:Generated_Source\PSoC4/ADC_ISR.c **** *    PSoC 3 and PSoC 5LP: Priority is from 0 to 7.
 287:Generated_Source\PSoC4/ADC_ISR.c **** *    PSoC 4: Priority is from 0 to 3.
 288:Generated_Source\PSoC4/ADC_ISR.c **** *
 289:Generated_Source\PSoC4/ADC_ISR.c **** *******************************************************************************/
 290:Generated_Source\PSoC4/ADC_ISR.c **** uint8 ADC_ISR_GetPriority(void)
 291:Generated_Source\PSoC4/ADC_ISR.c **** {
 178              		.loc 1 291 0
 179              		.cfi_startproc
 180              		@ args = 0, pretend = 0, frame = 0
 181              		@ frame_needed = 0, uses_anonymous_args = 0
 182              		@ link register save eliminated.
 183              	.LVL8:
 292:Generated_Source\PSoC4/ADC_ISR.c ****     uint32 priority;
 293:Generated_Source\PSoC4/ADC_ISR.c **** 	uint32 priorityOffset = ((ADC_ISR__INTC_NUMBER % 4u) * 8u) + 6u;
 294:Generated_Source\PSoC4/ADC_ISR.c **** 
 295:Generated_Source\PSoC4/ADC_ISR.c ****     priority = (*ADC_ISR_INTC_PRIOR & ADC_ISR__INTC_PRIOR_MASK) >> priorityOffset;
 184              		.loc 1 295 0
 185 0000 024B     		ldr	r3, .L14
 186 0002 1868     		ldr	r0, [r3]
 187 0004 800B     		lsrs	r0, r0, #14
 188              	.LVL9:
 296:Generated_Source\PSoC4/ADC_ISR.c **** 
 297:Generated_Source\PSoC4/ADC_ISR.c ****     return (uint8)priority;
 189              		.loc 1 297 0
 190 0006 0323     		movs	r3, #3
 191 0008 1840     		ands	r0, r3
 192              	.LVL10:
 298:Generated_Source\PSoC4/ADC_ISR.c **** }
 193              		.loc 1 298 0
 194              		@ sp needed
 195 000a 7047     		bx	lr
 196              	.L15:
 197              		.align	2
 198              	.L14:
 199 000c 00E400E0 		.word	-536812544
 200              		.cfi_endproc
 201              	.LFE41:
 202              		.size	ADC_ISR_GetPriority, .-ADC_ISR_GetPriority
 203              		.section	.text.ADC_ISR_Enable,"ax",%progbits
 204              		.align	2
 205              		.global	ADC_ISR_Enable
 206              		.code	16
 207              		.thumb_func
 208              		.type	ADC_ISR_Enable, %function
 209              	ADC_ISR_Enable:
 210              	.LFB42:
 299:Generated_Source\PSoC4/ADC_ISR.c **** 
 300:Generated_Source\PSoC4/ADC_ISR.c **** 
 301:Generated_Source\PSoC4/ADC_ISR.c **** /*******************************************************************************
 302:Generated_Source\PSoC4/ADC_ISR.c **** * Function Name: ADC_ISR_Enable
ARM GAS  C:\Users\HELLOK~1\AppData\Local\Temp\ccs6ImRh.s 			page 10


 303:Generated_Source\PSoC4/ADC_ISR.c **** ********************************************************************************
 304:Generated_Source\PSoC4/ADC_ISR.c **** *
 305:Generated_Source\PSoC4/ADC_ISR.c **** * Summary:
 306:Generated_Source\PSoC4/ADC_ISR.c **** *   Enables the interrupt to the interrupt controller. Do not call this function
 307:Generated_Source\PSoC4/ADC_ISR.c **** *   unless ISR_Start() has been called or the functionality of the ISR_Start() 
 308:Generated_Source\PSoC4/ADC_ISR.c **** *   function, which sets the vector and the priority, has been called.
 309:Generated_Source\PSoC4/ADC_ISR.c **** *
 310:Generated_Source\PSoC4/ADC_ISR.c **** * Parameters:
 311:Generated_Source\PSoC4/ADC_ISR.c **** *   None
 312:Generated_Source\PSoC4/ADC_ISR.c **** *
 313:Generated_Source\PSoC4/ADC_ISR.c **** * Return:
 314:Generated_Source\PSoC4/ADC_ISR.c **** *   None
 315:Generated_Source\PSoC4/ADC_ISR.c **** *
 316:Generated_Source\PSoC4/ADC_ISR.c **** *******************************************************************************/
 317:Generated_Source\PSoC4/ADC_ISR.c **** void ADC_ISR_Enable(void)
 318:Generated_Source\PSoC4/ADC_ISR.c **** {
 211              		.loc 1 318 0
 212              		.cfi_startproc
 213              		@ args = 0, pretend = 0, frame = 0
 214              		@ frame_needed = 0, uses_anonymous_args = 0
 215              		@ link register save eliminated.
 319:Generated_Source\PSoC4/ADC_ISR.c ****     /* Enable the general interrupt. */
 320:Generated_Source\PSoC4/ADC_ISR.c ****     *ADC_ISR_INTC_SET_EN = ADC_ISR__INTC_MASK;
 216              		.loc 1 320 0
 217 0000 0222     		movs	r2, #2
 218 0002 014B     		ldr	r3, .L17
 219 0004 1A60     		str	r2, [r3]
 321:Generated_Source\PSoC4/ADC_ISR.c **** }
 220              		.loc 1 321 0
 221              		@ sp needed
 222 0006 7047     		bx	lr
 223              	.L18:
 224              		.align	2
 225              	.L17:
 226 0008 00E100E0 		.word	-536813312
 227              		.cfi_endproc
 228              	.LFE42:
 229              		.size	ADC_ISR_Enable, .-ADC_ISR_Enable
 230              		.section	.text.ADC_ISR_GetState,"ax",%progbits
 231              		.align	2
 232              		.global	ADC_ISR_GetState
 233              		.code	16
 234              		.thumb_func
 235              		.type	ADC_ISR_GetState, %function
 236              	ADC_ISR_GetState:
 237              	.LFB43:
 322:Generated_Source\PSoC4/ADC_ISR.c **** 
 323:Generated_Source\PSoC4/ADC_ISR.c **** 
 324:Generated_Source\PSoC4/ADC_ISR.c **** /*******************************************************************************
 325:Generated_Source\PSoC4/ADC_ISR.c **** * Function Name: ADC_ISR_GetState
 326:Generated_Source\PSoC4/ADC_ISR.c **** ********************************************************************************
 327:Generated_Source\PSoC4/ADC_ISR.c **** *
 328:Generated_Source\PSoC4/ADC_ISR.c **** * Summary:
 329:Generated_Source\PSoC4/ADC_ISR.c **** *   Gets the state (enabled, disabled) of the Interrupt.
 330:Generated_Source\PSoC4/ADC_ISR.c **** *
 331:Generated_Source\PSoC4/ADC_ISR.c **** * Parameters:
 332:Generated_Source\PSoC4/ADC_ISR.c **** *   None
ARM GAS  C:\Users\HELLOK~1\AppData\Local\Temp\ccs6ImRh.s 			page 11


 333:Generated_Source\PSoC4/ADC_ISR.c **** *
 334:Generated_Source\PSoC4/ADC_ISR.c **** * Return:
 335:Generated_Source\PSoC4/ADC_ISR.c **** *   1 if enabled, 0 if disabled.
 336:Generated_Source\PSoC4/ADC_ISR.c **** *
 337:Generated_Source\PSoC4/ADC_ISR.c **** *******************************************************************************/
 338:Generated_Source\PSoC4/ADC_ISR.c **** uint8 ADC_ISR_GetState(void)
 339:Generated_Source\PSoC4/ADC_ISR.c **** {
 238              		.loc 1 339 0
 239              		.cfi_startproc
 240              		@ args = 0, pretend = 0, frame = 0
 241              		@ frame_needed = 0, uses_anonymous_args = 0
 242              		@ link register save eliminated.
 340:Generated_Source\PSoC4/ADC_ISR.c ****     /* Get the state of the general interrupt. */
 341:Generated_Source\PSoC4/ADC_ISR.c ****     return ((*ADC_ISR_INTC_SET_EN & (uint32)ADC_ISR__INTC_MASK) != 0u) ? 1u:0u;
 243              		.loc 1 341 0
 244 0000 034B     		ldr	r3, .L22
 245 0002 1B68     		ldr	r3, [r3]
 246 0004 9B07     		lsls	r3, r3, #30
 247 0006 01D5     		bpl	.L21
 248 0008 0120     		movs	r0, #1
 249 000a 00E0     		b	.L20
 250              	.L21:
 251 000c 0020     		movs	r0, #0
 252              	.L20:
 342:Generated_Source\PSoC4/ADC_ISR.c **** }
 253              		.loc 1 342 0 discriminator 4
 254              		@ sp needed
 255 000e 7047     		bx	lr
 256              	.L23:
 257              		.align	2
 258              	.L22:
 259 0010 00E100E0 		.word	-536813312
 260              		.cfi_endproc
 261              	.LFE43:
 262              		.size	ADC_ISR_GetState, .-ADC_ISR_GetState
 263              		.section	.text.ADC_ISR_Disable,"ax",%progbits
 264              		.align	2
 265              		.global	ADC_ISR_Disable
 266              		.code	16
 267              		.thumb_func
 268              		.type	ADC_ISR_Disable, %function
 269              	ADC_ISR_Disable:
 270              	.LFB44:
 343:Generated_Source\PSoC4/ADC_ISR.c **** 
 344:Generated_Source\PSoC4/ADC_ISR.c **** 
 345:Generated_Source\PSoC4/ADC_ISR.c **** /*******************************************************************************
 346:Generated_Source\PSoC4/ADC_ISR.c **** * Function Name: ADC_ISR_Disable
 347:Generated_Source\PSoC4/ADC_ISR.c **** ********************************************************************************
 348:Generated_Source\PSoC4/ADC_ISR.c **** *
 349:Generated_Source\PSoC4/ADC_ISR.c **** * Summary:
 350:Generated_Source\PSoC4/ADC_ISR.c **** *   Disables the Interrupt in the interrupt controller.
 351:Generated_Source\PSoC4/ADC_ISR.c **** *
 352:Generated_Source\PSoC4/ADC_ISR.c **** * Parameters:
 353:Generated_Source\PSoC4/ADC_ISR.c **** *   None
 354:Generated_Source\PSoC4/ADC_ISR.c **** *
 355:Generated_Source\PSoC4/ADC_ISR.c **** * Return:
 356:Generated_Source\PSoC4/ADC_ISR.c **** *   None
ARM GAS  C:\Users\HELLOK~1\AppData\Local\Temp\ccs6ImRh.s 			page 12


 357:Generated_Source\PSoC4/ADC_ISR.c **** *
 358:Generated_Source\PSoC4/ADC_ISR.c **** *******************************************************************************/
 359:Generated_Source\PSoC4/ADC_ISR.c **** void ADC_ISR_Disable(void)
 360:Generated_Source\PSoC4/ADC_ISR.c **** {
 271              		.loc 1 360 0
 272              		.cfi_startproc
 273              		@ args = 0, pretend = 0, frame = 0
 274              		@ frame_needed = 0, uses_anonymous_args = 0
 275              		@ link register save eliminated.
 361:Generated_Source\PSoC4/ADC_ISR.c ****     /* Disable the general interrupt. */
 362:Generated_Source\PSoC4/ADC_ISR.c ****     *ADC_ISR_INTC_CLR_EN = ADC_ISR__INTC_MASK;
 276              		.loc 1 362 0
 277 0000 0222     		movs	r2, #2
 278 0002 014B     		ldr	r3, .L25
 279 0004 1A60     		str	r2, [r3]
 363:Generated_Source\PSoC4/ADC_ISR.c **** }
 280              		.loc 1 363 0
 281              		@ sp needed
 282 0006 7047     		bx	lr
 283              	.L26:
 284              		.align	2
 285              	.L25:
 286 0008 80E100E0 		.word	-536813184
 287              		.cfi_endproc
 288              	.LFE44:
 289              		.size	ADC_ISR_Disable, .-ADC_ISR_Disable
 290              		.section	.text.ADC_ISR_Start,"ax",%progbits
 291              		.align	2
 292              		.global	ADC_ISR_Start
 293              		.code	16
 294              		.thumb_func
 295              		.type	ADC_ISR_Start, %function
 296              	ADC_ISR_Start:
 297              	.LFB34:
  62:Generated_Source\PSoC4/ADC_ISR.c ****     /* For all we know the interrupt is active. */
 298              		.loc 1 62 0
 299              		.cfi_startproc
 300              		@ args = 0, pretend = 0, frame = 0
 301              		@ frame_needed = 0, uses_anonymous_args = 0
 302 0000 10B5     		push	{r4, lr}
 303              		.cfi_def_cfa_offset 8
 304              		.cfi_offset 4, -8
 305              		.cfi_offset 14, -4
  64:Generated_Source\PSoC4/ADC_ISR.c **** 
 306              		.loc 1 64 0
 307 0002 FFF7FEFF 		bl	ADC_ISR_Disable
 308              	.LVL11:
  67:Generated_Source\PSoC4/ADC_ISR.c **** 
 309              		.loc 1 67 0
 310 0006 0448     		ldr	r0, .L28
 311 0008 FFF7FEFF 		bl	ADC_ISR_SetVector
 312              	.LVL12:
  70:Generated_Source\PSoC4/ADC_ISR.c **** 
 313              		.loc 1 70 0
 314 000c 0320     		movs	r0, #3
 315 000e FFF7FEFF 		bl	ADC_ISR_SetPriority
 316              	.LVL13:
ARM GAS  C:\Users\HELLOK~1\AppData\Local\Temp\ccs6ImRh.s 			page 13


  73:Generated_Source\PSoC4/ADC_ISR.c **** }
 317              		.loc 1 73 0
 318 0012 FFF7FEFF 		bl	ADC_ISR_Enable
 319              	.LVL14:
  74:Generated_Source\PSoC4/ADC_ISR.c **** 
 320              		.loc 1 74 0
 321              		@ sp needed
 322 0016 10BD     		pop	{r4, pc}
 323              	.L29:
 324              		.align	2
 325              	.L28:
 326 0018 00000000 		.word	ADC_ISR_Interrupt
 327              		.cfi_endproc
 328              	.LFE34:
 329              		.size	ADC_ISR_Start, .-ADC_ISR_Start
 330              		.section	.text.ADC_ISR_StartEx,"ax",%progbits
 331              		.align	2
 332              		.global	ADC_ISR_StartEx
 333              		.code	16
 334              		.thumb_func
 335              		.type	ADC_ISR_StartEx, %function
 336              	ADC_ISR_StartEx:
 337              	.LFB35:
 105:Generated_Source\PSoC4/ADC_ISR.c ****     /* For all we know the interrupt is active. */
 338              		.loc 1 105 0
 339              		.cfi_startproc
 340              		@ args = 0, pretend = 0, frame = 0
 341              		@ frame_needed = 0, uses_anonymous_args = 0
 342              	.LVL15:
 343 0000 10B5     		push	{r4, lr}
 344              		.cfi_def_cfa_offset 8
 345              		.cfi_offset 4, -8
 346              		.cfi_offset 14, -4
 347 0002 0400     		movs	r4, r0
 107:Generated_Source\PSoC4/ADC_ISR.c **** 
 348              		.loc 1 107 0
 349 0004 FFF7FEFF 		bl	ADC_ISR_Disable
 350              	.LVL16:
 110:Generated_Source\PSoC4/ADC_ISR.c **** 
 351              		.loc 1 110 0
 352 0008 2000     		movs	r0, r4
 353 000a FFF7FEFF 		bl	ADC_ISR_SetVector
 354              	.LVL17:
 113:Generated_Source\PSoC4/ADC_ISR.c **** 
 355              		.loc 1 113 0
 356 000e 0320     		movs	r0, #3
 357 0010 FFF7FEFF 		bl	ADC_ISR_SetPriority
 358              	.LVL18:
 116:Generated_Source\PSoC4/ADC_ISR.c **** }
 359              		.loc 1 116 0
 360 0014 FFF7FEFF 		bl	ADC_ISR_Enable
 361              	.LVL19:
 117:Generated_Source\PSoC4/ADC_ISR.c **** 
 362              		.loc 1 117 0
 363              		@ sp needed
 364              	.LVL20:
 365 0018 10BD     		pop	{r4, pc}
ARM GAS  C:\Users\HELLOK~1\AppData\Local\Temp\ccs6ImRh.s 			page 14


 366              		.cfi_endproc
 367              	.LFE35:
 368              		.size	ADC_ISR_StartEx, .-ADC_ISR_StartEx
 369 001a C046     		.section	.text.ADC_ISR_Stop,"ax",%progbits
 370              		.align	2
 371              		.global	ADC_ISR_Stop
 372              		.code	16
 373              		.thumb_func
 374              		.type	ADC_ISR_Stop, %function
 375              	ADC_ISR_Stop:
 376              	.LFB36:
 135:Generated_Source\PSoC4/ADC_ISR.c ****     /* Disable this interrupt. */
 377              		.loc 1 135 0
 378              		.cfi_startproc
 379              		@ args = 0, pretend = 0, frame = 0
 380              		@ frame_needed = 0, uses_anonymous_args = 0
 381 0000 10B5     		push	{r4, lr}
 382              		.cfi_def_cfa_offset 8
 383              		.cfi_offset 4, -8
 384              		.cfi_offset 14, -4
 137:Generated_Source\PSoC4/ADC_ISR.c **** 
 385              		.loc 1 137 0
 386 0002 FFF7FEFF 		bl	ADC_ISR_Disable
 387              	.LVL21:
 140:Generated_Source\PSoC4/ADC_ISR.c **** }
 388              		.loc 1 140 0
 389 0006 0248     		ldr	r0, .L32
 390 0008 FFF7FEFF 		bl	ADC_ISR_SetVector
 391              	.LVL22:
 141:Generated_Source\PSoC4/ADC_ISR.c **** 
 392              		.loc 1 141 0
 393              		@ sp needed
 394 000c 10BD     		pop	{r4, pc}
 395              	.L33:
 396 000e C046     		.align	2
 397              	.L32:
 398 0010 00000000 		.word	IntDefaultHandler
 399              		.cfi_endproc
 400              	.LFE36:
 401              		.size	ADC_ISR_Stop, .-ADC_ISR_Stop
 402              		.section	.text.ADC_ISR_SetPending,"ax",%progbits
 403              		.align	2
 404              		.global	ADC_ISR_SetPending
 405              		.code	16
 406              		.thumb_func
 407              		.type	ADC_ISR_SetPending, %function
 408              	ADC_ISR_SetPending:
 409              	.LFB45:
 364:Generated_Source\PSoC4/ADC_ISR.c **** 
 365:Generated_Source\PSoC4/ADC_ISR.c **** 
 366:Generated_Source\PSoC4/ADC_ISR.c **** /*******************************************************************************
 367:Generated_Source\PSoC4/ADC_ISR.c **** * Function Name: ADC_ISR_SetPending
 368:Generated_Source\PSoC4/ADC_ISR.c **** ********************************************************************************
 369:Generated_Source\PSoC4/ADC_ISR.c **** *
 370:Generated_Source\PSoC4/ADC_ISR.c **** * Summary:
 371:Generated_Source\PSoC4/ADC_ISR.c **** *   Causes the Interrupt to enter the pending state, a software method of
 372:Generated_Source\PSoC4/ADC_ISR.c **** *   generating the interrupt.
ARM GAS  C:\Users\HELLOK~1\AppData\Local\Temp\ccs6ImRh.s 			page 15


 373:Generated_Source\PSoC4/ADC_ISR.c **** *
 374:Generated_Source\PSoC4/ADC_ISR.c **** * Parameters:
 375:Generated_Source\PSoC4/ADC_ISR.c **** *   None
 376:Generated_Source\PSoC4/ADC_ISR.c **** *
 377:Generated_Source\PSoC4/ADC_ISR.c **** * Return:
 378:Generated_Source\PSoC4/ADC_ISR.c **** *   None
 379:Generated_Source\PSoC4/ADC_ISR.c **** *
 380:Generated_Source\PSoC4/ADC_ISR.c **** * Side Effects:
 381:Generated_Source\PSoC4/ADC_ISR.c **** *   If interrupts are enabled and the interrupt is set up properly, the ISR is
 382:Generated_Source\PSoC4/ADC_ISR.c **** *   entered (depending on the priority of this interrupt and other pending 
 383:Generated_Source\PSoC4/ADC_ISR.c **** *   interrupts).
 384:Generated_Source\PSoC4/ADC_ISR.c **** *
 385:Generated_Source\PSoC4/ADC_ISR.c **** *******************************************************************************/
 386:Generated_Source\PSoC4/ADC_ISR.c **** void ADC_ISR_SetPending(void)
 387:Generated_Source\PSoC4/ADC_ISR.c **** {
 410              		.loc 1 387 0
 411              		.cfi_startproc
 412              		@ args = 0, pretend = 0, frame = 0
 413              		@ frame_needed = 0, uses_anonymous_args = 0
 414              		@ link register save eliminated.
 388:Generated_Source\PSoC4/ADC_ISR.c ****     *ADC_ISR_INTC_SET_PD = ADC_ISR__INTC_MASK;
 415              		.loc 1 388 0
 416 0000 0222     		movs	r2, #2
 417 0002 014B     		ldr	r3, .L35
 418 0004 1A60     		str	r2, [r3]
 389:Generated_Source\PSoC4/ADC_ISR.c **** }
 419              		.loc 1 389 0
 420              		@ sp needed
 421 0006 7047     		bx	lr
 422              	.L36:
 423              		.align	2
 424              	.L35:
 425 0008 00E200E0 		.word	-536813056
 426              		.cfi_endproc
 427              	.LFE45:
 428              		.size	ADC_ISR_SetPending, .-ADC_ISR_SetPending
 429              		.section	.text.ADC_ISR_ClearPending,"ax",%progbits
 430              		.align	2
 431              		.global	ADC_ISR_ClearPending
 432              		.code	16
 433              		.thumb_func
 434              		.type	ADC_ISR_ClearPending, %function
 435              	ADC_ISR_ClearPending:
 436              	.LFB46:
 390:Generated_Source\PSoC4/ADC_ISR.c **** 
 391:Generated_Source\PSoC4/ADC_ISR.c **** 
 392:Generated_Source\PSoC4/ADC_ISR.c **** /*******************************************************************************
 393:Generated_Source\PSoC4/ADC_ISR.c **** * Function Name: ADC_ISR_ClearPending
 394:Generated_Source\PSoC4/ADC_ISR.c **** ********************************************************************************
 395:Generated_Source\PSoC4/ADC_ISR.c **** *
 396:Generated_Source\PSoC4/ADC_ISR.c **** * Summary:
 397:Generated_Source\PSoC4/ADC_ISR.c **** *   Clears a pending interrupt in the interrupt controller.
 398:Generated_Source\PSoC4/ADC_ISR.c **** *
 399:Generated_Source\PSoC4/ADC_ISR.c **** *   Note Some interrupt sources are clear-on-read and require the block 
 400:Generated_Source\PSoC4/ADC_ISR.c **** *   interrupt/status register to be read/cleared with the appropriate block API 
 401:Generated_Source\PSoC4/ADC_ISR.c **** *   (GPIO, UART, and so on). Otherwise the ISR will continue to remain in 
 402:Generated_Source\PSoC4/ADC_ISR.c **** *   pending state even though the interrupt itself is cleared using this API.
ARM GAS  C:\Users\HELLOK~1\AppData\Local\Temp\ccs6ImRh.s 			page 16


 403:Generated_Source\PSoC4/ADC_ISR.c **** *
 404:Generated_Source\PSoC4/ADC_ISR.c **** * Parameters:
 405:Generated_Source\PSoC4/ADC_ISR.c **** *   None
 406:Generated_Source\PSoC4/ADC_ISR.c **** *
 407:Generated_Source\PSoC4/ADC_ISR.c **** * Return:
 408:Generated_Source\PSoC4/ADC_ISR.c **** *   None
 409:Generated_Source\PSoC4/ADC_ISR.c **** *
 410:Generated_Source\PSoC4/ADC_ISR.c **** *******************************************************************************/
 411:Generated_Source\PSoC4/ADC_ISR.c **** void ADC_ISR_ClearPending(void)
 412:Generated_Source\PSoC4/ADC_ISR.c **** {
 437              		.loc 1 412 0
 438              		.cfi_startproc
 439              		@ args = 0, pretend = 0, frame = 0
 440              		@ frame_needed = 0, uses_anonymous_args = 0
 441              		@ link register save eliminated.
 413:Generated_Source\PSoC4/ADC_ISR.c ****     *ADC_ISR_INTC_CLR_PD = ADC_ISR__INTC_MASK;
 442              		.loc 1 413 0
 443 0000 0222     		movs	r2, #2
 444 0002 014B     		ldr	r3, .L38
 445 0004 1A60     		str	r2, [r3]
 414:Generated_Source\PSoC4/ADC_ISR.c **** }
 446              		.loc 1 414 0
 447              		@ sp needed
 448 0006 7047     		bx	lr
 449              	.L39:
 450              		.align	2
 451              	.L38:
 452 0008 80E200E0 		.word	-536812928
 453              		.cfi_endproc
 454              	.LFE46:
 455              		.size	ADC_ISR_ClearPending, .-ADC_ISR_ClearPending
 456              		.text
 457              	.Letext0:
 458              		.file 2 "Generated_Source\\PSoC4/cytypes.h"
 459              		.file 3 ".\\FreeRTOS\\Include/portmacro.h"
 460              		.file 4 ".\\FreeRTOS\\Include/queue.h"
 461              		.file 5 ".\\FreeRTOS\\Include/semphr.h"
 462              		.file 6 "Generated_Source\\PSoC4\\ADC.h"
 463              		.file 7 "Generated_Source\\PSoC4/CyLib.h"