ARM GAS  C:\Users\HELLOK~1\AppData\Local\Temp\cc75mFaz.s 			page 1


   1              		.syntax unified
   2              		.cpu cortex-m0
   3              		.fpu softvfp
   4              		.eabi_attribute 20, 1
   5              		.eabi_attribute 21, 1
   6              		.eabi_attribute 23, 3
   7              		.eabi_attribute 24, 1
   8              		.eabi_attribute 25, 1
   9              		.eabi_attribute 26, 1
  10              		.eabi_attribute 30, 1
  11              		.eabi_attribute 34, 0
  12              		.eabi_attribute 18, 4
  13              		.thumb
  14              		.syntax unified
  15              		.file	"heap_1.c"
  16              		.text
  17              	.Ltext0:
  18              		.cfi_sections	.debug_frame
  19              		.section	.text.pvPortMalloc,"ax",%progbits
  20              		.align	2
  21              		.global	pvPortMalloc
  22              		.code	16
  23              		.thumb_func
  24              		.type	pvPortMalloc, %function
  25              	pvPortMalloc:
  26              	.LFB34:
  27              		.file 1 "FreeRTOS\\Source\\heap_1.c"
   1:FreeRTOS\Source/heap_1.c **** /*
   2:FreeRTOS\Source/heap_1.c ****  * FreeRTOS Kernel V10.5.1
   3:FreeRTOS\Source/heap_1.c ****  * Copyright (C) 2021 Amazon.com, Inc. or its affiliates.  All Rights Reserved.
   4:FreeRTOS\Source/heap_1.c ****  *
   5:FreeRTOS\Source/heap_1.c ****  * SPDX-License-Identifier: MIT
   6:FreeRTOS\Source/heap_1.c ****  *
   7:FreeRTOS\Source/heap_1.c ****  * Permission is hereby granted, free of charge, to any person obtaining a copy of
   8:FreeRTOS\Source/heap_1.c ****  * this software and associated documentation files (the "Software"), to deal in
   9:FreeRTOS\Source/heap_1.c ****  * the Software without restriction, including without limitation the rights to
  10:FreeRTOS\Source/heap_1.c ****  * use, copy, modify, merge, publish, distribute, sublicense, and/or sell copies of
  11:FreeRTOS\Source/heap_1.c ****  * the Software, and to permit persons to whom the Software is furnished to do so,
  12:FreeRTOS\Source/heap_1.c ****  * subject to the following conditions:
  13:FreeRTOS\Source/heap_1.c ****  *
  14:FreeRTOS\Source/heap_1.c ****  * The above copyright notice and this permission notice shall be included in all
  15:FreeRTOS\Source/heap_1.c ****  * copies or substantial portions of the Software.
  16:FreeRTOS\Source/heap_1.c ****  *
  17:FreeRTOS\Source/heap_1.c ****  * THE SOFTWARE IS PROVIDED "AS IS", WITHOUT WARRANTY OF ANY KIND, EXPRESS OR
  18:FreeRTOS\Source/heap_1.c ****  * IMPLIED, INCLUDING BUT NOT LIMITED TO THE WARRANTIES OF MERCHANTABILITY, FITNESS
  19:FreeRTOS\Source/heap_1.c ****  * FOR A PARTICULAR PURPOSE AND NONINFRINGEMENT. IN NO EVENT SHALL THE AUTHORS OR
  20:FreeRTOS\Source/heap_1.c ****  * COPYRIGHT HOLDERS BE LIABLE FOR ANY CLAIM, DAMAGES OR OTHER LIABILITY, WHETHER
  21:FreeRTOS\Source/heap_1.c ****  * IN AN ACTION OF CONTRACT, TORT OR OTHERWISE, ARISING FROM, OUT OF OR IN
  22:FreeRTOS\Source/heap_1.c ****  * CONNECTION WITH THE SOFTWARE OR THE USE OR OTHER DEALINGS IN THE SOFTWARE.
  23:FreeRTOS\Source/heap_1.c ****  *
  24:FreeRTOS\Source/heap_1.c ****  * https://www.FreeRTOS.org
  25:FreeRTOS\Source/heap_1.c ****  * https://github.com/FreeRTOS
  26:FreeRTOS\Source/heap_1.c ****  *
  27:FreeRTOS\Source/heap_1.c ****  */
  28:FreeRTOS\Source/heap_1.c **** 
  29:FreeRTOS\Source/heap_1.c **** 
  30:FreeRTOS\Source/heap_1.c **** /*
ARM GAS  C:\Users\HELLOK~1\AppData\Local\Temp\cc75mFaz.s 			page 2


  31:FreeRTOS\Source/heap_1.c ****  * The simplest possible implementation of pvPortMalloc().  Note that this
  32:FreeRTOS\Source/heap_1.c ****  * implementation does NOT allow allocated memory to be freed again.
  33:FreeRTOS\Source/heap_1.c ****  *
  34:FreeRTOS\Source/heap_1.c ****  * See heap_2.c, heap_3.c and heap_4.c for alternative implementations, and the
  35:FreeRTOS\Source/heap_1.c ****  * memory management pages of https://www.FreeRTOS.org for more information.
  36:FreeRTOS\Source/heap_1.c ****  */
  37:FreeRTOS\Source/heap_1.c **** #include <stdlib.h>
  38:FreeRTOS\Source/heap_1.c **** 
  39:FreeRTOS\Source/heap_1.c **** /* Defining MPU_WRAPPERS_INCLUDED_FROM_API_FILE prevents task.h from redefining
  40:FreeRTOS\Source/heap_1.c ****  * all the API functions to use the MPU wrappers.  That should only be done when
  41:FreeRTOS\Source/heap_1.c ****  * task.h is included from an application file. */
  42:FreeRTOS\Source/heap_1.c **** #define MPU_WRAPPERS_INCLUDED_FROM_API_FILE
  43:FreeRTOS\Source/heap_1.c **** 
  44:FreeRTOS\Source/heap_1.c **** #include "FreeRTOS.h"
  45:FreeRTOS\Source/heap_1.c **** #include "task.h"
  46:FreeRTOS\Source/heap_1.c **** 
  47:FreeRTOS\Source/heap_1.c **** #undef MPU_WRAPPERS_INCLUDED_FROM_API_FILE
  48:FreeRTOS\Source/heap_1.c **** 
  49:FreeRTOS\Source/heap_1.c **** #if ( configSUPPORT_DYNAMIC_ALLOCATION == 0 )
  50:FreeRTOS\Source/heap_1.c ****     #error This file must not be used if configSUPPORT_DYNAMIC_ALLOCATION is 0
  51:FreeRTOS\Source/heap_1.c **** #endif
  52:FreeRTOS\Source/heap_1.c **** 
  53:FreeRTOS\Source/heap_1.c **** /* A few bytes might be lost to byte aligning the heap start address. */
  54:FreeRTOS\Source/heap_1.c **** #define configADJUSTED_HEAP_SIZE    ( configTOTAL_HEAP_SIZE - portBYTE_ALIGNMENT )
  55:FreeRTOS\Source/heap_1.c **** 
  56:FreeRTOS\Source/heap_1.c **** /* Allocate the memory for the heap. */
  57:FreeRTOS\Source/heap_1.c **** #if ( configAPPLICATION_ALLOCATED_HEAP == 1 )
  58:FreeRTOS\Source/heap_1.c **** 
  59:FreeRTOS\Source/heap_1.c **** /* The application writer has already defined the array used for the RTOS
  60:FreeRTOS\Source/heap_1.c **** * heap - probably so it can be placed in a special segment or address. */
  61:FreeRTOS\Source/heap_1.c ****     extern uint8_t ucHeap[ configTOTAL_HEAP_SIZE ];
  62:FreeRTOS\Source/heap_1.c **** #else
  63:FreeRTOS\Source/heap_1.c ****     static uint8_t ucHeap[ configTOTAL_HEAP_SIZE ];
  64:FreeRTOS\Source/heap_1.c **** #endif /* configAPPLICATION_ALLOCATED_HEAP */
  65:FreeRTOS\Source/heap_1.c **** 
  66:FreeRTOS\Source/heap_1.c **** /* Index into the ucHeap array. */
  67:FreeRTOS\Source/heap_1.c **** static size_t xNextFreeByte = ( size_t ) 0;
  68:FreeRTOS\Source/heap_1.c **** 
  69:FreeRTOS\Source/heap_1.c **** /*-----------------------------------------------------------*/
  70:FreeRTOS\Source/heap_1.c **** 
  71:FreeRTOS\Source/heap_1.c **** void * pvPortMalloc( size_t xWantedSize )
  72:FreeRTOS\Source/heap_1.c **** {
  28              		.loc 1 72 0
  29              		.cfi_startproc
  30              		@ args = 0, pretend = 0, frame = 0
  31              		@ frame_needed = 0, uses_anonymous_args = 0
  32              	.LVL0:
  33 0000 70B5     		push	{r4, r5, r6, lr}
  34              		.cfi_def_cfa_offset 16
  35              		.cfi_offset 4, -16
  36              		.cfi_offset 5, -12
  37              		.cfi_offset 6, -8
  38              		.cfi_offset 14, -4
  39 0002 0400     		movs	r4, r0
  40              	.LVL1:
  73:FreeRTOS\Source/heap_1.c ****     void * pvReturn = NULL;
  74:FreeRTOS\Source/heap_1.c ****     static uint8_t * pucAlignedHeap = NULL;
ARM GAS  C:\Users\HELLOK~1\AppData\Local\Temp\cc75mFaz.s 			page 3


  75:FreeRTOS\Source/heap_1.c **** 
  76:FreeRTOS\Source/heap_1.c ****     /* Ensure that blocks are always aligned. */
  77:FreeRTOS\Source/heap_1.c ****     #if ( portBYTE_ALIGNMENT != 1 )
  78:FreeRTOS\Source/heap_1.c ****     {
  79:FreeRTOS\Source/heap_1.c ****         if( xWantedSize & portBYTE_ALIGNMENT_MASK )
  41              		.loc 1 79 0
  42 0004 4307     		lsls	r3, r0, #29
  43 0006 09D0     		beq	.L2
  80:FreeRTOS\Source/heap_1.c ****         {
  81:FreeRTOS\Source/heap_1.c ****             /* Byte alignment required. Check for overflow. */
  82:FreeRTOS\Source/heap_1.c ****             if( ( xWantedSize + ( portBYTE_ALIGNMENT - ( xWantedSize & portBYTE_ALIGNMENT_MASK ) ) 
  44              		.loc 1 82 0
  45 0008 0723     		movs	r3, #7
  46 000a 0200     		movs	r2, r0
  47 000c 9A43     		bics	r2, r3
  48 000e 1300     		movs	r3, r2
  49 0010 0833     		adds	r3, r3, #8
  50 0012 9842     		cmp	r0, r3
  51 0014 01D3     		bcc	.L6
  83:FreeRTOS\Source/heap_1.c ****             {
  84:FreeRTOS\Source/heap_1.c ****                 xWantedSize += ( portBYTE_ALIGNMENT - ( xWantedSize & portBYTE_ALIGNMENT_MASK ) );
  85:FreeRTOS\Source/heap_1.c ****             }
  86:FreeRTOS\Source/heap_1.c ****             else
  87:FreeRTOS\Source/heap_1.c ****             {
  88:FreeRTOS\Source/heap_1.c ****                 xWantedSize = 0;
  52              		.loc 1 88 0
  53 0016 0024     		movs	r4, #0
  54 0018 00E0     		b	.L2
  55              	.L6:
  84:FreeRTOS\Source/heap_1.c ****             }
  56              		.loc 1 84 0
  57 001a 1C00     		movs	r4, r3
  58              	.L2:
  59              	.LVL2:
  89:FreeRTOS\Source/heap_1.c ****             }
  90:FreeRTOS\Source/heap_1.c ****         }
  91:FreeRTOS\Source/heap_1.c ****     }
  92:FreeRTOS\Source/heap_1.c ****     #endif /* if ( portBYTE_ALIGNMENT != 1 ) */
  93:FreeRTOS\Source/heap_1.c **** 
  94:FreeRTOS\Source/heap_1.c ****     vTaskSuspendAll();
  60              		.loc 1 94 0
  61 001c FFF7FEFF 		bl	vTaskSuspendAll
  62              	.LVL3:
  95:FreeRTOS\Source/heap_1.c ****     {
  96:FreeRTOS\Source/heap_1.c ****         if( pucAlignedHeap == NULL )
  63              		.loc 1 96 0
  64 0020 134B     		ldr	r3, .L10
  65 0022 1B68     		ldr	r3, [r3]
  66 0024 002B     		cmp	r3, #0
  67 0026 05D1     		bne	.L3
  97:FreeRTOS\Source/heap_1.c ****         {
  98:FreeRTOS\Source/heap_1.c ****             /* Ensure the heap starts on a correctly aligned boundary. */
  99:FreeRTOS\Source/heap_1.c ****             pucAlignedHeap = ( uint8_t * ) ( ( ( portPOINTER_SIZE_TYPE ) & ucHeap[ portBYTE_ALIGNME
  68              		.loc 1 99 0
  69 0028 114A     		ldr	r2, .L10
  70 002a 1300     		movs	r3, r2
  71 002c 0B33     		adds	r3, r3, #11
ARM GAS  C:\Users\HELLOK~1\AppData\Local\Temp\cc75mFaz.s 			page 4


  72 002e 0721     		movs	r1, #7
  73 0030 8B43     		bics	r3, r1
  74 0032 1360     		str	r3, [r2]
  75              	.L3:
 100:FreeRTOS\Source/heap_1.c ****         }
 101:FreeRTOS\Source/heap_1.c **** 
 102:FreeRTOS\Source/heap_1.c ****         /* Check there is enough room left for the allocation and. */
 103:FreeRTOS\Source/heap_1.c ****         if( ( xWantedSize > 0 ) &&                                /* valid size */
  76              		.loc 1 103 0
  77 0034 002C     		cmp	r4, #0
  78 0036 0DD0     		beq	.L7
 104:FreeRTOS\Source/heap_1.c ****             ( ( xNextFreeByte + xWantedSize ) < configADJUSTED_HEAP_SIZE ) &&
  79              		.loc 1 104 0 discriminator 1
  80 0038 0E4B     		ldr	r3, .L10+4
  81 003a 5B68     		ldr	r3, [r3, #4]
  82 003c E418     		adds	r4, r4, r3
  83              	.LVL4:
 103:FreeRTOS\Source/heap_1.c ****             ( ( xNextFreeByte + xWantedSize ) < configADJUSTED_HEAP_SIZE ) &&
  84              		.loc 1 103 0 discriminator 1
  85 003e 0E4A     		ldr	r2, .L10+8
  86 0040 9442     		cmp	r4, r2
  87 0042 09D8     		bhi	.L8
  88              		.loc 1 104 0
  89 0044 A342     		cmp	r3, r4
  90 0046 09D2     		bcs	.L9
 105:FreeRTOS\Source/heap_1.c ****             ( ( xNextFreeByte + xWantedSize ) > xNextFreeByte ) ) /* Check for overflow. */
 106:FreeRTOS\Source/heap_1.c ****         {
 107:FreeRTOS\Source/heap_1.c ****             /* Return the next free byte then increment the index past this
 108:FreeRTOS\Source/heap_1.c ****              * block. */
 109:FreeRTOS\Source/heap_1.c ****             pvReturn = pucAlignedHeap + xNextFreeByte;
  91              		.loc 1 109 0
  92 0048 094A     		ldr	r2, .L10
  93 004a 1568     		ldr	r5, [r2]
  94 004c ED18     		adds	r5, r5, r3
  95              	.LVL5:
 110:FreeRTOS\Source/heap_1.c ****             xNextFreeByte += xWantedSize;
  96              		.loc 1 110 0
  97 004e 094B     		ldr	r3, .L10+4
  98 0050 5C60     		str	r4, [r3, #4]
  99 0052 04E0     		b	.L4
 100              	.LVL6:
 101              	.L7:
  73:FreeRTOS\Source/heap_1.c ****     static uint8_t * pucAlignedHeap = NULL;
 102              		.loc 1 73 0
 103 0054 0025     		movs	r5, #0
 104 0056 02E0     		b	.L4
 105              	.LVL7:
 106              	.L8:
 107 0058 0025     		movs	r5, #0
 108 005a 00E0     		b	.L4
 109              	.L9:
 110 005c 0025     		movs	r5, #0
 111              	.LVL8:
 112              	.L4:
 111:FreeRTOS\Source/heap_1.c ****         }
 112:FreeRTOS\Source/heap_1.c **** 
 113:FreeRTOS\Source/heap_1.c ****         traceMALLOC( pvReturn, xWantedSize );
ARM GAS  C:\Users\HELLOK~1\AppData\Local\Temp\cc75mFaz.s 			page 5


 114:FreeRTOS\Source/heap_1.c ****     }
 115:FreeRTOS\Source/heap_1.c ****     ( void ) xTaskResumeAll();
 113              		.loc 1 115 0
 114 005e FFF7FEFF 		bl	xTaskResumeAll
 115              	.LVL9:
 116:FreeRTOS\Source/heap_1.c **** 
 117:FreeRTOS\Source/heap_1.c ****     #if ( configUSE_MALLOC_FAILED_HOOK == 1 )
 118:FreeRTOS\Source/heap_1.c ****     {
 119:FreeRTOS\Source/heap_1.c ****         if( pvReturn == NULL )
 116              		.loc 1 119 0
 117 0062 002D     		cmp	r5, #0
 118 0064 01D1     		bne	.L5
 120:FreeRTOS\Source/heap_1.c ****         {
 121:FreeRTOS\Source/heap_1.c ****             vApplicationMallocFailedHook();
 119              		.loc 1 121 0
 120 0066 FFF7FEFF 		bl	vApplicationMallocFailedHook
 121              	.LVL10:
 122              	.L5:
 122:FreeRTOS\Source/heap_1.c ****         }
 123:FreeRTOS\Source/heap_1.c ****     }
 124:FreeRTOS\Source/heap_1.c ****     #endif
 125:FreeRTOS\Source/heap_1.c **** 
 126:FreeRTOS\Source/heap_1.c ****     return pvReturn;
 127:FreeRTOS\Source/heap_1.c **** }
 123              		.loc 1 127 0
 124 006a 2800     		movs	r0, r5
 125              		@ sp needed
 126              	.LVL11:
 127 006c 70BD     		pop	{r4, r5, r6, pc}
 128              	.L11:
 129 006e C046     		.align	2
 130              	.L10:
 131 0070 00000000 		.word	.LANCHOR0
 132 0074 00080000 		.word	.LANCHOR1
 133 0078 F7070000 		.word	2039
 134              		.cfi_endproc
 135              	.LFE34:
 136              		.size	pvPortMalloc, .-pvPortMalloc
 137              		.section	.text.vPortFree,"ax",%progbits
 138              		.align	2
 139              		.global	vPortFree
 140              		.code	16
 141              		.thumb_func
 142              		.type	vPortFree, %function
 143              	vPortFree:
 144              	.LFB35:
 128:FreeRTOS\Source/heap_1.c **** /*-----------------------------------------------------------*/
 129:FreeRTOS\Source/heap_1.c **** 
 130:FreeRTOS\Source/heap_1.c **** void vPortFree( void * pv )
 131:FreeRTOS\Source/heap_1.c **** {
 145              		.loc 1 131 0
 146              		.cfi_startproc
 147              		@ args = 0, pretend = 0, frame = 0
 148              		@ frame_needed = 0, uses_anonymous_args = 0
 149              		@ link register save eliminated.
 150              	.LVL12:
 132:FreeRTOS\Source/heap_1.c ****     /* Memory cannot be freed using this scheme.  See heap_2.c, heap_3.c and
ARM GAS  C:\Users\HELLOK~1\AppData\Local\Temp\cc75mFaz.s 			page 6


 133:FreeRTOS\Source/heap_1.c ****      * heap_4.c for alternative implementations, and the memory management pages of
 134:FreeRTOS\Source/heap_1.c ****      * https://www.FreeRTOS.org for more information. */
 135:FreeRTOS\Source/heap_1.c ****     ( void ) pv;
 136:FreeRTOS\Source/heap_1.c **** 
 137:FreeRTOS\Source/heap_1.c ****     /* Force an assert as it is invalid to call this function. */
 138:FreeRTOS\Source/heap_1.c ****     configASSERT( pv == NULL );
 139:FreeRTOS\Source/heap_1.c **** }
 151              		.loc 1 139 0
 152              		@ sp needed
 153 0000 7047     		bx	lr
 154              		.cfi_endproc
 155              	.LFE35:
 156              		.size	vPortFree, .-vPortFree
 157 0002 C046     		.section	.text.vPortInitialiseBlocks,"ax",%progbits
 158              		.align	2
 159              		.global	vPortInitialiseBlocks
 160              		.code	16
 161              		.thumb_func
 162              		.type	vPortInitialiseBlocks, %function
 163              	vPortInitialiseBlocks:
 164              	.LFB36:
 140:FreeRTOS\Source/heap_1.c **** /*-----------------------------------------------------------*/
 141:FreeRTOS\Source/heap_1.c **** 
 142:FreeRTOS\Source/heap_1.c **** void vPortInitialiseBlocks( void )
 143:FreeRTOS\Source/heap_1.c **** {
 165              		.loc 1 143 0
 166              		.cfi_startproc
 167              		@ args = 0, pretend = 0, frame = 0
 168              		@ frame_needed = 0, uses_anonymous_args = 0
 169              		@ link register save eliminated.
 144:FreeRTOS\Source/heap_1.c ****     /* Only required when static memory is not cleared. */
 145:FreeRTOS\Source/heap_1.c ****     xNextFreeByte = ( size_t ) 0;
 170              		.loc 1 145 0
 171 0000 0022     		movs	r2, #0
 172 0002 014B     		ldr	r3, .L14
 173 0004 5A60     		str	r2, [r3, #4]
 146:FreeRTOS\Source/heap_1.c **** }
 174              		.loc 1 146 0
 175              		@ sp needed
 176 0006 7047     		bx	lr
 177              	.L15:
 178              		.align	2
 179              	.L14:
 180 0008 00080000 		.word	.LANCHOR1
 181              		.cfi_endproc
 182              	.LFE36:
 183              		.size	vPortInitialiseBlocks, .-vPortInitialiseBlocks
 184              		.section	.text.xPortGetFreeHeapSize,"ax",%progbits
 185              		.align	2
 186              		.global	xPortGetFreeHeapSize
 187              		.code	16
 188              		.thumb_func
 189              		.type	xPortGetFreeHeapSize, %function
 190              	xPortGetFreeHeapSize:
 191              	.LFB37:
 147:FreeRTOS\Source/heap_1.c **** /*-----------------------------------------------------------*/
 148:FreeRTOS\Source/heap_1.c **** 
ARM GAS  C:\Users\HELLOK~1\AppData\Local\Temp\cc75mFaz.s 			page 7


 149:FreeRTOS\Source/heap_1.c **** size_t xPortGetFreeHeapSize( void )
 150:FreeRTOS\Source/heap_1.c **** {
 192              		.loc 1 150 0
 193              		.cfi_startproc
 194              		@ args = 0, pretend = 0, frame = 0
 195              		@ frame_needed = 0, uses_anonymous_args = 0
 196              		@ link register save eliminated.
 151:FreeRTOS\Source/heap_1.c ****     return( configADJUSTED_HEAP_SIZE - xNextFreeByte );
 197              		.loc 1 151 0
 198 0000 024B     		ldr	r3, .L17
 199 0002 5868     		ldr	r0, [r3, #4]
 200 0004 FF23     		movs	r3, #255
 201 0006 DB00     		lsls	r3, r3, #3
 202 0008 181A     		subs	r0, r3, r0
 152:FreeRTOS\Source/heap_1.c **** }
 203              		.loc 1 152 0
 204              		@ sp needed
 205 000a 7047     		bx	lr
 206              	.L18:
 207              		.align	2
 208              	.L17:
 209 000c 00080000 		.word	.LANCHOR1
 210              		.cfi_endproc
 211              	.LFE37:
 212              		.size	xPortGetFreeHeapSize, .-xPortGetFreeHeapSize
 213              		.bss
 214              		.align	2
 215              		.set	.LANCHOR0,. + 0
 216              		.set	.LANCHOR1,. + 2048
 217              		.type	pucAlignedHeap.6346, %object
 218              		.size	pucAlignedHeap.6346, 4
 219              	pucAlignedHeap.6346:
 220 0000 00000000 		.space	4
 221              		.type	ucHeap, %object
 222              		.size	ucHeap, 2048
 223              	ucHeap:
 224 0004 00000000 		.space	2048
 224      00000000 
 224      00000000 
 224      00000000 
 224      00000000 
 225              		.type	xNextFreeByte, %object
 226              		.size	xNextFreeByte, 4
 227              	xNextFreeByte:
 228 0804 00000000 		.space	4
 229              		.text
 230              	.Letext0:
 231              		.file 2 "c:\\program files (x86)\\cypress\\psoc creator\\4.2\\psoc creator\\import\\gnu\\arm\\5.4.
 232              		.file 3 "c:\\program files (x86)\\cypress\\psoc creator\\4.2\\psoc creator\\import\\gnu\\arm\\5.4.
 233              		.file 4 "c:\\program files (x86)\\cypress\\psoc creator\\4.2\\psoc creator\\import\\gnu\\arm\\5.4.
 234              		.file 5 ".\\FreeRTOS\\Include/task.h"
 235              		.file 6 ".\\FreeRTOS\\Include/portable.h"