ARM GAS  C:\Users\tyork\AppData\Local\Temp\cc48hS3M.s 			page 1


   1              		.syntax unified
   2              		.cpu cortex-m0
   3              		.fpu softvfp
   4              		.eabi_attribute 20, 1
   5              		.eabi_attribute 21, 1
   6              		.eabi_attribute 23, 3
   7              		.eabi_attribute 24, 1
   8              		.eabi_attribute 25, 1
   9              		.eabi_attribute 26, 1
  10              		.eabi_attribute 30, 1
  11              		.eabi_attribute 34, 0
  12              		.eabi_attribute 18, 4
  13              		.thumb
  14              		.syntax unified
  15              		.file	"list.c"
  16              		.text
  17              	.Ltext0:
  18              		.cfi_sections	.debug_frame
  19              		.section	.text.vListInitialise,"ax",%progbits
  20              		.align	2
  21              		.global	vListInitialise
  22              		.code	16
  23              		.thumb_func
  24              		.type	vListInitialise, %function
  25              	vListInitialise:
  26              	.LFB34:
  27              		.file 1 "FreeRTOS\\Source\\list.c"
   1:FreeRTOS\Source/list.c **** /*
   2:FreeRTOS\Source/list.c ****  * FreeRTOS Kernel V10.5.1
   3:FreeRTOS\Source/list.c ****  * Copyright (C) 2021 Amazon.com, Inc. or its affiliates.  All Rights Reserved.
   4:FreeRTOS\Source/list.c ****  *
   5:FreeRTOS\Source/list.c ****  * SPDX-License-Identifier: MIT
   6:FreeRTOS\Source/list.c ****  *
   7:FreeRTOS\Source/list.c ****  * Permission is hereby granted, free of charge, to any person obtaining a copy of
   8:FreeRTOS\Source/list.c ****  * this software and associated documentation files (the "Software"), to deal in
   9:FreeRTOS\Source/list.c ****  * the Software without restriction, including without limitation the rights to
  10:FreeRTOS\Source/list.c ****  * use, copy, modify, merge, publish, distribute, sublicense, and/or sell copies of
  11:FreeRTOS\Source/list.c ****  * the Software, and to permit persons to whom the Software is furnished to do so,
  12:FreeRTOS\Source/list.c ****  * subject to the following conditions:
  13:FreeRTOS\Source/list.c ****  *
  14:FreeRTOS\Source/list.c ****  * The above copyright notice and this permission notice shall be included in all
  15:FreeRTOS\Source/list.c ****  * copies or substantial portions of the Software.
  16:FreeRTOS\Source/list.c ****  *
  17:FreeRTOS\Source/list.c ****  * THE SOFTWARE IS PROVIDED "AS IS", WITHOUT WARRANTY OF ANY KIND, EXPRESS OR
  18:FreeRTOS\Source/list.c ****  * IMPLIED, INCLUDING BUT NOT LIMITED TO THE WARRANTIES OF MERCHANTABILITY, FITNESS
  19:FreeRTOS\Source/list.c ****  * FOR A PARTICULAR PURPOSE AND NONINFRINGEMENT. IN NO EVENT SHALL THE AUTHORS OR
  20:FreeRTOS\Source/list.c ****  * COPYRIGHT HOLDERS BE LIABLE FOR ANY CLAIM, DAMAGES OR OTHER LIABILITY, WHETHER
  21:FreeRTOS\Source/list.c ****  * IN AN ACTION OF CONTRACT, TORT OR OTHERWISE, ARISING FROM, OUT OF OR IN
  22:FreeRTOS\Source/list.c ****  * CONNECTION WITH THE SOFTWARE OR THE USE OR OTHER DEALINGS IN THE SOFTWARE.
  23:FreeRTOS\Source/list.c ****  *
  24:FreeRTOS\Source/list.c ****  * https://www.FreeRTOS.org
  25:FreeRTOS\Source/list.c ****  * https://github.com/FreeRTOS
  26:FreeRTOS\Source/list.c ****  *
  27:FreeRTOS\Source/list.c ****  */
  28:FreeRTOS\Source/list.c **** 
  29:FreeRTOS\Source/list.c **** 
  30:FreeRTOS\Source/list.c **** #include <stdlib.h>
ARM GAS  C:\Users\tyork\AppData\Local\Temp\cc48hS3M.s 			page 2


  31:FreeRTOS\Source/list.c **** 
  32:FreeRTOS\Source/list.c **** /* Defining MPU_WRAPPERS_INCLUDED_FROM_API_FILE prevents task.h from redefining
  33:FreeRTOS\Source/list.c ****  * all the API functions to use the MPU wrappers.  That should only be done when
  34:FreeRTOS\Source/list.c ****  * task.h is included from an application file. */
  35:FreeRTOS\Source/list.c **** #define MPU_WRAPPERS_INCLUDED_FROM_API_FILE
  36:FreeRTOS\Source/list.c **** 
  37:FreeRTOS\Source/list.c **** #include "FreeRTOS.h"
  38:FreeRTOS\Source/list.c **** #include "list.h"
  39:FreeRTOS\Source/list.c **** 
  40:FreeRTOS\Source/list.c **** /* Lint e9021, e961 and e750 are suppressed as a MISRA exception justified
  41:FreeRTOS\Source/list.c ****  * because the MPU ports require MPU_WRAPPERS_INCLUDED_FROM_API_FILE to be
  42:FreeRTOS\Source/list.c ****  * defined for the header files above, but not in this file, in order to
  43:FreeRTOS\Source/list.c ****  * generate the correct privileged Vs unprivileged linkage and placement. */
  44:FreeRTOS\Source/list.c **** #undef MPU_WRAPPERS_INCLUDED_FROM_API_FILE /*lint !e961 !e750 !e9021. */
  45:FreeRTOS\Source/list.c **** 
  46:FreeRTOS\Source/list.c **** /*-----------------------------------------------------------
  47:FreeRTOS\Source/list.c **** * PUBLIC LIST API documented in list.h
  48:FreeRTOS\Source/list.c **** *----------------------------------------------------------*/
  49:FreeRTOS\Source/list.c **** 
  50:FreeRTOS\Source/list.c **** void vListInitialise( List_t * const pxList )
  51:FreeRTOS\Source/list.c **** {
  28              		.loc 1 51 0
  29              		.cfi_startproc
  30              		@ args = 0, pretend = 0, frame = 0
  31              		@ frame_needed = 0, uses_anonymous_args = 0
  32              		@ link register save eliminated.
  33              	.LVL0:
  52:FreeRTOS\Source/list.c ****     /* The list structure contains a list item which is used to mark the
  53:FreeRTOS\Source/list.c ****      * end of the list.  To initialise the list the list end is inserted
  54:FreeRTOS\Source/list.c ****      * as the only list entry. */
  55:FreeRTOS\Source/list.c ****     pxList->pxIndex = ( ListItem_t * ) &( pxList->xListEnd ); /*lint !e826 !e740 !e9087 The mini li
  34              		.loc 1 55 0
  35 0000 0300     		movs	r3, r0
  36 0002 0833     		adds	r3, r3, #8
  37 0004 4360     		str	r3, [r0, #4]
  56:FreeRTOS\Source/list.c **** 
  57:FreeRTOS\Source/list.c ****     listSET_FIRST_LIST_ITEM_INTEGRITY_CHECK_VALUE( &( pxList->xListEnd ) );
  58:FreeRTOS\Source/list.c **** 
  59:FreeRTOS\Source/list.c ****     /* The list end value is the highest possible value in the list to
  60:FreeRTOS\Source/list.c ****      * ensure it remains at the end of the list. */
  61:FreeRTOS\Source/list.c ****     pxList->xListEnd.xItemValue = portMAX_DELAY;
  38              		.loc 1 61 0
  39 0006 0122     		movs	r2, #1
  40 0008 5242     		rsbs	r2, r2, #0
  41 000a 8260     		str	r2, [r0, #8]
  62:FreeRTOS\Source/list.c **** 
  63:FreeRTOS\Source/list.c ****     /* The list end next and previous pointers point to itself so we know
  64:FreeRTOS\Source/list.c ****      * when the list is empty. */
  65:FreeRTOS\Source/list.c ****     pxList->xListEnd.pxNext = ( ListItem_t * ) &( pxList->xListEnd );     /*lint !e826 !e740 !e9087
  42              		.loc 1 65 0
  43 000c C360     		str	r3, [r0, #12]
  66:FreeRTOS\Source/list.c ****     pxList->xListEnd.pxPrevious = ( ListItem_t * ) &( pxList->xListEnd ); /*lint !e826 !e740 !e9087
  44              		.loc 1 66 0
  45 000e 0361     		str	r3, [r0, #16]
  67:FreeRTOS\Source/list.c **** 
  68:FreeRTOS\Source/list.c ****     /* Initialize the remaining fields of xListEnd when it is a proper ListItem_t */
  69:FreeRTOS\Source/list.c ****     #if ( configUSE_MINI_LIST_ITEM == 0 )
ARM GAS  C:\Users\tyork\AppData\Local\Temp\cc48hS3M.s 			page 3


  70:FreeRTOS\Source/list.c ****     {
  71:FreeRTOS\Source/list.c ****         pxList->xListEnd.pvOwner = NULL;
  72:FreeRTOS\Source/list.c ****         pxList->xListEnd.pxContainer = NULL;
  73:FreeRTOS\Source/list.c ****         listSET_SECOND_LIST_ITEM_INTEGRITY_CHECK_VALUE( &( pxList->xListEnd ) );
  74:FreeRTOS\Source/list.c ****     }
  75:FreeRTOS\Source/list.c ****     #endif
  76:FreeRTOS\Source/list.c **** 
  77:FreeRTOS\Source/list.c ****     pxList->uxNumberOfItems = ( UBaseType_t ) 0U;
  46              		.loc 1 77 0
  47 0010 0023     		movs	r3, #0
  48 0012 0360     		str	r3, [r0]
  78:FreeRTOS\Source/list.c **** 
  79:FreeRTOS\Source/list.c ****     /* Write known values into the list if
  80:FreeRTOS\Source/list.c ****      * configUSE_LIST_DATA_INTEGRITY_CHECK_BYTES is set to 1. */
  81:FreeRTOS\Source/list.c ****     listSET_LIST_INTEGRITY_CHECK_1_VALUE( pxList );
  82:FreeRTOS\Source/list.c ****     listSET_LIST_INTEGRITY_CHECK_2_VALUE( pxList );
  83:FreeRTOS\Source/list.c **** }
  49              		.loc 1 83 0
  50              		@ sp needed
  51 0014 7047     		bx	lr
  52              		.cfi_endproc
  53              	.LFE34:
  54              		.size	vListInitialise, .-vListInitialise
  55 0016 C046     		.section	.text.vListInitialiseItem,"ax",%progbits
  56              		.align	2
  57              		.global	vListInitialiseItem
  58              		.code	16
  59              		.thumb_func
  60              		.type	vListInitialiseItem, %function
  61              	vListInitialiseItem:
  62              	.LFB35:
  84:FreeRTOS\Source/list.c **** /*-----------------------------------------------------------*/
  85:FreeRTOS\Source/list.c **** 
  86:FreeRTOS\Source/list.c **** void vListInitialiseItem( ListItem_t * const pxItem )
  87:FreeRTOS\Source/list.c **** {
  63              		.loc 1 87 0
  64              		.cfi_startproc
  65              		@ args = 0, pretend = 0, frame = 0
  66              		@ frame_needed = 0, uses_anonymous_args = 0
  67              		@ link register save eliminated.
  68              	.LVL1:
  88:FreeRTOS\Source/list.c ****     /* Make sure the list item is not recorded as being on a list. */
  89:FreeRTOS\Source/list.c ****     pxItem->pxContainer = NULL;
  69              		.loc 1 89 0
  70 0000 0023     		movs	r3, #0
  71 0002 0361     		str	r3, [r0, #16]
  90:FreeRTOS\Source/list.c **** 
  91:FreeRTOS\Source/list.c ****     /* Write known values into the list item if
  92:FreeRTOS\Source/list.c ****      * configUSE_LIST_DATA_INTEGRITY_CHECK_BYTES is set to 1. */
  93:FreeRTOS\Source/list.c ****     listSET_FIRST_LIST_ITEM_INTEGRITY_CHECK_VALUE( pxItem );
  94:FreeRTOS\Source/list.c ****     listSET_SECOND_LIST_ITEM_INTEGRITY_CHECK_VALUE( pxItem );
  95:FreeRTOS\Source/list.c **** }
  72              		.loc 1 95 0
  73              		@ sp needed
  74 0004 7047     		bx	lr
  75              		.cfi_endproc
  76              	.LFE35:
ARM GAS  C:\Users\tyork\AppData\Local\Temp\cc48hS3M.s 			page 4


  77              		.size	vListInitialiseItem, .-vListInitialiseItem
  78 0006 C046     		.section	.text.vListInsertEnd,"ax",%progbits
  79              		.align	2
  80              		.global	vListInsertEnd
  81              		.code	16
  82              		.thumb_func
  83              		.type	vListInsertEnd, %function
  84              	vListInsertEnd:
  85              	.LFB36:
  96:FreeRTOS\Source/list.c **** /*-----------------------------------------------------------*/
  97:FreeRTOS\Source/list.c **** 
  98:FreeRTOS\Source/list.c **** void vListInsertEnd( List_t * const pxList,
  99:FreeRTOS\Source/list.c ****                      ListItem_t * const pxNewListItem )
 100:FreeRTOS\Source/list.c **** {
  86              		.loc 1 100 0
  87              		.cfi_startproc
  88              		@ args = 0, pretend = 0, frame = 0
  89              		@ frame_needed = 0, uses_anonymous_args = 0
  90              		@ link register save eliminated.
  91              	.LVL2:
 101:FreeRTOS\Source/list.c ****     ListItem_t * const pxIndex = pxList->pxIndex;
  92              		.loc 1 101 0
  93 0000 4368     		ldr	r3, [r0, #4]
  94              	.LVL3:
 102:FreeRTOS\Source/list.c **** 
 103:FreeRTOS\Source/list.c ****     /* Only effective when configASSERT() is also defined, these tests may catch
 104:FreeRTOS\Source/list.c ****      * the list data structures being overwritten in memory.  They will not catch
 105:FreeRTOS\Source/list.c ****      * data errors caused by incorrect configuration or use of FreeRTOS. */
 106:FreeRTOS\Source/list.c ****     listTEST_LIST_INTEGRITY( pxList );
 107:FreeRTOS\Source/list.c ****     listTEST_LIST_ITEM_INTEGRITY( pxNewListItem );
 108:FreeRTOS\Source/list.c **** 
 109:FreeRTOS\Source/list.c ****     /* Insert a new list item into pxList, but rather than sort the list,
 110:FreeRTOS\Source/list.c ****      * makes the new list item the last item to be removed by a call to
 111:FreeRTOS\Source/list.c ****      * listGET_OWNER_OF_NEXT_ENTRY(). */
 112:FreeRTOS\Source/list.c ****     pxNewListItem->pxNext = pxIndex;
  95              		.loc 1 112 0
  96 0002 4B60     		str	r3, [r1, #4]
 113:FreeRTOS\Source/list.c ****     pxNewListItem->pxPrevious = pxIndex->pxPrevious;
  97              		.loc 1 113 0
  98 0004 9A68     		ldr	r2, [r3, #8]
  99 0006 8A60     		str	r2, [r1, #8]
 114:FreeRTOS\Source/list.c **** 
 115:FreeRTOS\Source/list.c ****     /* Only used during decision coverage testing. */
 116:FreeRTOS\Source/list.c ****     mtCOVERAGE_TEST_DELAY();
 117:FreeRTOS\Source/list.c **** 
 118:FreeRTOS\Source/list.c ****     pxIndex->pxPrevious->pxNext = pxNewListItem;
 100              		.loc 1 118 0
 101 0008 9A68     		ldr	r2, [r3, #8]
 102 000a 5160     		str	r1, [r2, #4]
 119:FreeRTOS\Source/list.c ****     pxIndex->pxPrevious = pxNewListItem;
 103              		.loc 1 119 0
 104 000c 9960     		str	r1, [r3, #8]
 120:FreeRTOS\Source/list.c **** 
 121:FreeRTOS\Source/list.c ****     /* Remember which list the item is in. */
 122:FreeRTOS\Source/list.c ****     pxNewListItem->pxContainer = pxList;
 105              		.loc 1 122 0
 106 000e 0861     		str	r0, [r1, #16]
ARM GAS  C:\Users\tyork\AppData\Local\Temp\cc48hS3M.s 			page 5


 123:FreeRTOS\Source/list.c **** 
 124:FreeRTOS\Source/list.c ****     ( pxList->uxNumberOfItems )++;
 107              		.loc 1 124 0
 108 0010 0368     		ldr	r3, [r0]
 109              	.LVL4:
 110 0012 0133     		adds	r3, r3, #1
 111 0014 0360     		str	r3, [r0]
 125:FreeRTOS\Source/list.c **** }
 112              		.loc 1 125 0
 113              		@ sp needed
 114 0016 7047     		bx	lr
 115              		.cfi_endproc
 116              	.LFE36:
 117              		.size	vListInsertEnd, .-vListInsertEnd
 118              		.section	.text.vListInsert,"ax",%progbits
 119              		.align	2
 120              		.global	vListInsert
 121              		.code	16
 122              		.thumb_func
 123              		.type	vListInsert, %function
 124              	vListInsert:
 125              	.LFB37:
 126:FreeRTOS\Source/list.c **** /*-----------------------------------------------------------*/
 127:FreeRTOS\Source/list.c **** 
 128:FreeRTOS\Source/list.c **** void vListInsert( List_t * const pxList,
 129:FreeRTOS\Source/list.c ****                   ListItem_t * const pxNewListItem )
 130:FreeRTOS\Source/list.c **** {
 126              		.loc 1 130 0
 127              		.cfi_startproc
 128              		@ args = 0, pretend = 0, frame = 0
 129              		@ frame_needed = 0, uses_anonymous_args = 0
 130              	.LVL5:
 131 0000 30B5     		push	{r4, r5, lr}
 132              		.cfi_def_cfa_offset 12
 133              		.cfi_offset 4, -12
 134              		.cfi_offset 5, -8
 135              		.cfi_offset 14, -4
 131:FreeRTOS\Source/list.c ****     ListItem_t * pxIterator;
 132:FreeRTOS\Source/list.c ****     const TickType_t xValueOfInsertion = pxNewListItem->xItemValue;
 136              		.loc 1 132 0
 137 0002 0C68     		ldr	r4, [r1]
 138              	.LVL6:
 133:FreeRTOS\Source/list.c **** 
 134:FreeRTOS\Source/list.c ****     /* Only effective when configASSERT() is also defined, these tests may catch
 135:FreeRTOS\Source/list.c ****      * the list data structures being overwritten in memory.  They will not catch
 136:FreeRTOS\Source/list.c ****      * data errors caused by incorrect configuration or use of FreeRTOS. */
 137:FreeRTOS\Source/list.c ****     listTEST_LIST_INTEGRITY( pxList );
 138:FreeRTOS\Source/list.c ****     listTEST_LIST_ITEM_INTEGRITY( pxNewListItem );
 139:FreeRTOS\Source/list.c **** 
 140:FreeRTOS\Source/list.c ****     /* Insert the new list item into the list, sorted in xItemValue order.
 141:FreeRTOS\Source/list.c ****      *
 142:FreeRTOS\Source/list.c ****      * If the list already contains a list item with the same item value then the
 143:FreeRTOS\Source/list.c ****      * new list item should be placed after it.  This ensures that TCBs which are
 144:FreeRTOS\Source/list.c ****      * stored in ready lists (all of which have the same xItemValue value) get a
 145:FreeRTOS\Source/list.c ****      * share of the CPU.  However, if the xItemValue is the same as the back marker
 146:FreeRTOS\Source/list.c ****      * the iteration loop below will not end.  Therefore the value is checked
 147:FreeRTOS\Source/list.c ****      * first, and the algorithm slightly modified if necessary. */
ARM GAS  C:\Users\tyork\AppData\Local\Temp\cc48hS3M.s 			page 6


 148:FreeRTOS\Source/list.c ****     if( xValueOfInsertion == portMAX_DELAY )
 139              		.loc 1 148 0
 140 0004 631C     		adds	r3, r4, #1
 141 0006 01D1     		bne	.L5
 149:FreeRTOS\Source/list.c ****     {
 150:FreeRTOS\Source/list.c ****         pxIterator = pxList->xListEnd.pxPrevious;
 142              		.loc 1 150 0
 143 0008 0269     		ldr	r2, [r0, #16]
 144              	.LVL7:
 145 000a 07E0     		b	.L6
 146              	.LVL8:
 147              	.L5:
 151:FreeRTOS\Source/list.c ****     }
 152:FreeRTOS\Source/list.c ****     else
 153:FreeRTOS\Source/list.c ****     {
 154:FreeRTOS\Source/list.c ****         /* *** NOTE ***********************************************************
 155:FreeRTOS\Source/list.c ****         *  If you find your application is crashing here then likely causes are
 156:FreeRTOS\Source/list.c ****         *  listed below.  In addition see https://www.FreeRTOS.org/FAQHelp.html for
 157:FreeRTOS\Source/list.c ****         *  more tips, and ensure configASSERT() is defined!
 158:FreeRTOS\Source/list.c ****         *  https://www.FreeRTOS.org/a00110.html#configASSERT
 159:FreeRTOS\Source/list.c ****         *
 160:FreeRTOS\Source/list.c ****         *   1) Stack overflow -
 161:FreeRTOS\Source/list.c ****         *      see https://www.FreeRTOS.org/Stacks-and-stack-overflow-checking.html
 162:FreeRTOS\Source/list.c ****         *   2) Incorrect interrupt priority assignment, especially on Cortex-M
 163:FreeRTOS\Source/list.c ****         *      parts where numerically high priority values denote low actual
 164:FreeRTOS\Source/list.c ****         *      interrupt priorities, which can seem counter intuitive.  See
 165:FreeRTOS\Source/list.c ****         *      https://www.FreeRTOS.org/RTOS-Cortex-M3-M4.html and the definition
 166:FreeRTOS\Source/list.c ****         *      of configMAX_SYSCALL_INTERRUPT_PRIORITY on
 167:FreeRTOS\Source/list.c ****         *      https://www.FreeRTOS.org/a00110.html
 168:FreeRTOS\Source/list.c ****         *   3) Calling an API function from within a critical section or when
 169:FreeRTOS\Source/list.c ****         *      the scheduler is suspended, or calling an API function that does
 170:FreeRTOS\Source/list.c ****         *      not end in "FromISR" from an interrupt.
 171:FreeRTOS\Source/list.c ****         *   4) Using a queue or semaphore before it has been initialised or
 172:FreeRTOS\Source/list.c ****         *      before the scheduler has been started (are interrupts firing
 173:FreeRTOS\Source/list.c ****         *      before vTaskStartScheduler() has been called?).
 174:FreeRTOS\Source/list.c ****         *   5) If the FreeRTOS port supports interrupt nesting then ensure that
 175:FreeRTOS\Source/list.c ****         *      the priority of the tick interrupt is at or below
 176:FreeRTOS\Source/list.c ****         *      configMAX_SYSCALL_INTERRUPT_PRIORITY.
 177:FreeRTOS\Source/list.c ****         **********************************************************************/
 178:FreeRTOS\Source/list.c **** 
 179:FreeRTOS\Source/list.c ****         for( pxIterator = ( ListItem_t * ) &( pxList->xListEnd ); pxIterator->pxNext->xItemValue <=
 148              		.loc 1 179 0
 149 000c 0200     		movs	r2, r0
 150 000e 0832     		adds	r2, r2, #8
 151              	.LVL9:
 152 0010 00E0     		b	.L7
 153              	.L8:
 154 0012 1A00     		movs	r2, r3
 155              	.LVL10:
 156              	.L7:
 157              		.loc 1 179 0 is_stmt 0 discriminator 1
 158 0014 5368     		ldr	r3, [r2, #4]
 159 0016 1D68     		ldr	r5, [r3]
 160 0018 AC42     		cmp	r4, r5
 161 001a FAD2     		bcs	.L8
 162              	.L6:
 180:FreeRTOS\Source/list.c ****         {
ARM GAS  C:\Users\tyork\AppData\Local\Temp\cc48hS3M.s 			page 7


 181:FreeRTOS\Source/list.c ****             /* There is nothing to do here, just iterating to the wanted
 182:FreeRTOS\Source/list.c ****              * insertion position. */
 183:FreeRTOS\Source/list.c ****         }
 184:FreeRTOS\Source/list.c ****     }
 185:FreeRTOS\Source/list.c **** 
 186:FreeRTOS\Source/list.c ****     pxNewListItem->pxNext = pxIterator->pxNext;
 163              		.loc 1 186 0 is_stmt 1
 164 001c 5368     		ldr	r3, [r2, #4]
 165 001e 4B60     		str	r3, [r1, #4]
 187:FreeRTOS\Source/list.c ****     pxNewListItem->pxNext->pxPrevious = pxNewListItem;
 166              		.loc 1 187 0
 167 0020 9960     		str	r1, [r3, #8]
 188:FreeRTOS\Source/list.c ****     pxNewListItem->pxPrevious = pxIterator;
 168              		.loc 1 188 0
 169 0022 8A60     		str	r2, [r1, #8]
 189:FreeRTOS\Source/list.c ****     pxIterator->pxNext = pxNewListItem;
 170              		.loc 1 189 0
 171 0024 5160     		str	r1, [r2, #4]
 190:FreeRTOS\Source/list.c **** 
 191:FreeRTOS\Source/list.c ****     /* Remember which list the item is in.  This allows fast removal of the
 192:FreeRTOS\Source/list.c ****      * item later. */
 193:FreeRTOS\Source/list.c ****     pxNewListItem->pxContainer = pxList;
 172              		.loc 1 193 0
 173 0026 0861     		str	r0, [r1, #16]
 194:FreeRTOS\Source/list.c **** 
 195:FreeRTOS\Source/list.c ****     ( pxList->uxNumberOfItems )++;
 174              		.loc 1 195 0
 175 0028 0368     		ldr	r3, [r0]
 176 002a 0133     		adds	r3, r3, #1
 177 002c 0360     		str	r3, [r0]
 196:FreeRTOS\Source/list.c **** }
 178              		.loc 1 196 0
 179              		@ sp needed
 180              	.LVL11:
 181 002e 30BD     		pop	{r4, r5, pc}
 182              		.cfi_endproc
 183              	.LFE37:
 184              		.size	vListInsert, .-vListInsert
 185              		.section	.text.uxListRemove,"ax",%progbits
 186              		.align	2
 187              		.global	uxListRemove
 188              		.code	16
 189              		.thumb_func
 190              		.type	uxListRemove, %function
 191              	uxListRemove:
 192              	.LFB38:
 197:FreeRTOS\Source/list.c **** /*-----------------------------------------------------------*/
 198:FreeRTOS\Source/list.c **** 
 199:FreeRTOS\Source/list.c **** UBaseType_t uxListRemove( ListItem_t * const pxItemToRemove )
 200:FreeRTOS\Source/list.c **** {
 193              		.loc 1 200 0
 194              		.cfi_startproc
 195              		@ args = 0, pretend = 0, frame = 0
 196              		@ frame_needed = 0, uses_anonymous_args = 0
 197              		@ link register save eliminated.
 198              	.LVL12:
 201:FreeRTOS\Source/list.c **** /* The list item knows which list it is in.  Obtain the list from the list
ARM GAS  C:\Users\tyork\AppData\Local\Temp\cc48hS3M.s 			page 8


 202:FreeRTOS\Source/list.c ****  * item. */
 203:FreeRTOS\Source/list.c ****     List_t * const pxList = pxItemToRemove->pxContainer;
 199              		.loc 1 203 0
 200 0000 0369     		ldr	r3, [r0, #16]
 201              	.LVL13:
 204:FreeRTOS\Source/list.c **** 
 205:FreeRTOS\Source/list.c ****     pxItemToRemove->pxNext->pxPrevious = pxItemToRemove->pxPrevious;
 202              		.loc 1 205 0
 203 0002 4268     		ldr	r2, [r0, #4]
 204 0004 8168     		ldr	r1, [r0, #8]
 205 0006 9160     		str	r1, [r2, #8]
 206:FreeRTOS\Source/list.c ****     pxItemToRemove->pxPrevious->pxNext = pxItemToRemove->pxNext;
 206              		.loc 1 206 0
 207 0008 8268     		ldr	r2, [r0, #8]
 208 000a 4168     		ldr	r1, [r0, #4]
 209 000c 5160     		str	r1, [r2, #4]
 207:FreeRTOS\Source/list.c **** 
 208:FreeRTOS\Source/list.c ****     /* Only used during decision coverage testing. */
 209:FreeRTOS\Source/list.c ****     mtCOVERAGE_TEST_DELAY();
 210:FreeRTOS\Source/list.c **** 
 211:FreeRTOS\Source/list.c ****     /* Make sure the index is left pointing to a valid item. */
 212:FreeRTOS\Source/list.c ****     if( pxList->pxIndex == pxItemToRemove )
 210              		.loc 1 212 0
 211 000e 5A68     		ldr	r2, [r3, #4]
 212 0010 9042     		cmp	r0, r2
 213 0012 01D1     		bne	.L10
 213:FreeRTOS\Source/list.c ****     {
 214:FreeRTOS\Source/list.c ****         pxList->pxIndex = pxItemToRemove->pxPrevious;
 214              		.loc 1 214 0
 215 0014 8268     		ldr	r2, [r0, #8]
 216 0016 5A60     		str	r2, [r3, #4]
 217              	.L10:
 215:FreeRTOS\Source/list.c ****     }
 216:FreeRTOS\Source/list.c ****     else
 217:FreeRTOS\Source/list.c ****     {
 218:FreeRTOS\Source/list.c ****         mtCOVERAGE_TEST_MARKER();
 219:FreeRTOS\Source/list.c ****     }
 220:FreeRTOS\Source/list.c **** 
 221:FreeRTOS\Source/list.c ****     pxItemToRemove->pxContainer = NULL;
 218              		.loc 1 221 0
 219 0018 0022     		movs	r2, #0
 220 001a 0261     		str	r2, [r0, #16]
 222:FreeRTOS\Source/list.c ****     ( pxList->uxNumberOfItems )--;
 221              		.loc 1 222 0
 222 001c 1A68     		ldr	r2, [r3]
 223 001e 013A     		subs	r2, r2, #1
 224 0020 1A60     		str	r2, [r3]
 223:FreeRTOS\Source/list.c **** 
 224:FreeRTOS\Source/list.c ****     return pxList->uxNumberOfItems;
 225              		.loc 1 224 0
 226 0022 1868     		ldr	r0, [r3]
 227              	.LVL14:
 225:FreeRTOS\Source/list.c **** }
 228              		.loc 1 225 0
 229              		@ sp needed
 230 0024 7047     		bx	lr
 231              		.cfi_endproc
ARM GAS  C:\Users\tyork\AppData\Local\Temp\cc48hS3M.s 			page 9


 232              	.LFE38:
 233              		.size	uxListRemove, .-uxListRemove
 234 0026 C046     		.text
 235              	.Letext0:
 236              		.file 2 "c:\\program files (x86)\\cypress\\psoc creator\\4.4\\psoc creator\\import\\gnu\\arm\\5.4.
 237              		.file 3 "c:\\program files (x86)\\cypress\\psoc creator\\4.4\\psoc creator\\import\\gnu\\arm\\5.4.
 238              		.file 4 ".\\FreeRTOS\\Include/portmacro.h"
 239              		.file 5 ".\\FreeRTOS\\Include/list.h"