ARM GAS  C:\Users\HELLOK~1\AppData\Local\Temp\cca1rgQ9.s 			page 1


   1              		.syntax unified
   2              		.cpu cortex-m0
   3              		.fpu softvfp
   4              		.eabi_attribute 20, 1
   5              		.eabi_attribute 21, 1
   6              		.eabi_attribute 23, 3
   7              		.eabi_attribute 24, 1
   8              		.eabi_attribute 25, 1
   9              		.eabi_attribute 26, 1
  10              		.eabi_attribute 30, 1
  11              		.eabi_attribute 34, 0
  12              		.eabi_attribute 18, 4
  13              		.thumb
  14              		.syntax unified
  15              		.file	"main.c"
  16              		.text
  17              	.Ltext0:
  18              		.cfi_sections	.debug_frame
  19              		.section	.text.vBlinkTaskRed,"ax",%progbits
  20              		.align	2
  21              		.global	vBlinkTaskRed
  22              		.code	16
  23              		.thumb_func
  24              		.type	vBlinkTaskRed, %function
  25              	vBlinkTaskRed:
  26              	.LFB34:
  27              		.file 1 "main.c"
   1:main.c        **** /* ========================================
   2:main.c        ****  *
   3:main.c        ****  * Copyright YOUR COMPANY, THE YEAR
   4:main.c        ****  * All Rights Reserved
   5:main.c        ****  * UNPUBLISHED, LICENSED SOFTWARE.
   6:main.c        ****  *
   7:main.c        ****  * CONFIDENTIAL AND PROPRIETARY INFORMATION
   8:main.c        ****  * WHICH IS THE PROPERTY OF your company.
   9:main.c        ****  *
  10:main.c        ****  * ========================================
  11:main.c        **** */
  12:main.c        **** #include "project.h"
  13:main.c        **** #include "FreeRTOS.h"
  14:main.c        **** #include "semphr.h"
  15:main.c        **** #include "task.h"
  16:main.c        **** 
  17:main.c        **** // FreeRTOS Variables
  18:main.c        **** SemaphoreHandle_t adc_mutex;
  19:main.c        **** TaskHandle_t blink_task, lcd_task, motor_task;
  20:main.c        **** 
  21:main.c        **** // Other Globals
  22:main.c        **** volatile int16 adcDV;
  23:main.c        **** 
  24:main.c        **** // This task should blink the RED LED at
  25:main.c        **** // a rate of 2Hz
  26:main.c        **** void vBlinkTaskRed(void *pvParameters)
  27:main.c        **** {
  28              		.loc 1 27 0
  29              		.cfi_startproc
  30              		@ args = 0, pretend = 0, frame = 0
ARM GAS  C:\Users\HELLOK~1\AppData\Local\Temp\cca1rgQ9.s 			page 2


  31              		@ frame_needed = 0, uses_anonymous_args = 0
  32              	.LVL0:
  33 0000 10B5     		push	{r4, lr}
  34              		.cfi_def_cfa_offset 8
  35              		.cfi_offset 4, -8
  36              		.cfi_offset 14, -4
  37              	.LVL1:
  38              	.L2:
  28:main.c        ****     int delay = 2;
  29:main.c        ****     while(1) {
  30:main.c        ****         R_LED_Write(~R_LED_Read());
  39              		.loc 1 30 0 discriminator 1
  40 0002 FFF7FEFF 		bl	R_LED_Read
  41              	.LVL2:
  42 0006 C043     		mvns	r0, r0
  43 0008 C0B2     		uxtb	r0, r0
  44 000a FFF7FEFF 		bl	R_LED_Write
  45              	.LVL3:
  31:main.c        ****         vTaskDelay(configTICK_RATE_HZ/delay);
  46              		.loc 1 31 0 discriminator 1
  47 000e FA20     		movs	r0, #250
  48 0010 4000     		lsls	r0, r0, #1
  49 0012 FFF7FEFF 		bl	vTaskDelay
  50              	.LVL4:
  51 0016 F4E7     		b	.L2
  52              		.cfi_endproc
  53              	.LFE34:
  54              		.size	vBlinkTaskRed, .-vBlinkTaskRed
  55              		.global	__aeabi_i2d
  56              		.global	__aeabi_dmul
  57              		.global	__aeabi_d2f
  58              		.global	__aeabi_f2d
  59              		.global	__aeabi_dsub
  60              		.global	__aeabi_ddiv
  61              		.global	__aeabi_fmul
  62              		.global	__aeabi_fadd
  63              		.global	__aeabi_f2iz
  64              		.section	.text.vUpdateLCDTask,"ax",%progbits
  65              		.align	2
  66              		.global	vUpdateLCDTask
  67              		.code	16
  68              		.thumb_func
  69              		.type	vUpdateLCDTask, %function
  70              	vUpdateLCDTask:
  71              	.LFB35:
  32:main.c        ****     }
  33:main.c        ****     
  34:main.c        **** }
  35:main.c        **** 
  36:main.c        **** // Print the temperature in F and C
  37:main.c        **** // to the LCD once per second.
  38:main.c        **** // Whole number temps are fine so 
  39:main.c        **** // you can use LCD_PrintNumber() instead of snprintf()
  40:main.c        **** void vUpdateLCDTask(void *pvParameters)
  41:main.c        **** {
  72              		.loc 1 41 0
  73              		.cfi_startproc
ARM GAS  C:\Users\HELLOK~1\AppData\Local\Temp\cca1rgQ9.s 			page 3


  74              		@ args = 0, pretend = 0, frame = 0
  75              		@ frame_needed = 0, uses_anonymous_args = 0
  76              	.LVL5:
  77 0000 70B5     		push	{r4, r5, r6, lr}
  78              		.cfi_def_cfa_offset 16
  79              		.cfi_offset 4, -16
  80              		.cfi_offset 5, -12
  81              		.cfi_offset 6, -8
  82              		.cfi_offset 14, -4
  83              	.LVL6:
  84              	.L4:
  42:main.c        ****     int16 adcDV_local;
  43:main.c        ****     int delay = 1;
  44:main.c        ****     while(1) {
  45:main.c        ****         if (xSemaphoreTake(adc_mutex, 0) == pdTRUE)
  85              		.loc 1 45 0
  86 0002 294B     		ldr	r3, .L6
  87 0004 1868     		ldr	r0, [r3]
  88 0006 0021     		movs	r1, #0
  89 0008 FFF7FEFF 		bl	xQueueSemaphoreTake
  90              	.LVL7:
  91 000c 0128     		cmp	r0, #1
  92 000e F8D1     		bne	.L4
  93              	.LBB2:
  46:main.c        ****         {
  47:main.c        ****             adcDV_local = adcDV;
  94              		.loc 1 47 0
  95 0010 264B     		ldr	r3, .L6+4
  96 0012 1888     		ldrh	r0, [r3]
  97 0014 00B2     		sxth	r0, r0
  98              	.LVL8:
  48:main.c        ****             float out = adcDV_local * (2.048/4095);
  99              		.loc 1 48 0
 100 0016 FFF7FEFF 		bl	__aeabi_i2d
 101              	.LVL9:
 102 001a 254A     		ldr	r2, .L6+8
 103 001c 254B     		ldr	r3, .L6+12
 104 001e FFF7FEFF 		bl	__aeabi_dmul
 105              	.LVL10:
 106 0022 FFF7FEFF 		bl	__aeabi_d2f
 107              	.LVL11:
  49:main.c        ****             float printC = (out - .400)/(.0195);
 108              		.loc 1 49 0
 109 0026 FFF7FEFF 		bl	__aeabi_f2d
 110              	.LVL12:
 111 002a 234A     		ldr	r2, .L6+16
 112 002c 234B     		ldr	r3, .L6+20
 113 002e FFF7FEFF 		bl	__aeabi_dsub
 114              	.LVL13:
 115 0032 234A     		ldr	r2, .L6+24
 116 0034 234B     		ldr	r3, .L6+28
 117 0036 FFF7FEFF 		bl	__aeabi_ddiv
 118              	.LVL14:
 119 003a FFF7FEFF 		bl	__aeabi_d2f
 120              	.LVL15:
 121 003e 051C     		adds	r5, r0, #0
 122              	.LVL16:
ARM GAS  C:\Users\HELLOK~1\AppData\Local\Temp\cca1rgQ9.s 			page 4


  50:main.c        ****             float printF = (9/((float)5))*printC + 32;
 123              		.loc 1 50 0
 124 0040 2149     		ldr	r1, .L6+32
 125 0042 FFF7FEFF 		bl	__aeabi_fmul
 126              	.LVL17:
 127 0046 8421     		movs	r1, #132
 128 0048 C905     		lsls	r1, r1, #23
 129 004a FFF7FEFF 		bl	__aeabi_fadd
 130              	.LVL18:
 131 004e 041C     		adds	r4, r0, #0
 132              	.LVL19:
  51:main.c        ****             LCD_ClearDisplay();
 133              		.loc 1 51 0
 134 0050 0120     		movs	r0, #1
 135              	.LVL20:
 136 0052 FFF7FEFF 		bl	LCD_WriteControl
 137              	.LVL21:
  52:main.c        ****             LCD_Position(0,0);
 138              		.loc 1 52 0
 139 0056 0021     		movs	r1, #0
 140 0058 0020     		movs	r0, #0
 141 005a FFF7FEFF 		bl	LCD_Position
 142              	.LVL22:
  53:main.c        ****             LCD_PrintNumber((int)printC);
 143              		.loc 1 53 0
 144 005e 281C     		adds	r0, r5, #0
 145 0060 FFF7FEFF 		bl	__aeabi_f2iz
 146              	.LVL23:
 147 0064 0004     		lsls	r0, r0, #16
 148 0066 000C     		lsrs	r0, r0, #16
 149 0068 FFF7FEFF 		bl	LCD_PrintU32Number
 150              	.LVL24:
  54:main.c        ****             LCD_PutChar('C');
 151              		.loc 1 54 0
 152 006c 4320     		movs	r0, #67
 153 006e FFF7FEFF 		bl	LCD_PutChar
 154              	.LVL25:
  55:main.c        ****             LCD_Position(1,0);
 155              		.loc 1 55 0
 156 0072 0021     		movs	r1, #0
 157 0074 0120     		movs	r0, #1
 158 0076 FFF7FEFF 		bl	LCD_Position
 159              	.LVL26:
  56:main.c        ****             LCD_PrintNumber((int)printF);
 160              		.loc 1 56 0
 161 007a 201C     		adds	r0, r4, #0
 162 007c FFF7FEFF 		bl	__aeabi_f2iz
 163              	.LVL27:
 164 0080 0004     		lsls	r0, r0, #16
 165 0082 000C     		lsrs	r0, r0, #16
 166 0084 FFF7FEFF 		bl	LCD_PrintU32Number
 167              	.LVL28:
  57:main.c        ****             LCD_PutChar('F');
 168              		.loc 1 57 0
 169 0088 4620     		movs	r0, #70
 170 008a FFF7FEFF 		bl	LCD_PutChar
 171              	.LVL29:
ARM GAS  C:\Users\HELLOK~1\AppData\Local\Temp\cca1rgQ9.s 			page 5


  58:main.c        ****             xSemaphoreGive(adc_mutex);
 172              		.loc 1 58 0
 173 008e 064B     		ldr	r3, .L6
 174 0090 1868     		ldr	r0, [r3]
 175 0092 0023     		movs	r3, #0
 176 0094 0022     		movs	r2, #0
 177 0096 0021     		movs	r1, #0
 178 0098 FFF7FEFF 		bl	xQueueGenericSend
 179              	.LVL30:
  59:main.c        ****             
  60:main.c        ****             vTaskDelay(configTICK_RATE_HZ/delay);
 180              		.loc 1 60 0
 181 009c FA20     		movs	r0, #250
 182 009e 8000     		lsls	r0, r0, #2
 183 00a0 FFF7FEFF 		bl	vTaskDelay
 184              	.LVL31:
 185              	.LBE2:
 186 00a4 ADE7     		b	.L4
 187              	.L7:
 188 00a6 C046     		.align	2
 189              	.L6:
 190 00a8 00000000 		.word	adc_mutex
 191 00ac 00000000 		.word	adcDV
 192 00b0 1F2D3208 		.word	137506079
 193 00b4 5463403F 		.word	1061184340
 194 00b8 9A999999 		.word	-1717986918
 195 00bc 9999D93F 		.word	1071225241
 196 00c0 2B8716D9 		.word	-652835029
 197 00c4 CEF7933F 		.word	1066661838
 198 00c8 6666E63F 		.word	1072064102
 199              		.cfi_endproc
 200              	.LFE35:
 201              		.size	vUpdateLCDTask, .-vUpdateLCDTask
 202              		.section	.text.vSpinMotorTask,"ax",%progbits
 203              		.align	2
 204              		.global	vSpinMotorTask
 205              		.code	16
 206              		.thumb_func
 207              		.type	vSpinMotorTask, %function
 208              	vSpinMotorTask:
 209              	.LFB36:
  61:main.c        ****         }
  62:main.c        ****         else
  63:main.c        ****         {
  64:main.c        ****             
  65:main.c        ****         }
  66:main.c        ****     }
  67:main.c        ****     
  68:main.c        **** }
  69:main.c        **** 
  70:main.c        **** // Spin the motor at a rate of 2ms per step
  71:main.c        **** void vSpinMotorTask(void *pvParameters)
  72:main.c        **** {
 210              		.loc 1 72 0
 211              		.cfi_startproc
 212              		@ args = 0, pretend = 0, frame = 0
 213              		@ frame_needed = 0, uses_anonymous_args = 0
ARM GAS  C:\Users\HELLOK~1\AppData\Local\Temp\cca1rgQ9.s 			page 6


 214              	.LVL32:
 215 0000 10B5     		push	{r4, lr}
 216              		.cfi_def_cfa_offset 8
 217              		.cfi_offset 4, -8
 218              		.cfi_offset 14, -4
  73:main.c        ****     struct MTR{
  74:main.c        ****         unsigned int position : 4;
  75:main.c        ****     };
  76:main.c        ****     struct MTR motor = {1};
 219              		.loc 1 76 0
 220 0002 0124     		movs	r4, #1
 221              	.LVL33:
 222              	.L17:
  77:main.c        **** 
  78:main.c        ****     
  79:main.c        ****     int delay = 500;
  80:main.c        ****     while(1) {
  81:main.c        ****         // If motor position is at edge, reset, otherwise increment
  82:main.c        ****         if(motor.position >= 4){
 223              		.loc 1 82 0
 224 0004 2307     		lsls	r3, r4, #28
 225 0006 1B0F     		lsrs	r3, r3, #28
 226 0008 032B     		cmp	r3, #3
 227 000a 04DD     		ble	.L9
  83:main.c        ****             motor.position = 1;
 228              		.loc 1 83 0
 229 000c 0F23     		movs	r3, #15
 230 000e 9C43     		bics	r4, r3
 231              	.LVL34:
 232 0010 0E3B     		subs	r3, r3, #14
 233 0012 1C43     		orrs	r4, r3
 234 0014 04E0     		b	.L10
 235              	.LVL35:
 236              	.L9:
  84:main.c        ****         }
  85:main.c        ****         else{
  86:main.c        ****             motor.position += 1;
 237              		.loc 1 86 0
 238 0016 0133     		adds	r3, r3, #1
 239 0018 0F22     		movs	r2, #15
 240 001a 1340     		ands	r3, r2
 241 001c 9443     		bics	r4, r2
 242              	.LVL36:
 243 001e 1C43     		orrs	r4, r3
 244              	.L10:
 245              	.LVL37:
  87:main.c        ****         }
  88:main.c        ****         // Write correct motor position
  89:main.c        ****         switch(motor.position){
 246              		.loc 1 89 0
 247 0020 2307     		lsls	r3, r4, #28
 248 0022 1B0F     		lsrs	r3, r3, #28
 249 0024 022B     		cmp	r3, #2
 250 0026 0CD0     		beq	.L12
 251 0028 02D8     		bhi	.L13
 252 002a 012B     		cmp	r3, #1
 253 002c 05D0     		beq	.L14
ARM GAS  C:\Users\HELLOK~1\AppData\Local\Temp\cca1rgQ9.s 			page 7


 254 002e 13E0     		b	.L11
 255              	.L13:
 256 0030 032B     		cmp	r3, #3
 257 0032 0AD0     		beq	.L15
 258 0034 042B     		cmp	r3, #4
 259 0036 0CD0     		beq	.L16
 260 0038 0EE0     		b	.L11
 261              	.L14:
  90:main.c        ****             case 1:
  91:main.c        ****                 // 0011 -> 1001
  92:main.c        ****                 MOTOR_Write(0x9);
 262              		.loc 1 92 0
 263 003a 0920     		movs	r0, #9
 264 003c FFF7FEFF 		bl	MOTOR_Write
 265              	.LVL38:
  93:main.c        ****                 break;
 266              		.loc 1 93 0
 267 0040 0AE0     		b	.L11
 268              	.L12:
  94:main.c        ****             case 2:
  95:main.c        ****                 // 1001 -> 1100
  96:main.c        ****                 MOTOR_Write(0xC);
 269              		.loc 1 96 0
 270 0042 0C20     		movs	r0, #12
 271 0044 FFF7FEFF 		bl	MOTOR_Write
 272              	.LVL39:
  97:main.c        ****                 break;
 273              		.loc 1 97 0
 274 0048 06E0     		b	.L11
 275              	.L15:
  98:main.c        ****             case 3:
  99:main.c        ****                 // 1100 -> 0110
 100:main.c        ****                 MOTOR_Write(0x6);
 276              		.loc 1 100 0
 277 004a 0620     		movs	r0, #6
 278 004c FFF7FEFF 		bl	MOTOR_Write
 279              	.LVL40:
 101:main.c        ****                 break;
 280              		.loc 1 101 0
 281 0050 02E0     		b	.L11
 282              	.L16:
 102:main.c        ****             case 4:
 103:main.c        ****                 // 0110 -> 0011
 104:main.c        ****                 MOTOR_Write(0x3);
 283              		.loc 1 104 0
 284 0052 0320     		movs	r0, #3
 285 0054 FFF7FEFF 		bl	MOTOR_Write
 286              	.LVL41:
 287              	.L11:
 105:main.c        ****                 break;
 106:main.c        ****         }
 107:main.c        ****         vTaskDelay(configTICK_RATE_HZ/delay);
 288              		.loc 1 107 0
 289 0058 0220     		movs	r0, #2
 290 005a FFF7FEFF 		bl	vTaskDelay
 291              	.LVL42:
 108:main.c        ****     }
ARM GAS  C:\Users\HELLOK~1\AppData\Local\Temp\cca1rgQ9.s 			page 8


 292              		.loc 1 108 0
 293 005e D1E7     		b	.L17
 294              		.cfi_endproc
 295              	.LFE36:
 296              		.size	vSpinMotorTask, .-vSpinMotorTask
 297              		.section	.text.prvHardwareSetup,"ax",%progbits
 298              		.align	2
 299              		.global	prvHardwareSetup
 300              		.code	16
 301              		.thumb_func
 302              		.type	prvHardwareSetup, %function
 303              	prvHardwareSetup:
 304              	.LFB38:
 109:main.c        ****     
 110:main.c        **** }
 111:main.c        **** 
 112:main.c        **** void prvHardwareSetup();
 113:main.c        **** 
 114:main.c        **** int main(void)
 115:main.c        **** {
 116:main.c        ****     
 117:main.c        ****     adc_mutex = xSemaphoreCreateMutex();
 118:main.c        ****     
 119:main.c        ****     xTaskCreate(vBlinkTaskRed, (portCHAR *) "BlinkRed",configMINIMAL_STACK_SIZE, NULL, tskIDLE_PRIO
 120:main.c        ****     xTaskCreate(vUpdateLCDTask, (portCHAR *) "UpdateLCD",configMINIMAL_STACK_SIZE, NULL, tskIDLE_PR
 121:main.c        ****     xTaskCreate(vSpinMotorTask, (portCHAR *) "SpinMotor",configMINIMAL_STACK_SIZE, NULL, tskIDLE_PR
 122:main.c        ****     
 123:main.c        ****     prvHardwareSetup(); //Set up FreeRTOS for our hardware    
 124:main.c        ****     
 125:main.c        ****     // Start our modules and ISRs
 126:main.c        ****     SW_ISR_Start();
 127:main.c        ****     ADC_Start();
 128:main.c        ****     ADC_StartConvert();
 129:main.c        ****     ADC_ISR_Start();    
 130:main.c        ****     
 131:main.c        ****     CyGlobalIntEnable; /* Enable global interrupts. */
 132:main.c        **** 
 133:main.c        ****     vTaskStartScheduler();
 134:main.c        **** 
 135:main.c        ****     for(;;)
 136:main.c        ****     {
 137:main.c        ****         /* WE SHOULD NEVER GET HERE! THE SCHEDULER TAKES OVER! */
 138:main.c        ****     }
 139:main.c        ****         
 140:main.c        ****     
 141:main.c        **** }
 142:main.c        **** 
 143:main.c        **** void prvHardwareSetup( void )
 144:main.c        **** {
 305              		.loc 1 144 0
 306              		.cfi_startproc
 307              		@ args = 0, pretend = 0, frame = 0
 308              		@ frame_needed = 0, uses_anonymous_args = 0
 309              		@ link register save eliminated.
 145:main.c        **** 	/* Port layer functions that need to be copied into the vector table. */
 146:main.c        **** 	extern void xPortPendSVHandler( void );
 147:main.c        **** 	extern void xPortSysTickHandler( void );
ARM GAS  C:\Users\HELLOK~1\AppData\Local\Temp\cca1rgQ9.s 			page 9


 148:main.c        **** 	extern void vPortSVCHandler( void );
 149:main.c        **** 	extern cyisraddress CyRamVectors[];
 150:main.c        **** 
 151:main.c        **** 	/* Install the OS Interrupt Handlers. */
 152:main.c        **** 	CyRamVectors[ 11 ] = ( cyisraddress ) vPortSVCHandler;
 310              		.loc 1 152 0
 311 0000 034B     		ldr	r3, .L19
 312 0002 044A     		ldr	r2, .L19+4
 313 0004 DA62     		str	r2, [r3, #44]
 153:main.c        **** 	CyRamVectors[ 14 ] = ( cyisraddress ) xPortPendSVHandler;
 314              		.loc 1 153 0
 315 0006 044A     		ldr	r2, .L19+8
 316 0008 9A63     		str	r2, [r3, #56]
 154:main.c        **** 	CyRamVectors[ 15 ] = ( cyisraddress ) xPortSysTickHandler;
 317              		.loc 1 154 0
 318 000a 044A     		ldr	r2, .L19+12
 319 000c DA63     		str	r2, [r3, #60]
 155:main.c        ****    
 156:main.c        **** }
 320              		.loc 1 156 0
 321              		@ sp needed
 322 000e 7047     		bx	lr
 323              	.L20:
 324              		.align	2
 325              	.L19:
 326 0010 00000000 		.word	CyRamVectors
 327 0014 00000000 		.word	vPortSVCHandler
 328 0018 00000000 		.word	xPortPendSVHandler
 329 001c 00000000 		.word	xPortSysTickHandler
 330              		.cfi_endproc
 331              	.LFE38:
 332              		.size	prvHardwareSetup, .-prvHardwareSetup
 333              		.section	.text.main,"ax",%progbits
 334              		.align	2
 335              		.global	main
 336              		.code	16
 337              		.thumb_func
 338              		.type	main, %function
 339              	main:
 340              	.LFB37:
 115:main.c        ****     
 341              		.loc 1 115 0
 342              		.cfi_startproc
 343              		@ Volatile: function does not return.
 344              		@ args = 0, pretend = 0, frame = 0
 345              		@ frame_needed = 0, uses_anonymous_args = 0
 346 0000 00B5     		push	{lr}
 347              		.cfi_def_cfa_offset 4
 348              		.cfi_offset 14, -4
 349 0002 83B0     		sub	sp, sp, #12
 350              		.cfi_def_cfa_offset 16
 117:main.c        ****     
 351              		.loc 1 117 0
 352 0004 0120     		movs	r0, #1
 353 0006 FFF7FEFF 		bl	xQueueCreateMutex
 354              	.LVL43:
 355 000a 174B     		ldr	r3, .L23
ARM GAS  C:\Users\HELLOK~1\AppData\Local\Temp\cca1rgQ9.s 			page 10


 356 000c 1860     		str	r0, [r3]
 119:main.c        ****     xTaskCreate(vUpdateLCDTask, (portCHAR *) "UpdateLCD",configMINIMAL_STACK_SIZE, NULL, tskIDLE_PR
 357              		.loc 1 119 0
 358 000e 174B     		ldr	r3, .L23+4
 359 0010 0193     		str	r3, [sp, #4]
 360 0012 0223     		movs	r3, #2
 361 0014 0093     		str	r3, [sp]
 362 0016 0023     		movs	r3, #0
 363 0018 6422     		movs	r2, #100
 364 001a 1549     		ldr	r1, .L23+8
 365 001c 1548     		ldr	r0, .L23+12
 366 001e FFF7FEFF 		bl	xTaskCreate
 367              	.LVL44:
 120:main.c        ****     xTaskCreate(vSpinMotorTask, (portCHAR *) "SpinMotor",configMINIMAL_STACK_SIZE, NULL, tskIDLE_PR
 368              		.loc 1 120 0
 369 0022 154B     		ldr	r3, .L23+16
 370 0024 0193     		str	r3, [sp, #4]
 371 0026 0323     		movs	r3, #3
 372 0028 0093     		str	r3, [sp]
 373 002a 0023     		movs	r3, #0
 374 002c 6422     		movs	r2, #100
 375 002e 1349     		ldr	r1, .L23+20
 376 0030 1348     		ldr	r0, .L23+24
 377 0032 FFF7FEFF 		bl	xTaskCreate
 378              	.LVL45:
 121:main.c        ****     
 379              		.loc 1 121 0
 380 0036 134B     		ldr	r3, .L23+28
 381 0038 0193     		str	r3, [sp, #4]
 382 003a 0423     		movs	r3, #4
 383 003c 0093     		str	r3, [sp]
 384 003e 0023     		movs	r3, #0
 385 0040 6422     		movs	r2, #100
 386 0042 1149     		ldr	r1, .L23+32
 387 0044 1148     		ldr	r0, .L23+36
 388 0046 FFF7FEFF 		bl	xTaskCreate
 389              	.LVL46:
 123:main.c        ****     
 390              		.loc 1 123 0
 391 004a FFF7FEFF 		bl	prvHardwareSetup
 392              	.LVL47:
 126:main.c        ****     ADC_Start();
 393              		.loc 1 126 0
 394 004e FFF7FEFF 		bl	SW_ISR_Start
 395              	.LVL48:
 127:main.c        ****     ADC_StartConvert();
 396              		.loc 1 127 0
 397 0052 FFF7FEFF 		bl	ADC_Start
 398              	.LVL49:
 128:main.c        ****     ADC_ISR_Start();    
 399              		.loc 1 128 0
 400 0056 FFF7FEFF 		bl	ADC_StartConvert
 401              	.LVL50:
 129:main.c        ****     
 402              		.loc 1 129 0
 403 005a FFF7FEFF 		bl	ADC_ISR_Start
 404              	.LVL51:
ARM GAS  C:\Users\HELLOK~1\AppData\Local\Temp\cca1rgQ9.s 			page 11


 131:main.c        **** 
 405              		.loc 1 131 0
 406              		.syntax divided
 407              	@ 131 "main.c" 1
 408 005e 62B6     		CPSIE   i
 409              	@ 0 "" 2
 133:main.c        **** 
 410              		.loc 1 133 0
 411              		.thumb
 412              		.syntax unified
 413 0060 FFF7FEFF 		bl	vTaskStartScheduler
 414              	.LVL52:
 415              	.L22:
 416 0064 FEE7     		b	.L22
 417              	.L24:
 418 0066 C046     		.align	2
 419              	.L23:
 420 0068 00000000 		.word	adc_mutex
 421 006c 00000000 		.word	blink_task
 422 0070 00000000 		.word	.LC7
 423 0074 00000000 		.word	vBlinkTaskRed
 424 0078 00000000 		.word	lcd_task
 425 007c 0C000000 		.word	.LC11
 426 0080 00000000 		.word	vUpdateLCDTask
 427 0084 00000000 		.word	motor_task
 428 0088 18000000 		.word	.LC15
 429 008c 00000000 		.word	vSpinMotorTask
 430              		.cfi_endproc
 431              	.LFE37:
 432              		.size	main, .-main
 433              		.section	.text.vApplicationStackOverflowHook,"ax",%progbits
 434              		.align	2
 435              		.global	vApplicationStackOverflowHook
 436              		.code	16
 437              		.thumb_func
 438              		.type	vApplicationStackOverflowHook, %function
 439              	vApplicationStackOverflowHook:
 440              	.LFB39:
 157:main.c        **** 
 158:main.c        **** void vApplicationStackOverflowHook( TaskHandle_t pxTask, char *pcTaskName )
 159:main.c        **** {
 441              		.loc 1 159 0
 442              		.cfi_startproc
 443              		@ Volatile: function does not return.
 444              		@ args = 0, pretend = 0, frame = 0
 445              		@ frame_needed = 0, uses_anonymous_args = 0
 446              		@ link register save eliminated.
 447              	.LVL53:
 160:main.c        **** 	/* The stack space has been execeeded for a task, considering allocating more. */
 161:main.c        **** 	taskDISABLE_INTERRUPTS();
 448              		.loc 1 161 0
 449              		.syntax divided
 450              	@ 161 "main.c" 1
 451 0000 72B6     		 cpsid i 
 452              	@ 0 "" 2
 453              		.thumb
 454              		.syntax unified
ARM GAS  C:\Users\HELLOK~1\AppData\Local\Temp\cca1rgQ9.s 			page 12


 455              	.L26:
 456 0002 FEE7     		b	.L26
 457              		.cfi_endproc
 458              	.LFE39:
 459              		.size	vApplicationStackOverflowHook, .-vApplicationStackOverflowHook
 460              		.section	.text.vApplicationMallocFailedHook,"ax",%progbits
 461              		.align	2
 462              		.global	vApplicationMallocFailedHook
 463              		.code	16
 464              		.thumb_func
 465              		.type	vApplicationMallocFailedHook, %function
 466              	vApplicationMallocFailedHook:
 467              	.LFB40:
 162:main.c        ****     
 163:main.c        **** 	for( ;; );
 164:main.c        **** }
 165:main.c        **** 
 166:main.c        **** void vApplicationMallocFailedHook( void )
 167:main.c        **** {
 468              		.loc 1 167 0
 469              		.cfi_startproc
 470              		@ Volatile: function does not return.
 471              		@ args = 0, pretend = 0, frame = 0
 472              		@ frame_needed = 0, uses_anonymous_args = 0
 473              		@ link register save eliminated.
 168:main.c        **** 	/* The heap space has been execeeded. */
 169:main.c        **** 	taskDISABLE_INTERRUPTS();
 474              		.loc 1 169 0
 475              		.syntax divided
 476              	@ 169 "main.c" 1
 477 0000 72B6     		 cpsid i 
 478              	@ 0 "" 2
 479              		.thumb
 480              		.syntax unified
 481              	.L28:
 482 0002 FEE7     		b	.L28
 483              		.cfi_endproc
 484              	.LFE40:
 485              		.size	vApplicationMallocFailedHook, .-vApplicationMallocFailedHook
 486              		.comm	adcDV,2,2
 487              		.comm	motor_task,4,4
 488              		.comm	lcd_task,4,4
 489              		.comm	blink_task,4,4
 490              		.comm	adc_mutex,4,4
 491              		.section	.rodata.str1.4,"aMS",%progbits,1
 492              		.align	2
 493              	.LC7:
 494 0000 426C696E 		.ascii	"BlinkRed\000"
 494      6B526564 
 494      00
 495 0009 000000   		.space	3
 496              	.LC11:
 497 000c 55706461 		.ascii	"UpdateLCD\000"
 497      74654C43 
 497      4400
 498 0016 0000     		.space	2
 499              	.LC15:
ARM GAS  C:\Users\HELLOK~1\AppData\Local\Temp\cca1rgQ9.s 			page 13


 500 0018 5370696E 		.ascii	"SpinMotor\000"
 500      4D6F746F 
 500      7200
 501              		.text
 502              	.Letext0:
 503              		.file 2 "c:\\program files (x86)\\cypress\\psoc creator\\4.2\\psoc creator\\import\\gnu\\arm\\5.4.
 504              		.file 3 "c:\\program files (x86)\\cypress\\psoc creator\\4.2\\psoc creator\\import\\gnu\\arm\\5.4.
 505              		.file 4 "Generated_Source\\PSoC4/cytypes.h"
 506              		.file 5 ".\\FreeRTOS\\Include/portmacro.h"
 507              		.file 6 ".\\FreeRTOS\\Include/task.h"
 508              		.file 7 ".\\FreeRTOS\\Include/queue.h"
 509              		.file 8 ".\\FreeRTOS\\Include/semphr.h"
 510              		.file 9 "Generated_Source\\PSoC4/R_LED.h"
 511              		.file 10 "Generated_Source\\PSoC4/LCD.h"
 512              		.file 11 "Generated_Source\\PSoC4/MOTOR.h"
 513              		.file 12 "Generated_Source\\PSoC4/SW_ISR.h"
 514              		.file 13 "Generated_Source\\PSoC4/ADC.h"
 515              		.file 14 "Generated_Source\\PSoC4/ADC_ISR.h"