ARM GAS  C:\Users\HELLOK~1\AppData\Local\Temp\ccBTPaK1.s 			page 1


   1              		.syntax unified
   2              		.cpu cortex-m0
   3              		.fpu softvfp
   4              		.eabi_attribute 20, 1
   5              		.eabi_attribute 21, 1
   6              		.eabi_attribute 23, 3
   7              		.eabi_attribute 24, 1
   8              		.eabi_attribute 25, 1
   9              		.eabi_attribute 26, 1
  10              		.eabi_attribute 30, 1
  11              		.eabi_attribute 34, 0
  12              		.eabi_attribute 18, 4
  13              		.thumb
  14              		.syntax unified
  15              		.file	"port.c"
  16              		.text
  17              	.Ltext0:
  18              		.cfi_sections	.debug_frame
  19              		.section	.text.prvTaskExitError,"ax",%progbits
  20              		.align	2
  21              		.code	16
  22              		.thumb_func
  23              		.type	prvTaskExitError, %function
  24              	prvTaskExitError:
  25              	.LFB35:
  26              		.file 1 "FreeRTOS\\Source\\port.c"
   1:FreeRTOS\Source/port.c **** /*
   2:FreeRTOS\Source/port.c ****  * FreeRTOS Kernel V10.5.1
   3:FreeRTOS\Source/port.c ****  * Copyright (C) 2021 Amazon.com, Inc. or its affiliates.  All Rights Reserved.
   4:FreeRTOS\Source/port.c ****  *
   5:FreeRTOS\Source/port.c ****  * SPDX-License-Identifier: MIT
   6:FreeRTOS\Source/port.c ****  *
   7:FreeRTOS\Source/port.c ****  * Permission is hereby granted, free of charge, to any person obtaining a copy of
   8:FreeRTOS\Source/port.c ****  * this software and associated documentation files (the "Software"), to deal in
   9:FreeRTOS\Source/port.c ****  * the Software without restriction, including without limitation the rights to
  10:FreeRTOS\Source/port.c ****  * use, copy, modify, merge, publish, distribute, sublicense, and/or sell copies of
  11:FreeRTOS\Source/port.c ****  * the Software, and to permit persons to whom the Software is furnished to do so,
  12:FreeRTOS\Source/port.c ****  * subject to the following conditions:
  13:FreeRTOS\Source/port.c ****  *
  14:FreeRTOS\Source/port.c ****  * The above copyright notice and this permission notice shall be included in all
  15:FreeRTOS\Source/port.c ****  * copies or substantial portions of the Software.
  16:FreeRTOS\Source/port.c ****  *
  17:FreeRTOS\Source/port.c ****  * THE SOFTWARE IS PROVIDED "AS IS", WITHOUT WARRANTY OF ANY KIND, EXPRESS OR
  18:FreeRTOS\Source/port.c ****  * IMPLIED, INCLUDING BUT NOT LIMITED TO THE WARRANTIES OF MERCHANTABILITY, FITNESS
  19:FreeRTOS\Source/port.c ****  * FOR A PARTICULAR PURPOSE AND NONINFRINGEMENT. IN NO EVENT SHALL THE AUTHORS OR
  20:FreeRTOS\Source/port.c ****  * COPYRIGHT HOLDERS BE LIABLE FOR ANY CLAIM, DAMAGES OR OTHER LIABILITY, WHETHER
  21:FreeRTOS\Source/port.c ****  * IN AN ACTION OF CONTRACT, TORT OR OTHERWISE, ARISING FROM, OUT OF OR IN
  22:FreeRTOS\Source/port.c ****  * CONNECTION WITH THE SOFTWARE OR THE USE OR OTHER DEALINGS IN THE SOFTWARE.
  23:FreeRTOS\Source/port.c ****  *
  24:FreeRTOS\Source/port.c ****  * https://www.FreeRTOS.org
  25:FreeRTOS\Source/port.c ****  * https://github.com/FreeRTOS
  26:FreeRTOS\Source/port.c ****  *
  27:FreeRTOS\Source/port.c ****  */
  28:FreeRTOS\Source/port.c **** 
  29:FreeRTOS\Source/port.c **** /*-----------------------------------------------------------
  30:FreeRTOS\Source/port.c **** * Implementation of functions defined in portable.h for the ARM CM0 port.
  31:FreeRTOS\Source/port.c **** *----------------------------------------------------------*/
ARM GAS  C:\Users\HELLOK~1\AppData\Local\Temp\ccBTPaK1.s 			page 2


  32:FreeRTOS\Source/port.c **** 
  33:FreeRTOS\Source/port.c **** /* Scheduler includes. */
  34:FreeRTOS\Source/port.c **** #include "FreeRTOS.h"
  35:FreeRTOS\Source/port.c **** #include "task.h"
  36:FreeRTOS\Source/port.c **** 
  37:FreeRTOS\Source/port.c **** /* Constants required to manipulate the NVIC. */
  38:FreeRTOS\Source/port.c **** #define portNVIC_SYSTICK_CTRL_REG             ( *( ( volatile uint32_t * ) 0xe000e010 ) )
  39:FreeRTOS\Source/port.c **** #define portNVIC_SYSTICK_LOAD_REG             ( *( ( volatile uint32_t * ) 0xe000e014 ) )
  40:FreeRTOS\Source/port.c **** #define portNVIC_SYSTICK_CURRENT_VALUE_REG    ( *( ( volatile uint32_t * ) 0xe000e018 ) )
  41:FreeRTOS\Source/port.c **** #define portNVIC_INT_CTRL_REG                 ( *( ( volatile uint32_t * ) 0xe000ed04 ) )
  42:FreeRTOS\Source/port.c **** #define portNVIC_SHPR3_REG                    ( *( ( volatile uint32_t * ) 0xe000ed20 ) )
  43:FreeRTOS\Source/port.c **** #define portNVIC_SYSTICK_CLK_BIT              ( 1UL << 2UL )
  44:FreeRTOS\Source/port.c **** #define portNVIC_SYSTICK_INT_BIT              ( 1UL << 1UL )
  45:FreeRTOS\Source/port.c **** #define portNVIC_SYSTICK_ENABLE_BIT           ( 1UL << 0UL )
  46:FreeRTOS\Source/port.c **** #define portNVIC_SYSTICK_COUNT_FLAG_BIT       ( 1UL << 16UL )
  47:FreeRTOS\Source/port.c **** #define portNVIC_PENDSVSET_BIT                ( 1UL << 28UL )
  48:FreeRTOS\Source/port.c **** #define portNVIC_PEND_SYSTICK_SET_BIT         ( 1UL << 26UL )
  49:FreeRTOS\Source/port.c **** #define portNVIC_PEND_SYSTICK_CLEAR_BIT       ( 1UL << 25UL )
  50:FreeRTOS\Source/port.c **** #define portMIN_INTERRUPT_PRIORITY            ( 255UL )
  51:FreeRTOS\Source/port.c **** #define portNVIC_PENDSV_PRI                   ( portMIN_INTERRUPT_PRIORITY << 16UL )
  52:FreeRTOS\Source/port.c **** #define portNVIC_SYSTICK_PRI                  ( portMIN_INTERRUPT_PRIORITY << 24UL )
  53:FreeRTOS\Source/port.c **** 
  54:FreeRTOS\Source/port.c **** /* Constants required to set up the initial stack. */
  55:FreeRTOS\Source/port.c **** #define portINITIAL_XPSR                      ( 0x01000000 )
  56:FreeRTOS\Source/port.c **** 
  57:FreeRTOS\Source/port.c **** /* The systick is a 24-bit counter. */
  58:FreeRTOS\Source/port.c **** #define portMAX_24_BIT_NUMBER                 ( 0xffffffUL )
  59:FreeRTOS\Source/port.c **** 
  60:FreeRTOS\Source/port.c **** /* A fiddle factor to estimate the number of SysTick counts that would have
  61:FreeRTOS\Source/port.c ****  * occurred while the SysTick counter is stopped during tickless idle
  62:FreeRTOS\Source/port.c ****  * calculations. */
  63:FreeRTOS\Source/port.c **** #ifndef portMISSED_COUNTS_FACTOR
  64:FreeRTOS\Source/port.c ****     #define portMISSED_COUNTS_FACTOR    ( 94UL )
  65:FreeRTOS\Source/port.c **** #endif
  66:FreeRTOS\Source/port.c **** 
  67:FreeRTOS\Source/port.c **** /* Let the user override the default SysTick clock rate.  If defined by the
  68:FreeRTOS\Source/port.c ****  * user, this symbol must equal the SysTick clock rate when the CLK bit is 0 in the
  69:FreeRTOS\Source/port.c ****  * configuration register. */
  70:FreeRTOS\Source/port.c **** #ifndef configSYSTICK_CLOCK_HZ
  71:FreeRTOS\Source/port.c ****     #define configSYSTICK_CLOCK_HZ             ( configCPU_CLOCK_HZ )
  72:FreeRTOS\Source/port.c ****     /* Ensure the SysTick is clocked at the same frequency as the core. */
  73:FreeRTOS\Source/port.c ****     #define portNVIC_SYSTICK_CLK_BIT_CONFIG    ( portNVIC_SYSTICK_CLK_BIT )
  74:FreeRTOS\Source/port.c **** #else
  75:FreeRTOS\Source/port.c ****     /* Select the option to clock SysTick not at the same frequency as the core. */
  76:FreeRTOS\Source/port.c ****     #define portNVIC_SYSTICK_CLK_BIT_CONFIG    ( 0 )
  77:FreeRTOS\Source/port.c **** #endif
  78:FreeRTOS\Source/port.c **** 
  79:FreeRTOS\Source/port.c **** /* Let the user override the pre-loading of the initial LR with the address of
  80:FreeRTOS\Source/port.c ****  * prvTaskExitError() in case it messes up unwinding of the stack in the
  81:FreeRTOS\Source/port.c ****  * debugger. */
  82:FreeRTOS\Source/port.c **** #ifdef configTASK_RETURN_ADDRESS
  83:FreeRTOS\Source/port.c ****     #define portTASK_RETURN_ADDRESS    configTASK_RETURN_ADDRESS
  84:FreeRTOS\Source/port.c **** #else
  85:FreeRTOS\Source/port.c ****     #define portTASK_RETURN_ADDRESS    prvTaskExitError
  86:FreeRTOS\Source/port.c **** #endif
  87:FreeRTOS\Source/port.c **** 
  88:FreeRTOS\Source/port.c **** /*
ARM GAS  C:\Users\HELLOK~1\AppData\Local\Temp\ccBTPaK1.s 			page 3


  89:FreeRTOS\Source/port.c ****  * Setup the timer to generate the tick interrupts.  The implementation in this
  90:FreeRTOS\Source/port.c ****  * file is weak to allow application writers to change the timer used to
  91:FreeRTOS\Source/port.c ****  * generate the tick interrupt.
  92:FreeRTOS\Source/port.c ****  */
  93:FreeRTOS\Source/port.c **** void vPortSetupTimerInterrupt( void );
  94:FreeRTOS\Source/port.c **** 
  95:FreeRTOS\Source/port.c **** /*
  96:FreeRTOS\Source/port.c ****  * Exception handlers.
  97:FreeRTOS\Source/port.c ****  */
  98:FreeRTOS\Source/port.c **** void xPortPendSVHandler( void ) __attribute__( ( naked ) );
  99:FreeRTOS\Source/port.c **** void xPortSysTickHandler( void );
 100:FreeRTOS\Source/port.c **** void vPortSVCHandler( void );
 101:FreeRTOS\Source/port.c **** 
 102:FreeRTOS\Source/port.c **** /*
 103:FreeRTOS\Source/port.c ****  * Start first task is a separate function so it can be tested in isolation.
 104:FreeRTOS\Source/port.c ****  */
 105:FreeRTOS\Source/port.c **** static void vPortStartFirstTask( void ) __attribute__( ( naked ) );
 106:FreeRTOS\Source/port.c **** 
 107:FreeRTOS\Source/port.c **** /*
 108:FreeRTOS\Source/port.c ****  * Used to catch tasks that attempt to return from their implementing function.
 109:FreeRTOS\Source/port.c ****  */
 110:FreeRTOS\Source/port.c **** static void prvTaskExitError( void );
 111:FreeRTOS\Source/port.c **** 
 112:FreeRTOS\Source/port.c **** /*-----------------------------------------------------------*/
 113:FreeRTOS\Source/port.c **** 
 114:FreeRTOS\Source/port.c **** /* Each task maintains its own interrupt status in the critical nesting
 115:FreeRTOS\Source/port.c ****  * variable. */
 116:FreeRTOS\Source/port.c **** static UBaseType_t uxCriticalNesting = 0xaaaaaaaa;
 117:FreeRTOS\Source/port.c **** 
 118:FreeRTOS\Source/port.c **** /*-----------------------------------------------------------*/
 119:FreeRTOS\Source/port.c **** 
 120:FreeRTOS\Source/port.c **** /*
 121:FreeRTOS\Source/port.c ****  * The number of SysTick increments that make up one tick period.
 122:FreeRTOS\Source/port.c ****  */
 123:FreeRTOS\Source/port.c **** #if ( configUSE_TICKLESS_IDLE == 1 )
 124:FreeRTOS\Source/port.c ****     static uint32_t ulTimerCountsForOneTick = 0;
 125:FreeRTOS\Source/port.c **** #endif /* configUSE_TICKLESS_IDLE */
 126:FreeRTOS\Source/port.c **** 
 127:FreeRTOS\Source/port.c **** /*
 128:FreeRTOS\Source/port.c ****  * The maximum number of tick periods that can be suppressed is limited by the
 129:FreeRTOS\Source/port.c ****  * 24 bit resolution of the SysTick timer.
 130:FreeRTOS\Source/port.c ****  */
 131:FreeRTOS\Source/port.c **** #if ( configUSE_TICKLESS_IDLE == 1 )
 132:FreeRTOS\Source/port.c ****     static uint32_t xMaximumPossibleSuppressedTicks = 0;
 133:FreeRTOS\Source/port.c **** #endif /* configUSE_TICKLESS_IDLE */
 134:FreeRTOS\Source/port.c **** 
 135:FreeRTOS\Source/port.c **** /*
 136:FreeRTOS\Source/port.c ****  * Compensate for the CPU cycles that pass while the SysTick is stopped (low
 137:FreeRTOS\Source/port.c ****  * power functionality only.
 138:FreeRTOS\Source/port.c ****  */
 139:FreeRTOS\Source/port.c **** #if ( configUSE_TICKLESS_IDLE == 1 )
 140:FreeRTOS\Source/port.c ****     static uint32_t ulStoppedTimerCompensation = 0;
 141:FreeRTOS\Source/port.c **** #endif /* configUSE_TICKLESS_IDLE */
 142:FreeRTOS\Source/port.c **** 
 143:FreeRTOS\Source/port.c **** /*-----------------------------------------------------------*/
 144:FreeRTOS\Source/port.c **** 
 145:FreeRTOS\Source/port.c **** /*
ARM GAS  C:\Users\HELLOK~1\AppData\Local\Temp\ccBTPaK1.s 			page 4


 146:FreeRTOS\Source/port.c ****  * See header file for description.
 147:FreeRTOS\Source/port.c ****  */
 148:FreeRTOS\Source/port.c **** StackType_t * pxPortInitialiseStack( StackType_t * pxTopOfStack,
 149:FreeRTOS\Source/port.c ****                                      TaskFunction_t pxCode,
 150:FreeRTOS\Source/port.c ****                                      void * pvParameters )
 151:FreeRTOS\Source/port.c **** {
 152:FreeRTOS\Source/port.c ****     /* Simulate the stack frame as it would be created by a context switch
 153:FreeRTOS\Source/port.c ****      * interrupt. */
 154:FreeRTOS\Source/port.c ****     pxTopOfStack--;                                          /* Offset added to account for the way
 155:FreeRTOS\Source/port.c ****     *pxTopOfStack = portINITIAL_XPSR;                        /* xPSR */
 156:FreeRTOS\Source/port.c ****     pxTopOfStack--;
 157:FreeRTOS\Source/port.c ****     *pxTopOfStack = ( StackType_t ) pxCode;                  /* PC */
 158:FreeRTOS\Source/port.c ****     pxTopOfStack--;
 159:FreeRTOS\Source/port.c ****     *pxTopOfStack = ( StackType_t ) portTASK_RETURN_ADDRESS; /* LR */
 160:FreeRTOS\Source/port.c ****     pxTopOfStack -= 5;                                       /* R12, R3, R2 and R1. */
 161:FreeRTOS\Source/port.c ****     *pxTopOfStack = ( StackType_t ) pvParameters;            /* R0 */
 162:FreeRTOS\Source/port.c ****     pxTopOfStack -= 8;                                       /* R11..R4. */
 163:FreeRTOS\Source/port.c **** 
 164:FreeRTOS\Source/port.c ****     return pxTopOfStack;
 165:FreeRTOS\Source/port.c **** }
 166:FreeRTOS\Source/port.c **** /*-----------------------------------------------------------*/
 167:FreeRTOS\Source/port.c **** 
 168:FreeRTOS\Source/port.c **** static void prvTaskExitError( void )
 169:FreeRTOS\Source/port.c **** {
  27              		.loc 1 169 0
  28              		.cfi_startproc
  29              		@ args = 0, pretend = 0, frame = 8
  30              		@ frame_needed = 0, uses_anonymous_args = 0
  31              		@ link register save eliminated.
  32 0000 82B0     		sub	sp, sp, #8
  33              		.cfi_def_cfa_offset 8
 170:FreeRTOS\Source/port.c ****     volatile uint32_t ulDummy = 0UL;
  34              		.loc 1 170 0
  35 0002 0023     		movs	r3, #0
  36 0004 0193     		str	r3, [sp, #4]
 171:FreeRTOS\Source/port.c **** 
 172:FreeRTOS\Source/port.c ****     /* A function that implements a task must not exit or attempt to return to
 173:FreeRTOS\Source/port.c ****      * its caller as there is nothing to return to.  If a task wants to exit it
 174:FreeRTOS\Source/port.c ****      * should instead call vTaskDelete( NULL ).
 175:FreeRTOS\Source/port.c ****      *
 176:FreeRTOS\Source/port.c ****      * Artificially force an assert() to be triggered if configASSERT() is
 177:FreeRTOS\Source/port.c ****      * defined, then stop here so application writers can catch the error. */
 178:FreeRTOS\Source/port.c ****     configASSERT( uxCriticalNesting == ~0UL );
 179:FreeRTOS\Source/port.c ****     portDISABLE_INTERRUPTS();
  37              		.loc 1 179 0
  38              		.syntax divided
  39              	@ 179 "FreeRTOS\Source\port.c" 1
  40 0006 72B6     		 cpsid i 
  41              	@ 0 "" 2
  42              		.thumb
  43              		.syntax unified
  44              	.L2:
 180:FreeRTOS\Source/port.c **** 
 181:FreeRTOS\Source/port.c ****     while( ulDummy == 0 )
  45              		.loc 1 181 0 discriminator 1
  46 0008 019B     		ldr	r3, [sp, #4]
  47 000a 002B     		cmp	r3, #0
ARM GAS  C:\Users\HELLOK~1\AppData\Local\Temp\ccBTPaK1.s 			page 5


  48 000c FCD0     		beq	.L2
 182:FreeRTOS\Source/port.c ****     {
 183:FreeRTOS\Source/port.c ****         /* This file calls prvTaskExitError() after the scheduler has been
 184:FreeRTOS\Source/port.c ****          * started to remove a compiler warning about the function being defined
 185:FreeRTOS\Source/port.c ****          * but never called.  ulDummy is used purely to quieten other warnings
 186:FreeRTOS\Source/port.c ****          * about code appearing after this function is called - making ulDummy
 187:FreeRTOS\Source/port.c ****          * volatile makes the compiler think the function could return and
 188:FreeRTOS\Source/port.c ****          * therefore not output an 'unreachable code' warning for code that appears
 189:FreeRTOS\Source/port.c ****          * after it. */
 190:FreeRTOS\Source/port.c ****     }
 191:FreeRTOS\Source/port.c **** }
  49              		.loc 1 191 0
  50 000e 02B0     		add	sp, sp, #8
  51              		@ sp needed
  52 0010 7047     		bx	lr
  53              		.cfi_endproc
  54              	.LFE35:
  55              		.size	prvTaskExitError, .-prvTaskExitError
  56 0012 C046     		.section	.text.vPortStartFirstTask,"ax",%progbits
  57              		.align	2
  58              		.code	16
  59              		.thumb_func
  60              		.type	vPortStartFirstTask, %function
  61              	vPortStartFirstTask:
  62              	.LFB37:
 192:FreeRTOS\Source/port.c **** /*-----------------------------------------------------------*/
 193:FreeRTOS\Source/port.c **** 
 194:FreeRTOS\Source/port.c **** void vPortSVCHandler( void )
 195:FreeRTOS\Source/port.c **** {
 196:FreeRTOS\Source/port.c ****     /* This function is no longer used, but retained for backward
 197:FreeRTOS\Source/port.c ****      * compatibility. */
 198:FreeRTOS\Source/port.c **** }
 199:FreeRTOS\Source/port.c **** /*-----------------------------------------------------------*/
 200:FreeRTOS\Source/port.c **** 
 201:FreeRTOS\Source/port.c **** void vPortStartFirstTask( void )
 202:FreeRTOS\Source/port.c **** {
  63              		.loc 1 202 0
  64              		.cfi_startproc
  65              		@ Naked Function: prologue and epilogue provided by programmer.
  66              		@ args = 0, pretend = 0, frame = 0
  67              		@ frame_needed = 0, uses_anonymous_args = 0
 203:FreeRTOS\Source/port.c ****     /* The MSP stack is not reset as, unlike on M3/4 parts, there is no vector
 204:FreeRTOS\Source/port.c ****      * table offset register that can be used to locate the initial stack value.
 205:FreeRTOS\Source/port.c ****      * Not all M0 parts have the application vector table at address 0. */
 206:FreeRTOS\Source/port.c ****     __asm volatile (
  68              		.loc 1 206 0
  69              		.syntax divided
  70              	@ 206 "FreeRTOS\Source\port.c" 1
  71              			.syntax unified				
  72 0000 0B4A     		ldr  r2, pxCurrentTCBConst2	
  73 0002 1368     		ldr  r3, [r2]				
  74 0004 1868     		ldr  r0, [r3]				
  75 0006 2030     		adds r0, #32					
  76 0008 80F30988 		msr  psp, r0					
  77 000c 0220     		movs r0, #2					
  78 000e 80F31488 		msr  CONTROL, r0				
  79 0012 BFF36F8F 		isb							
ARM GAS  C:\Users\HELLOK~1\AppData\Local\Temp\ccBTPaK1.s 			page 6


  80 0016 3FBC     		pop  {r0-r5}					
  81 0018 AE46     		mov  lr, r5					
  82 001a 08BC     		pop  {r3}					
  83 001c 04BC     		pop  {r2}					
  84 001e 62B6     		cpsie i						
  85 0020 1847     		bx   r3						
  86              									
  87 0022 C046C046 		.align 4					
  87      C046C046 
  87      C046C046 
  87      C046
  88 0030 00000000 	pxCurrentTCBConst2: .word pxCurrentTCB	  
  89              	@ 0 "" 2
 207:FreeRTOS\Source/port.c ****         "	.syntax unified				\n"
 208:FreeRTOS\Source/port.c ****         "	ldr  r2, pxCurrentTCBConst2	\n"/* Obtain location of pxCurrentTCB. */
 209:FreeRTOS\Source/port.c ****         "	ldr  r3, [r2]				\n"
 210:FreeRTOS\Source/port.c ****         "	ldr  r0, [r3]				\n"/* The first item in pxCurrentTCB is the task top of stack. */
 211:FreeRTOS\Source/port.c ****         "	adds r0, #32					\n"/* Discard everything up to r0. */
 212:FreeRTOS\Source/port.c ****         "	msr  psp, r0					\n"/* This is now the new top of stack to use in the task. */
 213:FreeRTOS\Source/port.c ****         "	movs r0, #2					\n"/* Switch to the psp stack. */
 214:FreeRTOS\Source/port.c ****         "	msr  CONTROL, r0				\n"
 215:FreeRTOS\Source/port.c ****         "	isb							\n"
 216:FreeRTOS\Source/port.c ****         "	pop  {r0-r5}					\n"/* Pop the registers that are saved automatically. */
 217:FreeRTOS\Source/port.c ****         "	mov  lr, r5					\n"/* lr is now in r5. */
 218:FreeRTOS\Source/port.c ****         "	pop  {r3}					\n"/* Return address is now in r3. */
 219:FreeRTOS\Source/port.c ****         "	pop  {r2}					\n"/* Pop and discard XPSR. */
 220:FreeRTOS\Source/port.c ****         "	cpsie i						\n"/* The first task has its context and interrupts can be enabled. */
 221:FreeRTOS\Source/port.c ****         "	bx   r3						\n"/* Finally, jump to the user defined task code. */
 222:FreeRTOS\Source/port.c ****         "								\n"
 223:FreeRTOS\Source/port.c ****         "	.align 4					\n"
 224:FreeRTOS\Source/port.c ****         "pxCurrentTCBConst2: .word pxCurrentTCB	  "
 225:FreeRTOS\Source/port.c ****         );
 226:FreeRTOS\Source/port.c **** }
  90              		.loc 1 226 0
  91              		.thumb
  92              		.syntax unified
  93              		.cfi_endproc
  94              	.LFE37:
  95              		.size	vPortStartFirstTask, .-vPortStartFirstTask
  96              		.section	.text.pxPortInitialiseStack,"ax",%progbits
  97              		.align	2
  98              		.global	pxPortInitialiseStack
  99              		.code	16
 100              		.thumb_func
 101              		.type	pxPortInitialiseStack, %function
 102              	pxPortInitialiseStack:
 103              	.LFB34:
 151:FreeRTOS\Source/port.c ****     /* Simulate the stack frame as it would be created by a context switch
 104              		.loc 1 151 0
 105              		.cfi_startproc
 106              		@ args = 0, pretend = 0, frame = 0
 107              		@ frame_needed = 0, uses_anonymous_args = 0
 108              	.LVL0:
 109 0000 10B5     		push	{r4, lr}
 110              		.cfi_def_cfa_offset 8
 111              		.cfi_offset 4, -8
 112              		.cfi_offset 14, -4
ARM GAS  C:\Users\HELLOK~1\AppData\Local\Temp\ccBTPaK1.s 			page 7


 113              	.LVL1:
 155:FreeRTOS\Source/port.c ****     pxTopOfStack--;
 114              		.loc 1 155 0
 115 0002 031F     		subs	r3, r0, #4
 116              	.LVL2:
 117 0004 8024     		movs	r4, #128
 118 0006 6404     		lsls	r4, r4, #17
 119 0008 1C60     		str	r4, [r3]
 120              	.LVL3:
 157:FreeRTOS\Source/port.c ****     pxTopOfStack--;
 121              		.loc 1 157 0
 122 000a 043B     		subs	r3, r3, #4
 123 000c 1960     		str	r1, [r3]
 124              	.LVL4:
 159:FreeRTOS\Source/port.c ****     pxTopOfStack -= 5;                                       /* R12, R3, R2 and R1. */
 125              		.loc 1 159 0
 126 000e 043B     		subs	r3, r3, #4
 127 0010 0249     		ldr	r1, .L5
 128              	.LVL5:
 129 0012 1960     		str	r1, [r3]
 130              	.LVL6:
 161:FreeRTOS\Source/port.c ****     pxTopOfStack -= 8;                                       /* R11..R4. */
 131              		.loc 1 161 0
 132 0014 143B     		subs	r3, r3, #20
 133              	.LVL7:
 134 0016 1A60     		str	r2, [r3]
 162:FreeRTOS\Source/port.c **** 
 135              		.loc 1 162 0
 136 0018 4038     		subs	r0, r0, #64
 137              	.LVL8:
 165:FreeRTOS\Source/port.c **** /*-----------------------------------------------------------*/
 138              		.loc 1 165 0
 139              		@ sp needed
 140 001a 10BD     		pop	{r4, pc}
 141              	.L6:
 142              		.align	2
 143              	.L5:
 144 001c 00000000 		.word	prvTaskExitError
 145              		.cfi_endproc
 146              	.LFE34:
 147              		.size	pxPortInitialiseStack, .-pxPortInitialiseStack
 148              		.section	.text.vPortSVCHandler,"ax",%progbits
 149              		.align	2
 150              		.global	vPortSVCHandler
 151              		.code	16
 152              		.thumb_func
 153              		.type	vPortSVCHandler, %function
 154              	vPortSVCHandler:
 155              	.LFB36:
 195:FreeRTOS\Source/port.c ****     /* This function is no longer used, but retained for backward
 156              		.loc 1 195 0
 157              		.cfi_startproc
 158              		@ args = 0, pretend = 0, frame = 0
 159              		@ frame_needed = 0, uses_anonymous_args = 0
 160              		@ link register save eliminated.
 198:FreeRTOS\Source/port.c **** /*-----------------------------------------------------------*/
 161              		.loc 1 198 0
ARM GAS  C:\Users\HELLOK~1\AppData\Local\Temp\ccBTPaK1.s 			page 8


 162              		@ sp needed
 163 0000 7047     		bx	lr
 164              		.cfi_endproc
 165              	.LFE36:
 166              		.size	vPortSVCHandler, .-vPortSVCHandler
 167 0002 C046     		.section	.text.vPortEndScheduler,"ax",%progbits
 168              		.align	2
 169              		.global	vPortEndScheduler
 170              		.code	16
 171              		.thumb_func
 172              		.type	vPortEndScheduler, %function
 173              	vPortEndScheduler:
 174              	.LFB39:
 227:FreeRTOS\Source/port.c **** /*-----------------------------------------------------------*/
 228:FreeRTOS\Source/port.c **** 
 229:FreeRTOS\Source/port.c **** /*
 230:FreeRTOS\Source/port.c ****  * See header file for description.
 231:FreeRTOS\Source/port.c ****  */
 232:FreeRTOS\Source/port.c **** BaseType_t xPortStartScheduler( void )
 233:FreeRTOS\Source/port.c **** {
 234:FreeRTOS\Source/port.c ****     /* Make PendSV, CallSV and SysTick the same priority as the kernel. */
 235:FreeRTOS\Source/port.c ****     portNVIC_SHPR3_REG |= portNVIC_PENDSV_PRI;
 236:FreeRTOS\Source/port.c ****     portNVIC_SHPR3_REG |= portNVIC_SYSTICK_PRI;
 237:FreeRTOS\Source/port.c **** 
 238:FreeRTOS\Source/port.c ****     /* Start the timer that generates the tick ISR.  Interrupts are disabled
 239:FreeRTOS\Source/port.c ****      * here already. */
 240:FreeRTOS\Source/port.c ****     vPortSetupTimerInterrupt();
 241:FreeRTOS\Source/port.c **** 
 242:FreeRTOS\Source/port.c ****     /* Initialise the critical nesting count ready for the first task. */
 243:FreeRTOS\Source/port.c ****     uxCriticalNesting = 0;
 244:FreeRTOS\Source/port.c **** 
 245:FreeRTOS\Source/port.c ****     /* Start the first task. */
 246:FreeRTOS\Source/port.c ****     vPortStartFirstTask();
 247:FreeRTOS\Source/port.c **** 
 248:FreeRTOS\Source/port.c ****     /* Should never get here as the tasks will now be executing!  Call the task
 249:FreeRTOS\Source/port.c ****      * exit error function to prevent compiler warnings about a static function
 250:FreeRTOS\Source/port.c ****      * not being called in the case that the application writer overrides this
 251:FreeRTOS\Source/port.c ****      * functionality by defining configTASK_RETURN_ADDRESS.  Call
 252:FreeRTOS\Source/port.c ****      * vTaskSwitchContext() so link time optimisation does not remove the
 253:FreeRTOS\Source/port.c ****      * symbol. */
 254:FreeRTOS\Source/port.c ****     vTaskSwitchContext();
 255:FreeRTOS\Source/port.c ****     prvTaskExitError();
 256:FreeRTOS\Source/port.c **** 
 257:FreeRTOS\Source/port.c ****     /* Should not get here! */
 258:FreeRTOS\Source/port.c ****     return 0;
 259:FreeRTOS\Source/port.c **** }
 260:FreeRTOS\Source/port.c **** /*-----------------------------------------------------------*/
 261:FreeRTOS\Source/port.c **** 
 262:FreeRTOS\Source/port.c **** void vPortEndScheduler( void )
 263:FreeRTOS\Source/port.c **** {
 175              		.loc 1 263 0
 176              		.cfi_startproc
 177              		@ args = 0, pretend = 0, frame = 0
 178              		@ frame_needed = 0, uses_anonymous_args = 0
 179              		@ link register save eliminated.
 264:FreeRTOS\Source/port.c ****     /* Not implemented in ports where there is nothing to return to.
 265:FreeRTOS\Source/port.c ****      * Artificially force an assert. */
ARM GAS  C:\Users\HELLOK~1\AppData\Local\Temp\ccBTPaK1.s 			page 9


 266:FreeRTOS\Source/port.c ****     configASSERT( uxCriticalNesting == 1000UL );
 267:FreeRTOS\Source/port.c **** }
 180              		.loc 1 267 0
 181              		@ sp needed
 182 0000 7047     		bx	lr
 183              		.cfi_endproc
 184              	.LFE39:
 185              		.size	vPortEndScheduler, .-vPortEndScheduler
 186 0002 C046     		.section	.text.vPortYield,"ax",%progbits
 187              		.align	2
 188              		.global	vPortYield
 189              		.code	16
 190              		.thumb_func
 191              		.type	vPortYield, %function
 192              	vPortYield:
 193              	.LFB40:
 268:FreeRTOS\Source/port.c **** /*-----------------------------------------------------------*/
 269:FreeRTOS\Source/port.c **** 
 270:FreeRTOS\Source/port.c **** void vPortYield( void )
 271:FreeRTOS\Source/port.c **** {
 194              		.loc 1 271 0
 195              		.cfi_startproc
 196              		@ args = 0, pretend = 0, frame = 0
 197              		@ frame_needed = 0, uses_anonymous_args = 0
 198              		@ link register save eliminated.
 272:FreeRTOS\Source/port.c ****     /* Set a PendSV to request a context switch. */
 273:FreeRTOS\Source/port.c ****     portNVIC_INT_CTRL_REG = portNVIC_PENDSVSET_BIT;
 199              		.loc 1 273 0
 200 0000 8022     		movs	r2, #128
 201 0002 5205     		lsls	r2, r2, #21
 202 0004 034B     		ldr	r3, .L10
 203 0006 1A60     		str	r2, [r3]
 274:FreeRTOS\Source/port.c **** 
 275:FreeRTOS\Source/port.c ****     /* Barriers are normally not required but do ensure the code is completely
 276:FreeRTOS\Source/port.c ****      * within the specified behaviour for the architecture. */
 277:FreeRTOS\Source/port.c ****     __asm volatile ( "dsb" ::: "memory" );
 204              		.loc 1 277 0
 205              		.syntax divided
 206              	@ 277 "FreeRTOS\Source\port.c" 1
 207 0008 BFF34F8F 		dsb
 208              	@ 0 "" 2
 278:FreeRTOS\Source/port.c ****     __asm volatile ( "isb" );
 209              		.loc 1 278 0
 210              	@ 278 "FreeRTOS\Source\port.c" 1
 211 000c BFF36F8F 		isb
 212              	@ 0 "" 2
 279:FreeRTOS\Source/port.c **** }
 213              		.loc 1 279 0
 214              		.thumb
 215              		.syntax unified
 216              		@ sp needed
 217 0010 7047     		bx	lr
 218              	.L11:
 219 0012 C046     		.align	2
 220              	.L10:
 221 0014 04ED00E0 		.word	-536810236
 222              		.cfi_endproc
ARM GAS  C:\Users\HELLOK~1\AppData\Local\Temp\ccBTPaK1.s 			page 10


 223              	.LFE40:
 224              		.size	vPortYield, .-vPortYield
 225              		.section	.text.vPortEnterCritical,"ax",%progbits
 226              		.align	2
 227              		.global	vPortEnterCritical
 228              		.code	16
 229              		.thumb_func
 230              		.type	vPortEnterCritical, %function
 231              	vPortEnterCritical:
 232              	.LFB41:
 280:FreeRTOS\Source/port.c **** /*-----------------------------------------------------------*/
 281:FreeRTOS\Source/port.c **** 
 282:FreeRTOS\Source/port.c **** void vPortEnterCritical( void )
 283:FreeRTOS\Source/port.c **** {
 233              		.loc 1 283 0
 234              		.cfi_startproc
 235              		@ args = 0, pretend = 0, frame = 0
 236              		@ frame_needed = 0, uses_anonymous_args = 0
 237              		@ link register save eliminated.
 284:FreeRTOS\Source/port.c ****     portDISABLE_INTERRUPTS();
 238              		.loc 1 284 0
 239              		.syntax divided
 240              	@ 284 "FreeRTOS\Source\port.c" 1
 241 0000 72B6     		 cpsid i 
 242              	@ 0 "" 2
 285:FreeRTOS\Source/port.c ****     uxCriticalNesting++;
 243              		.loc 1 285 0
 244              		.thumb
 245              		.syntax unified
 246 0002 044A     		ldr	r2, .L13
 247 0004 1368     		ldr	r3, [r2]
 248 0006 0133     		adds	r3, r3, #1
 249 0008 1360     		str	r3, [r2]
 286:FreeRTOS\Source/port.c ****     __asm volatile ( "dsb" ::: "memory" );
 250              		.loc 1 286 0
 251              		.syntax divided
 252              	@ 286 "FreeRTOS\Source\port.c" 1
 253 000a BFF34F8F 		dsb
 254              	@ 0 "" 2
 287:FreeRTOS\Source/port.c ****     __asm volatile ( "isb" );
 255              		.loc 1 287 0
 256              	@ 287 "FreeRTOS\Source\port.c" 1
 257 000e BFF36F8F 		isb
 258              	@ 0 "" 2
 288:FreeRTOS\Source/port.c **** }
 259              		.loc 1 288 0
 260              		.thumb
 261              		.syntax unified
 262              		@ sp needed
 263 0012 7047     		bx	lr
 264              	.L14:
 265              		.align	2
 266              	.L13:
 267 0014 00000000 		.word	.LANCHOR0
 268              		.cfi_endproc
 269              	.LFE41:
 270              		.size	vPortEnterCritical, .-vPortEnterCritical
ARM GAS  C:\Users\HELLOK~1\AppData\Local\Temp\ccBTPaK1.s 			page 11


 271              		.section	.text.vPortExitCritical,"ax",%progbits
 272              		.align	2
 273              		.global	vPortExitCritical
 274              		.code	16
 275              		.thumb_func
 276              		.type	vPortExitCritical, %function
 277              	vPortExitCritical:
 278              	.LFB42:
 289:FreeRTOS\Source/port.c **** /*-----------------------------------------------------------*/
 290:FreeRTOS\Source/port.c **** 
 291:FreeRTOS\Source/port.c **** void vPortExitCritical( void )
 292:FreeRTOS\Source/port.c **** {
 279              		.loc 1 292 0
 280              		.cfi_startproc
 281              		@ args = 0, pretend = 0, frame = 0
 282              		@ frame_needed = 0, uses_anonymous_args = 0
 283              		@ link register save eliminated.
 293:FreeRTOS\Source/port.c ****     configASSERT( uxCriticalNesting );
 294:FreeRTOS\Source/port.c ****     uxCriticalNesting--;
 284              		.loc 1 294 0
 285 0000 034A     		ldr	r2, .L17
 286 0002 1368     		ldr	r3, [r2]
 287 0004 013B     		subs	r3, r3, #1
 288 0006 1360     		str	r3, [r2]
 295:FreeRTOS\Source/port.c **** 
 296:FreeRTOS\Source/port.c ****     if( uxCriticalNesting == 0 )
 289              		.loc 1 296 0
 290 0008 002B     		cmp	r3, #0
 291 000a 00D1     		bne	.L15
 297:FreeRTOS\Source/port.c ****     {
 298:FreeRTOS\Source/port.c ****         portENABLE_INTERRUPTS();
 292              		.loc 1 298 0
 293              		.syntax divided
 294              	@ 298 "FreeRTOS\Source\port.c" 1
 295 000c 62B6     		 cpsie i 
 296              	@ 0 "" 2
 297              		.thumb
 298              		.syntax unified
 299              	.L15:
 299:FreeRTOS\Source/port.c ****     }
 300:FreeRTOS\Source/port.c **** }
 300              		.loc 1 300 0
 301              		@ sp needed
 302 000e 7047     		bx	lr
 303              	.L18:
 304              		.align	2
 305              	.L17:
 306 0010 00000000 		.word	.LANCHOR0
 307              		.cfi_endproc
 308              	.LFE42:
 309              		.size	vPortExitCritical, .-vPortExitCritical
 310              		.section	.text.ulSetInterruptMaskFromISR,"ax",%progbits
 311              		.align	2
 312              		.global	ulSetInterruptMaskFromISR
 313              		.code	16
 314              		.thumb_func
 315              		.type	ulSetInterruptMaskFromISR, %function
ARM GAS  C:\Users\HELLOK~1\AppData\Local\Temp\ccBTPaK1.s 			page 12


 316              	ulSetInterruptMaskFromISR:
 317              	.LFB43:
 301:FreeRTOS\Source/port.c **** /*-----------------------------------------------------------*/
 302:FreeRTOS\Source/port.c **** 
 303:FreeRTOS\Source/port.c **** uint32_t ulSetInterruptMaskFromISR( void )
 304:FreeRTOS\Source/port.c **** {
 318              		.loc 1 304 0
 319              		.cfi_startproc
 320              		@ Naked Function: prologue and epilogue provided by programmer.
 321              		@ args = 0, pretend = 0, frame = 0
 322              		@ frame_needed = 0, uses_anonymous_args = 0
 305:FreeRTOS\Source/port.c ****     __asm volatile (
 323              		.loc 1 305 0
 324              		.syntax divided
 325              	@ 305 "FreeRTOS\Source\port.c" 1
 326 0000 EFF31080 		 mrs r0, PRIMASK	
 327 0004 72B6     	 cpsid i			
 328 0006 7047     	 bx lr				  
 329              	@ 0 "" 2
 306:FreeRTOS\Source/port.c ****         " mrs r0, PRIMASK	\n"
 307:FreeRTOS\Source/port.c ****         " cpsid i			\n"
 308:FreeRTOS\Source/port.c ****         " bx lr				  "
 309:FreeRTOS\Source/port.c ****         ::: "memory"
 310:FreeRTOS\Source/port.c ****         );
 311:FreeRTOS\Source/port.c **** }
 330              		.loc 1 311 0
 331              		.thumb
 332              		.syntax unified
 333              		.cfi_endproc
 334              	.LFE43:
 335              		.size	ulSetInterruptMaskFromISR, .-ulSetInterruptMaskFromISR
 336              		.section	.text.vClearInterruptMaskFromISR,"ax",%progbits
 337              		.align	2
 338              		.global	vClearInterruptMaskFromISR
 339              		.code	16
 340              		.thumb_func
 341              		.type	vClearInterruptMaskFromISR, %function
 342              	vClearInterruptMaskFromISR:
 343              	.LFB44:
 312:FreeRTOS\Source/port.c **** /*-----------------------------------------------------------*/
 313:FreeRTOS\Source/port.c **** 
 314:FreeRTOS\Source/port.c **** void vClearInterruptMaskFromISR( __attribute__( ( unused ) ) uint32_t ulMask )
 315:FreeRTOS\Source/port.c **** {
 344              		.loc 1 315 0
 345              		.cfi_startproc
 346              		@ Naked Function: prologue and epilogue provided by programmer.
 347              		@ args = 0, pretend = 0, frame = 0
 348              		@ frame_needed = 0, uses_anonymous_args = 0
 349              	.LVL9:
 316:FreeRTOS\Source/port.c ****     __asm volatile (
 350              		.loc 1 316 0
 351              		.syntax divided
 352              	@ 316 "FreeRTOS\Source\port.c" 1
 353 0000 80F31088 		 msr PRIMASK, r0	
 354 0004 7047     	 bx lr				  
 355              	@ 0 "" 2
 317:FreeRTOS\Source/port.c ****         " msr PRIMASK, r0	\n"
ARM GAS  C:\Users\HELLOK~1\AppData\Local\Temp\ccBTPaK1.s 			page 13


 318:FreeRTOS\Source/port.c ****         " bx lr				  "
 319:FreeRTOS\Source/port.c ****         ::: "memory"
 320:FreeRTOS\Source/port.c ****         );
 321:FreeRTOS\Source/port.c **** }
 356              		.loc 1 321 0
 357              		.thumb
 358              		.syntax unified
 359              		.cfi_endproc
 360              	.LFE44:
 361              		.size	vClearInterruptMaskFromISR, .-vClearInterruptMaskFromISR
 362 0006 C046     		.section	.text.xPortPendSVHandler,"ax",%progbits
 363              		.align	2
 364              		.global	xPortPendSVHandler
 365              		.code	16
 366              		.thumb_func
 367              		.type	xPortPendSVHandler, %function
 368              	xPortPendSVHandler:
 369              	.LFB45:
 322:FreeRTOS\Source/port.c **** /*-----------------------------------------------------------*/
 323:FreeRTOS\Source/port.c **** 
 324:FreeRTOS\Source/port.c **** void xPortPendSVHandler( void )
 325:FreeRTOS\Source/port.c **** {
 370              		.loc 1 325 0
 371              		.cfi_startproc
 372              		@ Naked Function: prologue and epilogue provided by programmer.
 373              		@ args = 0, pretend = 0, frame = 0
 374              		@ frame_needed = 0, uses_anonymous_args = 0
 326:FreeRTOS\Source/port.c ****     /* This is a naked function. */
 327:FreeRTOS\Source/port.c **** 
 328:FreeRTOS\Source/port.c ****     __asm volatile
 375              		.loc 1 328 0
 376              		.syntax divided
 377              	@ 328 "FreeRTOS\Source\port.c" 1
 378              			.syntax unified						
 379 0000 EFF30980 		mrs r0, psp							
 380              											
 381 0004 0E4B     		ldr	r3, pxCurrentTCBConst			
 382 0006 1A68     		ldr	r2, [r3]						
 383              											
 384 0008 2038     		subs r0, r0, #32					
 385 000a 1060     		str r0, [r2]						
 386 000c F0C0     		stmia r0!, {r4-r7}					
 387 000e 4446     	 	mov r4, r8							
 388 0010 4D46     	 	mov r5, r9							
 389 0012 5646     	 	mov r6, r10							
 390 0014 5F46     	 	mov r7, r11							
 391 0016 F0C0     	 	stmia r0!, {r4-r7}					
 392              											
 393 0018 08B5     		push {r3, r14}						
 394 001a 72B6     		cpsid i								
 395 001c FFF7FEFF 		bl vTaskSwitchContext				
 396 0020 62B6     		cpsie i								
 397 0022 0CBC     		pop {r2, r3}						
 398              											
 399 0024 1168     		ldr r1, [r2]						
 400 0026 0868     		ldr r0, [r1]						
 401 0028 1030     		adds r0, r0, #16					
ARM GAS  C:\Users\HELLOK~1\AppData\Local\Temp\ccBTPaK1.s 			page 14


 402 002a F0C8     		ldmia r0!, {r4-r7}					
 403 002c A046     	 	mov r8, r4							
 404 002e A946     	 	mov r9, r5							
 405 0030 B246     	 	mov r10, r6							
 406 0032 BB46     	 	mov r11, r7							
 407              											
 408 0034 80F30988 		msr psp, r0							
 409              											
 410 0038 2038     		subs r0, r0, #32					
 411 003a F0C8     	 	ldmia r0!, {r4-r7}					
 412              											
 413 003c 1847     		bx r3								
 414              											
 415 003e C046     		.align 4							
 416 0040 00000000 	pxCurrentTCBConst: .word pxCurrentTCB	  
 417              	@ 0 "" 2
 329:FreeRTOS\Source/port.c ****     (
 330:FreeRTOS\Source/port.c ****         "	.syntax unified						\n"
 331:FreeRTOS\Source/port.c ****         "	mrs r0, psp							\n"
 332:FreeRTOS\Source/port.c ****         "										\n"
 333:FreeRTOS\Source/port.c ****         "	ldr	r3, pxCurrentTCBConst			\n"/* Get the location of the current TCB. */
 334:FreeRTOS\Source/port.c ****         "	ldr	r2, [r3]						\n"
 335:FreeRTOS\Source/port.c ****         "										\n"
 336:FreeRTOS\Source/port.c ****         "	subs r0, r0, #32					\n"/* Make space for the remaining low registers. */
 337:FreeRTOS\Source/port.c ****         "	str r0, [r2]						\n"/* Save the new top of stack. */
 338:FreeRTOS\Source/port.c ****         "	stmia r0!, {r4-r7}					\n"/* Store the low registers that are not saved automatically. */
 339:FreeRTOS\Source/port.c ****         " 	mov r4, r8							\n"/* Store the high registers. */
 340:FreeRTOS\Source/port.c ****         " 	mov r5, r9							\n"
 341:FreeRTOS\Source/port.c ****         " 	mov r6, r10							\n"
 342:FreeRTOS\Source/port.c ****         " 	mov r7, r11							\n"
 343:FreeRTOS\Source/port.c ****         " 	stmia r0!, {r4-r7}					\n"
 344:FreeRTOS\Source/port.c ****         "										\n"
 345:FreeRTOS\Source/port.c ****         "	push {r3, r14}						\n"
 346:FreeRTOS\Source/port.c ****         "	cpsid i								\n"
 347:FreeRTOS\Source/port.c ****         "	bl vTaskSwitchContext				\n"
 348:FreeRTOS\Source/port.c ****         "	cpsie i								\n"
 349:FreeRTOS\Source/port.c ****         "	pop {r2, r3}						\n"/* lr goes in r3. r2 now holds tcb pointer. */
 350:FreeRTOS\Source/port.c ****         "										\n"
 351:FreeRTOS\Source/port.c ****         "	ldr r1, [r2]						\n"
 352:FreeRTOS\Source/port.c ****         "	ldr r0, [r1]						\n"/* The first item in pxCurrentTCB is the task top of stack. */
 353:FreeRTOS\Source/port.c ****         "	adds r0, r0, #16					\n"/* Move to the high registers. */
 354:FreeRTOS\Source/port.c ****         "	ldmia r0!, {r4-r7}					\n"/* Pop the high registers. */
 355:FreeRTOS\Source/port.c ****         " 	mov r8, r4							\n"
 356:FreeRTOS\Source/port.c ****         " 	mov r9, r5							\n"
 357:FreeRTOS\Source/port.c ****         " 	mov r10, r6							\n"
 358:FreeRTOS\Source/port.c ****         " 	mov r11, r7							\n"
 359:FreeRTOS\Source/port.c ****         "										\n"
 360:FreeRTOS\Source/port.c ****         "	msr psp, r0							\n"/* Remember the new top of stack for the task. */
 361:FreeRTOS\Source/port.c ****         "										\n"
 362:FreeRTOS\Source/port.c ****         "	subs r0, r0, #32					\n"/* Go back for the low registers that are not automatically resto
 363:FreeRTOS\Source/port.c ****         " 	ldmia r0!, {r4-r7}					\n"/* Pop low registers.  */
 364:FreeRTOS\Source/port.c ****         "										\n"
 365:FreeRTOS\Source/port.c ****         "	bx r3								\n"
 366:FreeRTOS\Source/port.c ****         "										\n"
 367:FreeRTOS\Source/port.c ****         "	.align 4							\n"
 368:FreeRTOS\Source/port.c ****         "pxCurrentTCBConst: .word pxCurrentTCB	  "
 369:FreeRTOS\Source/port.c ****     );
ARM GAS  C:\Users\HELLOK~1\AppData\Local\Temp\ccBTPaK1.s 			page 15


 370:FreeRTOS\Source/port.c **** }
 418              		.loc 1 370 0
 419              		.thumb
 420              		.syntax unified
 421              		.cfi_endproc
 422              	.LFE45:
 423              		.size	xPortPendSVHandler, .-xPortPendSVHandler
 424              		.section	.text.xPortSysTickHandler,"ax",%progbits
 425              		.align	2
 426              		.global	xPortSysTickHandler
 427              		.code	16
 428              		.thumb_func
 429              		.type	xPortSysTickHandler, %function
 430              	xPortSysTickHandler:
 431              	.LFB46:
 371:FreeRTOS\Source/port.c **** /*-----------------------------------------------------------*/
 372:FreeRTOS\Source/port.c **** 
 373:FreeRTOS\Source/port.c **** void xPortSysTickHandler( void )
 374:FreeRTOS\Source/port.c **** {
 432              		.loc 1 374 0
 433              		.cfi_startproc
 434              		@ args = 0, pretend = 0, frame = 0
 435              		@ frame_needed = 0, uses_anonymous_args = 0
 436 0000 10B5     		push	{r4, lr}
 437              		.cfi_def_cfa_offset 8
 438              		.cfi_offset 4, -8
 439              		.cfi_offset 14, -4
 375:FreeRTOS\Source/port.c ****     uint32_t ulPreviousMask;
 376:FreeRTOS\Source/port.c **** 
 377:FreeRTOS\Source/port.c ****     ulPreviousMask = portSET_INTERRUPT_MASK_FROM_ISR();
 440              		.loc 1 377 0
 441 0002 FFF7FEFF 		bl	ulSetInterruptMaskFromISR
 442              	.LVL10:
 443 0006 0400     		movs	r4, r0
 444              	.LVL11:
 378:FreeRTOS\Source/port.c ****     {
 379:FreeRTOS\Source/port.c ****         /* Increment the RTOS tick. */
 380:FreeRTOS\Source/port.c ****         if( xTaskIncrementTick() != pdFALSE )
 445              		.loc 1 380 0
 446 0008 FFF7FEFF 		bl	xTaskIncrementTick
 447              	.LVL12:
 448 000c 0028     		cmp	r0, #0
 449 000e 03D0     		beq	.L23
 381:FreeRTOS\Source/port.c ****         {
 382:FreeRTOS\Source/port.c ****             /* Pend a context switch. */
 383:FreeRTOS\Source/port.c ****             portNVIC_INT_CTRL_REG = portNVIC_PENDSVSET_BIT;
 450              		.loc 1 383 0
 451 0010 8022     		movs	r2, #128
 452 0012 5205     		lsls	r2, r2, #21
 453 0014 024B     		ldr	r3, .L24
 454 0016 1A60     		str	r2, [r3]
 455              	.L23:
 384:FreeRTOS\Source/port.c ****         }
 385:FreeRTOS\Source/port.c ****     }
 386:FreeRTOS\Source/port.c ****     portCLEAR_INTERRUPT_MASK_FROM_ISR( ulPreviousMask );
 456              		.loc 1 386 0
 457 0018 2000     		movs	r0, r4
ARM GAS  C:\Users\HELLOK~1\AppData\Local\Temp\ccBTPaK1.s 			page 16


 458 001a FFF7FEFF 		bl	vClearInterruptMaskFromISR
 459              	.LVL13:
 387:FreeRTOS\Source/port.c **** }
 460              		.loc 1 387 0
 461              		@ sp needed
 462              	.LVL14:
 463 001e 10BD     		pop	{r4, pc}
 464              	.L25:
 465              		.align	2
 466              	.L24:
 467 0020 04ED00E0 		.word	-536810236
 468              		.cfi_endproc
 469              	.LFE46:
 470              		.size	xPortSysTickHandler, .-xPortSysTickHandler
 471              		.section	.text.vPortSetupTimerInterrupt,"ax",%progbits
 472              		.align	2
 473              		.weak	vPortSetupTimerInterrupt
 474              		.code	16
 475              		.thumb_func
 476              		.type	vPortSetupTimerInterrupt, %function
 477              	vPortSetupTimerInterrupt:
 478              	.LFB47:
 388:FreeRTOS\Source/port.c **** /*-----------------------------------------------------------*/
 389:FreeRTOS\Source/port.c **** 
 390:FreeRTOS\Source/port.c **** /*
 391:FreeRTOS\Source/port.c ****  * Setup the systick timer to generate the tick interrupts at the required
 392:FreeRTOS\Source/port.c ****  * frequency.
 393:FreeRTOS\Source/port.c ****  */
 394:FreeRTOS\Source/port.c **** __attribute__( ( weak ) ) void vPortSetupTimerInterrupt( void )
 395:FreeRTOS\Source/port.c **** {
 479              		.loc 1 395 0
 480              		.cfi_startproc
 481              		@ args = 0, pretend = 0, frame = 0
 482              		@ frame_needed = 0, uses_anonymous_args = 0
 483              		@ link register save eliminated.
 396:FreeRTOS\Source/port.c ****     /* Calculate the constants required to configure the tick interrupt. */
 397:FreeRTOS\Source/port.c ****     #if ( configUSE_TICKLESS_IDLE == 1 )
 398:FreeRTOS\Source/port.c ****     {
 399:FreeRTOS\Source/port.c ****         ulTimerCountsForOneTick = ( configSYSTICK_CLOCK_HZ / configTICK_RATE_HZ );
 400:FreeRTOS\Source/port.c ****         xMaximumPossibleSuppressedTicks = portMAX_24_BIT_NUMBER / ulTimerCountsForOneTick;
 401:FreeRTOS\Source/port.c ****         ulStoppedTimerCompensation = portMISSED_COUNTS_FACTOR / ( configCPU_CLOCK_HZ / configSYSTIC
 402:FreeRTOS\Source/port.c ****     }
 403:FreeRTOS\Source/port.c ****     #endif /* configUSE_TICKLESS_IDLE */
 404:FreeRTOS\Source/port.c **** 
 405:FreeRTOS\Source/port.c ****     /* Stop and reset the SysTick. */
 406:FreeRTOS\Source/port.c ****     portNVIC_SYSTICK_CTRL_REG = 0UL;
 484              		.loc 1 406 0
 485 0000 054B     		ldr	r3, .L27
 486 0002 0022     		movs	r2, #0
 487 0004 1A60     		str	r2, [r3]
 407:FreeRTOS\Source/port.c ****     portNVIC_SYSTICK_CURRENT_VALUE_REG = 0UL;
 488              		.loc 1 407 0
 489 0006 0549     		ldr	r1, .L27+4
 490 0008 0A60     		str	r2, [r1]
 408:FreeRTOS\Source/port.c **** 
 409:FreeRTOS\Source/port.c ****     /* Configure SysTick to interrupt at the requested rate. */
 410:FreeRTOS\Source/port.c ****     portNVIC_SYSTICK_LOAD_REG = ( configSYSTICK_CLOCK_HZ / configTICK_RATE_HZ ) - 1UL;
ARM GAS  C:\Users\HELLOK~1\AppData\Local\Temp\ccBTPaK1.s 			page 17


 491              		.loc 1 410 0
 492 000a 0549     		ldr	r1, .L27+8
 493 000c 054A     		ldr	r2, .L27+12
 494 000e 1160     		str	r1, [r2]
 411:FreeRTOS\Source/port.c ****     portNVIC_SYSTICK_CTRL_REG = ( portNVIC_SYSTICK_CLK_BIT_CONFIG | portNVIC_SYSTICK_INT_BIT | port
 495              		.loc 1 411 0
 496 0010 0722     		movs	r2, #7
 497 0012 1A60     		str	r2, [r3]
 412:FreeRTOS\Source/port.c **** }
 498              		.loc 1 412 0
 499              		@ sp needed
 500 0014 7047     		bx	lr
 501              	.L28:
 502 0016 C046     		.align	2
 503              	.L27:
 504 0018 10E000E0 		.word	-536813552
 505 001c 18E000E0 		.word	-536813544
 506 0020 7FBB0000 		.word	47999
 507 0024 14E000E0 		.word	-536813548
 508              		.cfi_endproc
 509              	.LFE47:
 510              		.size	vPortSetupTimerInterrupt, .-vPortSetupTimerInterrupt
 511              		.section	.text.xPortStartScheduler,"ax",%progbits
 512              		.align	2
 513              		.global	xPortStartScheduler
 514              		.code	16
 515              		.thumb_func
 516              		.type	xPortStartScheduler, %function
 517              	xPortStartScheduler:
 518              	.LFB38:
 233:FreeRTOS\Source/port.c ****     /* Make PendSV, CallSV and SysTick the same priority as the kernel. */
 519              		.loc 1 233 0
 520              		.cfi_startproc
 521              		@ args = 0, pretend = 0, frame = 0
 522              		@ frame_needed = 0, uses_anonymous_args = 0
 523 0000 10B5     		push	{r4, lr}
 524              		.cfi_def_cfa_offset 8
 525              		.cfi_offset 4, -8
 526              		.cfi_offset 14, -4
 235:FreeRTOS\Source/port.c ****     portNVIC_SHPR3_REG |= portNVIC_SYSTICK_PRI;
 527              		.loc 1 235 0
 528 0002 0C4B     		ldr	r3, .L30
 529 0004 1A68     		ldr	r2, [r3]
 530 0006 FF21     		movs	r1, #255
 531 0008 0904     		lsls	r1, r1, #16
 532 000a 0A43     		orrs	r2, r1
 533 000c 1A60     		str	r2, [r3]
 236:FreeRTOS\Source/port.c **** 
 534              		.loc 1 236 0
 535 000e 1A68     		ldr	r2, [r3]
 536 0010 FF21     		movs	r1, #255
 537 0012 0906     		lsls	r1, r1, #24
 538 0014 0A43     		orrs	r2, r1
 539 0016 1A60     		str	r2, [r3]
 240:FreeRTOS\Source/port.c **** 
 540              		.loc 1 240 0
 541 0018 FFF7FEFF 		bl	vPortSetupTimerInterrupt
ARM GAS  C:\Users\HELLOK~1\AppData\Local\Temp\ccBTPaK1.s 			page 18


 542              	.LVL15:
 243:FreeRTOS\Source/port.c **** 
 543              		.loc 1 243 0
 544 001c 0022     		movs	r2, #0
 545 001e 064B     		ldr	r3, .L30+4
 546 0020 1A60     		str	r2, [r3]
 246:FreeRTOS\Source/port.c **** 
 547              		.loc 1 246 0
 548 0022 FFF7FEFF 		bl	vPortStartFirstTask
 549              	.LVL16:
 254:FreeRTOS\Source/port.c ****     prvTaskExitError();
 550              		.loc 1 254 0
 551 0026 FFF7FEFF 		bl	vTaskSwitchContext
 552              	.LVL17:
 255:FreeRTOS\Source/port.c **** 
 553              		.loc 1 255 0
 554 002a FFF7FEFF 		bl	prvTaskExitError
 555              	.LVL18:
 259:FreeRTOS\Source/port.c **** /*-----------------------------------------------------------*/
 556              		.loc 1 259 0
 557 002e 0020     		movs	r0, #0
 558              		@ sp needed
 559 0030 10BD     		pop	{r4, pc}
 560              	.L31:
 561 0032 C046     		.align	2
 562              	.L30:
 563 0034 20ED00E0 		.word	-536810208
 564 0038 00000000 		.word	.LANCHOR0
 565              		.cfi_endproc
 566              	.LFE38:
 567              		.size	xPortStartScheduler, .-xPortStartScheduler
 568              		.data
 569              		.align	2
 570              		.set	.LANCHOR0,. + 0
 571              		.type	uxCriticalNesting, %object
 572              		.size	uxCriticalNesting, 4
 573              	uxCriticalNesting:
 574 0000 AAAAAAAA 		.word	-1431655766
 575              		.text
 576              	.Letext0:
 577              		.file 2 "c:\\program files (x86)\\cypress\\psoc creator\\4.2\\psoc creator\\import\\gnu\\arm\\5.4.
 578              		.file 3 "c:\\program files (x86)\\cypress\\psoc creator\\4.2\\psoc creator\\import\\gnu\\arm\\5.4.
 579              		.file 4 ".\\FreeRTOS\\Include/projdefs.h"
 580              		.file 5 ".\\FreeRTOS\\Include/portmacro.h"
 581              		.file 6 ".\\FreeRTOS\\Include/task.h"