ARM GAS  C:\Users\HELLOK~1\AppData\Local\Temp\ccND4Iqi.s 			page 1


   1              		.syntax unified
   2              		.cpu cortex-m0
   3              		.fpu softvfp
   4              		.eabi_attribute 20, 1
   5              		.eabi_attribute 21, 1
   6              		.eabi_attribute 23, 3
   7              		.eabi_attribute 24, 1
   8              		.eabi_attribute 25, 1
   9              		.eabi_attribute 26, 1
  10              		.eabi_attribute 30, 1
  11              		.eabi_attribute 34, 0
  12              		.eabi_attribute 18, 4
  13              		.thumb
  14              		.syntax unified
  15              		.file	"ACCEL_ISR.c"
  16              		.text
  17              	.Ltext0:
  18              		.cfi_sections	.debug_frame
  19              		.section	.text.ACCEL_ISR_Interrupt,"ax",%progbits
  20              		.align	2
  21              		.global	ACCEL_ISR_Interrupt
  22              		.code	16
  23              		.thumb_func
  24              		.type	ACCEL_ISR_Interrupt, %function
  25              	ACCEL_ISR_Interrupt:
  26              	.LFB4:
  27              		.file 1 "Generated_Source\\PSoC4\\ACCEL_ISR.c"
   1:Generated_Source\PSoC4/ACCEL_ISR.c **** /*******************************************************************************
   2:Generated_Source\PSoC4/ACCEL_ISR.c **** * File Name: ACCEL_ISR.c  
   3:Generated_Source\PSoC4/ACCEL_ISR.c **** * Version 1.71
   4:Generated_Source\PSoC4/ACCEL_ISR.c **** *
   5:Generated_Source\PSoC4/ACCEL_ISR.c **** *  Description:
   6:Generated_Source\PSoC4/ACCEL_ISR.c **** *   API for controlling the state of an interrupt.
   7:Generated_Source\PSoC4/ACCEL_ISR.c **** *
   8:Generated_Source\PSoC4/ACCEL_ISR.c **** *
   9:Generated_Source\PSoC4/ACCEL_ISR.c **** *  Note:
  10:Generated_Source\PSoC4/ACCEL_ISR.c **** *
  11:Generated_Source\PSoC4/ACCEL_ISR.c **** ********************************************************************************
  12:Generated_Source\PSoC4/ACCEL_ISR.c **** * Copyright 2008-2015, Cypress Semiconductor Corporation.  All rights reserved.
  13:Generated_Source\PSoC4/ACCEL_ISR.c **** * You may use this file only in accordance with the license, terms, conditions, 
  14:Generated_Source\PSoC4/ACCEL_ISR.c **** * disclaimers, and limitations in the end user license agreement accompanying 
  15:Generated_Source\PSoC4/ACCEL_ISR.c **** * the software package with which this file was provided.
  16:Generated_Source\PSoC4/ACCEL_ISR.c **** *******************************************************************************/
  17:Generated_Source\PSoC4/ACCEL_ISR.c **** 
  18:Generated_Source\PSoC4/ACCEL_ISR.c **** 
  19:Generated_Source\PSoC4/ACCEL_ISR.c **** #include <cydevice_trm.h>
  20:Generated_Source\PSoC4/ACCEL_ISR.c **** #include <CyLib.h>
  21:Generated_Source\PSoC4/ACCEL_ISR.c **** #include <ACCEL_ISR.h>
  22:Generated_Source\PSoC4/ACCEL_ISR.c **** #include "cyapicallbacks.h"
  23:Generated_Source\PSoC4/ACCEL_ISR.c **** 
  24:Generated_Source\PSoC4/ACCEL_ISR.c **** #if !defined(ACCEL_ISR__REMOVED) /* Check for removal by optimization */
  25:Generated_Source\PSoC4/ACCEL_ISR.c **** 
  26:Generated_Source\PSoC4/ACCEL_ISR.c **** /*******************************************************************************
  27:Generated_Source\PSoC4/ACCEL_ISR.c **** *  Place your includes, defines and code here 
  28:Generated_Source\PSoC4/ACCEL_ISR.c **** ********************************************************************************/
  29:Generated_Source\PSoC4/ACCEL_ISR.c **** /* `#START ACCEL_ISR_intc` */
  30:Generated_Source\PSoC4/ACCEL_ISR.c **** extern int accelFlag;
ARM GAS  C:\Users\HELLOK~1\AppData\Local\Temp\ccND4Iqi.s 			page 2


  31:Generated_Source\PSoC4/ACCEL_ISR.c **** #include <ACCEL_INT.h>
  32:Generated_Source\PSoC4/ACCEL_ISR.c **** /* `#END` */
  33:Generated_Source\PSoC4/ACCEL_ISR.c **** 
  34:Generated_Source\PSoC4/ACCEL_ISR.c **** extern cyisraddress CyRamVectors[CYINT_IRQ_BASE + CY_NUM_INTERRUPTS];
  35:Generated_Source\PSoC4/ACCEL_ISR.c **** 
  36:Generated_Source\PSoC4/ACCEL_ISR.c **** /* Declared in startup, used to set unused interrupts to. */
  37:Generated_Source\PSoC4/ACCEL_ISR.c **** CY_ISR_PROTO(IntDefaultHandler);
  38:Generated_Source\PSoC4/ACCEL_ISR.c **** 
  39:Generated_Source\PSoC4/ACCEL_ISR.c **** 
  40:Generated_Source\PSoC4/ACCEL_ISR.c **** /*******************************************************************************
  41:Generated_Source\PSoC4/ACCEL_ISR.c **** * Function Name: ACCEL_ISR_Start
  42:Generated_Source\PSoC4/ACCEL_ISR.c **** ********************************************************************************
  43:Generated_Source\PSoC4/ACCEL_ISR.c **** *
  44:Generated_Source\PSoC4/ACCEL_ISR.c **** * Summary:
  45:Generated_Source\PSoC4/ACCEL_ISR.c **** *  Set up the interrupt and enable it. This function disables the interrupt, 
  46:Generated_Source\PSoC4/ACCEL_ISR.c **** *  sets the default interrupt vector, sets the priority from the value in the
  47:Generated_Source\PSoC4/ACCEL_ISR.c **** *  Design Wide Resources Interrupt Editor, then enables the interrupt to the 
  48:Generated_Source\PSoC4/ACCEL_ISR.c **** *  interrupt controller.
  49:Generated_Source\PSoC4/ACCEL_ISR.c **** *
  50:Generated_Source\PSoC4/ACCEL_ISR.c **** * Parameters:  
  51:Generated_Source\PSoC4/ACCEL_ISR.c **** *   None
  52:Generated_Source\PSoC4/ACCEL_ISR.c **** *
  53:Generated_Source\PSoC4/ACCEL_ISR.c **** * Return:
  54:Generated_Source\PSoC4/ACCEL_ISR.c **** *   None
  55:Generated_Source\PSoC4/ACCEL_ISR.c **** *
  56:Generated_Source\PSoC4/ACCEL_ISR.c **** *******************************************************************************/
  57:Generated_Source\PSoC4/ACCEL_ISR.c **** void ACCEL_ISR_Start(void)
  58:Generated_Source\PSoC4/ACCEL_ISR.c **** {
  59:Generated_Source\PSoC4/ACCEL_ISR.c ****     /* For all we know the interrupt is active. */
  60:Generated_Source\PSoC4/ACCEL_ISR.c ****     ACCEL_ISR_Disable();
  61:Generated_Source\PSoC4/ACCEL_ISR.c **** 
  62:Generated_Source\PSoC4/ACCEL_ISR.c ****     /* Set the ISR to point to the ACCEL_ISR Interrupt. */
  63:Generated_Source\PSoC4/ACCEL_ISR.c ****     ACCEL_ISR_SetVector(&ACCEL_ISR_Interrupt);
  64:Generated_Source\PSoC4/ACCEL_ISR.c **** 
  65:Generated_Source\PSoC4/ACCEL_ISR.c ****     /* Set the priority. */
  66:Generated_Source\PSoC4/ACCEL_ISR.c ****     ACCEL_ISR_SetPriority((uint8)ACCEL_ISR_INTC_PRIOR_NUMBER);
  67:Generated_Source\PSoC4/ACCEL_ISR.c **** 
  68:Generated_Source\PSoC4/ACCEL_ISR.c ****     /* Enable it. */
  69:Generated_Source\PSoC4/ACCEL_ISR.c ****     ACCEL_ISR_Enable();
  70:Generated_Source\PSoC4/ACCEL_ISR.c **** }
  71:Generated_Source\PSoC4/ACCEL_ISR.c **** 
  72:Generated_Source\PSoC4/ACCEL_ISR.c **** 
  73:Generated_Source\PSoC4/ACCEL_ISR.c **** /*******************************************************************************
  74:Generated_Source\PSoC4/ACCEL_ISR.c **** * Function Name: ACCEL_ISR_StartEx
  75:Generated_Source\PSoC4/ACCEL_ISR.c **** ********************************************************************************
  76:Generated_Source\PSoC4/ACCEL_ISR.c **** *
  77:Generated_Source\PSoC4/ACCEL_ISR.c **** * Summary:
  78:Generated_Source\PSoC4/ACCEL_ISR.c **** *  Sets up the interrupt and enables it. This function disables the interrupt,
  79:Generated_Source\PSoC4/ACCEL_ISR.c **** *  sets the interrupt vector based on the address passed in, sets the priority 
  80:Generated_Source\PSoC4/ACCEL_ISR.c **** *  from the value in the Design Wide Resources Interrupt Editor, then enables 
  81:Generated_Source\PSoC4/ACCEL_ISR.c **** *  the interrupt to the interrupt controller.
  82:Generated_Source\PSoC4/ACCEL_ISR.c **** *  
  83:Generated_Source\PSoC4/ACCEL_ISR.c **** *  When defining ISR functions, the CY_ISR and CY_ISR_PROTO macros should be 
  84:Generated_Source\PSoC4/ACCEL_ISR.c **** *  used to provide consistent definition across compilers:
  85:Generated_Source\PSoC4/ACCEL_ISR.c **** *  
  86:Generated_Source\PSoC4/ACCEL_ISR.c **** *  Function definition example:
  87:Generated_Source\PSoC4/ACCEL_ISR.c **** *   CY_ISR(MyISR)
ARM GAS  C:\Users\HELLOK~1\AppData\Local\Temp\ccND4Iqi.s 			page 3


  88:Generated_Source\PSoC4/ACCEL_ISR.c **** *   {
  89:Generated_Source\PSoC4/ACCEL_ISR.c **** *   }
  90:Generated_Source\PSoC4/ACCEL_ISR.c **** *   Function prototype example:
  91:Generated_Source\PSoC4/ACCEL_ISR.c **** *   CY_ISR_PROTO(MyISR);
  92:Generated_Source\PSoC4/ACCEL_ISR.c **** *
  93:Generated_Source\PSoC4/ACCEL_ISR.c **** * Parameters:  
  94:Generated_Source\PSoC4/ACCEL_ISR.c **** *   address: Address of the ISR to set in the interrupt vector table.
  95:Generated_Source\PSoC4/ACCEL_ISR.c **** *
  96:Generated_Source\PSoC4/ACCEL_ISR.c **** * Return:
  97:Generated_Source\PSoC4/ACCEL_ISR.c **** *   None
  98:Generated_Source\PSoC4/ACCEL_ISR.c **** *
  99:Generated_Source\PSoC4/ACCEL_ISR.c **** *******************************************************************************/
 100:Generated_Source\PSoC4/ACCEL_ISR.c **** void ACCEL_ISR_StartEx(cyisraddress address)
 101:Generated_Source\PSoC4/ACCEL_ISR.c **** {
 102:Generated_Source\PSoC4/ACCEL_ISR.c ****     /* For all we know the interrupt is active. */
 103:Generated_Source\PSoC4/ACCEL_ISR.c ****     ACCEL_ISR_Disable();
 104:Generated_Source\PSoC4/ACCEL_ISR.c **** 
 105:Generated_Source\PSoC4/ACCEL_ISR.c ****     /* Set the ISR to point to the ACCEL_ISR Interrupt. */
 106:Generated_Source\PSoC4/ACCEL_ISR.c ****     ACCEL_ISR_SetVector(address);
 107:Generated_Source\PSoC4/ACCEL_ISR.c **** 
 108:Generated_Source\PSoC4/ACCEL_ISR.c ****     /* Set the priority. */
 109:Generated_Source\PSoC4/ACCEL_ISR.c ****     ACCEL_ISR_SetPriority((uint8)ACCEL_ISR_INTC_PRIOR_NUMBER);
 110:Generated_Source\PSoC4/ACCEL_ISR.c **** 
 111:Generated_Source\PSoC4/ACCEL_ISR.c ****     /* Enable it. */
 112:Generated_Source\PSoC4/ACCEL_ISR.c ****     ACCEL_ISR_Enable();
 113:Generated_Source\PSoC4/ACCEL_ISR.c **** }
 114:Generated_Source\PSoC4/ACCEL_ISR.c **** 
 115:Generated_Source\PSoC4/ACCEL_ISR.c **** 
 116:Generated_Source\PSoC4/ACCEL_ISR.c **** /*******************************************************************************
 117:Generated_Source\PSoC4/ACCEL_ISR.c **** * Function Name: ACCEL_ISR_Stop
 118:Generated_Source\PSoC4/ACCEL_ISR.c **** ********************************************************************************
 119:Generated_Source\PSoC4/ACCEL_ISR.c **** *
 120:Generated_Source\PSoC4/ACCEL_ISR.c **** * Summary:
 121:Generated_Source\PSoC4/ACCEL_ISR.c **** *   Disables and removes the interrupt.
 122:Generated_Source\PSoC4/ACCEL_ISR.c **** *
 123:Generated_Source\PSoC4/ACCEL_ISR.c **** * Parameters:  
 124:Generated_Source\PSoC4/ACCEL_ISR.c **** *   None
 125:Generated_Source\PSoC4/ACCEL_ISR.c **** *
 126:Generated_Source\PSoC4/ACCEL_ISR.c **** * Return:
 127:Generated_Source\PSoC4/ACCEL_ISR.c **** *   None
 128:Generated_Source\PSoC4/ACCEL_ISR.c **** *
 129:Generated_Source\PSoC4/ACCEL_ISR.c **** *******************************************************************************/
 130:Generated_Source\PSoC4/ACCEL_ISR.c **** void ACCEL_ISR_Stop(void)
 131:Generated_Source\PSoC4/ACCEL_ISR.c **** {
 132:Generated_Source\PSoC4/ACCEL_ISR.c ****     /* Disable this interrupt. */
 133:Generated_Source\PSoC4/ACCEL_ISR.c ****     ACCEL_ISR_Disable();
 134:Generated_Source\PSoC4/ACCEL_ISR.c **** 
 135:Generated_Source\PSoC4/ACCEL_ISR.c ****     /* Set the ISR to point to the passive one. */
 136:Generated_Source\PSoC4/ACCEL_ISR.c ****     ACCEL_ISR_SetVector(&IntDefaultHandler);
 137:Generated_Source\PSoC4/ACCEL_ISR.c **** }
 138:Generated_Source\PSoC4/ACCEL_ISR.c **** 
 139:Generated_Source\PSoC4/ACCEL_ISR.c **** 
 140:Generated_Source\PSoC4/ACCEL_ISR.c **** /*******************************************************************************
 141:Generated_Source\PSoC4/ACCEL_ISR.c **** * Function Name: ACCEL_ISR_Interrupt
 142:Generated_Source\PSoC4/ACCEL_ISR.c **** ********************************************************************************
 143:Generated_Source\PSoC4/ACCEL_ISR.c **** *
 144:Generated_Source\PSoC4/ACCEL_ISR.c **** * Summary:
ARM GAS  C:\Users\HELLOK~1\AppData\Local\Temp\ccND4Iqi.s 			page 4


 145:Generated_Source\PSoC4/ACCEL_ISR.c **** *   The default Interrupt Service Routine for ACCEL_ISR.
 146:Generated_Source\PSoC4/ACCEL_ISR.c **** *
 147:Generated_Source\PSoC4/ACCEL_ISR.c **** *   Add custom code between the START and END comments to keep the next version
 148:Generated_Source\PSoC4/ACCEL_ISR.c **** *   of this file from over-writing your code.
 149:Generated_Source\PSoC4/ACCEL_ISR.c **** *
 150:Generated_Source\PSoC4/ACCEL_ISR.c **** *   Note You may use either the default ISR by using this API, or you may define
 151:Generated_Source\PSoC4/ACCEL_ISR.c **** *   your own separate ISR through ISR_StartEx().
 152:Generated_Source\PSoC4/ACCEL_ISR.c **** *
 153:Generated_Source\PSoC4/ACCEL_ISR.c **** * Parameters:  
 154:Generated_Source\PSoC4/ACCEL_ISR.c **** *   None
 155:Generated_Source\PSoC4/ACCEL_ISR.c **** *
 156:Generated_Source\PSoC4/ACCEL_ISR.c **** * Return:
 157:Generated_Source\PSoC4/ACCEL_ISR.c **** *   None
 158:Generated_Source\PSoC4/ACCEL_ISR.c **** *
 159:Generated_Source\PSoC4/ACCEL_ISR.c **** *******************************************************************************/
 160:Generated_Source\PSoC4/ACCEL_ISR.c **** CY_ISR(ACCEL_ISR_Interrupt)
 161:Generated_Source\PSoC4/ACCEL_ISR.c **** {
  28              		.loc 1 161 0
  29              		.cfi_startproc
  30              		@ args = 0, pretend = 0, frame = 0
  31              		@ frame_needed = 0, uses_anonymous_args = 0
  32 0000 10B5     		push	{r4, lr}
  33              		.cfi_def_cfa_offset 8
  34              		.cfi_offset 4, -8
  35              		.cfi_offset 14, -4
 162:Generated_Source\PSoC4/ACCEL_ISR.c ****     #ifdef ACCEL_ISR_INTERRUPT_INTERRUPT_CALLBACK
 163:Generated_Source\PSoC4/ACCEL_ISR.c ****         ACCEL_ISR_Interrupt_InterruptCallback();
 164:Generated_Source\PSoC4/ACCEL_ISR.c ****     #endif /* ACCEL_ISR_INTERRUPT_INTERRUPT_CALLBACK */ 
 165:Generated_Source\PSoC4/ACCEL_ISR.c **** 
 166:Generated_Source\PSoC4/ACCEL_ISR.c ****     /*  Place your Interrupt code here. */
 167:Generated_Source\PSoC4/ACCEL_ISR.c ****     /* `#START ACCEL_ISR_Interrupt` */
 168:Generated_Source\PSoC4/ACCEL_ISR.c ****     accelFlag = 1;
  36              		.loc 1 168 0
  37 0002 0122     		movs	r2, #1
  38 0004 024B     		ldr	r3, .L2
  39 0006 1A60     		str	r2, [r3]
 169:Generated_Source\PSoC4/ACCEL_ISR.c ****     ACCEL_INT_ClearInterrupt();
  40              		.loc 1 169 0
  41 0008 FFF7FEFF 		bl	ACCEL_INT_ClearInterrupt
  42              	.LVL0:
 170:Generated_Source\PSoC4/ACCEL_ISR.c ****     /* `#END` */
 171:Generated_Source\PSoC4/ACCEL_ISR.c **** }
  43              		.loc 1 171 0
  44              		@ sp needed
  45 000c 10BD     		pop	{r4, pc}
  46              	.L3:
  47 000e C046     		.align	2
  48              	.L2:
  49 0010 00000000 		.word	accelFlag
  50              		.cfi_endproc
  51              	.LFE4:
  52              		.size	ACCEL_ISR_Interrupt, .-ACCEL_ISR_Interrupt
  53              		.section	.text.ACCEL_ISR_SetVector,"ax",%progbits
  54              		.align	2
  55              		.global	ACCEL_ISR_SetVector
  56              		.code	16
  57              		.thumb_func
ARM GAS  C:\Users\HELLOK~1\AppData\Local\Temp\ccND4Iqi.s 			page 5


  58              		.type	ACCEL_ISR_SetVector, %function
  59              	ACCEL_ISR_SetVector:
  60              	.LFB5:
 172:Generated_Source\PSoC4/ACCEL_ISR.c **** 
 173:Generated_Source\PSoC4/ACCEL_ISR.c **** 
 174:Generated_Source\PSoC4/ACCEL_ISR.c **** /*******************************************************************************
 175:Generated_Source\PSoC4/ACCEL_ISR.c **** * Function Name: ACCEL_ISR_SetVector
 176:Generated_Source\PSoC4/ACCEL_ISR.c **** ********************************************************************************
 177:Generated_Source\PSoC4/ACCEL_ISR.c **** *
 178:Generated_Source\PSoC4/ACCEL_ISR.c **** * Summary:
 179:Generated_Source\PSoC4/ACCEL_ISR.c **** *   Change the ISR vector for the Interrupt. Note calling ACCEL_ISR_Start
 180:Generated_Source\PSoC4/ACCEL_ISR.c **** *   will override any effect this method would have had. To set the vector 
 181:Generated_Source\PSoC4/ACCEL_ISR.c **** *   before the component has been started use ACCEL_ISR_StartEx instead.
 182:Generated_Source\PSoC4/ACCEL_ISR.c **** * 
 183:Generated_Source\PSoC4/ACCEL_ISR.c **** *   When defining ISR functions, the CY_ISR and CY_ISR_PROTO macros should be 
 184:Generated_Source\PSoC4/ACCEL_ISR.c **** *   used to provide consistent definition across compilers:
 185:Generated_Source\PSoC4/ACCEL_ISR.c **** *
 186:Generated_Source\PSoC4/ACCEL_ISR.c **** *   Function definition example:
 187:Generated_Source\PSoC4/ACCEL_ISR.c **** *   CY_ISR(MyISR)
 188:Generated_Source\PSoC4/ACCEL_ISR.c **** *   {
 189:Generated_Source\PSoC4/ACCEL_ISR.c **** *   }
 190:Generated_Source\PSoC4/ACCEL_ISR.c **** *
 191:Generated_Source\PSoC4/ACCEL_ISR.c **** *   Function prototype example:
 192:Generated_Source\PSoC4/ACCEL_ISR.c **** *     CY_ISR_PROTO(MyISR);
 193:Generated_Source\PSoC4/ACCEL_ISR.c **** *
 194:Generated_Source\PSoC4/ACCEL_ISR.c **** * Parameters:
 195:Generated_Source\PSoC4/ACCEL_ISR.c **** *   address: Address of the ISR to set in the interrupt vector table.
 196:Generated_Source\PSoC4/ACCEL_ISR.c **** *
 197:Generated_Source\PSoC4/ACCEL_ISR.c **** * Return:
 198:Generated_Source\PSoC4/ACCEL_ISR.c **** *   None
 199:Generated_Source\PSoC4/ACCEL_ISR.c **** *
 200:Generated_Source\PSoC4/ACCEL_ISR.c **** *******************************************************************************/
 201:Generated_Source\PSoC4/ACCEL_ISR.c **** void ACCEL_ISR_SetVector(cyisraddress address)
 202:Generated_Source\PSoC4/ACCEL_ISR.c **** {
  61              		.loc 1 202 0
  62              		.cfi_startproc
  63              		@ args = 0, pretend = 0, frame = 0
  64              		@ frame_needed = 0, uses_anonymous_args = 0
  65              		@ link register save eliminated.
  66              	.LVL1:
 203:Generated_Source\PSoC4/ACCEL_ISR.c ****     CyRamVectors[CYINT_IRQ_BASE + ACCEL_ISR__INTC_NUMBER] = address;
  67              		.loc 1 203 0
  68 0000 014B     		ldr	r3, .L5
  69 0002 5864     		str	r0, [r3, #68]
 204:Generated_Source\PSoC4/ACCEL_ISR.c **** }
  70              		.loc 1 204 0
  71              		@ sp needed
  72 0004 7047     		bx	lr
  73              	.L6:
  74 0006 C046     		.align	2
  75              	.L5:
  76 0008 00000000 		.word	CyRamVectors
  77              		.cfi_endproc
  78              	.LFE5:
  79              		.size	ACCEL_ISR_SetVector, .-ACCEL_ISR_SetVector
  80              		.section	.text.ACCEL_ISR_GetVector,"ax",%progbits
  81              		.align	2
ARM GAS  C:\Users\HELLOK~1\AppData\Local\Temp\ccND4Iqi.s 			page 6


  82              		.global	ACCEL_ISR_GetVector
  83              		.code	16
  84              		.thumb_func
  85              		.type	ACCEL_ISR_GetVector, %function
  86              	ACCEL_ISR_GetVector:
  87              	.LFB6:
 205:Generated_Source\PSoC4/ACCEL_ISR.c **** 
 206:Generated_Source\PSoC4/ACCEL_ISR.c **** 
 207:Generated_Source\PSoC4/ACCEL_ISR.c **** /*******************************************************************************
 208:Generated_Source\PSoC4/ACCEL_ISR.c **** * Function Name: ACCEL_ISR_GetVector
 209:Generated_Source\PSoC4/ACCEL_ISR.c **** ********************************************************************************
 210:Generated_Source\PSoC4/ACCEL_ISR.c **** *
 211:Generated_Source\PSoC4/ACCEL_ISR.c **** * Summary:
 212:Generated_Source\PSoC4/ACCEL_ISR.c **** *   Gets the "address" of the current ISR vector for the Interrupt.
 213:Generated_Source\PSoC4/ACCEL_ISR.c **** *
 214:Generated_Source\PSoC4/ACCEL_ISR.c **** * Parameters:
 215:Generated_Source\PSoC4/ACCEL_ISR.c **** *   None
 216:Generated_Source\PSoC4/ACCEL_ISR.c **** *
 217:Generated_Source\PSoC4/ACCEL_ISR.c **** * Return:
 218:Generated_Source\PSoC4/ACCEL_ISR.c **** *   Address of the ISR in the interrupt vector table.
 219:Generated_Source\PSoC4/ACCEL_ISR.c **** *
 220:Generated_Source\PSoC4/ACCEL_ISR.c **** *******************************************************************************/
 221:Generated_Source\PSoC4/ACCEL_ISR.c **** cyisraddress ACCEL_ISR_GetVector(void)
 222:Generated_Source\PSoC4/ACCEL_ISR.c **** {
  88              		.loc 1 222 0
  89              		.cfi_startproc
  90              		@ args = 0, pretend = 0, frame = 0
  91              		@ frame_needed = 0, uses_anonymous_args = 0
  92              		@ link register save eliminated.
 223:Generated_Source\PSoC4/ACCEL_ISR.c ****     return CyRamVectors[CYINT_IRQ_BASE + ACCEL_ISR__INTC_NUMBER];
  93              		.loc 1 223 0
  94 0000 014B     		ldr	r3, .L8
  95 0002 586C     		ldr	r0, [r3, #68]
 224:Generated_Source\PSoC4/ACCEL_ISR.c **** }
  96              		.loc 1 224 0
  97              		@ sp needed
  98 0004 7047     		bx	lr
  99              	.L9:
 100 0006 C046     		.align	2
 101              	.L8:
 102 0008 00000000 		.word	CyRamVectors
 103              		.cfi_endproc
 104              	.LFE6:
 105              		.size	ACCEL_ISR_GetVector, .-ACCEL_ISR_GetVector
 106              		.section	.text.ACCEL_ISR_SetPriority,"ax",%progbits
 107              		.align	2
 108              		.global	ACCEL_ISR_SetPriority
 109              		.code	16
 110              		.thumb_func
 111              		.type	ACCEL_ISR_SetPriority, %function
 112              	ACCEL_ISR_SetPriority:
 113              	.LFB7:
 225:Generated_Source\PSoC4/ACCEL_ISR.c **** 
 226:Generated_Source\PSoC4/ACCEL_ISR.c **** 
 227:Generated_Source\PSoC4/ACCEL_ISR.c **** /*******************************************************************************
 228:Generated_Source\PSoC4/ACCEL_ISR.c **** * Function Name: ACCEL_ISR_SetPriority
 229:Generated_Source\PSoC4/ACCEL_ISR.c **** ********************************************************************************
ARM GAS  C:\Users\HELLOK~1\AppData\Local\Temp\ccND4Iqi.s 			page 7


 230:Generated_Source\PSoC4/ACCEL_ISR.c **** *
 231:Generated_Source\PSoC4/ACCEL_ISR.c **** * Summary:
 232:Generated_Source\PSoC4/ACCEL_ISR.c **** *   Sets the Priority of the Interrupt. 
 233:Generated_Source\PSoC4/ACCEL_ISR.c **** *
 234:Generated_Source\PSoC4/ACCEL_ISR.c **** *   Note calling ACCEL_ISR_Start or ACCEL_ISR_StartEx will 
 235:Generated_Source\PSoC4/ACCEL_ISR.c **** *   override any effect this API would have had. This API should only be called
 236:Generated_Source\PSoC4/ACCEL_ISR.c **** *   after ACCEL_ISR_Start or ACCEL_ISR_StartEx has been called. 
 237:Generated_Source\PSoC4/ACCEL_ISR.c **** *   To set the initial priority for the component, use the Design-Wide Resources
 238:Generated_Source\PSoC4/ACCEL_ISR.c **** *   Interrupt Editor.
 239:Generated_Source\PSoC4/ACCEL_ISR.c **** *
 240:Generated_Source\PSoC4/ACCEL_ISR.c **** *   Note This API has no effect on Non-maskable interrupt NMI).
 241:Generated_Source\PSoC4/ACCEL_ISR.c **** *
 242:Generated_Source\PSoC4/ACCEL_ISR.c **** * Parameters:
 243:Generated_Source\PSoC4/ACCEL_ISR.c **** *   priority: Priority of the interrupt, 0 being the highest priority
 244:Generated_Source\PSoC4/ACCEL_ISR.c **** *             PSoC 3 and PSoC 5LP: Priority is from 0 to 7.
 245:Generated_Source\PSoC4/ACCEL_ISR.c **** *             PSoC 4: Priority is from 0 to 3.
 246:Generated_Source\PSoC4/ACCEL_ISR.c **** *
 247:Generated_Source\PSoC4/ACCEL_ISR.c **** * Return:
 248:Generated_Source\PSoC4/ACCEL_ISR.c **** *   None
 249:Generated_Source\PSoC4/ACCEL_ISR.c **** *
 250:Generated_Source\PSoC4/ACCEL_ISR.c **** *******************************************************************************/
 251:Generated_Source\PSoC4/ACCEL_ISR.c **** void ACCEL_ISR_SetPriority(uint8 priority)
 252:Generated_Source\PSoC4/ACCEL_ISR.c **** {
 114              		.loc 1 252 0
 115              		.cfi_startproc
 116              		@ args = 0, pretend = 0, frame = 0
 117              		@ frame_needed = 0, uses_anonymous_args = 0
 118              	.LVL2:
 119 0000 10B5     		push	{r4, lr}
 120              		.cfi_def_cfa_offset 8
 121              		.cfi_offset 4, -8
 122              		.cfi_offset 14, -4
 123 0002 0400     		movs	r4, r0
 124              	.LVL3:
 253:Generated_Source\PSoC4/ACCEL_ISR.c **** 	uint8 interruptState;
 254:Generated_Source\PSoC4/ACCEL_ISR.c ****     uint32 priorityOffset = ((ACCEL_ISR__INTC_NUMBER % 4u) * 8u) + 6u;
 255:Generated_Source\PSoC4/ACCEL_ISR.c ****     
 256:Generated_Source\PSoC4/ACCEL_ISR.c **** 	interruptState = CyEnterCriticalSection();
 125              		.loc 1 256 0
 126 0004 FFF7FEFF 		bl	CyEnterCriticalSection
 127              	.LVL4:
 257:Generated_Source\PSoC4/ACCEL_ISR.c ****     *ACCEL_ISR_INTC_PRIOR = (*ACCEL_ISR_INTC_PRIOR & (uint32)(~(uint32)ACCEL_ISR__INTC_PRIOR_MASK))
 128              		.loc 1 257 0
 129 0008 044A     		ldr	r2, .L11
 130 000a 1168     		ldr	r1, [r2]
 131 000c 044B     		ldr	r3, .L11+4
 132 000e 0B40     		ands	r3, r1
 258:Generated_Source\PSoC4/ACCEL_ISR.c ****                                     ((uint32)priority << priorityOffset);
 133              		.loc 1 258 0
 134 0010 A403     		lsls	r4, r4, #14
 257:Generated_Source\PSoC4/ACCEL_ISR.c ****     *ACCEL_ISR_INTC_PRIOR = (*ACCEL_ISR_INTC_PRIOR & (uint32)(~(uint32)ACCEL_ISR__INTC_PRIOR_MASK))
 135              		.loc 1 257 0
 136 0012 1C43     		orrs	r4, r3
 137 0014 1460     		str	r4, [r2]
 259:Generated_Source\PSoC4/ACCEL_ISR.c **** 	CyExitCriticalSection(interruptState);
 138              		.loc 1 259 0
 139 0016 FFF7FEFF 		bl	CyExitCriticalSection
ARM GAS  C:\Users\HELLOK~1\AppData\Local\Temp\ccND4Iqi.s 			page 8


 140              	.LVL5:
 260:Generated_Source\PSoC4/ACCEL_ISR.c **** }
 141              		.loc 1 260 0
 142              		@ sp needed
 143 001a 10BD     		pop	{r4, pc}
 144              	.L12:
 145              		.align	2
 146              	.L11:
 147 001c 00E400E0 		.word	-536812544
 148 0020 FF3FFFFF 		.word	-49153
 149              		.cfi_endproc
 150              	.LFE7:
 151              		.size	ACCEL_ISR_SetPriority, .-ACCEL_ISR_SetPriority
 152              		.section	.text.ACCEL_ISR_GetPriority,"ax",%progbits
 153              		.align	2
 154              		.global	ACCEL_ISR_GetPriority
 155              		.code	16
 156              		.thumb_func
 157              		.type	ACCEL_ISR_GetPriority, %function
 158              	ACCEL_ISR_GetPriority:
 159              	.LFB8:
 261:Generated_Source\PSoC4/ACCEL_ISR.c **** 
 262:Generated_Source\PSoC4/ACCEL_ISR.c **** 
 263:Generated_Source\PSoC4/ACCEL_ISR.c **** /*******************************************************************************
 264:Generated_Source\PSoC4/ACCEL_ISR.c **** * Function Name: ACCEL_ISR_GetPriority
 265:Generated_Source\PSoC4/ACCEL_ISR.c **** ********************************************************************************
 266:Generated_Source\PSoC4/ACCEL_ISR.c **** *
 267:Generated_Source\PSoC4/ACCEL_ISR.c **** * Summary:
 268:Generated_Source\PSoC4/ACCEL_ISR.c **** *   Gets the Priority of the Interrupt.
 269:Generated_Source\PSoC4/ACCEL_ISR.c **** *
 270:Generated_Source\PSoC4/ACCEL_ISR.c **** * Parameters:
 271:Generated_Source\PSoC4/ACCEL_ISR.c **** *   None
 272:Generated_Source\PSoC4/ACCEL_ISR.c **** *
 273:Generated_Source\PSoC4/ACCEL_ISR.c **** * Return:
 274:Generated_Source\PSoC4/ACCEL_ISR.c **** *   Priority of the interrupt, 0 being the highest priority
 275:Generated_Source\PSoC4/ACCEL_ISR.c **** *    PSoC 3 and PSoC 5LP: Priority is from 0 to 7.
 276:Generated_Source\PSoC4/ACCEL_ISR.c **** *    PSoC 4: Priority is from 0 to 3.
 277:Generated_Source\PSoC4/ACCEL_ISR.c **** *
 278:Generated_Source\PSoC4/ACCEL_ISR.c **** *******************************************************************************/
 279:Generated_Source\PSoC4/ACCEL_ISR.c **** uint8 ACCEL_ISR_GetPriority(void)
 280:Generated_Source\PSoC4/ACCEL_ISR.c **** {
 160              		.loc 1 280 0
 161              		.cfi_startproc
 162              		@ args = 0, pretend = 0, frame = 0
 163              		@ frame_needed = 0, uses_anonymous_args = 0
 164              		@ link register save eliminated.
 165              	.LVL6:
 281:Generated_Source\PSoC4/ACCEL_ISR.c ****     uint32 priority;
 282:Generated_Source\PSoC4/ACCEL_ISR.c **** 	uint32 priorityOffset = ((ACCEL_ISR__INTC_NUMBER % 4u) * 8u) + 6u;
 283:Generated_Source\PSoC4/ACCEL_ISR.c **** 
 284:Generated_Source\PSoC4/ACCEL_ISR.c ****     priority = (*ACCEL_ISR_INTC_PRIOR & ACCEL_ISR__INTC_PRIOR_MASK) >> priorityOffset;
 166              		.loc 1 284 0
 167 0000 024B     		ldr	r3, .L14
 168 0002 1868     		ldr	r0, [r3]
 169 0004 800B     		lsrs	r0, r0, #14
 170              	.LVL7:
 285:Generated_Source\PSoC4/ACCEL_ISR.c **** 
ARM GAS  C:\Users\HELLOK~1\AppData\Local\Temp\ccND4Iqi.s 			page 9


 286:Generated_Source\PSoC4/ACCEL_ISR.c ****     return (uint8)priority;
 171              		.loc 1 286 0
 172 0006 0323     		movs	r3, #3
 173 0008 1840     		ands	r0, r3
 174              	.LVL8:
 287:Generated_Source\PSoC4/ACCEL_ISR.c **** }
 175              		.loc 1 287 0
 176              		@ sp needed
 177 000a 7047     		bx	lr
 178              	.L15:
 179              		.align	2
 180              	.L14:
 181 000c 00E400E0 		.word	-536812544
 182              		.cfi_endproc
 183              	.LFE8:
 184              		.size	ACCEL_ISR_GetPriority, .-ACCEL_ISR_GetPriority
 185              		.section	.text.ACCEL_ISR_Enable,"ax",%progbits
 186              		.align	2
 187              		.global	ACCEL_ISR_Enable
 188              		.code	16
 189              		.thumb_func
 190              		.type	ACCEL_ISR_Enable, %function
 191              	ACCEL_ISR_Enable:
 192              	.LFB9:
 288:Generated_Source\PSoC4/ACCEL_ISR.c **** 
 289:Generated_Source\PSoC4/ACCEL_ISR.c **** 
 290:Generated_Source\PSoC4/ACCEL_ISR.c **** /*******************************************************************************
 291:Generated_Source\PSoC4/ACCEL_ISR.c **** * Function Name: ACCEL_ISR_Enable
 292:Generated_Source\PSoC4/ACCEL_ISR.c **** ********************************************************************************
 293:Generated_Source\PSoC4/ACCEL_ISR.c **** *
 294:Generated_Source\PSoC4/ACCEL_ISR.c **** * Summary:
 295:Generated_Source\PSoC4/ACCEL_ISR.c **** *   Enables the interrupt to the interrupt controller. Do not call this function
 296:Generated_Source\PSoC4/ACCEL_ISR.c **** *   unless ISR_Start() has been called or the functionality of the ISR_Start() 
 297:Generated_Source\PSoC4/ACCEL_ISR.c **** *   function, which sets the vector and the priority, has been called.
 298:Generated_Source\PSoC4/ACCEL_ISR.c **** *
 299:Generated_Source\PSoC4/ACCEL_ISR.c **** * Parameters:
 300:Generated_Source\PSoC4/ACCEL_ISR.c **** *   None
 301:Generated_Source\PSoC4/ACCEL_ISR.c **** *
 302:Generated_Source\PSoC4/ACCEL_ISR.c **** * Return:
 303:Generated_Source\PSoC4/ACCEL_ISR.c **** *   None
 304:Generated_Source\PSoC4/ACCEL_ISR.c **** *
 305:Generated_Source\PSoC4/ACCEL_ISR.c **** *******************************************************************************/
 306:Generated_Source\PSoC4/ACCEL_ISR.c **** void ACCEL_ISR_Enable(void)
 307:Generated_Source\PSoC4/ACCEL_ISR.c **** {
 193              		.loc 1 307 0
 194              		.cfi_startproc
 195              		@ args = 0, pretend = 0, frame = 0
 196              		@ frame_needed = 0, uses_anonymous_args = 0
 197              		@ link register save eliminated.
 308:Generated_Source\PSoC4/ACCEL_ISR.c ****     /* Enable the general interrupt. */
 309:Generated_Source\PSoC4/ACCEL_ISR.c ****     *ACCEL_ISR_INTC_SET_EN = ACCEL_ISR__INTC_MASK;
 198              		.loc 1 309 0
 199 0000 0222     		movs	r2, #2
 200 0002 014B     		ldr	r3, .L17
 201 0004 1A60     		str	r2, [r3]
 310:Generated_Source\PSoC4/ACCEL_ISR.c **** }
 202              		.loc 1 310 0
ARM GAS  C:\Users\HELLOK~1\AppData\Local\Temp\ccND4Iqi.s 			page 10


 203              		@ sp needed
 204 0006 7047     		bx	lr
 205              	.L18:
 206              		.align	2
 207              	.L17:
 208 0008 00E100E0 		.word	-536813312
 209              		.cfi_endproc
 210              	.LFE9:
 211              		.size	ACCEL_ISR_Enable, .-ACCEL_ISR_Enable
 212              		.section	.text.ACCEL_ISR_GetState,"ax",%progbits
 213              		.align	2
 214              		.global	ACCEL_ISR_GetState
 215              		.code	16
 216              		.thumb_func
 217              		.type	ACCEL_ISR_GetState, %function
 218              	ACCEL_ISR_GetState:
 219              	.LFB10:
 311:Generated_Source\PSoC4/ACCEL_ISR.c **** 
 312:Generated_Source\PSoC4/ACCEL_ISR.c **** 
 313:Generated_Source\PSoC4/ACCEL_ISR.c **** /*******************************************************************************
 314:Generated_Source\PSoC4/ACCEL_ISR.c **** * Function Name: ACCEL_ISR_GetState
 315:Generated_Source\PSoC4/ACCEL_ISR.c **** ********************************************************************************
 316:Generated_Source\PSoC4/ACCEL_ISR.c **** *
 317:Generated_Source\PSoC4/ACCEL_ISR.c **** * Summary:
 318:Generated_Source\PSoC4/ACCEL_ISR.c **** *   Gets the state (enabled, disabled) of the Interrupt.
 319:Generated_Source\PSoC4/ACCEL_ISR.c **** *
 320:Generated_Source\PSoC4/ACCEL_ISR.c **** * Parameters:
 321:Generated_Source\PSoC4/ACCEL_ISR.c **** *   None
 322:Generated_Source\PSoC4/ACCEL_ISR.c **** *
 323:Generated_Source\PSoC4/ACCEL_ISR.c **** * Return:
 324:Generated_Source\PSoC4/ACCEL_ISR.c **** *   1 if enabled, 0 if disabled.
 325:Generated_Source\PSoC4/ACCEL_ISR.c **** *
 326:Generated_Source\PSoC4/ACCEL_ISR.c **** *******************************************************************************/
 327:Generated_Source\PSoC4/ACCEL_ISR.c **** uint8 ACCEL_ISR_GetState(void)
 328:Generated_Source\PSoC4/ACCEL_ISR.c **** {
 220              		.loc 1 328 0
 221              		.cfi_startproc
 222              		@ args = 0, pretend = 0, frame = 0
 223              		@ frame_needed = 0, uses_anonymous_args = 0
 224              		@ link register save eliminated.
 329:Generated_Source\PSoC4/ACCEL_ISR.c ****     /* Get the state of the general interrupt. */
 330:Generated_Source\PSoC4/ACCEL_ISR.c ****     return ((*ACCEL_ISR_INTC_SET_EN & (uint32)ACCEL_ISR__INTC_MASK) != 0u) ? 1u:0u;
 225              		.loc 1 330 0
 226 0000 034B     		ldr	r3, .L22
 227 0002 1B68     		ldr	r3, [r3]
 228 0004 9B07     		lsls	r3, r3, #30
 229 0006 01D5     		bpl	.L21
 230 0008 0120     		movs	r0, #1
 231 000a 00E0     		b	.L20
 232              	.L21:
 233 000c 0020     		movs	r0, #0
 234              	.L20:
 331:Generated_Source\PSoC4/ACCEL_ISR.c **** }
 235              		.loc 1 331 0 discriminator 4
 236              		@ sp needed
 237 000e 7047     		bx	lr
 238              	.L23:
ARM GAS  C:\Users\HELLOK~1\AppData\Local\Temp\ccND4Iqi.s 			page 11


 239              		.align	2
 240              	.L22:
 241 0010 00E100E0 		.word	-536813312
 242              		.cfi_endproc
 243              	.LFE10:
 244              		.size	ACCEL_ISR_GetState, .-ACCEL_ISR_GetState
 245              		.section	.text.ACCEL_ISR_Disable,"ax",%progbits
 246              		.align	2
 247              		.global	ACCEL_ISR_Disable
 248              		.code	16
 249              		.thumb_func
 250              		.type	ACCEL_ISR_Disable, %function
 251              	ACCEL_ISR_Disable:
 252              	.LFB11:
 332:Generated_Source\PSoC4/ACCEL_ISR.c **** 
 333:Generated_Source\PSoC4/ACCEL_ISR.c **** 
 334:Generated_Source\PSoC4/ACCEL_ISR.c **** /*******************************************************************************
 335:Generated_Source\PSoC4/ACCEL_ISR.c **** * Function Name: ACCEL_ISR_Disable
 336:Generated_Source\PSoC4/ACCEL_ISR.c **** ********************************************************************************
 337:Generated_Source\PSoC4/ACCEL_ISR.c **** *
 338:Generated_Source\PSoC4/ACCEL_ISR.c **** * Summary:
 339:Generated_Source\PSoC4/ACCEL_ISR.c **** *   Disables the Interrupt in the interrupt controller.
 340:Generated_Source\PSoC4/ACCEL_ISR.c **** *
 341:Generated_Source\PSoC4/ACCEL_ISR.c **** * Parameters:
 342:Generated_Source\PSoC4/ACCEL_ISR.c **** *   None
 343:Generated_Source\PSoC4/ACCEL_ISR.c **** *
 344:Generated_Source\PSoC4/ACCEL_ISR.c **** * Return:
 345:Generated_Source\PSoC4/ACCEL_ISR.c **** *   None
 346:Generated_Source\PSoC4/ACCEL_ISR.c **** *
 347:Generated_Source\PSoC4/ACCEL_ISR.c **** *******************************************************************************/
 348:Generated_Source\PSoC4/ACCEL_ISR.c **** void ACCEL_ISR_Disable(void)
 349:Generated_Source\PSoC4/ACCEL_ISR.c **** {
 253              		.loc 1 349 0
 254              		.cfi_startproc
 255              		@ args = 0, pretend = 0, frame = 0
 256              		@ frame_needed = 0, uses_anonymous_args = 0
 257              		@ link register save eliminated.
 350:Generated_Source\PSoC4/ACCEL_ISR.c ****     /* Disable the general interrupt. */
 351:Generated_Source\PSoC4/ACCEL_ISR.c ****     *ACCEL_ISR_INTC_CLR_EN = ACCEL_ISR__INTC_MASK;
 258              		.loc 1 351 0
 259 0000 0222     		movs	r2, #2
 260 0002 014B     		ldr	r3, .L25
 261 0004 1A60     		str	r2, [r3]
 352:Generated_Source\PSoC4/ACCEL_ISR.c **** }
 262              		.loc 1 352 0
 263              		@ sp needed
 264 0006 7047     		bx	lr
 265              	.L26:
 266              		.align	2
 267              	.L25:
 268 0008 80E100E0 		.word	-536813184
 269              		.cfi_endproc
 270              	.LFE11:
 271              		.size	ACCEL_ISR_Disable, .-ACCEL_ISR_Disable
 272              		.section	.text.ACCEL_ISR_Start,"ax",%progbits
 273              		.align	2
 274              		.global	ACCEL_ISR_Start
ARM GAS  C:\Users\HELLOK~1\AppData\Local\Temp\ccND4Iqi.s 			page 12


 275              		.code	16
 276              		.thumb_func
 277              		.type	ACCEL_ISR_Start, %function
 278              	ACCEL_ISR_Start:
 279              	.LFB1:
  58:Generated_Source\PSoC4/ACCEL_ISR.c ****     /* For all we know the interrupt is active. */
 280              		.loc 1 58 0
 281              		.cfi_startproc
 282              		@ args = 0, pretend = 0, frame = 0
 283              		@ frame_needed = 0, uses_anonymous_args = 0
 284 0000 10B5     		push	{r4, lr}
 285              		.cfi_def_cfa_offset 8
 286              		.cfi_offset 4, -8
 287              		.cfi_offset 14, -4
  60:Generated_Source\PSoC4/ACCEL_ISR.c **** 
 288              		.loc 1 60 0
 289 0002 FFF7FEFF 		bl	ACCEL_ISR_Disable
 290              	.LVL9:
  63:Generated_Source\PSoC4/ACCEL_ISR.c **** 
 291              		.loc 1 63 0
 292 0006 0448     		ldr	r0, .L28
 293 0008 FFF7FEFF 		bl	ACCEL_ISR_SetVector
 294              	.LVL10:
  66:Generated_Source\PSoC4/ACCEL_ISR.c **** 
 295              		.loc 1 66 0
 296 000c 0320     		movs	r0, #3
 297 000e FFF7FEFF 		bl	ACCEL_ISR_SetPriority
 298              	.LVL11:
  69:Generated_Source\PSoC4/ACCEL_ISR.c **** }
 299              		.loc 1 69 0
 300 0012 FFF7FEFF 		bl	ACCEL_ISR_Enable
 301              	.LVL12:
  70:Generated_Source\PSoC4/ACCEL_ISR.c **** 
 302              		.loc 1 70 0
 303              		@ sp needed
 304 0016 10BD     		pop	{r4, pc}
 305              	.L29:
 306              		.align	2
 307              	.L28:
 308 0018 00000000 		.word	ACCEL_ISR_Interrupt
 309              		.cfi_endproc
 310              	.LFE1:
 311              		.size	ACCEL_ISR_Start, .-ACCEL_ISR_Start
 312              		.section	.text.ACCEL_ISR_StartEx,"ax",%progbits
 313              		.align	2
 314              		.global	ACCEL_ISR_StartEx
 315              		.code	16
 316              		.thumb_func
 317              		.type	ACCEL_ISR_StartEx, %function
 318              	ACCEL_ISR_StartEx:
 319              	.LFB2:
 101:Generated_Source\PSoC4/ACCEL_ISR.c ****     /* For all we know the interrupt is active. */
 320              		.loc 1 101 0
 321              		.cfi_startproc
 322              		@ args = 0, pretend = 0, frame = 0
 323              		@ frame_needed = 0, uses_anonymous_args = 0
 324              	.LVL13:
ARM GAS  C:\Users\HELLOK~1\AppData\Local\Temp\ccND4Iqi.s 			page 13


 325 0000 10B5     		push	{r4, lr}
 326              		.cfi_def_cfa_offset 8
 327              		.cfi_offset 4, -8
 328              		.cfi_offset 14, -4
 329 0002 0400     		movs	r4, r0
 103:Generated_Source\PSoC4/ACCEL_ISR.c **** 
 330              		.loc 1 103 0
 331 0004 FFF7FEFF 		bl	ACCEL_ISR_Disable
 332              	.LVL14:
 106:Generated_Source\PSoC4/ACCEL_ISR.c **** 
 333              		.loc 1 106 0
 334 0008 2000     		movs	r0, r4
 335 000a FFF7FEFF 		bl	ACCEL_ISR_SetVector
 336              	.LVL15:
 109:Generated_Source\PSoC4/ACCEL_ISR.c **** 
 337              		.loc 1 109 0
 338 000e 0320     		movs	r0, #3
 339 0010 FFF7FEFF 		bl	ACCEL_ISR_SetPriority
 340              	.LVL16:
 112:Generated_Source\PSoC4/ACCEL_ISR.c **** }
 341              		.loc 1 112 0
 342 0014 FFF7FEFF 		bl	ACCEL_ISR_Enable
 343              	.LVL17:
 113:Generated_Source\PSoC4/ACCEL_ISR.c **** 
 344              		.loc 1 113 0
 345              		@ sp needed
 346              	.LVL18:
 347 0018 10BD     		pop	{r4, pc}
 348              		.cfi_endproc
 349              	.LFE2:
 350              		.size	ACCEL_ISR_StartEx, .-ACCEL_ISR_StartEx
 351 001a C046     		.section	.text.ACCEL_ISR_Stop,"ax",%progbits
 352              		.align	2
 353              		.global	ACCEL_ISR_Stop
 354              		.code	16
 355              		.thumb_func
 356              		.type	ACCEL_ISR_Stop, %function
 357              	ACCEL_ISR_Stop:
 358              	.LFB3:
 131:Generated_Source\PSoC4/ACCEL_ISR.c ****     /* Disable this interrupt. */
 359              		.loc 1 131 0
 360              		.cfi_startproc
 361              		@ args = 0, pretend = 0, frame = 0
 362              		@ frame_needed = 0, uses_anonymous_args = 0
 363 0000 10B5     		push	{r4, lr}
 364              		.cfi_def_cfa_offset 8
 365              		.cfi_offset 4, -8
 366              		.cfi_offset 14, -4
 133:Generated_Source\PSoC4/ACCEL_ISR.c **** 
 367              		.loc 1 133 0
 368 0002 FFF7FEFF 		bl	ACCEL_ISR_Disable
 369              	.LVL19:
 136:Generated_Source\PSoC4/ACCEL_ISR.c **** }
 370              		.loc 1 136 0
 371 0006 0248     		ldr	r0, .L32
 372 0008 FFF7FEFF 		bl	ACCEL_ISR_SetVector
 373              	.LVL20:
ARM GAS  C:\Users\HELLOK~1\AppData\Local\Temp\ccND4Iqi.s 			page 14


 137:Generated_Source\PSoC4/ACCEL_ISR.c **** 
 374              		.loc 1 137 0
 375              		@ sp needed
 376 000c 10BD     		pop	{r4, pc}
 377              	.L33:
 378 000e C046     		.align	2
 379              	.L32:
 380 0010 00000000 		.word	IntDefaultHandler
 381              		.cfi_endproc
 382              	.LFE3:
 383              		.size	ACCEL_ISR_Stop, .-ACCEL_ISR_Stop
 384              		.section	.text.ACCEL_ISR_SetPending,"ax",%progbits
 385              		.align	2
 386              		.global	ACCEL_ISR_SetPending
 387              		.code	16
 388              		.thumb_func
 389              		.type	ACCEL_ISR_SetPending, %function
 390              	ACCEL_ISR_SetPending:
 391              	.LFB12:
 353:Generated_Source\PSoC4/ACCEL_ISR.c **** 
 354:Generated_Source\PSoC4/ACCEL_ISR.c **** 
 355:Generated_Source\PSoC4/ACCEL_ISR.c **** /*******************************************************************************
 356:Generated_Source\PSoC4/ACCEL_ISR.c **** * Function Name: ACCEL_ISR_SetPending
 357:Generated_Source\PSoC4/ACCEL_ISR.c **** ********************************************************************************
 358:Generated_Source\PSoC4/ACCEL_ISR.c **** *
 359:Generated_Source\PSoC4/ACCEL_ISR.c **** * Summary:
 360:Generated_Source\PSoC4/ACCEL_ISR.c **** *   Causes the Interrupt to enter the pending state, a software method of
 361:Generated_Source\PSoC4/ACCEL_ISR.c **** *   generating the interrupt.
 362:Generated_Source\PSoC4/ACCEL_ISR.c **** *
 363:Generated_Source\PSoC4/ACCEL_ISR.c **** * Parameters:
 364:Generated_Source\PSoC4/ACCEL_ISR.c **** *   None
 365:Generated_Source\PSoC4/ACCEL_ISR.c **** *
 366:Generated_Source\PSoC4/ACCEL_ISR.c **** * Return:
 367:Generated_Source\PSoC4/ACCEL_ISR.c **** *   None
 368:Generated_Source\PSoC4/ACCEL_ISR.c **** *
 369:Generated_Source\PSoC4/ACCEL_ISR.c **** * Side Effects:
 370:Generated_Source\PSoC4/ACCEL_ISR.c **** *   If interrupts are enabled and the interrupt is set up properly, the ISR is
 371:Generated_Source\PSoC4/ACCEL_ISR.c **** *   entered (depending on the priority of this interrupt and other pending 
 372:Generated_Source\PSoC4/ACCEL_ISR.c **** *   interrupts).
 373:Generated_Source\PSoC4/ACCEL_ISR.c **** *
 374:Generated_Source\PSoC4/ACCEL_ISR.c **** *******************************************************************************/
 375:Generated_Source\PSoC4/ACCEL_ISR.c **** void ACCEL_ISR_SetPending(void)
 376:Generated_Source\PSoC4/ACCEL_ISR.c **** {
 392              		.loc 1 376 0
 393              		.cfi_startproc
 394              		@ args = 0, pretend = 0, frame = 0
 395              		@ frame_needed = 0, uses_anonymous_args = 0
 396              		@ link register save eliminated.
 377:Generated_Source\PSoC4/ACCEL_ISR.c ****     *ACCEL_ISR_INTC_SET_PD = ACCEL_ISR__INTC_MASK;
 397              		.loc 1 377 0
 398 0000 0222     		movs	r2, #2
 399 0002 014B     		ldr	r3, .L35
 400 0004 1A60     		str	r2, [r3]
 378:Generated_Source\PSoC4/ACCEL_ISR.c **** }
 401              		.loc 1 378 0
 402              		@ sp needed
 403 0006 7047     		bx	lr
ARM GAS  C:\Users\HELLOK~1\AppData\Local\Temp\ccND4Iqi.s 			page 15


 404              	.L36:
 405              		.align	2
 406              	.L35:
 407 0008 00E200E0 		.word	-536813056
 408              		.cfi_endproc
 409              	.LFE12:
 410              		.size	ACCEL_ISR_SetPending, .-ACCEL_ISR_SetPending
 411              		.section	.text.ACCEL_ISR_ClearPending,"ax",%progbits
 412              		.align	2
 413              		.global	ACCEL_ISR_ClearPending
 414              		.code	16
 415              		.thumb_func
 416              		.type	ACCEL_ISR_ClearPending, %function
 417              	ACCEL_ISR_ClearPending:
 418              	.LFB13:
 379:Generated_Source\PSoC4/ACCEL_ISR.c **** 
 380:Generated_Source\PSoC4/ACCEL_ISR.c **** 
 381:Generated_Source\PSoC4/ACCEL_ISR.c **** /*******************************************************************************
 382:Generated_Source\PSoC4/ACCEL_ISR.c **** * Function Name: ACCEL_ISR_ClearPending
 383:Generated_Source\PSoC4/ACCEL_ISR.c **** ********************************************************************************
 384:Generated_Source\PSoC4/ACCEL_ISR.c **** *
 385:Generated_Source\PSoC4/ACCEL_ISR.c **** * Summary:
 386:Generated_Source\PSoC4/ACCEL_ISR.c **** *   Clears a pending interrupt in the interrupt controller.
 387:Generated_Source\PSoC4/ACCEL_ISR.c **** *
 388:Generated_Source\PSoC4/ACCEL_ISR.c **** *   Note Some interrupt sources are clear-on-read and require the block 
 389:Generated_Source\PSoC4/ACCEL_ISR.c **** *   interrupt/status register to be read/cleared with the appropriate block API 
 390:Generated_Source\PSoC4/ACCEL_ISR.c **** *   (GPIO, UART, and so on). Otherwise the ISR will continue to remain in 
 391:Generated_Source\PSoC4/ACCEL_ISR.c **** *   pending state even though the interrupt itself is cleared using this API.
 392:Generated_Source\PSoC4/ACCEL_ISR.c **** *
 393:Generated_Source\PSoC4/ACCEL_ISR.c **** * Parameters:
 394:Generated_Source\PSoC4/ACCEL_ISR.c **** *   None
 395:Generated_Source\PSoC4/ACCEL_ISR.c **** *
 396:Generated_Source\PSoC4/ACCEL_ISR.c **** * Return:
 397:Generated_Source\PSoC4/ACCEL_ISR.c **** *   None
 398:Generated_Source\PSoC4/ACCEL_ISR.c **** *
 399:Generated_Source\PSoC4/ACCEL_ISR.c **** *******************************************************************************/
 400:Generated_Source\PSoC4/ACCEL_ISR.c **** void ACCEL_ISR_ClearPending(void)
 401:Generated_Source\PSoC4/ACCEL_ISR.c **** {
 419              		.loc 1 401 0
 420              		.cfi_startproc
 421              		@ args = 0, pretend = 0, frame = 0
 422              		@ frame_needed = 0, uses_anonymous_args = 0
 423              		@ link register save eliminated.
 402:Generated_Source\PSoC4/ACCEL_ISR.c ****     *ACCEL_ISR_INTC_CLR_PD = ACCEL_ISR__INTC_MASK;
 424              		.loc 1 402 0
 425 0000 0222     		movs	r2, #2
 426 0002 014B     		ldr	r3, .L38
 427 0004 1A60     		str	r2, [r3]
 403:Generated_Source\PSoC4/ACCEL_ISR.c **** }
 428              		.loc 1 403 0
 429              		@ sp needed
 430 0006 7047     		bx	lr
 431              	.L39:
 432              		.align	2
 433              	.L38:
 434 0008 80E200E0 		.word	-536812928
 435              		.cfi_endproc
ARM GAS  C:\Users\HELLOK~1\AppData\Local\Temp\ccND4Iqi.s 			page 16


 436              	.LFE13:
 437              		.size	ACCEL_ISR_ClearPending, .-ACCEL_ISR_ClearPending
 438              		.text
 439              	.Letext0:
 440              		.file 2 "Generated_Source\\PSoC4/cytypes.h"
 441              		.file 3 "Generated_Source\\PSoC4/ACCEL_INT.h"
 442              		.file 4 "Generated_Source\\PSoC4/CyLib.h"