ARM GAS  C:\Users\HELLOK~1\AppData\Local\Temp\ccwDY3zD.s 			page 1


   1              		.syntax unified
   2              		.cpu cortex-m0
   3              		.fpu softvfp
   4              		.eabi_attribute 20, 1
   5              		.eabi_attribute 21, 1
   6              		.eabi_attribute 23, 3
   7              		.eabi_attribute 24, 1
   8              		.eabi_attribute 25, 1
   9              		.eabi_attribute 26, 1
  10              		.eabi_attribute 30, 1
  11              		.eabi_attribute 34, 0
  12              		.eabi_attribute 18, 4
  13              		.thumb
  14              		.syntax unified
  15              		.file	"main.c"
  16              		.text
  17              	.Ltext0:
  18              		.cfi_sections	.debug_frame
  19              		.section	.text.readFromAddr,"ax",%progbits
  20              		.align	2
  21              		.global	readFromAddr
  22              		.code	16
  23              		.thumb_func
  24              		.type	readFromAddr, %function
  25              	readFromAddr:
  26              	.LFB34:
  27              		.file 1 "main.c"
   1:main.c        **** /* ========================================
   2:main.c        ****  *
   3:main.c        ****  * Copyright YOUR COMPANY, THE YEAR
   4:main.c        ****  * All Rights Reserved
   5:main.c        ****  * UNPUBLISHED, LICENSED SOFTWARE.
   6:main.c        ****  *
   7:main.c        ****  * CONFIDENTIAL AND PROPRIETARY INFORMATION
   8:main.c        ****  * WHICH IS THE PROPERTY OF your company.
   9:main.c        ****  *
  10:main.c        ****  * ========================================
  11:main.c        **** */
  12:main.c        **** #include "project.h"
  13:main.c        **** 
  14:main.c        **** static const uint32 accelAddr = 0x0F;
  15:main.c        **** static const uint32 ramLowerAddr = 0x50;
  16:main.c        **** static const uint32 ramUpperAddr = 0x51;
  17:main.c        **** volatile int accelFlag = 0;
  18:main.c        **** volatile int buttonFlag = 0;
  19:main.c        **** 
  20:main.c        **** struct accelerometer{
  21:main.c        ****     uint32 XOUT_L;
  22:main.c        ****     uint32 XOUT_H;
  23:main.c        ****     uint32 YOUT_L;
  24:main.c        ****     uint32 YOUT_H;
  25:main.c        ****     uint32 ZOUT_L;
  26:main.c        ****     uint32 ZOUT_H;
  27:main.c        ****     uint32 CtrlReg1;
  28:main.c        ****     uint32 CtrlReg2;
  29:main.c        ****     uint32 IntSrc2;
  30:main.c        ****     uint32 IntRel;
ARM GAS  C:\Users\HELLOK~1\AppData\Local\Temp\ccwDY3zD.s 			page 2


  31:main.c        ****     uint32 DataCtrlReg;
  32:main.c        ****     uint32 WakeupThreshold;
  33:main.c        ****     uint32 WakeupTimer;
  34:main.c        ****     uint32 IntCtrlReg1;
  35:main.c        ****     uint32 IntCtrlReg2;
  36:main.c        ****     uint32 Test;
  37:main.c        **** };
  38:main.c        **** struct FRAM{
  39:main.c        ****     uint32 Xint;
  40:main.c        ****     uint32 Yint;
  41:main.c        ****     uint32 Zint;
  42:main.c        **** };
  43:main.c        **** 
  44:main.c        **** void readFromAddr(uint8* readBuf, int readBytes, uint32 devAddr, uint32 memAddr){
  28              		.loc 1 44 0
  29              		.cfi_startproc
  30              		@ args = 0, pretend = 0, frame = 8
  31              		@ frame_needed = 0, uses_anonymous_args = 0
  32              	.LVL0:
  33 0000 70B5     		push	{r4, r5, r6, lr}
  34              		.cfi_def_cfa_offset 16
  35              		.cfi_offset 4, -16
  36              		.cfi_offset 5, -12
  37              		.cfi_offset 6, -8
  38              		.cfi_offset 14, -4
  39 0002 82B0     		sub	sp, sp, #8
  40              		.cfi_def_cfa_offset 24
  41 0004 0500     		movs	r5, r0
  42 0006 0E00     		movs	r6, r1
  43 0008 1400     		movs	r4, r2
  45:main.c        ****     uint8 wrBuf[1];
  46:main.c        ****     wrBuf[0] = memAddr;
  44              		.loc 1 46 0
  45 000a 01A9     		add	r1, sp, #4
  46              	.LVL1:
  47 000c 0B70     		strb	r3, [r1]
  47:main.c        ****     I2C_I2CMasterWriteBuf(devAddr, wrBuf, 1, I2C_I2C_MODE_NO_STOP);
  48              		.loc 1 47 0
  49 000e 0223     		movs	r3, #2
  50              	.LVL2:
  51 0010 0122     		movs	r2, #1
  52              	.LVL3:
  53 0012 2000     		movs	r0, r4
  54              	.LVL4:
  55 0014 FFF7FEFF 		bl	I2C_I2CMasterWriteBuf
  56              	.LVL5:
  57              	.L2:
  48:main.c        ****     while(!(I2C_I2CMasterStatus() & I2C_I2C_MSTAT_WR_CMPLT));
  58              		.loc 1 48 0 discriminator 1
  59 0018 FFF7FEFF 		bl	I2C_I2CMasterStatus
  60              	.LVL6:
  61 001c 8307     		lsls	r3, r0, #30
  62 001e FBD5     		bpl	.L2
  49:main.c        ****     I2C_I2CMasterClearStatus();
  63              		.loc 1 49 0
  64 0020 FFF7FEFF 		bl	I2C_I2CMasterClearStatus
  65              	.LVL7:
ARM GAS  C:\Users\HELLOK~1\AppData\Local\Temp\ccwDY3zD.s 			page 3


  50:main.c        ****     
  51:main.c        ****     I2C_I2CMasterReadBuf(devAddr, readBuf, readBytes, I2C_I2C_MODE_REPEAT_START);
  66              		.loc 1 51 0
  67 0024 0123     		movs	r3, #1
  68 0026 3200     		movs	r2, r6
  69 0028 2900     		movs	r1, r5
  70 002a 2000     		movs	r0, r4
  71 002c FFF7FEFF 		bl	I2C_I2CMasterReadBuf
  72              	.LVL8:
  73              	.L3:
  52:main.c        ****     while(!(I2C_I2CMasterStatus() & I2C_I2C_MSTAT_RD_CMPLT));
  74              		.loc 1 52 0 discriminator 1
  75 0030 FFF7FEFF 		bl	I2C_I2CMasterStatus
  76              	.LVL9:
  77 0034 C307     		lsls	r3, r0, #31
  78 0036 FBD5     		bpl	.L3
  53:main.c        ****     I2C_I2CMasterClearStatus();
  79              		.loc 1 53 0
  80 0038 FFF7FEFF 		bl	I2C_I2CMasterClearStatus
  81              	.LVL10:
  54:main.c        ****     
  55:main.c        **** }
  82              		.loc 1 55 0
  83 003c 02B0     		add	sp, sp, #8
  84              		@ sp needed
  85              	.LVL11:
  86              	.LVL12:
  87              	.LVL13:
  88 003e 70BD     		pop	{r4, r5, r6, pc}
  89              		.cfi_endproc
  90              	.LFE34:
  91              		.size	readFromAddr, .-readFromAddr
  92              		.section	.text.writeToAddr,"ax",%progbits
  93              		.align	2
  94              		.global	writeToAddr
  95              		.code	16
  96              		.thumb_func
  97              		.type	writeToAddr, %function
  98              	writeToAddr:
  99              	.LFB35:
  56:main.c        **** void writeToAddr(uint8* writeBuf, int writeBytes, uint32 devAddr, uint32 memAddr){
 100              		.loc 1 56 0
 101              		.cfi_startproc
 102              		@ args = 0, pretend = 0, frame = 0
 103              		@ frame_needed = 0, uses_anonymous_args = 0
 104              	.LVL14:
 105 0000 10B5     		push	{r4, lr}
 106              		.cfi_def_cfa_offset 8
 107              		.cfi_offset 4, -8
 108              		.cfi_offset 14, -4
 109 0002 1400     		movs	r4, r2
  57:main.c        ****     writeBuf[0] = memAddr;
 110              		.loc 1 57 0
 111 0004 0370     		strb	r3, [r0]
  58:main.c        ****     I2C_I2CMasterWriteBuf(devAddr, writeBuf, writeBytes, I2C_I2C_MODE_COMPLETE_XFER);
 112              		.loc 1 58 0
 113 0006 0023     		movs	r3, #0
ARM GAS  C:\Users\HELLOK~1\AppData\Local\Temp\ccwDY3zD.s 			page 4


 114              	.LVL15:
 115 0008 0A00     		movs	r2, r1
 116              	.LVL16:
 117 000a 0100     		movs	r1, r0
 118              	.LVL17:
 119 000c 2000     		movs	r0, r4
 120              	.LVL18:
 121 000e FFF7FEFF 		bl	I2C_I2CMasterWriteBuf
 122              	.LVL19:
 123              	.L5:
  59:main.c        ****     while(!(I2C_I2CMasterStatus() & I2C_I2C_MSTAT_WR_CMPLT));
 124              		.loc 1 59 0 discriminator 1
 125 0012 FFF7FEFF 		bl	I2C_I2CMasterStatus
 126              	.LVL20:
 127 0016 8307     		lsls	r3, r0, #30
 128 0018 FBD5     		bpl	.L5
  60:main.c        ****     I2C_I2CMasterClearStatus();
 129              		.loc 1 60 0
 130 001a FFF7FEFF 		bl	I2C_I2CMasterClearStatus
 131              	.LVL21:
  61:main.c        **** }
 132              		.loc 1 61 0
 133              		@ sp needed
 134              	.LVL22:
 135 001e 10BD     		pop	{r4, pc}
 136              		.cfi_endproc
 137              	.LFE35:
 138              		.size	writeToAddr, .-writeToAddr
 139              		.section	.text.readFromRam,"ax",%progbits
 140              		.align	2
 141              		.global	readFromRam
 142              		.code	16
 143              		.thumb_func
 144              		.type	readFromRam, %function
 145              	readFromRam:
 146              	.LFB36:
  62:main.c        **** void readFromRam(uint8* readBuf, int readBytes, uint32 devAddr, uint32 memAddr1, uint32 memAddr2){
 147              		.loc 1 62 0
 148              		.cfi_startproc
 149              		@ args = 4, pretend = 0, frame = 8
 150              		@ frame_needed = 0, uses_anonymous_args = 0
 151              	.LVL23:
 152 0000 70B5     		push	{r4, r5, r6, lr}
 153              		.cfi_def_cfa_offset 16
 154              		.cfi_offset 4, -16
 155              		.cfi_offset 5, -12
 156              		.cfi_offset 6, -8
 157              		.cfi_offset 14, -4
 158 0002 82B0     		sub	sp, sp, #8
 159              		.cfi_def_cfa_offset 24
 160 0004 0500     		movs	r5, r0
 161 0006 0E00     		movs	r6, r1
 162 0008 1400     		movs	r4, r2
  63:main.c        ****     uint8 wrBuf[2];
  64:main.c        ****     wrBuf[0] = memAddr1;
 163              		.loc 1 64 0
 164 000a 01A9     		add	r1, sp, #4
ARM GAS  C:\Users\HELLOK~1\AppData\Local\Temp\ccwDY3zD.s 			page 5


 165              	.LVL24:
 166 000c 0B70     		strb	r3, [r1]
  65:main.c        ****     wrBuf[1] = memAddr2;
 167              		.loc 1 65 0
 168 000e 069B     		ldr	r3, [sp, #24]
 169              	.LVL25:
 170 0010 4B70     		strb	r3, [r1, #1]
  66:main.c        ****     I2C_I2CMasterWriteBuf(devAddr, wrBuf, 2, I2C_I2C_MODE_NO_STOP);
 171              		.loc 1 66 0
 172 0012 0223     		movs	r3, #2
 173 0014 0222     		movs	r2, #2
 174              	.LVL26:
 175 0016 2000     		movs	r0, r4
 176              	.LVL27:
 177 0018 FFF7FEFF 		bl	I2C_I2CMasterWriteBuf
 178              	.LVL28:
 179              	.L7:
  67:main.c        ****     while(!(I2C_I2CMasterStatus() & I2C_I2C_MSTAT_WR_CMPLT));
 180              		.loc 1 67 0 discriminator 1
 181 001c FFF7FEFF 		bl	I2C_I2CMasterStatus
 182              	.LVL29:
 183 0020 8307     		lsls	r3, r0, #30
 184 0022 FBD5     		bpl	.L7
  68:main.c        ****     I2C_I2CMasterClearStatus();
 185              		.loc 1 68 0
 186 0024 FFF7FEFF 		bl	I2C_I2CMasterClearStatus
 187              	.LVL30:
  69:main.c        ****     
  70:main.c        ****     I2C_I2CMasterReadBuf(devAddr, readBuf, readBytes, I2C_I2C_MODE_REPEAT_START);
 188              		.loc 1 70 0
 189 0028 0123     		movs	r3, #1
 190 002a 3200     		movs	r2, r6
 191 002c 2900     		movs	r1, r5
 192 002e 2000     		movs	r0, r4
 193 0030 FFF7FEFF 		bl	I2C_I2CMasterReadBuf
 194              	.LVL31:
 195              	.L8:
  71:main.c        ****     while(!(I2C_I2CMasterStatus() & I2C_I2C_MSTAT_RD_CMPLT));
 196              		.loc 1 71 0 discriminator 1
 197 0034 FFF7FEFF 		bl	I2C_I2CMasterStatus
 198              	.LVL32:
 199 0038 C307     		lsls	r3, r0, #31
 200 003a FBD5     		bpl	.L8
  72:main.c        ****     I2C_I2CMasterClearStatus();
 201              		.loc 1 72 0
 202 003c FFF7FEFF 		bl	I2C_I2CMasterClearStatus
 203              	.LVL33:
  73:main.c        ****     
  74:main.c        **** }
 204              		.loc 1 74 0
 205 0040 02B0     		add	sp, sp, #8
 206              		@ sp needed
 207              	.LVL34:
 208              	.LVL35:
 209              	.LVL36:
 210 0042 70BD     		pop	{r4, r5, r6, pc}
 211              		.cfi_endproc
ARM GAS  C:\Users\HELLOK~1\AppData\Local\Temp\ccwDY3zD.s 			page 6


 212              	.LFE36:
 213              		.size	readFromRam, .-readFromRam
 214              		.section	.text.writeToRam,"ax",%progbits
 215              		.align	2
 216              		.global	writeToRam
 217              		.code	16
 218              		.thumb_func
 219              		.type	writeToRam, %function
 220              	writeToRam:
 221              	.LFB37:
  75:main.c        **** void writeToRam(uint8* writeBuf, int writeBytes, uint32 devAddr, uint32 memAddr1, uint32 memAddr2){
 222              		.loc 1 75 0
 223              		.cfi_startproc
 224              		@ args = 4, pretend = 0, frame = 0
 225              		@ frame_needed = 0, uses_anonymous_args = 0
 226              	.LVL37:
 227 0000 10B5     		push	{r4, lr}
 228              		.cfi_def_cfa_offset 8
 229              		.cfi_offset 4, -8
 230              		.cfi_offset 14, -4
 231 0002 1400     		movs	r4, r2
  76:main.c        ****     writeBuf[0] = memAddr1;
 232              		.loc 1 76 0
 233 0004 0370     		strb	r3, [r0]
  77:main.c        ****     writeBuf[1] = memAddr2;
 234              		.loc 1 77 0
 235 0006 029B     		ldr	r3, [sp, #8]
 236              	.LVL38:
 237 0008 4370     		strb	r3, [r0, #1]
  78:main.c        ****     I2C_I2CMasterWriteBuf(devAddr, writeBuf, writeBytes, I2C_I2C_MODE_COMPLETE_XFER);
 238              		.loc 1 78 0
 239 000a 0023     		movs	r3, #0
 240 000c 0A00     		movs	r2, r1
 241              	.LVL39:
 242 000e 0100     		movs	r1, r0
 243              	.LVL40:
 244 0010 2000     		movs	r0, r4
 245              	.LVL41:
 246 0012 FFF7FEFF 		bl	I2C_I2CMasterWriteBuf
 247              	.LVL42:
 248              	.L10:
  79:main.c        ****     while(!(I2C_I2CMasterStatus() & I2C_I2C_MSTAT_WR_CMPLT));
 249              		.loc 1 79 0 discriminator 1
 250 0016 FFF7FEFF 		bl	I2C_I2CMasterStatus
 251              	.LVL43:
 252 001a 8307     		lsls	r3, r0, #30
 253 001c FBD5     		bpl	.L10
  80:main.c        ****     I2C_I2CMasterClearStatus();
 254              		.loc 1 80 0
 255 001e FFF7FEFF 		bl	I2C_I2CMasterClearStatus
 256              	.LVL44:
  81:main.c        **** }
 257              		.loc 1 81 0
 258              		@ sp needed
 259              	.LVL45:
 260 0022 10BD     		pop	{r4, pc}
 261              		.cfi_endproc
ARM GAS  C:\Users\HELLOK~1\AppData\Local\Temp\ccwDY3zD.s 			page 7


 262              	.LFE37:
 263              		.size	writeToRam, .-writeToRam
 264              		.section	.text.clearRam,"ax",%progbits
 265              		.align	2
 266              		.global	clearRam
 267              		.code	16
 268              		.thumb_func
 269              		.type	clearRam, %function
 270              	clearRam:
 271              	.LFB38:
  82:main.c        **** void clearRam(){
 272              		.loc 1 82 0
 273              		.cfi_startproc
 274              		@ args = 0, pretend = 0, frame = 8
 275              		@ frame_needed = 0, uses_anonymous_args = 0
 276 0000 00B5     		push	{lr}
 277              		.cfi_def_cfa_offset 4
 278              		.cfi_offset 14, -4
 279 0002 83B0     		sub	sp, sp, #12
 280              		.cfi_def_cfa_offset 16
  83:main.c        ****     uint8 wrBuf[8] = {0x12, 0x34};
 281              		.loc 1 83 0
 282 0004 0822     		movs	r2, #8
 283 0006 0021     		movs	r1, #0
 284 0008 6846     		mov	r0, sp
 285 000a FFF7FEFF 		bl	memset
 286              	.LVL46:
 287 000e 1223     		movs	r3, #18
 288 0010 6A46     		mov	r2, sp
 289 0012 1370     		strb	r3, [r2]
 290 0014 2233     		adds	r3, r3, #34
 291 0016 5370     		strb	r3, [r2, #1]
 292              	.LVL47:
  84:main.c        ****     for(int i = 2; i > 8; i++){
  85:main.c        ****         wrBuf[i] = 0x00; 
  86:main.c        ****     }
  87:main.c        ****     I2C_I2CMasterWriteBuf(ramLowerAddr, wrBuf, 8, I2C_I2C_MODE_COMPLETE_XFER);
 293              		.loc 1 87 0
 294 0018 0023     		movs	r3, #0
 295 001a 0822     		movs	r2, #8
 296 001c 6946     		mov	r1, sp
 297 001e 5020     		movs	r0, #80
 298 0020 FFF7FEFF 		bl	I2C_I2CMasterWriteBuf
 299              	.LVL48:
 300              	.L12:
  88:main.c        ****     while(!(I2C_I2CMasterStatus() & I2C_I2C_MSTAT_WR_CMPLT));
 301              		.loc 1 88 0 discriminator 1
 302 0024 FFF7FEFF 		bl	I2C_I2CMasterStatus
 303              	.LVL49:
 304 0028 8307     		lsls	r3, r0, #30
 305 002a FBD5     		bpl	.L12
  89:main.c        ****     I2C_I2CMasterClearStatus();
 306              		.loc 1 89 0
 307 002c FFF7FEFF 		bl	I2C_I2CMasterClearStatus
 308              	.LVL50:
  90:main.c        **** }
 309              		.loc 1 90 0
ARM GAS  C:\Users\HELLOK~1\AppData\Local\Temp\ccwDY3zD.s 			page 8


 310 0030 03B0     		add	sp, sp, #12
 311              		@ sp needed
 312 0032 00BD     		pop	{pc}
 313              		.cfi_endproc
 314              	.LFE38:
 315              		.size	clearRam, .-clearRam
 316              		.global	__aeabi_i2f
 317              		.global	__aeabi_fmul
 318              		.section	.text.readAccel,"ax",%progbits
 319              		.align	2
 320              		.global	readAccel
 321              		.code	16
 322              		.thumb_func
 323              		.type	readAccel, %function
 324              	readAccel:
 325              	.LFB39:
  91:main.c        **** 
  92:main.c        **** void readAccel(float* accelValues, struct accelerometer accel){
 326              		.loc 1 92 0
 327              		.cfi_startproc
 328              		@ args = 68, pretend = 16, frame = 16
 329              		@ frame_needed = 0, uses_anonymous_args = 0
 330              	.LVL51:
 331 0000 84B0     		sub	sp, sp, #16
 332              		.cfi_def_cfa_offset 16
 333 0002 F0B5     		push	{r4, r5, r6, r7, lr}
 334              		.cfi_def_cfa_offset 36
 335              		.cfi_offset 4, -36
 336              		.cfi_offset 5, -32
 337              		.cfi_offset 6, -28
 338              		.cfi_offset 7, -24
 339              		.cfi_offset 14, -20
 340 0004 85B0     		sub	sp, sp, #20
 341              		.cfi_def_cfa_offset 56
 342 0006 0500     		movs	r5, r0
 343 0008 0B91     		str	r1, [sp, #44]
 344 000a 0C92     		str	r2, [sp, #48]
 345 000c 0D93     		str	r3, [sp, #52]
  93:main.c        ****         uint8 rdBuf[4];
  94:main.c        ****         readFromAddr(rdBuf, 1, accelAddr, accel.ZOUT_H);
 346              		.loc 1 94 0
 347 000e 109B     		ldr	r3, [sp, #64]
 348 0010 0193     		str	r3, [sp, #4]
 349 0012 03AC     		add	r4, sp, #12
 350 0014 0F22     		movs	r2, #15
 351 0016 0121     		movs	r1, #1
 352 0018 2000     		movs	r0, r4
 353              	.LVL52:
 354 001a FFF7FEFF 		bl	readFromAddr
 355              	.LVL53:
  95:main.c        ****         int8 z_hi = (int8)rdBuf[0];
 356              		.loc 1 95 0
 357 001e 0026     		movs	r6, #0
 358 0020 A657     		ldrsb	r6, [r4, r6]
 359              	.LVL54:
  96:main.c        ****         readFromAddr(rdBuf, 1, accelAddr, accel.ZOUT_L);
 360              		.loc 1 96 0
ARM GAS  C:\Users\HELLOK~1\AppData\Local\Temp\ccwDY3zD.s 			page 9


 361 0022 0F9B     		ldr	r3, [sp, #60]
 362 0024 0193     		str	r3, [sp, #4]
 363 0026 0F22     		movs	r2, #15
 364 0028 0121     		movs	r1, #1
 365 002a 2000     		movs	r0, r4
 366 002c FFF7FEFF 		bl	readFromAddr
 367              	.LVL55:
  97:main.c        ****         int8 z_lo = (int8)rdBuf[0];
 368              		.loc 1 97 0
 369 0030 0023     		movs	r3, #0
 370 0032 E356     		ldrsb	r3, [r4, r3]
 371              	.LVL56:
  98:main.c        ****         accelValues[2] = (float)((float)8/((float)2048))*((z_hi*16) + (z_lo / 16));
 372              		.loc 1 98 0
 373 0034 3001     		lsls	r0, r6, #4
 374 0036 DA17     		asrs	r2, r3, #31
 375 0038 0F26     		movs	r6, #15
 376              	.LVL57:
 377 003a 3240     		ands	r2, r6
 378 003c D318     		adds	r3, r2, r3
 379              	.LVL58:
 380 003e 1B11     		asrs	r3, r3, #4
 381 0040 C018     		adds	r0, r0, r3
 382 0042 FFF7FEFF 		bl	__aeabi_i2f
 383              	.LVL59:
 384 0046 EE21     		movs	r1, #238
 385 0048 8905     		lsls	r1, r1, #22
 386 004a FFF7FEFF 		bl	__aeabi_fmul
 387              	.LVL60:
 388 004e A860     		str	r0, [r5, #8]
  99:main.c        ****         readFromAddr(rdBuf, 1, accelAddr, accel.XOUT_H);
 389              		.loc 1 99 0
 390 0050 0C9B     		ldr	r3, [sp, #48]
 391 0052 0193     		str	r3, [sp, #4]
 392 0054 0F22     		movs	r2, #15
 393 0056 0121     		movs	r1, #1
 394 0058 2000     		movs	r0, r4
 395 005a FFF7FEFF 		bl	readFromAddr
 396              	.LVL61:
 100:main.c        ****         int8 x_hi = (int8)rdBuf[0];
 397              		.loc 1 100 0
 398 005e 0027     		movs	r7, #0
 399 0060 E757     		ldrsb	r7, [r4, r7]
 400              	.LVL62:
 101:main.c        ****         readFromAddr(rdBuf, 1, accelAddr, accel.XOUT_L);
 401              		.loc 1 101 0
 402 0062 0B9B     		ldr	r3, [sp, #44]
 403 0064 0F22     		movs	r2, #15
 404 0066 0121     		movs	r1, #1
 405 0068 2000     		movs	r0, r4
 406 006a FFF7FEFF 		bl	readFromAddr
 407              	.LVL63:
 102:main.c        ****         int8 x_lo = (int8)rdBuf[0];
 408              		.loc 1 102 0
 409 006e 0022     		movs	r2, #0
 410 0070 A256     		ldrsb	r2, [r4, r2]
 411              	.LVL64:
ARM GAS  C:\Users\HELLOK~1\AppData\Local\Temp\ccwDY3zD.s 			page 10


 103:main.c        ****         accelValues[0] = (float)((float)8/((float)2048))*((x_hi*16) + (x_lo / 16));
 412              		.loc 1 103 0
 413 0072 3F01     		lsls	r7, r7, #4
 414              	.LVL65:
 415 0074 D017     		asrs	r0, r2, #31
 416 0076 3040     		ands	r0, r6
 417 0078 8218     		adds	r2, r0, r2
 418              	.LVL66:
 419 007a 1211     		asrs	r2, r2, #4
 420 007c B818     		adds	r0, r7, r2
 421 007e FFF7FEFF 		bl	__aeabi_i2f
 422              	.LVL67:
 423 0082 EE21     		movs	r1, #238
 424 0084 8905     		lsls	r1, r1, #22
 425 0086 FFF7FEFF 		bl	__aeabi_fmul
 426              	.LVL68:
 427 008a 2860     		str	r0, [r5]
 104:main.c        ****         readFromAddr(rdBuf, 1, accelAddr, accel.YOUT_H);
 428              		.loc 1 104 0
 429 008c 0E9B     		ldr	r3, [sp, #56]
 430 008e 0193     		str	r3, [sp, #4]
 431 0090 0F22     		movs	r2, #15
 432 0092 0121     		movs	r1, #1
 433 0094 2000     		movs	r0, r4
 434 0096 FFF7FEFF 		bl	readFromAddr
 435              	.LVL69:
 105:main.c        ****         int8 y_hi = (int8)rdBuf[0];
 436              		.loc 1 105 0
 437 009a 0027     		movs	r7, #0
 438 009c E757     		ldrsb	r7, [r4, r7]
 439              	.LVL70:
 106:main.c        ****         readFromAddr(rdBuf, 1, accelAddr, accel.YOUT_L);
 440              		.loc 1 106 0
 441 009e 0D9B     		ldr	r3, [sp, #52]
 442 00a0 0F22     		movs	r2, #15
 443 00a2 0121     		movs	r1, #1
 444 00a4 2000     		movs	r0, r4
 445 00a6 FFF7FEFF 		bl	readFromAddr
 446              	.LVL71:
 107:main.c        ****         int8 y_lo = (int8)rdBuf[0];
 447              		.loc 1 107 0
 448 00aa 0023     		movs	r3, #0
 449 00ac E356     		ldrsb	r3, [r4, r3]
 450              	.LVL72:
 108:main.c        ****         accelValues[1] = (float)((float)8/((float)2048))*((y_hi*16) + (y_lo / 16));
 451              		.loc 1 108 0
 452 00ae 3F01     		lsls	r7, r7, #4
 453              	.LVL73:
 454 00b0 D817     		asrs	r0, r3, #31
 455 00b2 0640     		ands	r6, r0
 456 00b4 F318     		adds	r3, r6, r3
 457              	.LVL74:
 458 00b6 1B11     		asrs	r3, r3, #4
 459 00b8 F818     		adds	r0, r7, r3
 460 00ba FFF7FEFF 		bl	__aeabi_i2f
 461              	.LVL75:
 462 00be EE21     		movs	r1, #238
ARM GAS  C:\Users\HELLOK~1\AppData\Local\Temp\ccwDY3zD.s 			page 11


 463 00c0 8905     		lsls	r1, r1, #22
 464 00c2 FFF7FEFF 		bl	__aeabi_fmul
 465              	.LVL76:
 466 00c6 6860     		str	r0, [r5, #4]
 109:main.c        **** }
 467              		.loc 1 109 0
 468 00c8 05B0     		add	sp, sp, #20
 469              		@ sp needed
 470              	.LVL77:
 471 00ca F0BC     		pop	{r4, r5, r6, r7}
 472 00cc 08BC     		pop	{r3}
 473 00ce 04B0     		add	sp, sp, #16
 474 00d0 1847     		bx	r3
 475              		.cfi_endproc
 476              	.LFE39:
 477              		.size	readAccel, .-readAccel
 478 00d2 C046     		.section	.text.main,"ax",%progbits
 479              		.align	2
 480              		.global	main
 481              		.code	16
 482              		.thumb_func
 483              		.type	main, %function
 484              	main:
 485              	.LFB40:
 110:main.c        **** int main(void)
 111:main.c        **** {
 486              		.loc 1 111 0
 487              		.cfi_startproc
 488              		@ args = 0, pretend = 0, frame = 32
 489              		@ frame_needed = 0, uses_anonymous_args = 0
 490 0000 30B5     		push	{r4, r5, lr}
 491              		.cfi_def_cfa_offset 12
 492              		.cfi_offset 4, -12
 493              		.cfi_offset 5, -8
 494              		.cfi_offset 14, -4
 495 0002 8BB0     		sub	sp, sp, #44
 496              		.cfi_def_cfa_offset 56
 112:main.c        ****     struct accelerometer accel = {
 113:main.c        ****         0x06,
 114:main.c        ****         0x07,
 115:main.c        ****         0x08,
 116:main.c        ****         0x09,
 117:main.c        ****         0x0A,
 118:main.c        ****         0x0B,
 119:main.c        ****         0x1B,
 120:main.c        ****         0x1D,
 121:main.c        ****         0x17,
 122:main.c        ****         0x1A,
 123:main.c        ****         0x21,
 124:main.c        ****         0x6A,
 125:main.c        ****         0x29,
 126:main.c        ****         0x1E,
 127:main.c        ****         0x1F,
 128:main.c        ****         0x0F
 129:main.c        ****     };
 130:main.c        ****     struct FRAM ram = {
 131:main.c        ****         0x34,
ARM GAS  C:\Users\HELLOK~1\AppData\Local\Temp\ccwDY3zD.s 			page 12


 132:main.c        ****         0x35,
 133:main.c        ****         0x36
 134:main.c        ****     };
 135:main.c        ****     
 136:main.c        ****     CyGlobalIntEnable; /* Enable global interrupts. */
 497              		.loc 1 136 0
 498              		.syntax divided
 499              	@ 136 "main.c" 1
 500 0004 62B6     		CPSIE   i
 501              	@ 0 "" 2
 137:main.c        ****     /* Place your initialization/startup code here (e.g. MyInst_Start()) */
 138:main.c        ****     I2C_Start();
 502              		.loc 1 138 0
 503              		.thumb
 504              		.syntax unified
 505 0006 FFF7FEFF 		bl	I2C_Start
 506              	.LVL78:
 139:main.c        ****     LED_R_Write(1);
 507              		.loc 1 139 0
 508 000a 0120     		movs	r0, #1
 509 000c FFF7FEFF 		bl	LED_R_Write
 510              	.LVL79:
 140:main.c        ****     LED_B_Write(1);
 511              		.loc 1 140 0
 512 0010 0120     		movs	r0, #1
 513 0012 FFF7FEFF 		bl	LED_B_Write
 514              	.LVL80:
 141:main.c        ****     LED_G_Write(1);
 515              		.loc 1 141 0
 516 0016 0120     		movs	r0, #1
 517 0018 FFF7FEFF 		bl	LED_G_Write
 518              	.LVL81:
 142:main.c        **** //    // Turning on accel and setting settings
 143:main.c        ****     uint8 wrBuf[2];
 144:main.c        ****     wrBuf[1] = 0x00 | (0x00 | 0x40 | 0x20 | 0x10 | 0x00 | 0x02);
 519              		.loc 1 144 0
 520 001c 09AC     		add	r4, sp, #36
 521 001e 7223     		movs	r3, #114
 522 0020 6370     		strb	r3, [r4, #1]
 145:main.c        ****     writeToAddr(wrBuf, 2, accelAddr, accel.CtrlReg1);
 523              		.loc 1 145 0
 524 0022 573B     		subs	r3, r3, #87
 525 0024 0F22     		movs	r2, #15
 526 0026 0221     		movs	r1, #2
 527 0028 2000     		movs	r0, r4
 528 002a FFF7FEFF 		bl	writeToAddr
 529              	.LVL82:
 146:main.c        **** //    // Set timer
 147:main.c        ****     uint8 count = 10;
 148:main.c        ****     wrBuf[1] = count;
 530              		.loc 1 148 0
 531 002e 0A23     		movs	r3, #10
 532 0030 6370     		strb	r3, [r4, #1]
 149:main.c        ****     writeToAddr(wrBuf, 2, accelAddr, accel.WakeupTimer);
 533              		.loc 1 149 0
 534 0032 1F33     		adds	r3, r3, #31
 535 0034 0F22     		movs	r2, #15
ARM GAS  C:\Users\HELLOK~1\AppData\Local\Temp\ccwDY3zD.s 			page 13


 536 0036 0221     		movs	r1, #2
 537 0038 2000     		movs	r0, r4
 538 003a FFF7FEFF 		bl	writeToAddr
 539              	.LVL83:
 150:main.c        **** //    // Set threshold
 151:main.c        ****     uint8 threshold = 3;
 152:main.c        ****     wrBuf[1] = threshold*16;
 540              		.loc 1 152 0
 541 003e 3025     		movs	r5, #48
 542 0040 6570     		strb	r5, [r4, #1]
 153:main.c        ****     writeToAddr(wrBuf, 2, accelAddr, accel.WakeupThreshold);
 543              		.loc 1 153 0
 544 0042 6A23     		movs	r3, #106
 545 0044 0F22     		movs	r2, #15
 546 0046 0221     		movs	r1, #2
 547 0048 2000     		movs	r0, r4
 548 004a FFF7FEFF 		bl	writeToAddr
 549              	.LVL84:
 154:main.c        ****     wrBuf[1] = 0x00 | (0x04);
 550              		.loc 1 154 0
 551 004e 0423     		movs	r3, #4
 552 0050 6370     		strb	r3, [r4, #1]
 155:main.c        ****     writeToAddr(wrBuf, 2, accelAddr, accel.CtrlReg2);
 553              		.loc 1 155 0
 554 0052 1933     		adds	r3, r3, #25
 555 0054 0F22     		movs	r2, #15
 556 0056 0221     		movs	r1, #2
 557 0058 2000     		movs	r0, r4
 558 005a FFF7FEFF 		bl	writeToAddr
 559              	.LVL85:
 156:main.c        ****     wrBuf[1] = 0x00 | (0x20 | 0x10 | 0x08 | 0x04 | 0x02 | 0x01);
 560              		.loc 1 156 0
 561 005e 3F23     		movs	r3, #63
 562 0060 6370     		strb	r3, [r4, #1]
 157:main.c        ****     writeToAddr(wrBuf, 2, accelAddr, accel.IntCtrlReg2);
 563              		.loc 1 157 0
 564 0062 203B     		subs	r3, r3, #32
 565 0064 0F22     		movs	r2, #15
 566 0066 0221     		movs	r1, #2
 567 0068 2000     		movs	r0, r4
 568 006a FFF7FEFF 		bl	writeToAddr
 569              	.LVL86:
 158:main.c        ****     wrBuf[1] = 0x00 | (0x20 | 0x10);
 570              		.loc 1 158 0
 571 006e 6570     		strb	r5, [r4, #1]
 159:main.c        ****     writeToAddr(wrBuf, 2, accelAddr, accel.IntCtrlReg1);
 572              		.loc 1 159 0
 573 0070 1E23     		movs	r3, #30
 574 0072 0F22     		movs	r2, #15
 575 0074 0221     		movs	r1, #2
 576 0076 2000     		movs	r0, r4
 577 0078 FFF7FEFF 		bl	writeToAddr
 578              	.LVL87:
 160:main.c        ****     
 161:main.c        ****     wrBuf[1] = 0x00 | (0x80 | 0x00 | 0x00 | 0x10 | 0x00 | 0x02);
 579              		.loc 1 161 0
 580 007c 9223     		movs	r3, #146
ARM GAS  C:\Users\HELLOK~1\AppData\Local\Temp\ccwDY3zD.s 			page 14


 581 007e 6370     		strb	r3, [r4, #1]
 162:main.c        ****     writeToAddr(wrBuf, 2, accelAddr, accel.CtrlReg1);
 582              		.loc 1 162 0
 583 0080 773B     		subs	r3, r3, #119
 584 0082 0F22     		movs	r2, #15
 585 0084 0221     		movs	r1, #2
 586 0086 2000     		movs	r0, r4
 587 0088 FFF7FEFF 		bl	writeToAddr
 588              	.LVL88:
 163:main.c        ****     wrBuf[1] = 0x00 | (0x01);
 589              		.loc 1 163 0
 590 008c 0123     		movs	r3, #1
 591 008e 6370     		strb	r3, [r4, #1]
 164:main.c        ****     writeToAddr(wrBuf, 2, accelAddr, accel.DataCtrlReg);
 592              		.loc 1 164 0
 593 0090 2033     		adds	r3, r3, #32
 594 0092 0F22     		movs	r2, #15
 595 0094 0221     		movs	r1, #2
 596 0096 2000     		movs	r0, r4
 597 0098 FFF7FEFF 		bl	writeToAddr
 598              	.LVL89:
 165:main.c        ****     
 166:main.c        ****     volatile uint8 reg[6];
 167:main.c        ****     uint8 rdBuf[1];
 168:main.c        ****     readFromAddr(rdBuf, 1, accelAddr, accel.WakeupTimer);
 599              		.loc 1 168 0
 600 009c 06AC     		add	r4, sp, #24
 601 009e 2923     		movs	r3, #41
 602 00a0 0F22     		movs	r2, #15
 603 00a2 0121     		movs	r1, #1
 604 00a4 2000     		movs	r0, r4
 605 00a6 FFF7FEFF 		bl	readFromAddr
 606              	.LVL90:
 169:main.c        ****     reg[0] = rdBuf[0];
 607              		.loc 1 169 0
 608 00aa 2378     		ldrb	r3, [r4]
 609 00ac 07AD     		add	r5, sp, #28
 610 00ae 2B70     		strb	r3, [r5]
 170:main.c        ****     readFromAddr(rdBuf, 1, accelAddr, accel.CtrlReg1);
 611              		.loc 1 170 0
 612 00b0 1B23     		movs	r3, #27
 613 00b2 0F22     		movs	r2, #15
 614 00b4 0121     		movs	r1, #1
 615 00b6 2000     		movs	r0, r4
 616 00b8 FFF7FEFF 		bl	readFromAddr
 617              	.LVL91:
 171:main.c        ****     reg[1] = rdBuf[0];
 618              		.loc 1 171 0
 619 00bc 2378     		ldrb	r3, [r4]
 620 00be 6B70     		strb	r3, [r5, #1]
 172:main.c        ****     readFromAddr(rdBuf, 1, accelAddr, accel.WakeupThreshold);
 621              		.loc 1 172 0
 622 00c0 6A23     		movs	r3, #106
 623 00c2 0F22     		movs	r2, #15
 624 00c4 0121     		movs	r1, #1
 625 00c6 2000     		movs	r0, r4
 626 00c8 FFF7FEFF 		bl	readFromAddr
ARM GAS  C:\Users\HELLOK~1\AppData\Local\Temp\ccwDY3zD.s 			page 15


 627              	.LVL92:
 173:main.c        ****     reg[2] = rdBuf[0];
 628              		.loc 1 173 0
 629 00cc 2378     		ldrb	r3, [r4]
 630 00ce AB70     		strb	r3, [r5, #2]
 174:main.c        ****     readFromAddr(rdBuf, 1, accelAddr, accel.CtrlReg2);
 631              		.loc 1 174 0
 632 00d0 1D23     		movs	r3, #29
 633 00d2 0F22     		movs	r2, #15
 634 00d4 0121     		movs	r1, #1
 635 00d6 2000     		movs	r0, r4
 636 00d8 FFF7FEFF 		bl	readFromAddr
 637              	.LVL93:
 175:main.c        ****     reg[3] = rdBuf[0];
 638              		.loc 1 175 0
 639 00dc 2378     		ldrb	r3, [r4]
 640 00de EB70     		strb	r3, [r5, #3]
 176:main.c        ****     readFromAddr(rdBuf, 1, accelAddr, accel.DataCtrlReg);
 641              		.loc 1 176 0
 642 00e0 2123     		movs	r3, #33
 643 00e2 0F22     		movs	r2, #15
 644 00e4 0121     		movs	r1, #1
 645 00e6 2000     		movs	r0, r4
 646 00e8 FFF7FEFF 		bl	readFromAddr
 647              	.LVL94:
 177:main.c        ****     reg[4] = rdBuf[0];
 648              		.loc 1 177 0
 649 00ec 2378     		ldrb	r3, [r4]
 650 00ee 2B71     		strb	r3, [r5, #4]
 178:main.c        ****     readFromAddr(rdBuf, 1, accelAddr, accel.IntCtrlReg1);
 651              		.loc 1 178 0
 652 00f0 1E23     		movs	r3, #30
 653 00f2 0F22     		movs	r2, #15
 654 00f4 0121     		movs	r1, #1
 655 00f6 2000     		movs	r0, r4
 656 00f8 FFF7FEFF 		bl	readFromAddr
 657              	.LVL95:
 179:main.c        ****     reg[5] = rdBuf[0];
 658              		.loc 1 179 0
 659 00fc 2378     		ldrb	r3, [r4]
 660 00fe 6B71     		strb	r3, [r5, #5]
 180:main.c        ****     
 181:main.c        ****     CyDelay(12);
 661              		.loc 1 181 0
 662 0100 0C20     		movs	r0, #12
 663 0102 FFF7FEFF 		bl	CyDelay
 664              	.LVL96:
 182:main.c        ****     readFromAddr(rdBuf, 1, accelAddr, accel.IntRel);
 665              		.loc 1 182 0
 666 0106 1A23     		movs	r3, #26
 667 0108 0F22     		movs	r2, #15
 668 010a 0121     		movs	r1, #1
 669 010c 2000     		movs	r0, r4
 670 010e FFF7FEFF 		bl	readFromAddr
 671              	.LVL97:
 183:main.c        ****     CyDelay(12);
 672              		.loc 1 183 0
ARM GAS  C:\Users\HELLOK~1\AppData\Local\Temp\ccwDY3zD.s 			page 16


 673 0112 0C20     		movs	r0, #12
 674 0114 FFF7FEFF 		bl	CyDelay
 675              	.LVL98:
 184:main.c        ****     
 185:main.c        ****     ACCEL_ISR_Start();
 676              		.loc 1 185 0
 677 0118 FFF7FEFF 		bl	ACCEL_ISR_Start
 678              	.LVL99:
 186:main.c        ****     TEST_ISR_Start();
 679              		.loc 1 186 0
 680 011c FFF7FEFF 		bl	TEST_ISR_Start
 681              	.LVL100:
 187:main.c        ****     TEST_ISR_Enable();
 682              		.loc 1 187 0
 683 0120 FFF7FEFF 		bl	TEST_ISR_Enable
 684              	.LVL101:
 685              	.L20:
 188:main.c        ****     
 189:main.c        ****     for(;;)
 190:main.c        ****     {
 191:main.c        ****         /* Place your application code here. */
 192:main.c        ****         
 193:main.c        ****         CySysPmDeepSleep();
 686              		.loc 1 193 0
 687 0124 FFF7FEFF 		bl	CySysPmDeepSleep
 688              	.LVL102:
 194:main.c        ****         if(accelFlag){
 689              		.loc 1 194 0
 690 0128 264B     		ldr	r3, .L22
 691 012a 1B68     		ldr	r3, [r3]
 692 012c 002B     		cmp	r3, #0
 693 012e 36D0     		beq	.L15
 694              	.LBB2:
 195:main.c        ****             accelFlag = 0;
 695              		.loc 1 195 0
 696 0130 0022     		movs	r2, #0
 697 0132 244B     		ldr	r3, .L22
 698 0134 1A60     		str	r2, [r3]
 196:main.c        ****             uint8 rdBuf[1];
 197:main.c        ****             readFromAddr(rdBuf, 1, accelAddr, accel.IntSrc2);
 699              		.loc 1 197 0
 700 0136 02AC     		add	r4, sp, #8
 701 0138 1723     		movs	r3, #23
 702 013a 0F32     		adds	r2, r2, #15
 703 013c 0121     		movs	r1, #1
 704 013e 2000     		movs	r0, r4
 705 0140 FFF7FEFF 		bl	readFromAddr
 706              	.LVL103:
 198:main.c        ****             uint8 reg = rdBuf[0];
 707              		.loc 1 198 0
 708 0144 2478     		ldrb	r4, [r4]
 709              	.LVL104:
 199:main.c        ****             // Check for x
 200:main.c        ****             if(reg&(0x10) || reg&(0x20)){
 710              		.loc 1 200 0
 711 0146 3023     		movs	r3, #48
 712 0148 2342     		tst	r3, r4
ARM GAS  C:\Users\HELLOK~1\AppData\Local\Temp\ccwDY3zD.s 			page 17


 713 014a 09D0     		beq	.L16
 714              	.LBB3:
 201:main.c        ****                 uint8 wrBuf[3];
 202:main.c        ****                 wrBuf[2] = 0xFF;
 715              		.loc 1 202 0
 716 014c 03A8     		add	r0, sp, #12
 717 014e CF33     		adds	r3, r3, #207
 718 0150 8370     		strb	r3, [r0, #2]
 203:main.c        ****                 writeToRam(wrBuf,3, ramLowerAddr, 0x12, ram.Xint);
 719              		.loc 1 203 0
 720 0152 CB3B     		subs	r3, r3, #203
 721 0154 0093     		str	r3, [sp]
 722 0156 223B     		subs	r3, r3, #34
 723 0158 5022     		movs	r2, #80
 724 015a 0321     		movs	r1, #3
 725 015c FFF7FEFF 		bl	writeToRam
 726              	.LVL105:
 727              	.L16:
 728              	.LBE3:
 204:main.c        ****             }
 205:main.c        ****             // Check for y
 206:main.c        ****             if(reg&(0x08) || reg&(0x04)){
 729              		.loc 1 206 0
 730 0160 0C23     		movs	r3, #12
 731 0162 2342     		tst	r3, r4
 732 0164 09D0     		beq	.L17
 733              	.LBB4:
 207:main.c        ****                 uint8 wrBuf[3];
 208:main.c        ****                 wrBuf[2] = 0xFF;
 734              		.loc 1 208 0
 735 0166 03A8     		add	r0, sp, #12
 736 0168 F333     		adds	r3, r3, #243
 737 016a 8370     		strb	r3, [r0, #2]
 209:main.c        ****                 writeToRam(wrBuf,3, ramLowerAddr, 0x12, ram.Yint);
 738              		.loc 1 209 0
 739 016c CA3B     		subs	r3, r3, #202
 740 016e 0093     		str	r3, [sp]
 741 0170 233B     		subs	r3, r3, #35
 742 0172 5022     		movs	r2, #80
 743 0174 0321     		movs	r1, #3
 744 0176 FFF7FEFF 		bl	writeToRam
 745              	.LVL106:
 746              	.L17:
 747              	.LBE4:
 210:main.c        ****             }
 211:main.c        ****             // Check for z
 212:main.c        ****             if(reg&(0x02) || reg&(0x01)){
 748              		.loc 1 212 0
 749 017a A307     		lsls	r3, r4, #30
 750 017c 09D0     		beq	.L18
 751              	.LBB5:
 213:main.c        ****                 uint8 wrBuf[3];
 214:main.c        ****                 wrBuf[2] = 0xFF;
 752              		.loc 1 214 0
 753 017e 03A8     		add	r0, sp, #12
 754 0180 FF23     		movs	r3, #255
 755 0182 8370     		strb	r3, [r0, #2]
ARM GAS  C:\Users\HELLOK~1\AppData\Local\Temp\ccwDY3zD.s 			page 18


 215:main.c        ****                 writeToRam(wrBuf,3, ramLowerAddr, 0x12, ram.Zint);
 756              		.loc 1 215 0
 757 0184 C93B     		subs	r3, r3, #201
 758 0186 0093     		str	r3, [sp]
 759 0188 243B     		subs	r3, r3, #36
 760 018a 5022     		movs	r2, #80
 761 018c 0321     		movs	r1, #3
 762 018e FFF7FEFF 		bl	writeToRam
 763              	.LVL107:
 764              	.L18:
 765              	.LBE5:
 216:main.c        ****             }
 217:main.c        ****             // Clear reg
 218:main.c        ****             readFromAddr(rdBuf, 1, accelAddr, accel.IntRel);
 766              		.loc 1 218 0 discriminator 1
 767 0192 1A23     		movs	r3, #26
 768 0194 0F22     		movs	r2, #15
 769 0196 0121     		movs	r1, #1
 770 0198 02A8     		add	r0, sp, #8
 771 019a FFF7FEFF 		bl	readFromAddr
 772              	.LVL108:
 773              	.L15:
 774              	.LBE2:
 219:main.c        ****         }
 220:main.c        ****         if(buttonFlag == 2){
 775              		.loc 1 220 0
 776 019e 094B     		ldr	r3, .L22
 777 01a0 5B68     		ldr	r3, [r3, #4]
 778 01a2 022B     		cmp	r3, #2
 779 01a4 03D1     		bne	.L19
 780              	.LBB6:
 221:main.c        ****             volatile int thing = 2;
 781              		.loc 1 221 0
 782 01a6 0493     		str	r3, [sp, #16]
 222:main.c        ****             buttonFlag = 0;
 783              		.loc 1 222 0
 784 01a8 0022     		movs	r2, #0
 785 01aa 064B     		ldr	r3, .L22
 786 01ac 5A60     		str	r2, [r3, #4]
 787              	.L19:
 788              	.LBE6:
 223:main.c        ****         }
 224:main.c        ****         if(buttonFlag == 1){
 789              		.loc 1 224 0
 790 01ae 054B     		ldr	r3, .L22
 791 01b0 5B68     		ldr	r3, [r3, #4]
 792 01b2 012B     		cmp	r3, #1
 793 01b4 B6D1     		bne	.L20
 794              	.LBB7:
 225:main.c        ****             volatile int thing = 3;
 795              		.loc 1 225 0
 796 01b6 0233     		adds	r3, r3, #2
 797 01b8 0593     		str	r3, [sp, #20]
 226:main.c        ****             buttonFlag = 0;
 798              		.loc 1 226 0
 799 01ba 0022     		movs	r2, #0
 800 01bc 014B     		ldr	r3, .L22
ARM GAS  C:\Users\HELLOK~1\AppData\Local\Temp\ccwDY3zD.s 			page 19


 801 01be 5A60     		str	r2, [r3, #4]
 802 01c0 B0E7     		b	.L20
 803              	.L23:
 804 01c2 C046     		.align	2
 805              	.L22:
 806 01c4 00000000 		.word	.LANCHOR0
 807              	.LBE7:
 808              		.cfi_endproc
 809              	.LFE40:
 810              		.size	main, .-main
 811              		.global	buttonFlag
 812              		.global	accelFlag
 813              		.bss
 814              		.align	2
 815              		.set	.LANCHOR0,. + 0
 816              		.type	accelFlag, %object
 817              		.size	accelFlag, 4
 818              	accelFlag:
 819 0000 00000000 		.space	4
 820              		.type	buttonFlag, %object
 821              		.size	buttonFlag, 4
 822              	buttonFlag:
 823 0004 00000000 		.space	4
 824              		.text
 825              	.Letext0:
 826              		.file 2 "Generated_Source\\PSoC4/cytypes.h"
 827              		.file 3 "Generated_Source\\PSoC4/I2C_I2C.h"
 828              		.file 4 "Generated_Source\\PSoC4/I2C.h"
 829              		.file 5 "Generated_Source\\PSoC4/LED_R.h"
 830              		.file 6 "Generated_Source\\PSoC4/LED_B.h"
 831              		.file 7 "Generated_Source\\PSoC4/LED_G.h"
 832              		.file 8 "Generated_Source\\PSoC4/CyLib.h"
 833              		.file 9 "Generated_Source\\PSoC4/ACCEL_ISR.h"
 834              		.file 10 "Generated_Source\\PSoC4/TEST_ISR.h"
 835              		.file 11 "Generated_Source\\PSoC4/cyPm.h"