ARM GAS  C:\Users\HELLOK~1\AppData\Local\Temp\cc46Rz0b.s 			page 1


   1              		.syntax unified
   2              		.cpu cortex-m0
   3              		.fpu softvfp
   4              		.eabi_attribute 20, 1
   5              		.eabi_attribute 21, 1
   6              		.eabi_attribute 23, 3
   7              		.eabi_attribute 24, 1
   8              		.eabi_attribute 25, 1
   9              		.eabi_attribute 26, 1
  10              		.eabi_attribute 30, 1
  11              		.eabi_attribute 34, 0
  12              		.eabi_attribute 18, 4
  13              		.thumb
  14              		.syntax unified
  15              		.file	"TEST_ISR.c"
  16              		.text
  17              	.Ltext0:
  18              		.cfi_sections	.debug_frame
  19              		.section	.text.TEST_ISR_Interrupt,"ax",%progbits
  20              		.align	2
  21              		.global	TEST_ISR_Interrupt
  22              		.code	16
  23              		.thumb_func
  24              		.type	TEST_ISR_Interrupt, %function
  25              	TEST_ISR_Interrupt:
  26              	.LFB4:
  27              		.file 1 "Generated_Source\\PSoC4\\TEST_ISR.c"
   1:Generated_Source\PSoC4/TEST_ISR.c **** /*******************************************************************************
   2:Generated_Source\PSoC4/TEST_ISR.c **** * File Name: TEST_ISR.c  
   3:Generated_Source\PSoC4/TEST_ISR.c **** * Version 1.71
   4:Generated_Source\PSoC4/TEST_ISR.c **** *
   5:Generated_Source\PSoC4/TEST_ISR.c **** *  Description:
   6:Generated_Source\PSoC4/TEST_ISR.c **** *   API for controlling the state of an interrupt.
   7:Generated_Source\PSoC4/TEST_ISR.c **** *
   8:Generated_Source\PSoC4/TEST_ISR.c **** *
   9:Generated_Source\PSoC4/TEST_ISR.c **** *  Note:
  10:Generated_Source\PSoC4/TEST_ISR.c **** *
  11:Generated_Source\PSoC4/TEST_ISR.c **** ********************************************************************************
  12:Generated_Source\PSoC4/TEST_ISR.c **** * Copyright 2008-2015, Cypress Semiconductor Corporation.  All rights reserved.
  13:Generated_Source\PSoC4/TEST_ISR.c **** * You may use this file only in accordance with the license, terms, conditions, 
  14:Generated_Source\PSoC4/TEST_ISR.c **** * disclaimers, and limitations in the end user license agreement accompanying 
  15:Generated_Source\PSoC4/TEST_ISR.c **** * the software package with which this file was provided.
  16:Generated_Source\PSoC4/TEST_ISR.c **** *******************************************************************************/
  17:Generated_Source\PSoC4/TEST_ISR.c **** 
  18:Generated_Source\PSoC4/TEST_ISR.c **** 
  19:Generated_Source\PSoC4/TEST_ISR.c **** #include <cydevice_trm.h>
  20:Generated_Source\PSoC4/TEST_ISR.c **** #include <CyLib.h>
  21:Generated_Source\PSoC4/TEST_ISR.c **** #include <TEST_ISR.h>
  22:Generated_Source\PSoC4/TEST_ISR.c **** #include "cyapicallbacks.h"
  23:Generated_Source\PSoC4/TEST_ISR.c **** 
  24:Generated_Source\PSoC4/TEST_ISR.c **** #if !defined(TEST_ISR__REMOVED) /* Check for removal by optimization */
  25:Generated_Source\PSoC4/TEST_ISR.c **** 
  26:Generated_Source\PSoC4/TEST_ISR.c **** /*******************************************************************************
  27:Generated_Source\PSoC4/TEST_ISR.c **** *  Place your includes, defines and code here 
  28:Generated_Source\PSoC4/TEST_ISR.c **** ********************************************************************************/
  29:Generated_Source\PSoC4/TEST_ISR.c **** /* `#START TEST_ISR_intc` */
  30:Generated_Source\PSoC4/TEST_ISR.c **** 
ARM GAS  C:\Users\HELLOK~1\AppData\Local\Temp\cc46Rz0b.s 			page 2


  31:Generated_Source\PSoC4/TEST_ISR.c **** // Get flag and file
  32:Generated_Source\PSoC4/TEST_ISR.c **** extern volatile int buttonFlag;
  33:Generated_Source\PSoC4/TEST_ISR.c **** #include "TEST.h"
  34:Generated_Source\PSoC4/TEST_ISR.c **** /* `#END` */
  35:Generated_Source\PSoC4/TEST_ISR.c **** 
  36:Generated_Source\PSoC4/TEST_ISR.c **** extern cyisraddress CyRamVectors[CYINT_IRQ_BASE + CY_NUM_INTERRUPTS];
  37:Generated_Source\PSoC4/TEST_ISR.c **** 
  38:Generated_Source\PSoC4/TEST_ISR.c **** /* Declared in startup, used to set unused interrupts to. */
  39:Generated_Source\PSoC4/TEST_ISR.c **** CY_ISR_PROTO(IntDefaultHandler);
  40:Generated_Source\PSoC4/TEST_ISR.c **** 
  41:Generated_Source\PSoC4/TEST_ISR.c **** 
  42:Generated_Source\PSoC4/TEST_ISR.c **** /*******************************************************************************
  43:Generated_Source\PSoC4/TEST_ISR.c **** * Function Name: TEST_ISR_Start
  44:Generated_Source\PSoC4/TEST_ISR.c **** ********************************************************************************
  45:Generated_Source\PSoC4/TEST_ISR.c **** *
  46:Generated_Source\PSoC4/TEST_ISR.c **** * Summary:
  47:Generated_Source\PSoC4/TEST_ISR.c **** *  Set up the interrupt and enable it. This function disables the interrupt, 
  48:Generated_Source\PSoC4/TEST_ISR.c **** *  sets the default interrupt vector, sets the priority from the value in the
  49:Generated_Source\PSoC4/TEST_ISR.c **** *  Design Wide Resources Interrupt Editor, then enables the interrupt to the 
  50:Generated_Source\PSoC4/TEST_ISR.c **** *  interrupt controller.
  51:Generated_Source\PSoC4/TEST_ISR.c **** *
  52:Generated_Source\PSoC4/TEST_ISR.c **** * Parameters:  
  53:Generated_Source\PSoC4/TEST_ISR.c **** *   None
  54:Generated_Source\PSoC4/TEST_ISR.c **** *
  55:Generated_Source\PSoC4/TEST_ISR.c **** * Return:
  56:Generated_Source\PSoC4/TEST_ISR.c **** *   None
  57:Generated_Source\PSoC4/TEST_ISR.c **** *
  58:Generated_Source\PSoC4/TEST_ISR.c **** *******************************************************************************/
  59:Generated_Source\PSoC4/TEST_ISR.c **** void TEST_ISR_Start(void)
  60:Generated_Source\PSoC4/TEST_ISR.c **** {
  61:Generated_Source\PSoC4/TEST_ISR.c ****     /* For all we know the interrupt is active. */
  62:Generated_Source\PSoC4/TEST_ISR.c ****     TEST_ISR_Disable();
  63:Generated_Source\PSoC4/TEST_ISR.c **** 
  64:Generated_Source\PSoC4/TEST_ISR.c ****     /* Set the ISR to point to the TEST_ISR Interrupt. */
  65:Generated_Source\PSoC4/TEST_ISR.c ****     TEST_ISR_SetVector(&TEST_ISR_Interrupt);
  66:Generated_Source\PSoC4/TEST_ISR.c **** 
  67:Generated_Source\PSoC4/TEST_ISR.c ****     /* Set the priority. */
  68:Generated_Source\PSoC4/TEST_ISR.c ****     TEST_ISR_SetPriority((uint8)TEST_ISR_INTC_PRIOR_NUMBER);
  69:Generated_Source\PSoC4/TEST_ISR.c **** 
  70:Generated_Source\PSoC4/TEST_ISR.c ****     /* Enable it. */
  71:Generated_Source\PSoC4/TEST_ISR.c ****     TEST_ISR_Enable();
  72:Generated_Source\PSoC4/TEST_ISR.c **** }
  73:Generated_Source\PSoC4/TEST_ISR.c **** 
  74:Generated_Source\PSoC4/TEST_ISR.c **** 
  75:Generated_Source\PSoC4/TEST_ISR.c **** /*******************************************************************************
  76:Generated_Source\PSoC4/TEST_ISR.c **** * Function Name: TEST_ISR_StartEx
  77:Generated_Source\PSoC4/TEST_ISR.c **** ********************************************************************************
  78:Generated_Source\PSoC4/TEST_ISR.c **** *
  79:Generated_Source\PSoC4/TEST_ISR.c **** * Summary:
  80:Generated_Source\PSoC4/TEST_ISR.c **** *  Sets up the interrupt and enables it. This function disables the interrupt,
  81:Generated_Source\PSoC4/TEST_ISR.c **** *  sets the interrupt vector based on the address passed in, sets the priority 
  82:Generated_Source\PSoC4/TEST_ISR.c **** *  from the value in the Design Wide Resources Interrupt Editor, then enables 
  83:Generated_Source\PSoC4/TEST_ISR.c **** *  the interrupt to the interrupt controller.
  84:Generated_Source\PSoC4/TEST_ISR.c **** *  
  85:Generated_Source\PSoC4/TEST_ISR.c **** *  When defining ISR functions, the CY_ISR and CY_ISR_PROTO macros should be 
  86:Generated_Source\PSoC4/TEST_ISR.c **** *  used to provide consistent definition across compilers:
  87:Generated_Source\PSoC4/TEST_ISR.c **** *  
ARM GAS  C:\Users\HELLOK~1\AppData\Local\Temp\cc46Rz0b.s 			page 3


  88:Generated_Source\PSoC4/TEST_ISR.c **** *  Function definition example:
  89:Generated_Source\PSoC4/TEST_ISR.c **** *   CY_ISR(MyISR)
  90:Generated_Source\PSoC4/TEST_ISR.c **** *   {
  91:Generated_Source\PSoC4/TEST_ISR.c **** *   }
  92:Generated_Source\PSoC4/TEST_ISR.c **** *   Function prototype example:
  93:Generated_Source\PSoC4/TEST_ISR.c **** *   CY_ISR_PROTO(MyISR);
  94:Generated_Source\PSoC4/TEST_ISR.c **** *
  95:Generated_Source\PSoC4/TEST_ISR.c **** * Parameters:  
  96:Generated_Source\PSoC4/TEST_ISR.c **** *   address: Address of the ISR to set in the interrupt vector table.
  97:Generated_Source\PSoC4/TEST_ISR.c **** *
  98:Generated_Source\PSoC4/TEST_ISR.c **** * Return:
  99:Generated_Source\PSoC4/TEST_ISR.c **** *   None
 100:Generated_Source\PSoC4/TEST_ISR.c **** *
 101:Generated_Source\PSoC4/TEST_ISR.c **** *******************************************************************************/
 102:Generated_Source\PSoC4/TEST_ISR.c **** void TEST_ISR_StartEx(cyisraddress address)
 103:Generated_Source\PSoC4/TEST_ISR.c **** {
 104:Generated_Source\PSoC4/TEST_ISR.c ****     /* For all we know the interrupt is active. */
 105:Generated_Source\PSoC4/TEST_ISR.c ****     TEST_ISR_Disable();
 106:Generated_Source\PSoC4/TEST_ISR.c **** 
 107:Generated_Source\PSoC4/TEST_ISR.c ****     /* Set the ISR to point to the TEST_ISR Interrupt. */
 108:Generated_Source\PSoC4/TEST_ISR.c ****     TEST_ISR_SetVector(address);
 109:Generated_Source\PSoC4/TEST_ISR.c **** 
 110:Generated_Source\PSoC4/TEST_ISR.c ****     /* Set the priority. */
 111:Generated_Source\PSoC4/TEST_ISR.c ****     TEST_ISR_SetPriority((uint8)TEST_ISR_INTC_PRIOR_NUMBER);
 112:Generated_Source\PSoC4/TEST_ISR.c **** 
 113:Generated_Source\PSoC4/TEST_ISR.c ****     /* Enable it. */
 114:Generated_Source\PSoC4/TEST_ISR.c ****     TEST_ISR_Enable();
 115:Generated_Source\PSoC4/TEST_ISR.c **** }
 116:Generated_Source\PSoC4/TEST_ISR.c **** 
 117:Generated_Source\PSoC4/TEST_ISR.c **** 
 118:Generated_Source\PSoC4/TEST_ISR.c **** /*******************************************************************************
 119:Generated_Source\PSoC4/TEST_ISR.c **** * Function Name: TEST_ISR_Stop
 120:Generated_Source\PSoC4/TEST_ISR.c **** ********************************************************************************
 121:Generated_Source\PSoC4/TEST_ISR.c **** *
 122:Generated_Source\PSoC4/TEST_ISR.c **** * Summary:
 123:Generated_Source\PSoC4/TEST_ISR.c **** *   Disables and removes the interrupt.
 124:Generated_Source\PSoC4/TEST_ISR.c **** *
 125:Generated_Source\PSoC4/TEST_ISR.c **** * Parameters:  
 126:Generated_Source\PSoC4/TEST_ISR.c **** *   None
 127:Generated_Source\PSoC4/TEST_ISR.c **** *
 128:Generated_Source\PSoC4/TEST_ISR.c **** * Return:
 129:Generated_Source\PSoC4/TEST_ISR.c **** *   None
 130:Generated_Source\PSoC4/TEST_ISR.c **** *
 131:Generated_Source\PSoC4/TEST_ISR.c **** *******************************************************************************/
 132:Generated_Source\PSoC4/TEST_ISR.c **** void TEST_ISR_Stop(void)
 133:Generated_Source\PSoC4/TEST_ISR.c **** {
 134:Generated_Source\PSoC4/TEST_ISR.c ****     /* Disable this interrupt. */
 135:Generated_Source\PSoC4/TEST_ISR.c ****     TEST_ISR_Disable();
 136:Generated_Source\PSoC4/TEST_ISR.c **** 
 137:Generated_Source\PSoC4/TEST_ISR.c ****     /* Set the ISR to point to the passive one. */
 138:Generated_Source\PSoC4/TEST_ISR.c ****     TEST_ISR_SetVector(&IntDefaultHandler);
 139:Generated_Source\PSoC4/TEST_ISR.c **** }
 140:Generated_Source\PSoC4/TEST_ISR.c **** 
 141:Generated_Source\PSoC4/TEST_ISR.c **** 
 142:Generated_Source\PSoC4/TEST_ISR.c **** /*******************************************************************************
 143:Generated_Source\PSoC4/TEST_ISR.c **** * Function Name: TEST_ISR_Interrupt
 144:Generated_Source\PSoC4/TEST_ISR.c **** ********************************************************************************
ARM GAS  C:\Users\HELLOK~1\AppData\Local\Temp\cc46Rz0b.s 			page 4


 145:Generated_Source\PSoC4/TEST_ISR.c **** *
 146:Generated_Source\PSoC4/TEST_ISR.c **** * Summary:
 147:Generated_Source\PSoC4/TEST_ISR.c **** *   The default Interrupt Service Routine for TEST_ISR.
 148:Generated_Source\PSoC4/TEST_ISR.c **** *
 149:Generated_Source\PSoC4/TEST_ISR.c **** *   Add custom code between the START and END comments to keep the next version
 150:Generated_Source\PSoC4/TEST_ISR.c **** *   of this file from over-writing your code.
 151:Generated_Source\PSoC4/TEST_ISR.c **** *
 152:Generated_Source\PSoC4/TEST_ISR.c **** *   Note You may use either the default ISR by using this API, or you may define
 153:Generated_Source\PSoC4/TEST_ISR.c **** *   your own separate ISR through ISR_StartEx().
 154:Generated_Source\PSoC4/TEST_ISR.c **** *
 155:Generated_Source\PSoC4/TEST_ISR.c **** * Parameters:  
 156:Generated_Source\PSoC4/TEST_ISR.c **** *   None
 157:Generated_Source\PSoC4/TEST_ISR.c **** *
 158:Generated_Source\PSoC4/TEST_ISR.c **** * Return:
 159:Generated_Source\PSoC4/TEST_ISR.c **** *   None
 160:Generated_Source\PSoC4/TEST_ISR.c **** *
 161:Generated_Source\PSoC4/TEST_ISR.c **** *******************************************************************************/
 162:Generated_Source\PSoC4/TEST_ISR.c **** CY_ISR(TEST_ISR_Interrupt)
 163:Generated_Source\PSoC4/TEST_ISR.c **** {
  28              		.loc 1 163 0
  29              		.cfi_startproc
  30              		@ args = 0, pretend = 0, frame = 0
  31              		@ frame_needed = 0, uses_anonymous_args = 0
  32 0000 10B5     		push	{r4, lr}
  33              		.cfi_def_cfa_offset 8
  34              		.cfi_offset 4, -8
  35              		.cfi_offset 14, -4
 164:Generated_Source\PSoC4/TEST_ISR.c ****     #ifdef TEST_ISR_INTERRUPT_INTERRUPT_CALLBACK
 165:Generated_Source\PSoC4/TEST_ISR.c ****         TEST_ISR_Interrupt_InterruptCallback();
 166:Generated_Source\PSoC4/TEST_ISR.c ****     #endif /* TEST_ISR_INTERRUPT_INTERRUPT_CALLBACK */ 
 167:Generated_Source\PSoC4/TEST_ISR.c **** 
 168:Generated_Source\PSoC4/TEST_ISR.c ****     /*  Place your Interrupt code here. */
 169:Generated_Source\PSoC4/TEST_ISR.c ****     /* `#START TEST_ISR_Interrupt` */
 170:Generated_Source\PSoC4/TEST_ISR.c **** 
 171:Generated_Source\PSoC4/TEST_ISR.c ****     // Delay of 20ms for debounce
 172:Generated_Source\PSoC4/TEST_ISR.c ****     CyDelay(20);
  36              		.loc 1 172 0
  37 0002 1420     		movs	r0, #20
  38 0004 FFF7FEFF 		bl	CyDelay
  39              	.LVL0:
 173:Generated_Source\PSoC4/TEST_ISR.c ****     // Clear interrupt
 174:Generated_Source\PSoC4/TEST_ISR.c ****     TEST_ClearInterrupt();
  40              		.loc 1 174 0
  41 0008 FFF7FEFF 		bl	TEST_ClearInterrupt
  42              	.LVL1:
 175:Generated_Source\PSoC4/TEST_ISR.c ****     
 176:Generated_Source\PSoC4/TEST_ISR.c ****     // If button is still 1 after delay, set flag, if not, don't
 177:Generated_Source\PSoC4/TEST_ISR.c ****     if(TEST_Read() == 0){
  43              		.loc 1 177 0
  44 000c FFF7FEFF 		bl	TEST_Read
  45              	.LVL2:
  46 0010 0028     		cmp	r0, #0
  47 0012 03D1     		bne	.L2
 178:Generated_Source\PSoC4/TEST_ISR.c ****         buttonFlag = 1;
  48              		.loc 1 178 0
  49 0014 0122     		movs	r2, #1
  50 0016 0C4B     		ldr	r3, .L7
ARM GAS  C:\Users\HELLOK~1\AppData\Local\Temp\cc46Rz0b.s 			page 5


  51 0018 1A60     		str	r2, [r3]
  52 001a 0FE0     		b	.L3
  53              	.L2:
 179:Generated_Source\PSoC4/TEST_ISR.c ****     } else {
 180:Generated_Source\PSoC4/TEST_ISR.c ****         buttonFlag = 0;
  54              		.loc 1 180 0
  55 001c 0022     		movs	r2, #0
  56 001e 0A4B     		ldr	r3, .L7
  57 0020 1A60     		str	r2, [r3]
  58 0022 0BE0     		b	.L3
  59              	.LVL3:
  60              	.L6:
 181:Generated_Source\PSoC4/TEST_ISR.c ****     }
 182:Generated_Source\PSoC4/TEST_ISR.c ****     
 183:Generated_Source\PSoC4/TEST_ISR.c ****     int counter = 0;
 184:Generated_Source\PSoC4/TEST_ISR.c ****     // Debounce
 185:Generated_Source\PSoC4/TEST_ISR.c ****     while(TEST_Read() != 1){
 186:Generated_Source\PSoC4/TEST_ISR.c ****         CyDelayUs(1000);
  61              		.loc 1 186 0
  62 0024 FA20     		movs	r0, #250
  63 0026 8000     		lsls	r0, r0, #2
  64 0028 FFF7FEFF 		bl	CyDelayUs
  65              	.LVL4:
 187:Generated_Source\PSoC4/TEST_ISR.c ****         counter++;
  66              		.loc 1 187 0
  67 002c 0134     		adds	r4, r4, #1
  68              	.LVL5:
 188:Generated_Source\PSoC4/TEST_ISR.c ****         if(counter > 5000){
  69              		.loc 1 188 0
  70 002e 074B     		ldr	r3, .L7+4
  71 0030 9C42     		cmp	r4, r3
  72 0032 04DD     		ble	.L4
 189:Generated_Source\PSoC4/TEST_ISR.c ****             // If held for more than 5 seconds, set flag as new value and break
 190:Generated_Source\PSoC4/TEST_ISR.c ****             buttonFlag = 2;
  73              		.loc 1 190 0
  74 0034 0222     		movs	r2, #2
  75 0036 044B     		ldr	r3, .L7
  76 0038 1A60     		str	r2, [r3]
 191:Generated_Source\PSoC4/TEST_ISR.c ****             break;
  77              		.loc 1 191 0
  78 003a 04E0     		b	.L1
  79              	.LVL6:
  80              	.L3:
 163:Generated_Source\PSoC4/TEST_ISR.c ****     #ifdef TEST_ISR_INTERRUPT_INTERRUPT_CALLBACK
  81              		.loc 1 163 0
  82 003c 0024     		movs	r4, #0
  83              	.L4:
  84              	.LVL7:
 185:Generated_Source\PSoC4/TEST_ISR.c ****         CyDelayUs(1000);
  85              		.loc 1 185 0
  86 003e FFF7FEFF 		bl	TEST_Read
  87              	.LVL8:
  88 0042 0128     		cmp	r0, #1
  89 0044 EED1     		bne	.L6
  90              	.L1:
 192:Generated_Source\PSoC4/TEST_ISR.c ****         }
 193:Generated_Source\PSoC4/TEST_ISR.c ****     };
ARM GAS  C:\Users\HELLOK~1\AppData\Local\Temp\cc46Rz0b.s 			page 6


 194:Generated_Source\PSoC4/TEST_ISR.c ****     /* `#END` */
 195:Generated_Source\PSoC4/TEST_ISR.c **** }
  91              		.loc 1 195 0
  92              		@ sp needed
  93              	.LVL9:
  94 0046 10BD     		pop	{r4, pc}
  95              	.L8:
  96              		.align	2
  97              	.L7:
  98 0048 00000000 		.word	buttonFlag
  99 004c 88130000 		.word	5000
 100              		.cfi_endproc
 101              	.LFE4:
 102              		.size	TEST_ISR_Interrupt, .-TEST_ISR_Interrupt
 103              		.section	.text.TEST_ISR_SetVector,"ax",%progbits
 104              		.align	2
 105              		.global	TEST_ISR_SetVector
 106              		.code	16
 107              		.thumb_func
 108              		.type	TEST_ISR_SetVector, %function
 109              	TEST_ISR_SetVector:
 110              	.LFB5:
 196:Generated_Source\PSoC4/TEST_ISR.c **** 
 197:Generated_Source\PSoC4/TEST_ISR.c **** 
 198:Generated_Source\PSoC4/TEST_ISR.c **** /*******************************************************************************
 199:Generated_Source\PSoC4/TEST_ISR.c **** * Function Name: TEST_ISR_SetVector
 200:Generated_Source\PSoC4/TEST_ISR.c **** ********************************************************************************
 201:Generated_Source\PSoC4/TEST_ISR.c **** *
 202:Generated_Source\PSoC4/TEST_ISR.c **** * Summary:
 203:Generated_Source\PSoC4/TEST_ISR.c **** *   Change the ISR vector for the Interrupt. Note calling TEST_ISR_Start
 204:Generated_Source\PSoC4/TEST_ISR.c **** *   will override any effect this method would have had. To set the vector 
 205:Generated_Source\PSoC4/TEST_ISR.c **** *   before the component has been started use TEST_ISR_StartEx instead.
 206:Generated_Source\PSoC4/TEST_ISR.c **** * 
 207:Generated_Source\PSoC4/TEST_ISR.c **** *   When defining ISR functions, the CY_ISR and CY_ISR_PROTO macros should be 
 208:Generated_Source\PSoC4/TEST_ISR.c **** *   used to provide consistent definition across compilers:
 209:Generated_Source\PSoC4/TEST_ISR.c **** *
 210:Generated_Source\PSoC4/TEST_ISR.c **** *   Function definition example:
 211:Generated_Source\PSoC4/TEST_ISR.c **** *   CY_ISR(MyISR)
 212:Generated_Source\PSoC4/TEST_ISR.c **** *   {
 213:Generated_Source\PSoC4/TEST_ISR.c **** *   }
 214:Generated_Source\PSoC4/TEST_ISR.c **** *
 215:Generated_Source\PSoC4/TEST_ISR.c **** *   Function prototype example:
 216:Generated_Source\PSoC4/TEST_ISR.c **** *     CY_ISR_PROTO(MyISR);
 217:Generated_Source\PSoC4/TEST_ISR.c **** *
 218:Generated_Source\PSoC4/TEST_ISR.c **** * Parameters:
 219:Generated_Source\PSoC4/TEST_ISR.c **** *   address: Address of the ISR to set in the interrupt vector table.
 220:Generated_Source\PSoC4/TEST_ISR.c **** *
 221:Generated_Source\PSoC4/TEST_ISR.c **** * Return:
 222:Generated_Source\PSoC4/TEST_ISR.c **** *   None
 223:Generated_Source\PSoC4/TEST_ISR.c **** *
 224:Generated_Source\PSoC4/TEST_ISR.c **** *******************************************************************************/
 225:Generated_Source\PSoC4/TEST_ISR.c **** void TEST_ISR_SetVector(cyisraddress address)
 226:Generated_Source\PSoC4/TEST_ISR.c **** {
 111              		.loc 1 226 0
 112              		.cfi_startproc
 113              		@ args = 0, pretend = 0, frame = 0
 114              		@ frame_needed = 0, uses_anonymous_args = 0
ARM GAS  C:\Users\HELLOK~1\AppData\Local\Temp\cc46Rz0b.s 			page 7


 115              		@ link register save eliminated.
 116              	.LVL10:
 227:Generated_Source\PSoC4/TEST_ISR.c ****     CyRamVectors[CYINT_IRQ_BASE + TEST_ISR__INTC_NUMBER] = address;
 117              		.loc 1 227 0
 118 0000 014B     		ldr	r3, .L10
 119 0002 1864     		str	r0, [r3, #64]
 228:Generated_Source\PSoC4/TEST_ISR.c **** }
 120              		.loc 1 228 0
 121              		@ sp needed
 122 0004 7047     		bx	lr
 123              	.L11:
 124 0006 C046     		.align	2
 125              	.L10:
 126 0008 00000000 		.word	CyRamVectors
 127              		.cfi_endproc
 128              	.LFE5:
 129              		.size	TEST_ISR_SetVector, .-TEST_ISR_SetVector
 130              		.section	.text.TEST_ISR_GetVector,"ax",%progbits
 131              		.align	2
 132              		.global	TEST_ISR_GetVector
 133              		.code	16
 134              		.thumb_func
 135              		.type	TEST_ISR_GetVector, %function
 136              	TEST_ISR_GetVector:
 137              	.LFB6:
 229:Generated_Source\PSoC4/TEST_ISR.c **** 
 230:Generated_Source\PSoC4/TEST_ISR.c **** 
 231:Generated_Source\PSoC4/TEST_ISR.c **** /*******************************************************************************
 232:Generated_Source\PSoC4/TEST_ISR.c **** * Function Name: TEST_ISR_GetVector
 233:Generated_Source\PSoC4/TEST_ISR.c **** ********************************************************************************
 234:Generated_Source\PSoC4/TEST_ISR.c **** *
 235:Generated_Source\PSoC4/TEST_ISR.c **** * Summary:
 236:Generated_Source\PSoC4/TEST_ISR.c **** *   Gets the "address" of the current ISR vector for the Interrupt.
 237:Generated_Source\PSoC4/TEST_ISR.c **** *
 238:Generated_Source\PSoC4/TEST_ISR.c **** * Parameters:
 239:Generated_Source\PSoC4/TEST_ISR.c **** *   None
 240:Generated_Source\PSoC4/TEST_ISR.c **** *
 241:Generated_Source\PSoC4/TEST_ISR.c **** * Return:
 242:Generated_Source\PSoC4/TEST_ISR.c **** *   Address of the ISR in the interrupt vector table.
 243:Generated_Source\PSoC4/TEST_ISR.c **** *
 244:Generated_Source\PSoC4/TEST_ISR.c **** *******************************************************************************/
 245:Generated_Source\PSoC4/TEST_ISR.c **** cyisraddress TEST_ISR_GetVector(void)
 246:Generated_Source\PSoC4/TEST_ISR.c **** {
 138              		.loc 1 246 0
 139              		.cfi_startproc
 140              		@ args = 0, pretend = 0, frame = 0
 141              		@ frame_needed = 0, uses_anonymous_args = 0
 142              		@ link register save eliminated.
 247:Generated_Source\PSoC4/TEST_ISR.c ****     return CyRamVectors[CYINT_IRQ_BASE + TEST_ISR__INTC_NUMBER];
 143              		.loc 1 247 0
 144 0000 014B     		ldr	r3, .L13
 145 0002 186C     		ldr	r0, [r3, #64]
 248:Generated_Source\PSoC4/TEST_ISR.c **** }
 146              		.loc 1 248 0
 147              		@ sp needed
 148 0004 7047     		bx	lr
 149              	.L14:
ARM GAS  C:\Users\HELLOK~1\AppData\Local\Temp\cc46Rz0b.s 			page 8


 150 0006 C046     		.align	2
 151              	.L13:
 152 0008 00000000 		.word	CyRamVectors
 153              		.cfi_endproc
 154              	.LFE6:
 155              		.size	TEST_ISR_GetVector, .-TEST_ISR_GetVector
 156              		.section	.text.TEST_ISR_SetPriority,"ax",%progbits
 157              		.align	2
 158              		.global	TEST_ISR_SetPriority
 159              		.code	16
 160              		.thumb_func
 161              		.type	TEST_ISR_SetPriority, %function
 162              	TEST_ISR_SetPriority:
 163              	.LFB7:
 249:Generated_Source\PSoC4/TEST_ISR.c **** 
 250:Generated_Source\PSoC4/TEST_ISR.c **** 
 251:Generated_Source\PSoC4/TEST_ISR.c **** /*******************************************************************************
 252:Generated_Source\PSoC4/TEST_ISR.c **** * Function Name: TEST_ISR_SetPriority
 253:Generated_Source\PSoC4/TEST_ISR.c **** ********************************************************************************
 254:Generated_Source\PSoC4/TEST_ISR.c **** *
 255:Generated_Source\PSoC4/TEST_ISR.c **** * Summary:
 256:Generated_Source\PSoC4/TEST_ISR.c **** *   Sets the Priority of the Interrupt. 
 257:Generated_Source\PSoC4/TEST_ISR.c **** *
 258:Generated_Source\PSoC4/TEST_ISR.c **** *   Note calling TEST_ISR_Start or TEST_ISR_StartEx will 
 259:Generated_Source\PSoC4/TEST_ISR.c **** *   override any effect this API would have had. This API should only be called
 260:Generated_Source\PSoC4/TEST_ISR.c **** *   after TEST_ISR_Start or TEST_ISR_StartEx has been called. 
 261:Generated_Source\PSoC4/TEST_ISR.c **** *   To set the initial priority for the component, use the Design-Wide Resources
 262:Generated_Source\PSoC4/TEST_ISR.c **** *   Interrupt Editor.
 263:Generated_Source\PSoC4/TEST_ISR.c **** *
 264:Generated_Source\PSoC4/TEST_ISR.c **** *   Note This API has no effect on Non-maskable interrupt NMI).
 265:Generated_Source\PSoC4/TEST_ISR.c **** *
 266:Generated_Source\PSoC4/TEST_ISR.c **** * Parameters:
 267:Generated_Source\PSoC4/TEST_ISR.c **** *   priority: Priority of the interrupt, 0 being the highest priority
 268:Generated_Source\PSoC4/TEST_ISR.c **** *             PSoC 3 and PSoC 5LP: Priority is from 0 to 7.
 269:Generated_Source\PSoC4/TEST_ISR.c **** *             PSoC 4: Priority is from 0 to 3.
 270:Generated_Source\PSoC4/TEST_ISR.c **** *
 271:Generated_Source\PSoC4/TEST_ISR.c **** * Return:
 272:Generated_Source\PSoC4/TEST_ISR.c **** *   None
 273:Generated_Source\PSoC4/TEST_ISR.c **** *
 274:Generated_Source\PSoC4/TEST_ISR.c **** *******************************************************************************/
 275:Generated_Source\PSoC4/TEST_ISR.c **** void TEST_ISR_SetPriority(uint8 priority)
 276:Generated_Source\PSoC4/TEST_ISR.c **** {
 164              		.loc 1 276 0
 165              		.cfi_startproc
 166              		@ args = 0, pretend = 0, frame = 0
 167              		@ frame_needed = 0, uses_anonymous_args = 0
 168              	.LVL11:
 169 0000 10B5     		push	{r4, lr}
 170              		.cfi_def_cfa_offset 8
 171              		.cfi_offset 4, -8
 172              		.cfi_offset 14, -4
 173 0002 0400     		movs	r4, r0
 174              	.LVL12:
 277:Generated_Source\PSoC4/TEST_ISR.c **** 	uint8 interruptState;
 278:Generated_Source\PSoC4/TEST_ISR.c ****     uint32 priorityOffset = ((TEST_ISR__INTC_NUMBER % 4u) * 8u) + 6u;
 279:Generated_Source\PSoC4/TEST_ISR.c ****     
 280:Generated_Source\PSoC4/TEST_ISR.c **** 	interruptState = CyEnterCriticalSection();
ARM GAS  C:\Users\HELLOK~1\AppData\Local\Temp\cc46Rz0b.s 			page 9


 175              		.loc 1 280 0
 176 0004 FFF7FEFF 		bl	CyEnterCriticalSection
 177              	.LVL13:
 281:Generated_Source\PSoC4/TEST_ISR.c ****     *TEST_ISR_INTC_PRIOR = (*TEST_ISR_INTC_PRIOR & (uint32)(~(uint32)TEST_ISR__INTC_PRIOR_MASK)) |
 178              		.loc 1 281 0
 179 0008 044A     		ldr	r2, .L16
 180 000a 1368     		ldr	r3, [r2]
 181 000c C021     		movs	r1, #192
 182 000e 8B43     		bics	r3, r1
 282:Generated_Source\PSoC4/TEST_ISR.c ****                                     ((uint32)priority << priorityOffset);
 183              		.loc 1 282 0
 184 0010 A401     		lsls	r4, r4, #6
 281:Generated_Source\PSoC4/TEST_ISR.c ****     *TEST_ISR_INTC_PRIOR = (*TEST_ISR_INTC_PRIOR & (uint32)(~(uint32)TEST_ISR__INTC_PRIOR_MASK)) |
 185              		.loc 1 281 0
 186 0012 1C43     		orrs	r4, r3
 187 0014 1460     		str	r4, [r2]
 283:Generated_Source\PSoC4/TEST_ISR.c **** 	CyExitCriticalSection(interruptState);
 188              		.loc 1 283 0
 189 0016 FFF7FEFF 		bl	CyExitCriticalSection
 190              	.LVL14:
 284:Generated_Source\PSoC4/TEST_ISR.c **** }
 191              		.loc 1 284 0
 192              		@ sp needed
 193 001a 10BD     		pop	{r4, pc}
 194              	.L17:
 195              		.align	2
 196              	.L16:
 197 001c 00E400E0 		.word	-536812544
 198              		.cfi_endproc
 199              	.LFE7:
 200              		.size	TEST_ISR_SetPriority, .-TEST_ISR_SetPriority
 201              		.section	.text.TEST_ISR_GetPriority,"ax",%progbits
 202              		.align	2
 203              		.global	TEST_ISR_GetPriority
 204              		.code	16
 205              		.thumb_func
 206              		.type	TEST_ISR_GetPriority, %function
 207              	TEST_ISR_GetPriority:
 208              	.LFB8:
 285:Generated_Source\PSoC4/TEST_ISR.c **** 
 286:Generated_Source\PSoC4/TEST_ISR.c **** 
 287:Generated_Source\PSoC4/TEST_ISR.c **** /*******************************************************************************
 288:Generated_Source\PSoC4/TEST_ISR.c **** * Function Name: TEST_ISR_GetPriority
 289:Generated_Source\PSoC4/TEST_ISR.c **** ********************************************************************************
 290:Generated_Source\PSoC4/TEST_ISR.c **** *
 291:Generated_Source\PSoC4/TEST_ISR.c **** * Summary:
 292:Generated_Source\PSoC4/TEST_ISR.c **** *   Gets the Priority of the Interrupt.
 293:Generated_Source\PSoC4/TEST_ISR.c **** *
 294:Generated_Source\PSoC4/TEST_ISR.c **** * Parameters:
 295:Generated_Source\PSoC4/TEST_ISR.c **** *   None
 296:Generated_Source\PSoC4/TEST_ISR.c **** *
 297:Generated_Source\PSoC4/TEST_ISR.c **** * Return:
 298:Generated_Source\PSoC4/TEST_ISR.c **** *   Priority of the interrupt, 0 being the highest priority
 299:Generated_Source\PSoC4/TEST_ISR.c **** *    PSoC 3 and PSoC 5LP: Priority is from 0 to 7.
 300:Generated_Source\PSoC4/TEST_ISR.c **** *    PSoC 4: Priority is from 0 to 3.
 301:Generated_Source\PSoC4/TEST_ISR.c **** *
 302:Generated_Source\PSoC4/TEST_ISR.c **** *******************************************************************************/
ARM GAS  C:\Users\HELLOK~1\AppData\Local\Temp\cc46Rz0b.s 			page 10


 303:Generated_Source\PSoC4/TEST_ISR.c **** uint8 TEST_ISR_GetPriority(void)
 304:Generated_Source\PSoC4/TEST_ISR.c **** {
 209              		.loc 1 304 0
 210              		.cfi_startproc
 211              		@ args = 0, pretend = 0, frame = 0
 212              		@ frame_needed = 0, uses_anonymous_args = 0
 213              		@ link register save eliminated.
 214              	.LVL15:
 305:Generated_Source\PSoC4/TEST_ISR.c ****     uint32 priority;
 306:Generated_Source\PSoC4/TEST_ISR.c **** 	uint32 priorityOffset = ((TEST_ISR__INTC_NUMBER % 4u) * 8u) + 6u;
 307:Generated_Source\PSoC4/TEST_ISR.c **** 
 308:Generated_Source\PSoC4/TEST_ISR.c ****     priority = (*TEST_ISR_INTC_PRIOR & TEST_ISR__INTC_PRIOR_MASK) >> priorityOffset;
 215              		.loc 1 308 0
 216 0000 024B     		ldr	r3, .L19
 217 0002 1868     		ldr	r0, [r3]
 218 0004 8009     		lsrs	r0, r0, #6
 219              	.LVL16:
 309:Generated_Source\PSoC4/TEST_ISR.c **** 
 310:Generated_Source\PSoC4/TEST_ISR.c ****     return (uint8)priority;
 220              		.loc 1 310 0
 221 0006 0323     		movs	r3, #3
 222 0008 1840     		ands	r0, r3
 223              	.LVL17:
 311:Generated_Source\PSoC4/TEST_ISR.c **** }
 224              		.loc 1 311 0
 225              		@ sp needed
 226 000a 7047     		bx	lr
 227              	.L20:
 228              		.align	2
 229              	.L19:
 230 000c 00E400E0 		.word	-536812544
 231              		.cfi_endproc
 232              	.LFE8:
 233              		.size	TEST_ISR_GetPriority, .-TEST_ISR_GetPriority
 234              		.section	.text.TEST_ISR_Enable,"ax",%progbits
 235              		.align	2
 236              		.global	TEST_ISR_Enable
 237              		.code	16
 238              		.thumb_func
 239              		.type	TEST_ISR_Enable, %function
 240              	TEST_ISR_Enable:
 241              	.LFB9:
 312:Generated_Source\PSoC4/TEST_ISR.c **** 
 313:Generated_Source\PSoC4/TEST_ISR.c **** 
 314:Generated_Source\PSoC4/TEST_ISR.c **** /*******************************************************************************
 315:Generated_Source\PSoC4/TEST_ISR.c **** * Function Name: TEST_ISR_Enable
 316:Generated_Source\PSoC4/TEST_ISR.c **** ********************************************************************************
 317:Generated_Source\PSoC4/TEST_ISR.c **** *
 318:Generated_Source\PSoC4/TEST_ISR.c **** * Summary:
 319:Generated_Source\PSoC4/TEST_ISR.c **** *   Enables the interrupt to the interrupt controller. Do not call this function
 320:Generated_Source\PSoC4/TEST_ISR.c **** *   unless ISR_Start() has been called or the functionality of the ISR_Start() 
 321:Generated_Source\PSoC4/TEST_ISR.c **** *   function, which sets the vector and the priority, has been called.
 322:Generated_Source\PSoC4/TEST_ISR.c **** *
 323:Generated_Source\PSoC4/TEST_ISR.c **** * Parameters:
 324:Generated_Source\PSoC4/TEST_ISR.c **** *   None
 325:Generated_Source\PSoC4/TEST_ISR.c **** *
 326:Generated_Source\PSoC4/TEST_ISR.c **** * Return:
ARM GAS  C:\Users\HELLOK~1\AppData\Local\Temp\cc46Rz0b.s 			page 11


 327:Generated_Source\PSoC4/TEST_ISR.c **** *   None
 328:Generated_Source\PSoC4/TEST_ISR.c **** *
 329:Generated_Source\PSoC4/TEST_ISR.c **** *******************************************************************************/
 330:Generated_Source\PSoC4/TEST_ISR.c **** void TEST_ISR_Enable(void)
 331:Generated_Source\PSoC4/TEST_ISR.c **** {
 242              		.loc 1 331 0
 243              		.cfi_startproc
 244              		@ args = 0, pretend = 0, frame = 0
 245              		@ frame_needed = 0, uses_anonymous_args = 0
 246              		@ link register save eliminated.
 332:Generated_Source\PSoC4/TEST_ISR.c ****     /* Enable the general interrupt. */
 333:Generated_Source\PSoC4/TEST_ISR.c ****     *TEST_ISR_INTC_SET_EN = TEST_ISR__INTC_MASK;
 247              		.loc 1 333 0
 248 0000 0122     		movs	r2, #1
 249 0002 014B     		ldr	r3, .L22
 250 0004 1A60     		str	r2, [r3]
 334:Generated_Source\PSoC4/TEST_ISR.c **** }
 251              		.loc 1 334 0
 252              		@ sp needed
 253 0006 7047     		bx	lr
 254              	.L23:
 255              		.align	2
 256              	.L22:
 257 0008 00E100E0 		.word	-536813312
 258              		.cfi_endproc
 259              	.LFE9:
 260              		.size	TEST_ISR_Enable, .-TEST_ISR_Enable
 261              		.section	.text.TEST_ISR_GetState,"ax",%progbits
 262              		.align	2
 263              		.global	TEST_ISR_GetState
 264              		.code	16
 265              		.thumb_func
 266              		.type	TEST_ISR_GetState, %function
 267              	TEST_ISR_GetState:
 268              	.LFB10:
 335:Generated_Source\PSoC4/TEST_ISR.c **** 
 336:Generated_Source\PSoC4/TEST_ISR.c **** 
 337:Generated_Source\PSoC4/TEST_ISR.c **** /*******************************************************************************
 338:Generated_Source\PSoC4/TEST_ISR.c **** * Function Name: TEST_ISR_GetState
 339:Generated_Source\PSoC4/TEST_ISR.c **** ********************************************************************************
 340:Generated_Source\PSoC4/TEST_ISR.c **** *
 341:Generated_Source\PSoC4/TEST_ISR.c **** * Summary:
 342:Generated_Source\PSoC4/TEST_ISR.c **** *   Gets the state (enabled, disabled) of the Interrupt.
 343:Generated_Source\PSoC4/TEST_ISR.c **** *
 344:Generated_Source\PSoC4/TEST_ISR.c **** * Parameters:
 345:Generated_Source\PSoC4/TEST_ISR.c **** *   None
 346:Generated_Source\PSoC4/TEST_ISR.c **** *
 347:Generated_Source\PSoC4/TEST_ISR.c **** * Return:
 348:Generated_Source\PSoC4/TEST_ISR.c **** *   1 if enabled, 0 if disabled.
 349:Generated_Source\PSoC4/TEST_ISR.c **** *
 350:Generated_Source\PSoC4/TEST_ISR.c **** *******************************************************************************/
 351:Generated_Source\PSoC4/TEST_ISR.c **** uint8 TEST_ISR_GetState(void)
 352:Generated_Source\PSoC4/TEST_ISR.c **** {
 269              		.loc 1 352 0
 270              		.cfi_startproc
 271              		@ args = 0, pretend = 0, frame = 0
 272              		@ frame_needed = 0, uses_anonymous_args = 0
ARM GAS  C:\Users\HELLOK~1\AppData\Local\Temp\cc46Rz0b.s 			page 12


 273              		@ link register save eliminated.
 353:Generated_Source\PSoC4/TEST_ISR.c ****     /* Get the state of the general interrupt. */
 354:Generated_Source\PSoC4/TEST_ISR.c ****     return ((*TEST_ISR_INTC_SET_EN & (uint32)TEST_ISR__INTC_MASK) != 0u) ? 1u:0u;
 274              		.loc 1 354 0
 275 0000 024B     		ldr	r3, .L25
 276 0002 1B68     		ldr	r3, [r3]
 277 0004 0120     		movs	r0, #1
 278 0006 1840     		ands	r0, r3
 355:Generated_Source\PSoC4/TEST_ISR.c **** }
 279              		.loc 1 355 0
 280              		@ sp needed
 281 0008 7047     		bx	lr
 282              	.L26:
 283 000a C046     		.align	2
 284              	.L25:
 285 000c 00E100E0 		.word	-536813312
 286              		.cfi_endproc
 287              	.LFE10:
 288              		.size	TEST_ISR_GetState, .-TEST_ISR_GetState
 289              		.section	.text.TEST_ISR_Disable,"ax",%progbits
 290              		.align	2
 291              		.global	TEST_ISR_Disable
 292              		.code	16
 293              		.thumb_func
 294              		.type	TEST_ISR_Disable, %function
 295              	TEST_ISR_Disable:
 296              	.LFB11:
 356:Generated_Source\PSoC4/TEST_ISR.c **** 
 357:Generated_Source\PSoC4/TEST_ISR.c **** 
 358:Generated_Source\PSoC4/TEST_ISR.c **** /*******************************************************************************
 359:Generated_Source\PSoC4/TEST_ISR.c **** * Function Name: TEST_ISR_Disable
 360:Generated_Source\PSoC4/TEST_ISR.c **** ********************************************************************************
 361:Generated_Source\PSoC4/TEST_ISR.c **** *
 362:Generated_Source\PSoC4/TEST_ISR.c **** * Summary:
 363:Generated_Source\PSoC4/TEST_ISR.c **** *   Disables the Interrupt in the interrupt controller.
 364:Generated_Source\PSoC4/TEST_ISR.c **** *
 365:Generated_Source\PSoC4/TEST_ISR.c **** * Parameters:
 366:Generated_Source\PSoC4/TEST_ISR.c **** *   None
 367:Generated_Source\PSoC4/TEST_ISR.c **** *
 368:Generated_Source\PSoC4/TEST_ISR.c **** * Return:
 369:Generated_Source\PSoC4/TEST_ISR.c **** *   None
 370:Generated_Source\PSoC4/TEST_ISR.c **** *
 371:Generated_Source\PSoC4/TEST_ISR.c **** *******************************************************************************/
 372:Generated_Source\PSoC4/TEST_ISR.c **** void TEST_ISR_Disable(void)
 373:Generated_Source\PSoC4/TEST_ISR.c **** {
 297              		.loc 1 373 0
 298              		.cfi_startproc
 299              		@ args = 0, pretend = 0, frame = 0
 300              		@ frame_needed = 0, uses_anonymous_args = 0
 301              		@ link register save eliminated.
 374:Generated_Source\PSoC4/TEST_ISR.c ****     /* Disable the general interrupt. */
 375:Generated_Source\PSoC4/TEST_ISR.c ****     *TEST_ISR_INTC_CLR_EN = TEST_ISR__INTC_MASK;
 302              		.loc 1 375 0
 303 0000 0122     		movs	r2, #1
 304 0002 014B     		ldr	r3, .L28
 305 0004 1A60     		str	r2, [r3]
 376:Generated_Source\PSoC4/TEST_ISR.c **** }
ARM GAS  C:\Users\HELLOK~1\AppData\Local\Temp\cc46Rz0b.s 			page 13


 306              		.loc 1 376 0
 307              		@ sp needed
 308 0006 7047     		bx	lr
 309              	.L29:
 310              		.align	2
 311              	.L28:
 312 0008 80E100E0 		.word	-536813184
 313              		.cfi_endproc
 314              	.LFE11:
 315              		.size	TEST_ISR_Disable, .-TEST_ISR_Disable
 316              		.section	.text.TEST_ISR_Start,"ax",%progbits
 317              		.align	2
 318              		.global	TEST_ISR_Start
 319              		.code	16
 320              		.thumb_func
 321              		.type	TEST_ISR_Start, %function
 322              	TEST_ISR_Start:
 323              	.LFB1:
  60:Generated_Source\PSoC4/TEST_ISR.c ****     /* For all we know the interrupt is active. */
 324              		.loc 1 60 0
 325              		.cfi_startproc
 326              		@ args = 0, pretend = 0, frame = 0
 327              		@ frame_needed = 0, uses_anonymous_args = 0
 328 0000 10B5     		push	{r4, lr}
 329              		.cfi_def_cfa_offset 8
 330              		.cfi_offset 4, -8
 331              		.cfi_offset 14, -4
  62:Generated_Source\PSoC4/TEST_ISR.c **** 
 332              		.loc 1 62 0
 333 0002 FFF7FEFF 		bl	TEST_ISR_Disable
 334              	.LVL18:
  65:Generated_Source\PSoC4/TEST_ISR.c **** 
 335              		.loc 1 65 0
 336 0006 0448     		ldr	r0, .L31
 337 0008 FFF7FEFF 		bl	TEST_ISR_SetVector
 338              	.LVL19:
  68:Generated_Source\PSoC4/TEST_ISR.c **** 
 339              		.loc 1 68 0
 340 000c 0320     		movs	r0, #3
 341 000e FFF7FEFF 		bl	TEST_ISR_SetPriority
 342              	.LVL20:
  71:Generated_Source\PSoC4/TEST_ISR.c **** }
 343              		.loc 1 71 0
 344 0012 FFF7FEFF 		bl	TEST_ISR_Enable
 345              	.LVL21:
  72:Generated_Source\PSoC4/TEST_ISR.c **** 
 346              		.loc 1 72 0
 347              		@ sp needed
 348 0016 10BD     		pop	{r4, pc}
 349              	.L32:
 350              		.align	2
 351              	.L31:
 352 0018 00000000 		.word	TEST_ISR_Interrupt
 353              		.cfi_endproc
 354              	.LFE1:
 355              		.size	TEST_ISR_Start, .-TEST_ISR_Start
 356              		.section	.text.TEST_ISR_StartEx,"ax",%progbits
ARM GAS  C:\Users\HELLOK~1\AppData\Local\Temp\cc46Rz0b.s 			page 14


 357              		.align	2
 358              		.global	TEST_ISR_StartEx
 359              		.code	16
 360              		.thumb_func
 361              		.type	TEST_ISR_StartEx, %function
 362              	TEST_ISR_StartEx:
 363              	.LFB2:
 103:Generated_Source\PSoC4/TEST_ISR.c ****     /* For all we know the interrupt is active. */
 364              		.loc 1 103 0
 365              		.cfi_startproc
 366              		@ args = 0, pretend = 0, frame = 0
 367              		@ frame_needed = 0, uses_anonymous_args = 0
 368              	.LVL22:
 369 0000 10B5     		push	{r4, lr}
 370              		.cfi_def_cfa_offset 8
 371              		.cfi_offset 4, -8
 372              		.cfi_offset 14, -4
 373 0002 0400     		movs	r4, r0
 105:Generated_Source\PSoC4/TEST_ISR.c **** 
 374              		.loc 1 105 0
 375 0004 FFF7FEFF 		bl	TEST_ISR_Disable
 376              	.LVL23:
 108:Generated_Source\PSoC4/TEST_ISR.c **** 
 377              		.loc 1 108 0
 378 0008 2000     		movs	r0, r4
 379 000a FFF7FEFF 		bl	TEST_ISR_SetVector
 380              	.LVL24:
 111:Generated_Source\PSoC4/TEST_ISR.c **** 
 381              		.loc 1 111 0
 382 000e 0320     		movs	r0, #3
 383 0010 FFF7FEFF 		bl	TEST_ISR_SetPriority
 384              	.LVL25:
 114:Generated_Source\PSoC4/TEST_ISR.c **** }
 385              		.loc 1 114 0
 386 0014 FFF7FEFF 		bl	TEST_ISR_Enable
 387              	.LVL26:
 115:Generated_Source\PSoC4/TEST_ISR.c **** 
 388              		.loc 1 115 0
 389              		@ sp needed
 390              	.LVL27:
 391 0018 10BD     		pop	{r4, pc}
 392              		.cfi_endproc
 393              	.LFE2:
 394              		.size	TEST_ISR_StartEx, .-TEST_ISR_StartEx
 395 001a C046     		.section	.text.TEST_ISR_Stop,"ax",%progbits
 396              		.align	2
 397              		.global	TEST_ISR_Stop
 398              		.code	16
 399              		.thumb_func
 400              		.type	TEST_ISR_Stop, %function
 401              	TEST_ISR_Stop:
 402              	.LFB3:
 133:Generated_Source\PSoC4/TEST_ISR.c ****     /* Disable this interrupt. */
 403              		.loc 1 133 0
 404              		.cfi_startproc
 405              		@ args = 0, pretend = 0, frame = 0
 406              		@ frame_needed = 0, uses_anonymous_args = 0
ARM GAS  C:\Users\HELLOK~1\AppData\Local\Temp\cc46Rz0b.s 			page 15


 407 0000 10B5     		push	{r4, lr}
 408              		.cfi_def_cfa_offset 8
 409              		.cfi_offset 4, -8
 410              		.cfi_offset 14, -4
 135:Generated_Source\PSoC4/TEST_ISR.c **** 
 411              		.loc 1 135 0
 412 0002 FFF7FEFF 		bl	TEST_ISR_Disable
 413              	.LVL28:
 138:Generated_Source\PSoC4/TEST_ISR.c **** }
 414              		.loc 1 138 0
 415 0006 0248     		ldr	r0, .L35
 416 0008 FFF7FEFF 		bl	TEST_ISR_SetVector
 417              	.LVL29:
 139:Generated_Source\PSoC4/TEST_ISR.c **** 
 418              		.loc 1 139 0
 419              		@ sp needed
 420 000c 10BD     		pop	{r4, pc}
 421              	.L36:
 422 000e C046     		.align	2
 423              	.L35:
 424 0010 00000000 		.word	IntDefaultHandler
 425              		.cfi_endproc
 426              	.LFE3:
 427              		.size	TEST_ISR_Stop, .-TEST_ISR_Stop
 428              		.section	.text.TEST_ISR_SetPending,"ax",%progbits
 429              		.align	2
 430              		.global	TEST_ISR_SetPending
 431              		.code	16
 432              		.thumb_func
 433              		.type	TEST_ISR_SetPending, %function
 434              	TEST_ISR_SetPending:
 435              	.LFB12:
 377:Generated_Source\PSoC4/TEST_ISR.c **** 
 378:Generated_Source\PSoC4/TEST_ISR.c **** 
 379:Generated_Source\PSoC4/TEST_ISR.c **** /*******************************************************************************
 380:Generated_Source\PSoC4/TEST_ISR.c **** * Function Name: TEST_ISR_SetPending
 381:Generated_Source\PSoC4/TEST_ISR.c **** ********************************************************************************
 382:Generated_Source\PSoC4/TEST_ISR.c **** *
 383:Generated_Source\PSoC4/TEST_ISR.c **** * Summary:
 384:Generated_Source\PSoC4/TEST_ISR.c **** *   Causes the Interrupt to enter the pending state, a software method of
 385:Generated_Source\PSoC4/TEST_ISR.c **** *   generating the interrupt.
 386:Generated_Source\PSoC4/TEST_ISR.c **** *
 387:Generated_Source\PSoC4/TEST_ISR.c **** * Parameters:
 388:Generated_Source\PSoC4/TEST_ISR.c **** *   None
 389:Generated_Source\PSoC4/TEST_ISR.c **** *
 390:Generated_Source\PSoC4/TEST_ISR.c **** * Return:
 391:Generated_Source\PSoC4/TEST_ISR.c **** *   None
 392:Generated_Source\PSoC4/TEST_ISR.c **** *
 393:Generated_Source\PSoC4/TEST_ISR.c **** * Side Effects:
 394:Generated_Source\PSoC4/TEST_ISR.c **** *   If interrupts are enabled and the interrupt is set up properly, the ISR is
 395:Generated_Source\PSoC4/TEST_ISR.c **** *   entered (depending on the priority of this interrupt and other pending 
 396:Generated_Source\PSoC4/TEST_ISR.c **** *   interrupts).
 397:Generated_Source\PSoC4/TEST_ISR.c **** *
 398:Generated_Source\PSoC4/TEST_ISR.c **** *******************************************************************************/
 399:Generated_Source\PSoC4/TEST_ISR.c **** void TEST_ISR_SetPending(void)
 400:Generated_Source\PSoC4/TEST_ISR.c **** {
 436              		.loc 1 400 0
ARM GAS  C:\Users\HELLOK~1\AppData\Local\Temp\cc46Rz0b.s 			page 16


 437              		.cfi_startproc
 438              		@ args = 0, pretend = 0, frame = 0
 439              		@ frame_needed = 0, uses_anonymous_args = 0
 440              		@ link register save eliminated.
 401:Generated_Source\PSoC4/TEST_ISR.c ****     *TEST_ISR_INTC_SET_PD = TEST_ISR__INTC_MASK;
 441              		.loc 1 401 0
 442 0000 0122     		movs	r2, #1
 443 0002 014B     		ldr	r3, .L38
 444 0004 1A60     		str	r2, [r3]
 402:Generated_Source\PSoC4/TEST_ISR.c **** }
 445              		.loc 1 402 0
 446              		@ sp needed
 447 0006 7047     		bx	lr
 448              	.L39:
 449              		.align	2
 450              	.L38:
 451 0008 00E200E0 		.word	-536813056
 452              		.cfi_endproc
 453              	.LFE12:
 454              		.size	TEST_ISR_SetPending, .-TEST_ISR_SetPending
 455              		.section	.text.TEST_ISR_ClearPending,"ax",%progbits
 456              		.align	2
 457              		.global	TEST_ISR_ClearPending
 458              		.code	16
 459              		.thumb_func
 460              		.type	TEST_ISR_ClearPending, %function
 461              	TEST_ISR_ClearPending:
 462              	.LFB13:
 403:Generated_Source\PSoC4/TEST_ISR.c **** 
 404:Generated_Source\PSoC4/TEST_ISR.c **** 
 405:Generated_Source\PSoC4/TEST_ISR.c **** /*******************************************************************************
 406:Generated_Source\PSoC4/TEST_ISR.c **** * Function Name: TEST_ISR_ClearPending
 407:Generated_Source\PSoC4/TEST_ISR.c **** ********************************************************************************
 408:Generated_Source\PSoC4/TEST_ISR.c **** *
 409:Generated_Source\PSoC4/TEST_ISR.c **** * Summary:
 410:Generated_Source\PSoC4/TEST_ISR.c **** *   Clears a pending interrupt in the interrupt controller.
 411:Generated_Source\PSoC4/TEST_ISR.c **** *
 412:Generated_Source\PSoC4/TEST_ISR.c **** *   Note Some interrupt sources are clear-on-read and require the block 
 413:Generated_Source\PSoC4/TEST_ISR.c **** *   interrupt/status register to be read/cleared with the appropriate block API 
 414:Generated_Source\PSoC4/TEST_ISR.c **** *   (GPIO, UART, and so on). Otherwise the ISR will continue to remain in 
 415:Generated_Source\PSoC4/TEST_ISR.c **** *   pending state even though the interrupt itself is cleared using this API.
 416:Generated_Source\PSoC4/TEST_ISR.c **** *
 417:Generated_Source\PSoC4/TEST_ISR.c **** * Parameters:
 418:Generated_Source\PSoC4/TEST_ISR.c **** *   None
 419:Generated_Source\PSoC4/TEST_ISR.c **** *
 420:Generated_Source\PSoC4/TEST_ISR.c **** * Return:
 421:Generated_Source\PSoC4/TEST_ISR.c **** *   None
 422:Generated_Source\PSoC4/TEST_ISR.c **** *
 423:Generated_Source\PSoC4/TEST_ISR.c **** *******************************************************************************/
 424:Generated_Source\PSoC4/TEST_ISR.c **** void TEST_ISR_ClearPending(void)
 425:Generated_Source\PSoC4/TEST_ISR.c **** {
 463              		.loc 1 425 0
 464              		.cfi_startproc
 465              		@ args = 0, pretend = 0, frame = 0
 466              		@ frame_needed = 0, uses_anonymous_args = 0
 467              		@ link register save eliminated.
 426:Generated_Source\PSoC4/TEST_ISR.c ****     *TEST_ISR_INTC_CLR_PD = TEST_ISR__INTC_MASK;
ARM GAS  C:\Users\HELLOK~1\AppData\Local\Temp\cc46Rz0b.s 			page 17


 468              		.loc 1 426 0
 469 0000 0122     		movs	r2, #1
 470 0002 014B     		ldr	r3, .L41
 471 0004 1A60     		str	r2, [r3]
 427:Generated_Source\PSoC4/TEST_ISR.c **** }
 472              		.loc 1 427 0
 473              		@ sp needed
 474 0006 7047     		bx	lr
 475              	.L42:
 476              		.align	2
 477              	.L41:
 478 0008 80E200E0 		.word	-536812928
 479              		.cfi_endproc
 480              	.LFE13:
 481              		.size	TEST_ISR_ClearPending, .-TEST_ISR_ClearPending
 482              		.text
 483              	.Letext0:
 484              		.file 2 "Generated_Source\\PSoC4/cytypes.h"
 485              		.file 3 "Generated_Source\\PSoC4/CyLib.h"
 486              		.file 4 "Generated_Source\\PSoC4\\TEST.h"