ARM GAS  C:\Users\HELLOK~1\AppData\Local\Temp\ccypIvsQ.s 			page 1


   1              		.syntax unified
   2              		.cpu cortex-m0
   3              		.fpu softvfp
   4              		.eabi_attribute 20, 1
   5              		.eabi_attribute 21, 1
   6              		.eabi_attribute 23, 3
   7              		.eabi_attribute 24, 1
   8              		.eabi_attribute 25, 1
   9              		.eabi_attribute 26, 1
  10              		.eabi_attribute 30, 1
  11              		.eabi_attribute 34, 0
  12              		.eabi_attribute 18, 4
  13              		.thumb
  14              		.syntax unified
  15              		.file	"main.c"
  16              		.text
  17              	.Ltext0:
  18              		.cfi_sections	.debug_frame
  19              		.section	.text.writeToSpi,"ax",%progbits
  20              		.align	2
  21              		.global	writeToSpi
  22              		.code	16
  23              		.thumb_func
  24              		.type	writeToSpi, %function
  25              	writeToSpi:
  26              	.LFB35:
  27              		.file 1 "main.c"
   1:main.c        **** /* ========================================
   2:main.c        ****  *
   3:main.c        ****  * Copyright YOUR COMPANY, THE YEAR
   4:main.c        ****  * All Rights Reserved
   5:main.c        ****  * UNPUBLISHED, LICENSED SOFTWARE.
   6:main.c        ****  *
   7:main.c        ****  * CONFIDENTIAL AND PROPRIETARY INFORMATION
   8:main.c        ****  * WHICH IS THE PROPERTY OF your company.
   9:main.c        ****  *
  10:main.c        ****  * ========================================
  11:main.c        **** */
  12:main.c        **** #include "project.h"
  13:main.c        **** #include <string.h>
  14:main.c        **** #include <stdio.h>
  15:main.c        **** #include <stdlib.h>
  16:main.c        **** 
  17:main.c        **** volatile int enc_flag = 0;
  18:main.c        **** volatile int btn_flag = 0;
  19:main.c        **** volatile int encPos = 0;
  20:main.c        **** 
  21:main.c        **** // Struct for keeping register addresses
  22:main.c        **** struct radioAddr{
  23:main.c        ****     uint8 CONFIG;
  24:main.c        ****     uint8 EnhancedShockburst;
  25:main.c        ****     uint8 EnabledRxAddr;
  26:main.c        ****     uint8 SetupAW;
  27:main.c        ****     uint8 SetupRetransmission;
  28:main.c        ****     uint8 RFChannel;
  29:main.c        ****     uint8 RFSetup;
  30:main.c        ****     uint8 Status;
ARM GAS  C:\Users\HELLOK~1\AppData\Local\Temp\ccypIvsQ.s 			page 2


  31:main.c        ****     uint8 ObserveTX;
  32:main.c        ****     uint8 PowerDetector;
  33:main.c        ****     uint8 RXAddr0;
  34:main.c        ****     uint8 RXAddr1;
  35:main.c        ****     uint8 RXAddr2;
  36:main.c        ****     uint8 RXAddr3;
  37:main.c        ****     uint8 RXAddr4;
  38:main.c        ****     uint8 RXAddr5;
  39:main.c        ****     uint8 TXAddr;
  40:main.c        ****     uint8 RXPayload0;
  41:main.c        ****     uint8 RXPayload1;
  42:main.c        ****     uint8 RXPayload2;
  43:main.c        ****     uint8 RXPayload3;
  44:main.c        ****     uint8 RXPayload4;
  45:main.c        ****     uint8 RXPayload5;
  46:main.c        ****     uint8 FIFOStatus;
  47:main.c        ****     uint8 DynamicPayloadLength;
  48:main.c        ****     uint8 Features;
  49:main.c        **** };
  50:main.c        **** 
  51:main.c        **** struct radioAddr radio = {
  52:main.c        ****     0x00, // CONFIG
  53:main.c        ****     0x01, // EnhancedShockburst
  54:main.c        ****     0x02, // EnabledRxAddr
  55:main.c        ****     0x03, // SetupAW
  56:main.c        ****     0x04, // SetupRetransmission
  57:main.c        ****     0x05, // RFChannel
  58:main.c        ****     0x06, // RFSetup
  59:main.c        ****     0x07, // Status
  60:main.c        ****     0x08, // ObserveTX
  61:main.c        ****     0x09, // PowerDetector
  62:main.c        ****     0x0A,0x0B,0x0C,0x0D,0x0E,0x0F, // RXAddr0-5
  63:main.c        ****     0x10, // TXAddr
  64:main.c        ****     0x11,0x12,0x13,0x14,0x15,0x16, // RXPayload0-5
  65:main.c        ****     0x17, // FIFOStatus
  66:main.c        ****     0x1C, // DynamicPayloadLength
  67:main.c        ****     0x1D  // Features
  68:main.c        **** };
  69:main.c        **** 
  70:main.c        **** // Radio Addresses
  71:main.c        **** const uint8 group_address[13][5] = {
  72:main.c        ****     {0x11,0x11,0x11,0x11,0x11},
  73:main.c        ****     {0x22,0x22,0x22,0x22,0x22},
  74:main.c        ****     {0x33,0x33,0x33,0x33,0x33},
  75:main.c        ****     {0x44,0x44,0x44,0x44,0x44},
  76:main.c        ****     {0x55,0x55,0x55,0x55,0x55},
  77:main.c        ****     {0x66,0x66,0x66,0x66,0x66},
  78:main.c        ****     {0x77,0x77,0x77,0x77,0x77},
  79:main.c        ****     {0x88,0x88,0x88,0x88,0x88}, // USE THIS ONE
  80:main.c        ****     {0x99,0x99,0x99,0x99,0x99},
  81:main.c        ****     {0xAA,0xAA,0xAA,0xAA,0xAA},
  82:main.c        ****     {0xBB,0xBB,0xBB,0xBB,0xBB},
  83:main.c        ****     {0xCC,0xCC,0xCC,0xCC,0xCC},
  84:main.c        ****     {0xDD,0xDD,0xDD,0xDD,0xDD}
  85:main.c        ****     
  86:main.c        **** };
  87:main.c        **** 
ARM GAS  C:\Users\HELLOK~1\AppData\Local\Temp\ccypIvsQ.s 			page 3


  88:main.c        **** // Group Channels
  89:main.c        **** const uint8 group_channel[13] = {
  90:main.c        ****     0x10, //16
  91:main.c        ****     0x18, //24
  92:main.c        ****     0x20, //32
  93:main.c        ****     0x28, //40
  94:main.c        ****     0x30, //48
  95:main.c        ****     0x38, //56
  96:main.c        ****     0x40, //64
  97:main.c        ****     0x48, //72 (USE THIS ONE)
  98:main.c        ****     0x50, //80
  99:main.c        ****     0x58, //88
 100:main.c        ****     0x60, //96
 101:main.c        ****     0x68, //102
 102:main.c        ****     0x70  //110
 103:main.c        **** };
 104:main.c        **** 
 105:main.c        **** /*
 106:main.c        **** This function simply writes to the SPI bus
 107:main.c        **** - Variables
 108:main.c        ****     - writeBuf - buffer to write to bus
 109:main.c        ****     - writeBytes - Number of bytes to write
 110:main.c        ****     - regAddr - Register address to write to
 111:main.c        **** */
 112:main.c        **** void writeToSpi(uint8* writeBuf, int writeBytes, uint8 regAddr){
  28              		.loc 1 112 0
  29              		.cfi_startproc
  30              		@ args = 0, pretend = 0, frame = 0
  31              		@ frame_needed = 0, uses_anonymous_args = 0
  32              	.LVL0:
  33 0000 70B5     		push	{r4, r5, r6, lr}
  34              		.cfi_def_cfa_offset 16
  35              		.cfi_offset 4, -16
  36              		.cfi_offset 5, -12
  37              		.cfi_offset 6, -8
  38              		.cfi_offset 14, -4
  39 0002 0400     		movs	r4, r0
  40 0004 0D00     		movs	r5, r1
 113:main.c        ****     writeBuf[0] = 0b00100000 /*Write to reg*/ | regAddr; /*Reg to write*/
  41              		.loc 1 113 0
  42 0006 2023     		movs	r3, #32
  43 0008 1A43     		orrs	r2, r3
  44              	.LVL1:
  45 000a 0270     		strb	r2, [r0]
 114:main.c        ****     SPI_SpiUartClearRxBuffer();
  46              		.loc 1 114 0
  47 000c FFF7FEFF 		bl	SPI_SpiUartClearRxBuffer
  48              	.LVL2:
 115:main.c        ****     SPI_SpiUartPutArray(writeBuf, writeBytes);
  49              		.loc 1 115 0
  50 0010 2900     		movs	r1, r5
  51 0012 2000     		movs	r0, r4
  52 0014 FFF7FEFF 		bl	SPI_SpiUartPutArray
  53              	.LVL3:
  54              	.L2:
 116:main.c        ****     while(SPI_SpiIsBusBusy() == 0);
  55              		.loc 1 116 0 discriminator 1
ARM GAS  C:\Users\HELLOK~1\AppData\Local\Temp\ccypIvsQ.s 			page 4


  56 0018 044B     		ldr	r3, .L4
  57 001a 1B68     		ldr	r3, [r3]
  58 001c DB07     		lsls	r3, r3, #31
  59 001e FBD5     		bpl	.L2
  60              	.L3:
 117:main.c        ****     while(SPI_SpiIsBusBusy() == 1);
  61              		.loc 1 117 0 discriminator 1
  62 0020 024B     		ldr	r3, .L4
  63 0022 1B68     		ldr	r3, [r3]
  64 0024 DB07     		lsls	r3, r3, #31
  65 0026 FBD4     		bmi	.L3
 118:main.c        **** }
  66              		.loc 1 118 0
  67              		@ sp needed
  68              	.LVL4:
  69              	.LVL5:
  70 0028 70BD     		pop	{r4, r5, r6, pc}
  71              	.L5:
  72 002a C046     		.align	2
  73              	.L4:
  74 002c 24002740 		.word	1076297764
  75              		.cfi_endproc
  76              	.LFE35:
  77              		.size	writeToSpi, .-writeToSpi
  78              		.section	.text.processMessage,"ax",%progbits
  79              		.align	2
  80              		.global	processMessage
  81              		.code	16
  82              		.thumb_func
  83              		.type	processMessage, %function
  84              	processMessage:
  85              	.LFB36:
 119:main.c        **** /*
 120:main.c        **** This function processes the message once the radio interrupts the program. It requires no arguments
 121:main.c        **** */
 122:main.c        **** void processMessage(){
  86              		.loc 1 122 0
  87              		.cfi_startproc
  88              		@ args = 0, pretend = 0, frame = 88
  89              		@ frame_needed = 0, uses_anonymous_args = 0
  90 0000 10B5     		push	{r4, lr}
  91              		.cfi_def_cfa_offset 8
  92              		.cfi_offset 4, -8
  93              		.cfi_offset 14, -4
  94 0002 96B0     		sub	sp, sp, #88
  95              		.cfi_def_cfa_offset 96
 123:main.c        ****     // SPI buffer
 124:main.c        ****     uint8 writeBuf[32];
 125:main.c        ****     
 126:main.c        ****     // Buffer to read the data coming in
 127:main.c        ****     volatile uint32 readArray[6];
 128:main.c        ****     
 129:main.c        ****     writeBuf[0] = 0b01100001 /*Get RX Payload*/;
  96              		.loc 1 129 0
  97 0004 0EAC     		add	r4, sp, #56
  98 0006 6123     		movs	r3, #97
  99 0008 2370     		strb	r3, [r4]
ARM GAS  C:\Users\HELLOK~1\AppData\Local\Temp\ccypIvsQ.s 			page 5


 130:main.c        ****     SPI_SpiUartClearRxBuffer();
 100              		.loc 1 130 0
 101 000a FFF7FEFF 		bl	SPI_SpiUartClearRxBuffer
 102              	.LVL6:
 131:main.c        ****     SPI_SpiUartPutArray(writeBuf, 17);
 103              		.loc 1 131 0
 104 000e 1121     		movs	r1, #17
 105 0010 2000     		movs	r0, r4
 106 0012 FFF7FEFF 		bl	SPI_SpiUartPutArray
 107              	.LVL7:
 108              	.L7:
 132:main.c        ****     while(SPI_SpiIsBusBusy() == 0);
 109              		.loc 1 132 0 discriminator 1
 110 0016 744B     		ldr	r3, .L25
 111 0018 1B68     		ldr	r3, [r3]
 112 001a DB07     		lsls	r3, r3, #31
 113 001c FBD5     		bpl	.L7
 114              	.L8:
 133:main.c        ****     while(SPI_SpiIsBusBusy() == 1);
 115              		.loc 1 133 0 discriminator 1
 116 001e 724B     		ldr	r3, .L25
 117 0020 1B68     		ldr	r3, [r3]
 118 0022 DB07     		lsls	r3, r3, #31
 119 0024 FBD4     		bmi	.L8
 120 0026 0024     		movs	r4, #0
 121 0028 05E0     		b	.L9
 122              	.LVL8:
 123              	.L10:
 124              	.LBB2:
 134:main.c        ****     // Read in data from buffer
 135:main.c        ****     for(int i = 0; i < 6; i++){
 136:main.c        ****         readArray[i] = SPI_SpiUartReadRxData();
 125              		.loc 1 136 0 discriminator 3
 126 002a FFF7FEFF 		bl	SPI_SpiUartReadRxData
 127              	.LVL9:
 128 002e A200     		lsls	r2, r4, #2
 129 0030 08AB     		add	r3, sp, #32
 130 0032 D050     		str	r0, [r2, r3]
 135:main.c        ****         readArray[i] = SPI_SpiUartReadRxData();
 131              		.loc 1 135 0 discriminator 3
 132 0034 0134     		adds	r4, r4, #1
 133              	.LVL10:
 134              	.L9:
 135:main.c        ****         readArray[i] = SPI_SpiUartReadRxData();
 135              		.loc 1 135 0 is_stmt 0 discriminator 1
 136 0036 052C     		cmp	r4, #5
 137 0038 F7DD     		ble	.L10
 138              	.LBE2:
 137:main.c        ****     }
 138:main.c        ****     SPI_SpiUartClearRxBuffer();
 139              		.loc 1 138 0 is_stmt 1
 140 003a FFF7FEFF 		bl	SPI_SpiUartClearRxBuffer
 141              	.LVL11:
 139:main.c        ****     // Clear status register
 140:main.c        ****     writeBuf[1] = 0x00 | (0x00 | 0x40 | 0x00);
 142              		.loc 1 140 0
 143 003e 0EA8     		add	r0, sp, #56
ARM GAS  C:\Users\HELLOK~1\AppData\Local\Temp\ccypIvsQ.s 			page 6


 144 0040 4023     		movs	r3, #64
 145 0042 4370     		strb	r3, [r0, #1]
 141:main.c        ****     writeToSpi(writeBuf, 2, radio.Status);
 146              		.loc 1 141 0
 147 0044 694B     		ldr	r3, .L25+4
 148 0046 DA79     		ldrb	r2, [r3, #7]
 149 0048 0221     		movs	r1, #2
 150 004a FFF7FEFF 		bl	writeToSpi
 151              	.LVL12:
 142:main.c        ****     SPI_SpiUartClearRxBuffer();
 152              		.loc 1 142 0
 153 004e FFF7FEFF 		bl	SPI_SpiUartClearRxBuffer
 154              	.LVL13:
 143:main.c        ****     // Process data
 144:main.c        ****     switch(readArray[1]){
 155              		.loc 1 144 0
 156 0052 099B     		ldr	r3, [sp, #36]
 157 0054 472B     		cmp	r3, #71
 158 0056 38D0     		beq	.L12
 159 0058 02D8     		bhi	.L13
 160 005a 422B     		cmp	r3, #66
 161 005c 64D0     		beq	.L14
 162 005e C0E0     		b	.L6
 163              	.L13:
 164 0060 522B     		cmp	r3, #82
 165 0062 03D0     		beq	.L15
 166 0064 592B     		cmp	r3, #89
 167 0066 00D1     		bne	.LCB142
 168 0068 8DE0     		b	.L16	@long jump
 169              	.LCB142:
 170 006a BAE0     		b	.L6
 171              	.L15:
 145:main.c        ****         case 'R': 
 146:main.c        ****             // If less than 10
 147:main.c        ****             if (readArray[4] == 0x00000000){
 172              		.loc 1 147 0
 173 006c 0C9B     		ldr	r3, [sp, #48]
 174 006e 002B     		cmp	r3, #0
 175 0070 0BD1     		bne	.L17
 176              	.LBB3:
 148:main.c        ****                 volatile uint32 bright = (readArray[3]-0x30);
 177              		.loc 1 148 0
 178 0072 0B9B     		ldr	r3, [sp, #44]
 179 0074 303B     		subs	r3, r3, #48
 180 0076 0093     		str	r3, [sp]
 149:main.c        ****                 PWM_WriteCompare(bright);
 181              		.loc 1 149 0
 182 0078 0098     		ldr	r0, [sp]
 183 007a FFF7FEFF 		bl	PWM_WriteCompare
 184              	.LVL14:
 150:main.c        ****                 PWM_Start();
 185              		.loc 1 150 0
 186 007e FFF7FEFF 		bl	PWM_Start
 187              	.LVL15:
 151:main.c        ****                 PWM_SEL_Write(0);
 188              		.loc 1 151 0
 189 0082 0020     		movs	r0, #0
ARM GAS  C:\Users\HELLOK~1\AppData\Local\Temp\ccypIvsQ.s 			page 7


 190 0084 FFF7FEFF 		bl	PWM_SEL_Write
 191              	.LVL16:
 192              	.LBE3:
 193 0088 ABE0     		b	.L6
 194              	.L17:
 152:main.c        ****             }
 153:main.c        ****             // If less than 100
 154:main.c        ****             else if(readArray[5] == 0x00000000){
 195              		.loc 1 154 0
 196 008a 0D9B     		ldr	r3, [sp, #52]
 197 008c 002B     		cmp	r3, #0
 198 008e 13D1     		bne	.L18
 199              	.LBB4:
 155:main.c        ****                 volatile uint32 bright = (readArray[3]-0x30)*10 + (readArray[4]-0x30);
 200              		.loc 1 155 0
 201 0090 0B9A     		ldr	r2, [sp, #44]
 202 0092 0C9B     		ldr	r3, [sp, #48]
 203 0094 9100     		lsls	r1, r2, #2
 204 0096 8A18     		adds	r2, r1, r2
 205 0098 5100     		lsls	r1, r2, #1
 206 009a CB18     		adds	r3, r1, r3
 207 009c 544A     		ldr	r2, .L25+8
 208 009e 9446     		mov	ip, r2
 209 00a0 6344     		add	r3, r3, ip
 210 00a2 0193     		str	r3, [sp, #4]
 156:main.c        ****                 PWM_WriteCompare(bright-1);
 211              		.loc 1 156 0
 212 00a4 0198     		ldr	r0, [sp, #4]
 213 00a6 0138     		subs	r0, r0, #1
 214 00a8 FFF7FEFF 		bl	PWM_WriteCompare
 215              	.LVL17:
 157:main.c        ****                 PWM_Start();
 216              		.loc 1 157 0
 217 00ac FFF7FEFF 		bl	PWM_Start
 218              	.LVL18:
 158:main.c        ****                 PWM_SEL_Write(0);
 219              		.loc 1 158 0
 220 00b0 0020     		movs	r0, #0
 221 00b2 FFF7FEFF 		bl	PWM_SEL_Write
 222              	.LVL19:
 223              	.LBE4:
 224 00b6 94E0     		b	.L6
 225              	.L18:
 159:main.c        ****             }
 160:main.c        ****             // If 100
 161:main.c        ****             else{
 162:main.c        ****                 PWM_WriteCompare(99);
 226              		.loc 1 162 0
 227 00b8 6320     		movs	r0, #99
 228 00ba FFF7FEFF 		bl	PWM_WriteCompare
 229              	.LVL20:
 163:main.c        ****                 PWM_Start();
 230              		.loc 1 163 0
 231 00be FFF7FEFF 		bl	PWM_Start
 232              	.LVL21:
 164:main.c        ****                 PWM_SEL_Write(0);
 233              		.loc 1 164 0
ARM GAS  C:\Users\HELLOK~1\AppData\Local\Temp\ccypIvsQ.s 			page 8


 234 00c2 0020     		movs	r0, #0
 235 00c4 FFF7FEFF 		bl	PWM_SEL_Write
 236              	.LVL22:
 237 00c8 8BE0     		b	.L6
 238              	.L12:
 165:main.c        ****             }
 166:main.c        ****             break;
 167:main.c        ****         // Repeats for every case, see comments above
 168:main.c        ****         case 'G': 
 169:main.c        ****             if (readArray[4] == 0x00000000){
 239              		.loc 1 169 0
 240 00ca 0C9B     		ldr	r3, [sp, #48]
 241 00cc 002B     		cmp	r3, #0
 242 00ce 0BD1     		bne	.L19
 243              	.LBB5:
 170:main.c        ****                 volatile uint32 bright = (readArray[3]-0x30);
 244              		.loc 1 170 0
 245 00d0 0B9B     		ldr	r3, [sp, #44]
 246 00d2 303B     		subs	r3, r3, #48
 247 00d4 0293     		str	r3, [sp, #8]
 171:main.c        ****                 PWM_WriteCompare(bright);
 248              		.loc 1 171 0
 249 00d6 0298     		ldr	r0, [sp, #8]
 250 00d8 FFF7FEFF 		bl	PWM_WriteCompare
 251              	.LVL23:
 172:main.c        ****                 PWM_Start();
 252              		.loc 1 172 0
 253 00dc FFF7FEFF 		bl	PWM_Start
 254              	.LVL24:
 173:main.c        ****                 PWM_SEL_Write(1);
 255              		.loc 1 173 0
 256 00e0 0120     		movs	r0, #1
 257 00e2 FFF7FEFF 		bl	PWM_SEL_Write
 258              	.LVL25:
 259              	.LBE5:
 260 00e6 7CE0     		b	.L6
 261              	.L19:
 174:main.c        ****             }
 175:main.c        ****             else if(readArray[5] == 0x00000000){
 262              		.loc 1 175 0
 263 00e8 0D9B     		ldr	r3, [sp, #52]
 264 00ea 002B     		cmp	r3, #0
 265 00ec 13D1     		bne	.L20
 266              	.LBB6:
 176:main.c        ****                 volatile uint32 bright = (readArray[3]-0x30)*10 + (readArray[4]-0x30);
 267              		.loc 1 176 0
 268 00ee 0B9A     		ldr	r2, [sp, #44]
 269 00f0 0C9B     		ldr	r3, [sp, #48]
 270 00f2 9100     		lsls	r1, r2, #2
 271 00f4 8A18     		adds	r2, r1, r2
 272 00f6 5100     		lsls	r1, r2, #1
 273 00f8 CB18     		adds	r3, r1, r3
 274 00fa 3D4A     		ldr	r2, .L25+8
 275 00fc 9446     		mov	ip, r2
 276 00fe 6344     		add	r3, r3, ip
 277 0100 0393     		str	r3, [sp, #12]
 177:main.c        ****                 PWM_WriteCompare(bright-1);
ARM GAS  C:\Users\HELLOK~1\AppData\Local\Temp\ccypIvsQ.s 			page 9


 278              		.loc 1 177 0
 279 0102 0398     		ldr	r0, [sp, #12]
 280 0104 0138     		subs	r0, r0, #1
 281 0106 FFF7FEFF 		bl	PWM_WriteCompare
 282              	.LVL26:
 178:main.c        ****                 PWM_Start();
 283              		.loc 1 178 0
 284 010a FFF7FEFF 		bl	PWM_Start
 285              	.LVL27:
 179:main.c        ****                 PWM_SEL_Write(1);
 286              		.loc 1 179 0
 287 010e 0120     		movs	r0, #1
 288 0110 FFF7FEFF 		bl	PWM_SEL_Write
 289              	.LVL28:
 290              	.LBE6:
 291 0114 65E0     		b	.L6
 292              	.L20:
 180:main.c        ****             }
 181:main.c        ****             else{
 182:main.c        ****                 PWM_WriteCompare(99);
 293              		.loc 1 182 0
 294 0116 6320     		movs	r0, #99
 295 0118 FFF7FEFF 		bl	PWM_WriteCompare
 296              	.LVL29:
 183:main.c        ****                 PWM_Start();
 297              		.loc 1 183 0
 298 011c FFF7FEFF 		bl	PWM_Start
 299              	.LVL30:
 184:main.c        ****                 PWM_SEL_Write(1);
 300              		.loc 1 184 0
 301 0120 0120     		movs	r0, #1
 302 0122 FFF7FEFF 		bl	PWM_SEL_Write
 303              	.LVL31:
 304 0126 5CE0     		b	.L6
 305              	.L14:
 185:main.c        ****             }
 186:main.c        ****             break;
 187:main.c        ****         case 'B': 
 188:main.c        ****             if (readArray[4] == 0x00000000){
 306              		.loc 1 188 0
 307 0128 0C9B     		ldr	r3, [sp, #48]
 308 012a 002B     		cmp	r3, #0
 309 012c 0BD1     		bne	.L21
 310              	.LBB7:
 189:main.c        ****                 volatile uint32 bright = (readArray[3]-0x30);
 311              		.loc 1 189 0
 312 012e 0B9B     		ldr	r3, [sp, #44]
 313 0130 303B     		subs	r3, r3, #48
 314 0132 0493     		str	r3, [sp, #16]
 190:main.c        ****                 PWM_WriteCompare(bright);
 315              		.loc 1 190 0
 316 0134 0498     		ldr	r0, [sp, #16]
 317 0136 FFF7FEFF 		bl	PWM_WriteCompare
 318              	.LVL32:
 191:main.c        ****                 PWM_Start();
 319              		.loc 1 191 0
 320 013a FFF7FEFF 		bl	PWM_Start
ARM GAS  C:\Users\HELLOK~1\AppData\Local\Temp\ccypIvsQ.s 			page 10


 321              	.LVL33:
 192:main.c        ****                 PWM_SEL_Write(2);
 322              		.loc 1 192 0
 323 013e 0220     		movs	r0, #2
 324 0140 FFF7FEFF 		bl	PWM_SEL_Write
 325              	.LVL34:
 326              	.LBE7:
 327 0144 4DE0     		b	.L6
 328              	.L21:
 193:main.c        ****             }
 194:main.c        ****             else if(readArray[5] == 0x00000000){
 329              		.loc 1 194 0
 330 0146 0D9B     		ldr	r3, [sp, #52]
 331 0148 002B     		cmp	r3, #0
 332 014a 13D1     		bne	.L22
 333              	.LBB8:
 195:main.c        ****                 volatile uint32 bright = (readArray[3]-0x30)*10 + (readArray[4]-0x30);
 334              		.loc 1 195 0
 335 014c 0B9A     		ldr	r2, [sp, #44]
 336 014e 0C9B     		ldr	r3, [sp, #48]
 337 0150 9100     		lsls	r1, r2, #2
 338 0152 8A18     		adds	r2, r1, r2
 339 0154 5100     		lsls	r1, r2, #1
 340 0156 CB18     		adds	r3, r1, r3
 341 0158 254A     		ldr	r2, .L25+8
 342 015a 9446     		mov	ip, r2
 343 015c 6344     		add	r3, r3, ip
 344 015e 0593     		str	r3, [sp, #20]
 196:main.c        ****                 PWM_WriteCompare(bright-1);
 345              		.loc 1 196 0
 346 0160 0598     		ldr	r0, [sp, #20]
 347 0162 0138     		subs	r0, r0, #1
 348 0164 FFF7FEFF 		bl	PWM_WriteCompare
 349              	.LVL35:
 197:main.c        ****                 PWM_Start();
 350              		.loc 1 197 0
 351 0168 FFF7FEFF 		bl	PWM_Start
 352              	.LVL36:
 198:main.c        ****                 PWM_SEL_Write(2);
 353              		.loc 1 198 0
 354 016c 0220     		movs	r0, #2
 355 016e FFF7FEFF 		bl	PWM_SEL_Write
 356              	.LVL37:
 357              	.LBE8:
 358 0172 36E0     		b	.L6
 359              	.L22:
 199:main.c        ****             }
 200:main.c        ****             else{
 201:main.c        ****                 PWM_WriteCompare(99);
 360              		.loc 1 201 0
 361 0174 6320     		movs	r0, #99
 362 0176 FFF7FEFF 		bl	PWM_WriteCompare
 363              	.LVL38:
 202:main.c        ****                 PWM_Start();
 364              		.loc 1 202 0
 365 017a FFF7FEFF 		bl	PWM_Start
 366              	.LVL39:
ARM GAS  C:\Users\HELLOK~1\AppData\Local\Temp\ccypIvsQ.s 			page 11


 203:main.c        ****                 PWM_SEL_Write(2);
 367              		.loc 1 203 0
 368 017e 0220     		movs	r0, #2
 369 0180 FFF7FEFF 		bl	PWM_SEL_Write
 370              	.LVL40:
 371 0184 2DE0     		b	.L6
 372              	.L16:
 204:main.c        ****             }
 205:main.c        ****             break;
 206:main.c        ****         case 'Y': 
 207:main.c        ****             if (readArray[4] == 0x00000000){
 373              		.loc 1 207 0
 374 0186 0C9B     		ldr	r3, [sp, #48]
 375 0188 002B     		cmp	r3, #0
 376 018a 0BD1     		bne	.L23
 377              	.LBB9:
 208:main.c        ****                 volatile uint32 bright = (readArray[3]-0x30);
 378              		.loc 1 208 0
 379 018c 0B9B     		ldr	r3, [sp, #44]
 380 018e 303B     		subs	r3, r3, #48
 381 0190 0693     		str	r3, [sp, #24]
 209:main.c        ****                 PWM_WriteCompare(bright);
 382              		.loc 1 209 0
 383 0192 0698     		ldr	r0, [sp, #24]
 384 0194 FFF7FEFF 		bl	PWM_WriteCompare
 385              	.LVL41:
 210:main.c        ****                 PWM_Start();
 386              		.loc 1 210 0
 387 0198 FFF7FEFF 		bl	PWM_Start
 388              	.LVL42:
 211:main.c        ****                 PWM_SEL_Write(3);
 389              		.loc 1 211 0
 390 019c 0320     		movs	r0, #3
 391 019e FFF7FEFF 		bl	PWM_SEL_Write
 392              	.LVL43:
 393              	.LBE9:
 394 01a2 1EE0     		b	.L6
 395              	.L23:
 212:main.c        ****             }
 213:main.c        ****             else if(readArray[5] == 0x00000000){
 396              		.loc 1 213 0
 397 01a4 0D9B     		ldr	r3, [sp, #52]
 398 01a6 002B     		cmp	r3, #0
 399 01a8 13D1     		bne	.L24
 400              	.LBB10:
 214:main.c        ****                 volatile uint32 bright = (readArray[3]-0x30)*10 + (readArray[4]-0x30);
 401              		.loc 1 214 0
 402 01aa 0B9A     		ldr	r2, [sp, #44]
 403 01ac 0C9B     		ldr	r3, [sp, #48]
 404 01ae 9100     		lsls	r1, r2, #2
 405 01b0 8A18     		adds	r2, r1, r2
 406 01b2 5100     		lsls	r1, r2, #1
 407 01b4 CB18     		adds	r3, r1, r3
 408 01b6 0E4A     		ldr	r2, .L25+8
 409 01b8 9446     		mov	ip, r2
 410 01ba 6344     		add	r3, r3, ip
 411 01bc 0793     		str	r3, [sp, #28]
ARM GAS  C:\Users\HELLOK~1\AppData\Local\Temp\ccypIvsQ.s 			page 12


 215:main.c        ****                 PWM_WriteCompare(bright-1);
 412              		.loc 1 215 0
 413 01be 0798     		ldr	r0, [sp, #28]
 414 01c0 0138     		subs	r0, r0, #1
 415 01c2 FFF7FEFF 		bl	PWM_WriteCompare
 416              	.LVL44:
 216:main.c        ****                 PWM_Start();
 417              		.loc 1 216 0
 418 01c6 FFF7FEFF 		bl	PWM_Start
 419              	.LVL45:
 217:main.c        ****                 PWM_SEL_Write(3);
 420              		.loc 1 217 0
 421 01ca 0320     		movs	r0, #3
 422 01cc FFF7FEFF 		bl	PWM_SEL_Write
 423              	.LVL46:
 424              	.LBE10:
 425 01d0 07E0     		b	.L6
 426              	.L24:
 218:main.c        ****             }
 219:main.c        ****             else{
 220:main.c        ****                 PWM_WriteCompare(99);
 427              		.loc 1 220 0
 428 01d2 6320     		movs	r0, #99
 429 01d4 FFF7FEFF 		bl	PWM_WriteCompare
 430              	.LVL47:
 221:main.c        ****                 PWM_Start();
 431              		.loc 1 221 0
 432 01d8 FFF7FEFF 		bl	PWM_Start
 433              	.LVL48:
 222:main.c        ****                 PWM_SEL_Write(3);
 434              		.loc 1 222 0
 435 01dc 0320     		movs	r0, #3
 436 01de FFF7FEFF 		bl	PWM_SEL_Write
 437              	.LVL49:
 438              	.L6:
 223:main.c        ****             }
 224:main.c        ****             break;
 225:main.c        ****     }
 226:main.c        **** }
 439              		.loc 1 226 0
 440 01e2 16B0     		add	sp, sp, #88
 441              		@ sp needed
 442              	.LVL50:
 443 01e4 10BD     		pop	{r4, pc}
 444              	.L26:
 445 01e6 C046     		.align	2
 446              	.L25:
 447 01e8 24002740 		.word	1076297764
 448 01ec 00000000 		.word	.LANCHOR0
 449 01f0 F0FDFFFF 		.word	-528
 450              		.cfi_endproc
 451              	.LFE36:
 452              		.size	processMessage, .-processMessage
 453              		.section	.text.Transmitter,"ax",%progbits
 454              		.align	2
 455              		.global	Transmitter
 456              		.code	16
ARM GAS  C:\Users\HELLOK~1\AppData\Local\Temp\ccypIvsQ.s 			page 13


 457              		.thumb_func
 458              		.type	Transmitter, %function
 459              	Transmitter:
 460              	.LFB37:
 227:main.c        **** /*****************************************************************************
 228:main.c        **** 
 229:main.c        **** XXX: TODO Transmitter()
 230:main.c        **** 
 231:main.c        **** This function puts the NRF24 in TX mode. It should:
 232:main.c        **** - Set 15 retransmissions with a 4000 us delay between each
 233:main.c        **** - Set the data rate to 250 kbps at maximum power level
 234:main.c        **** - Set the payload size to be fixed at 16 bytes
 235:main.c        **** - Ensure auto-acknowledge is turned on for P0 & P1
 236:main.c        **** - Ensure 2-byte CRCs for the auto-acknowledges
 237:main.c        **** - Ensure the data pipes are on
 238:main.c        **** - Ensure the NRF24 is in TX mode and powered up
 239:main.c        **** - Set the correct RF channel based on the input group
 240:main.c        **** - Set the correct TX_ADDR, RX_ADDR_P0, for the target group
 241:main.c        **** - Clear the NRF24 status register
 242:main.c        **** 
 243:main.c        **** Inputs:
 244:main.c        ****     - int group: An integer representing the group to which the message is
 245:main.c        ****                  directed. This will be used to set the correct address
 246:main.c        ****                  and channel.
 247:main.c        ****                
 248:main.c        **** Outputs:
 249:main.c        ****     - None
 250:main.c        **** 
 251:main.c        **** *****************************************************************************/
 252:main.c        **** void Transmitter(int group){
 461              		.loc 1 252 0
 462              		.cfi_startproc
 463              		@ args = 0, pretend = 0, frame = 32
 464              		@ frame_needed = 0, uses_anonymous_args = 0
 465              	.LVL51:
 466 0000 70B5     		push	{r4, r5, r6, lr}
 467              		.cfi_def_cfa_offset 16
 468              		.cfi_offset 4, -16
 469              		.cfi_offset 5, -12
 470              		.cfi_offset 6, -8
 471              		.cfi_offset 14, -4
 472 0002 88B0     		sub	sp, sp, #32
 473              		.cfi_def_cfa_offset 48
 474 0004 0400     		movs	r4, r0
 253:main.c        ****     uint8 spiWrBuf[32], spiRdBuf[32];
 254:main.c        **** // - Set 15 retransmissions with a 4000 us delay between each
 255:main.c        ****     spiWrBuf[1] = 0x00 | (0xF0 | 0x0F);
 475              		.loc 1 255 0
 476 0006 FF23     		movs	r3, #255
 477 0008 6A46     		mov	r2, sp
 478 000a 5370     		strb	r3, [r2, #1]
 256:main.c        ****     writeToSpi(spiWrBuf, 2, radio.SetupRetransmission);
 479              		.loc 1 256 0
 480 000c 494D     		ldr	r5, .L35
 481 000e 2A79     		ldrb	r2, [r5, #4]
 482 0010 0221     		movs	r1, #2
 483 0012 6846     		mov	r0, sp
ARM GAS  C:\Users\HELLOK~1\AppData\Local\Temp\ccypIvsQ.s 			page 14


 484              	.LVL52:
 485 0014 FFF7FEFF 		bl	writeToSpi
 486              	.LVL53:
 257:main.c        **** // - Set the data rate to 250 kbps at maximum power level
 258:main.c        ****     spiWrBuf[1] = 0x00 | (0x00 | 0x00 | 0x20 | 0x00 | 0x00 | 0x06);
 487              		.loc 1 258 0
 488 0018 2623     		movs	r3, #38
 489 001a 6A46     		mov	r2, sp
 490 001c 5370     		strb	r3, [r2, #1]
 259:main.c        ****     writeToSpi(spiWrBuf, 2, radio.RFSetup);
 491              		.loc 1 259 0
 492 001e AA79     		ldrb	r2, [r5, #6]
 493 0020 0221     		movs	r1, #2
 494 0022 6846     		mov	r0, sp
 495 0024 FFF7FEFF 		bl	writeToSpi
 496              	.LVL54:
 260:main.c        **** // - Set the payload size to be fixed at 16 bytes
 261:main.c        ****     spiWrBuf[1] = 16;
 497              		.loc 1 261 0
 498 0028 1026     		movs	r6, #16
 499 002a 6B46     		mov	r3, sp
 500 002c 5E70     		strb	r6, [r3, #1]
 262:main.c        ****     writeToSpi(spiWrBuf, 2, radio.RXPayload0);
 501              		.loc 1 262 0
 502 002e 6A7C     		ldrb	r2, [r5, #17]
 503 0030 0221     		movs	r1, #2
 504 0032 6846     		mov	r0, sp
 505 0034 FFF7FEFF 		bl	writeToSpi
 506              	.LVL55:
 263:main.c        ****     spiWrBuf[1] = 16;
 507              		.loc 1 263 0
 508 0038 6B46     		mov	r3, sp
 509 003a 5E70     		strb	r6, [r3, #1]
 264:main.c        ****     writeToSpi(spiWrBuf, 2, radio.RXPayload1);
 510              		.loc 1 264 0
 511 003c AA7C     		ldrb	r2, [r5, #18]
 512 003e 0221     		movs	r1, #2
 513 0040 6846     		mov	r0, sp
 514 0042 FFF7FEFF 		bl	writeToSpi
 515              	.LVL56:
 265:main.c        **** // - Ensure auto-acknowledge is turned on for P0 & P1
 266:main.c        ****     spiWrBuf[1] = 0x00 | (0x00 | 0x00 | 0x00 | 0x00 | 0x00 | 0x02 | 0x01);
 516              		.loc 1 266 0
 517 0046 0D3E     		subs	r6, r6, #13
 518 0048 6B46     		mov	r3, sp
 519 004a 5E70     		strb	r6, [r3, #1]
 267:main.c        ****     writeToSpi(spiWrBuf, 2, radio.EnhancedShockburst);
 520              		.loc 1 267 0
 521 004c 6A78     		ldrb	r2, [r5, #1]
 522 004e 0221     		movs	r1, #2
 523 0050 6846     		mov	r0, sp
 524 0052 FFF7FEFF 		bl	writeToSpi
 525              	.LVL57:
 268:main.c        **** // - Ensure 2-byte CRCs for the auto-acknowledges
 269:main.c        ****     spiWrBuf[1] = 0x00 | (0x00 | 0x00 | 0x00 | 0x00 | 0x08 | 0x04 | 0x00 | 0x00);
 526              		.loc 1 269 0
 527 0056 0C23     		movs	r3, #12
ARM GAS  C:\Users\HELLOK~1\AppData\Local\Temp\ccypIvsQ.s 			page 15


 528 0058 6A46     		mov	r2, sp
 529 005a 5370     		strb	r3, [r2, #1]
 270:main.c        ****     writeToSpi(spiWrBuf, 2, radio.CONFIG);
 530              		.loc 1 270 0
 531 005c 2A78     		ldrb	r2, [r5]
 532 005e 0221     		movs	r1, #2
 533 0060 6846     		mov	r0, sp
 534 0062 FFF7FEFF 		bl	writeToSpi
 535              	.LVL58:
 271:main.c        **** // - Ensure the data pipes are on
 272:main.c        ****     spiWrBuf[1] = 0x00 | (0x00 | 0x00 | 0x00 | 0x00 | 0x00 | 0x02 | 0x01);
 536              		.loc 1 272 0
 537 0066 6B46     		mov	r3, sp
 538 0068 5E70     		strb	r6, [r3, #1]
 273:main.c        ****     writeToSpi(spiWrBuf, 2, radio.EnabledRxAddr);
 539              		.loc 1 273 0
 540 006a AA78     		ldrb	r2, [r5, #2]
 541 006c 0221     		movs	r1, #2
 542 006e 6846     		mov	r0, sp
 543 0070 FFF7FEFF 		bl	writeToSpi
 544              	.LVL59:
 274:main.c        **** // - Ensure the NRF24 is in TX mode and powered up
 275:main.c        ****     spiWrBuf[1] = 0x00 | (0x00 | 0x00 | 0x00 | 0x00 | 0x08 | 0x04 | 0x02 | 0x00);
 545              		.loc 1 275 0
 546 0074 0E23     		movs	r3, #14
 547 0076 6A46     		mov	r2, sp
 548 0078 5370     		strb	r3, [r2, #1]
 276:main.c        ****     writeToSpi(spiWrBuf, 2, radio.CONFIG);
 549              		.loc 1 276 0
 550 007a 2A78     		ldrb	r2, [r5]
 551 007c 0221     		movs	r1, #2
 552 007e 6846     		mov	r0, sp
 553 0080 FFF7FEFF 		bl	writeToSpi
 554              	.LVL60:
 277:main.c        **** // - Set the correct RF channel based on the input group
 278:main.c        ****     if(group < 0 || group > 12){}
 555              		.loc 1 278 0
 556 0084 0C2C     		cmp	r4, #12
 557 0086 09D8     		bhi	.L28
 279:main.c        ****     else{
 280:main.c        ****         spiWrBuf[1] = group_channel[group];
 558              		.loc 1 280 0
 559 0088 2B4B     		ldr	r3, .L35+4
 560 008a 1B5D     		ldrb	r3, [r3, r4]
 561 008c 6A46     		mov	r2, sp
 562 008e 5370     		strb	r3, [r2, #1]
 281:main.c        ****         writeToSpi(spiWrBuf, 2, radio.RFChannel);
 563              		.loc 1 281 0
 564 0090 284B     		ldr	r3, .L35
 565 0092 5A79     		ldrb	r2, [r3, #5]
 566 0094 0221     		movs	r1, #2
 567 0096 6846     		mov	r0, sp
 568 0098 FFF7FEFF 		bl	writeToSpi
 569              	.LVL61:
 570              	.L28:
 252:main.c        ****     uint8 spiWrBuf[32], spiRdBuf[32];
 571              		.loc 1 252 0 discriminator 1
ARM GAS  C:\Users\HELLOK~1\AppData\Local\Temp\ccypIvsQ.s 			page 16


 572 009c 0023     		movs	r3, #0
 573 009e 09E0     		b	.L29
 574              	.LVL62:
 575              	.L30:
 576              	.LBB11:
 282:main.c        ****     }
 283:main.c        **** // - Set the correct TX_ADDR, RX_ADDR_P0, for the target group
 284:main.c        ****     for(int i = 0; i < 5; i++){
 285:main.c        ****         spiWrBuf[i+1] = group_address[group][i];
 577              		.loc 1 285 0 discriminator 3
 578 00a0 591C     		adds	r1, r3, #1
 579 00a2 A200     		lsls	r2, r4, #2
 580 00a4 1219     		adds	r2, r2, r4
 581 00a6 2448     		ldr	r0, .L35+4
 582 00a8 8218     		adds	r2, r0, r2
 583 00aa D318     		adds	r3, r2, r3
 584              	.LVL63:
 585 00ac 1B7C     		ldrb	r3, [r3, #16]
 586 00ae 6A46     		mov	r2, sp
 587 00b0 5354     		strb	r3, [r2, r1]
 588              	.LVL64:
 284:main.c        ****         spiWrBuf[i+1] = group_address[group][i];
 589              		.loc 1 284 0 discriminator 3
 590 00b2 0B00     		movs	r3, r1
 591              	.LVL65:
 592              	.L29:
 284:main.c        ****         spiWrBuf[i+1] = group_address[group][i];
 593              		.loc 1 284 0 is_stmt 0 discriminator 1
 594 00b4 042B     		cmp	r3, #4
 595 00b6 F3DD     		ble	.L30
 596              	.LBE11:
 286:main.c        ****     }
 287:main.c        ****     writeToSpi(spiWrBuf, 6, radio.RXAddr0);
 597              		.loc 1 287 0 is_stmt 1
 598 00b8 1E4B     		ldr	r3, .L35
 599              	.LVL66:
 600 00ba 9A7A     		ldrb	r2, [r3, #10]
 601 00bc 0621     		movs	r1, #6
 602 00be 6846     		mov	r0, sp
 603 00c0 FFF7FEFF 		bl	writeToSpi
 604              	.LVL67:
 605              	.LBB12:
 288:main.c        ****     
 289:main.c        ****     for(int i = 0; i < 5; i++){
 606              		.loc 1 289 0
 607 00c4 0023     		movs	r3, #0
 608 00c6 07E0     		b	.L31
 609              	.LVL68:
 610              	.L32:
 290:main.c        ****         spiWrBuf[i+1] = group_address[7][i];
 611              		.loc 1 290 0 discriminator 3
 612 00c8 5A1C     		adds	r2, r3, #1
 613 00ca 1B49     		ldr	r1, .L35+4
 614 00cc CB18     		adds	r3, r1, r3
 615              	.LVL69:
 616 00ce 3333     		adds	r3, r3, #51
 617 00d0 1B78     		ldrb	r3, [r3]
ARM GAS  C:\Users\HELLOK~1\AppData\Local\Temp\ccypIvsQ.s 			page 17


 618 00d2 6946     		mov	r1, sp
 619 00d4 8B54     		strb	r3, [r1, r2]
 620              	.LVL70:
 289:main.c        ****         spiWrBuf[i+1] = group_address[7][i];
 621              		.loc 1 289 0 discriminator 3
 622 00d6 1300     		movs	r3, r2
 623              	.LVL71:
 624              	.L31:
 289:main.c        ****         spiWrBuf[i+1] = group_address[7][i];
 625              		.loc 1 289 0 is_stmt 0 discriminator 1
 626 00d8 042B     		cmp	r3, #4
 627 00da F5DD     		ble	.L32
 628              	.LBE12:
 291:main.c        ****     }
 292:main.c        ****     writeToSpi(spiWrBuf, 6, radio.RXAddr1);
 629              		.loc 1 292 0 is_stmt 1
 630 00dc 154B     		ldr	r3, .L35
 631              	.LVL72:
 632 00de DA7A     		ldrb	r2, [r3, #11]
 633 00e0 0621     		movs	r1, #6
 634 00e2 6846     		mov	r0, sp
 635 00e4 FFF7FEFF 		bl	writeToSpi
 636              	.LVL73:
 637              	.LBB13:
 293:main.c        ****     
 294:main.c        ****     for(int i = 0; i < 5; i++){
 638              		.loc 1 294 0
 639 00e8 0023     		movs	r3, #0
 640 00ea 09E0     		b	.L33
 641              	.LVL74:
 642              	.L34:
 295:main.c        ****         spiWrBuf[i+1] = group_address[group][i];
 643              		.loc 1 295 0 discriminator 3
 644 00ec 591C     		adds	r1, r3, #1
 645 00ee A200     		lsls	r2, r4, #2
 646 00f0 1219     		adds	r2, r2, r4
 647 00f2 1148     		ldr	r0, .L35+4
 648 00f4 8218     		adds	r2, r0, r2
 649 00f6 D318     		adds	r3, r2, r3
 650              	.LVL75:
 651 00f8 1B7C     		ldrb	r3, [r3, #16]
 652 00fa 6A46     		mov	r2, sp
 653 00fc 5354     		strb	r3, [r2, r1]
 654              	.LVL76:
 294:main.c        ****         spiWrBuf[i+1] = group_address[group][i];
 655              		.loc 1 294 0 discriminator 3
 656 00fe 0B00     		movs	r3, r1
 657              	.LVL77:
 658              	.L33:
 294:main.c        ****         spiWrBuf[i+1] = group_address[group][i];
 659              		.loc 1 294 0 is_stmt 0 discriminator 1
 660 0100 042B     		cmp	r3, #4
 661 0102 F3DD     		ble	.L34
 662              	.LBE13:
 296:main.c        ****     }
 297:main.c        ****     writeToSpi(spiWrBuf, 6, radio.TXAddr);
 663              		.loc 1 297 0 is_stmt 1
ARM GAS  C:\Users\HELLOK~1\AppData\Local\Temp\ccypIvsQ.s 			page 18


 664 0104 0B4C     		ldr	r4, .L35
 665              	.LVL78:
 666 0106 227C     		ldrb	r2, [r4, #16]
 667 0108 0621     		movs	r1, #6
 668 010a 6846     		mov	r0, sp
 669 010c FFF7FEFF 		bl	writeToSpi
 670              	.LVL79:
 298:main.c        ****     //- Clear the NRF24 status register
 299:main.c        ****     spiWrBuf[1] = 0x00 | (0x00 | 0x40 | 0x20 | 0x10);
 671              		.loc 1 299 0
 672 0110 7025     		movs	r5, #112
 673 0112 6B46     		mov	r3, sp
 674 0114 5D70     		strb	r5, [r3, #1]
 300:main.c        ****     writeToSpi(spiWrBuf, 2, radio.Status);
 675              		.loc 1 300 0
 676 0116 E279     		ldrb	r2, [r4, #7]
 677 0118 0221     		movs	r1, #2
 678 011a 6846     		mov	r0, sp
 679 011c FFF7FEFF 		bl	writeToSpi
 680              	.LVL80:
 301:main.c        **** // - Clear the NRF24 status register
 302:main.c        ****     spiWrBuf[1] = 0x00 | (0x00 | 0x40 | 0x20 | 0x10);
 681              		.loc 1 302 0
 682 0120 6B46     		mov	r3, sp
 683 0122 5D70     		strb	r5, [r3, #1]
 303:main.c        ****     writeToSpi(spiWrBuf, 2, radio.Status);
 684              		.loc 1 303 0
 685 0124 E279     		ldrb	r2, [r4, #7]
 686 0126 0221     		movs	r1, #2
 687 0128 6846     		mov	r0, sp
 688 012a FFF7FEFF 		bl	writeToSpi
 689              	.LVL81:
 304:main.c        **** }
 690              		.loc 1 304 0
 691 012e 08B0     		add	sp, sp, #32
 692              		@ sp needed
 693 0130 70BD     		pop	{r4, r5, r6, pc}
 694              	.L36:
 695 0132 C046     		.align	2
 696              	.L35:
 697 0134 00000000 		.word	.LANCHOR0
 698 0138 00000000 		.word	.LANCHOR1
 699              		.cfi_endproc
 700              	.LFE37:
 701              		.size	Transmitter, .-Transmitter
 702              		.section	.text.Receiver,"ax",%progbits
 703              		.align	2
 704              		.global	Receiver
 705              		.code	16
 706              		.thumb_func
 707              		.type	Receiver, %function
 708              	Receiver:
 709              	.LFB38:
 305:main.c        **** 
 306:main.c        **** /*****************************************************************************
 307:main.c        **** 
 308:main.c        **** XXX: TODO Receiver()
ARM GAS  C:\Users\HELLOK~1\AppData\Local\Temp\ccypIvsQ.s 			page 19


 309:main.c        **** 
 310:main.c        **** This function puts the NRF24 in RX mode. It should:
 311:main.c        **** - Set 15 retransmissions with a 4000 us delay between each
 312:main.c        **** - Set the data rate to 250 kbps at maximum power level
 313:main.c        **** - Set the payload size to be fixed at 16 bytes
 314:main.c        **** - Ensure auto-acknowledge is turned on for P0 & P1
 315:main.c        **** - Ensure 2-byte CRCs for the auto-acknowledges
 316:main.c        **** - Ensure the data pipes are on
 317:main.c        **** - Ensure the NRF24 is in RX mode and powered up
 318:main.c        **** - Set the correct RF channel
 319:main.c        **** - Set the correct TX_ADDR, RX_ADDR_P0, and RX_ADDR_P1
 320:main.c        **** - Clear the NRF24 status register
 321:main.c        **** 
 322:main.c        **** Inputs:
 323:main.c        ****     - None
 324:main.c        ****                
 325:main.c        **** Outputs:
 326:main.c        ****     - None
 327:main.c        **** 
 328:main.c        **** *****************************************************************************/
 329:main.c        **** void Receiver(void){
 710              		.loc 1 329 0
 711              		.cfi_startproc
 712              		@ args = 0, pretend = 0, frame = 32
 713              		@ frame_needed = 0, uses_anonymous_args = 0
 714 0000 30B5     		push	{r4, r5, lr}
 715              		.cfi_def_cfa_offset 12
 716              		.cfi_offset 4, -12
 717              		.cfi_offset 5, -8
 718              		.cfi_offset 14, -4
 719 0002 89B0     		sub	sp, sp, #36
 720              		.cfi_def_cfa_offset 48
 330:main.c        ****     uint8 spiWrBuf[32], spiRdBuf[32];
 331:main.c        ****     //- Set 15 retransmissions with a 4000 us delay between each
 332:main.c        ****     spiWrBuf[1] = 0x00 | (0xF0 | 0x0F);
 721              		.loc 1 332 0
 722 0004 FF23     		movs	r3, #255
 723 0006 6A46     		mov	r2, sp
 724 0008 5370     		strb	r3, [r2, #1]
 333:main.c        ****     writeToSpi(spiWrBuf, 2, radio.SetupRetransmission);
 725              		.loc 1 333 0
 726 000a 404C     		ldr	r4, .L44
 727 000c 2279     		ldrb	r2, [r4, #4]
 728 000e 0221     		movs	r1, #2
 729 0010 6846     		mov	r0, sp
 730 0012 FFF7FEFF 		bl	writeToSpi
 731              	.LVL82:
 334:main.c        ****     //- Set the data rate to 250 kbps at maximum power level
 335:main.c        ****     spiWrBuf[1] = 0x00 | (0x00 | 0x00 | 0x20 | 0x00 | 0x06);
 732              		.loc 1 335 0
 733 0016 2623     		movs	r3, #38
 734 0018 6A46     		mov	r2, sp
 735 001a 5370     		strb	r3, [r2, #1]
 336:main.c        ****     writeToSpi(spiWrBuf, 2, radio.RFSetup);
 736              		.loc 1 336 0
 737 001c A279     		ldrb	r2, [r4, #6]
 738 001e 0221     		movs	r1, #2
ARM GAS  C:\Users\HELLOK~1\AppData\Local\Temp\ccypIvsQ.s 			page 20


 739 0020 6846     		mov	r0, sp
 740 0022 FFF7FEFF 		bl	writeToSpi
 741              	.LVL83:
 337:main.c        ****     //- Set the payload size to be fixed at 16 bytes
 338:main.c        ****     spiWrBuf[1] = 16;
 742              		.loc 1 338 0
 743 0026 1025     		movs	r5, #16
 744 0028 6B46     		mov	r3, sp
 745 002a 5D70     		strb	r5, [r3, #1]
 339:main.c        ****     writeToSpi(spiWrBuf, 2, radio.RXPayload0);
 746              		.loc 1 339 0
 747 002c 627C     		ldrb	r2, [r4, #17]
 748 002e 0221     		movs	r1, #2
 749 0030 6846     		mov	r0, sp
 750 0032 FFF7FEFF 		bl	writeToSpi
 751              	.LVL84:
 340:main.c        ****     spiWrBuf[1] = 16;
 752              		.loc 1 340 0
 753 0036 6B46     		mov	r3, sp
 754 0038 5D70     		strb	r5, [r3, #1]
 341:main.c        ****     writeToSpi(spiWrBuf, 2, radio.RXPayload1);
 755              		.loc 1 341 0
 756 003a A27C     		ldrb	r2, [r4, #18]
 757 003c 0221     		movs	r1, #2
 758 003e 6846     		mov	r0, sp
 759 0040 FFF7FEFF 		bl	writeToSpi
 760              	.LVL85:
 342:main.c        ****     //- Ensure auto-acknowledge is turned on for P0 & P1
 343:main.c        ****     spiWrBuf[1] = 0x00 | (0x00 | 0x00 | 0x00 | 0x00 | 0x00 | 0x02 | 0x01);
 761              		.loc 1 343 0
 762 0044 0D3D     		subs	r5, r5, #13
 763 0046 6B46     		mov	r3, sp
 764 0048 5D70     		strb	r5, [r3, #1]
 344:main.c        ****     writeToSpi(spiWrBuf, 2, radio.EnhancedShockburst);
 765              		.loc 1 344 0
 766 004a 6278     		ldrb	r2, [r4, #1]
 767 004c 0221     		movs	r1, #2
 768 004e 6846     		mov	r0, sp
 769 0050 FFF7FEFF 		bl	writeToSpi
 770              	.LVL86:
 345:main.c        ****     //- Ensure 2-byte CRCs for the auto-acknowledges
 346:main.c        ****     spiWrBuf[1] = 0x00 | (0x00 | 0x00 | 0x00 | 0x00 | 0x08 | 0x04 | 0x00 | 0x00);
 771              		.loc 1 346 0
 772 0054 0C23     		movs	r3, #12
 773 0056 6A46     		mov	r2, sp
 774 0058 5370     		strb	r3, [r2, #1]
 347:main.c        ****     writeToSpi(spiWrBuf, 2, radio.CONFIG);
 775              		.loc 1 347 0
 776 005a 2278     		ldrb	r2, [r4]
 777 005c 0221     		movs	r1, #2
 778 005e 6846     		mov	r0, sp
 779 0060 FFF7FEFF 		bl	writeToSpi
 780              	.LVL87:
 348:main.c        ****     //- Ensure the data pipes are on
 349:main.c        ****     spiWrBuf[1] = 0x00 | (0x00 | 0x00 | 0x00 | 0x00 | 0x00 | 0x02 | 0x01);
 781              		.loc 1 349 0
 782 0064 6B46     		mov	r3, sp
ARM GAS  C:\Users\HELLOK~1\AppData\Local\Temp\ccypIvsQ.s 			page 21


 783 0066 5D70     		strb	r5, [r3, #1]
 350:main.c        ****     writeToSpi(spiWrBuf, 2, radio.EnabledRxAddr);
 784              		.loc 1 350 0
 785 0068 A278     		ldrb	r2, [r4, #2]
 786 006a 0221     		movs	r1, #2
 787 006c 6846     		mov	r0, sp
 788 006e FFF7FEFF 		bl	writeToSpi
 789              	.LVL88:
 351:main.c        ****     //- Ensure the NRF24 is in RX mode and powered up
 352:main.c        ****     spiWrBuf[1] = 0x00 | (0x00 | 0x00 | 0x00 | 0x00 | 0x08 | 0x04 | 0x02 | 0x01);
 790              		.loc 1 352 0
 791 0072 0F23     		movs	r3, #15
 792 0074 6A46     		mov	r2, sp
 793 0076 5370     		strb	r3, [r2, #1]
 353:main.c        ****     writeToSpi(spiWrBuf, 2, radio.CONFIG);
 794              		.loc 1 353 0
 795 0078 2278     		ldrb	r2, [r4]
 796 007a 0221     		movs	r1, #2
 797 007c 6846     		mov	r0, sp
 798 007e FFF7FEFF 		bl	writeToSpi
 799              	.LVL89:
 354:main.c        ****     //- Set the correct RF channel
 355:main.c        ****     spiWrBuf[1] = group_channel[7];
 800              		.loc 1 355 0
 801 0082 4823     		movs	r3, #72
 802 0084 6A46     		mov	r2, sp
 803 0086 5370     		strb	r3, [r2, #1]
 356:main.c        ****     writeToSpi(spiWrBuf, 2, radio.RFChannel);
 804              		.loc 1 356 0
 805 0088 6279     		ldrb	r2, [r4, #5]
 806 008a 0221     		movs	r1, #2
 807 008c 6846     		mov	r0, sp
 808 008e FFF7FEFF 		bl	writeToSpi
 809              	.LVL90:
 810              	.LBB14:
 357:main.c        ****     //- Set the correct TX_ADDR, RX_ADDR_P0, and RX_ADDR_P1
 358:main.c        ****     for(int i = 0; i < 5; i++){
 811              		.loc 1 358 0
 812 0092 0023     		movs	r3, #0
 813 0094 07E0     		b	.L38
 814              	.LVL91:
 815              	.L39:
 359:main.c        ****         spiWrBuf[i+1] = group_address[7][i];
 816              		.loc 1 359 0 discriminator 3
 817 0096 5A1C     		adds	r2, r3, #1
 818 0098 1D49     		ldr	r1, .L44+4
 819 009a CB18     		adds	r3, r1, r3
 820              	.LVL92:
 821 009c 3333     		adds	r3, r3, #51
 822 009e 1B78     		ldrb	r3, [r3]
 823 00a0 6946     		mov	r1, sp
 824 00a2 8B54     		strb	r3, [r1, r2]
 825              	.LVL93:
 358:main.c        ****         spiWrBuf[i+1] = group_address[7][i];
 826              		.loc 1 358 0 discriminator 3
 827 00a4 1300     		movs	r3, r2
 828              	.LVL94:
ARM GAS  C:\Users\HELLOK~1\AppData\Local\Temp\ccypIvsQ.s 			page 22


 829              	.L38:
 358:main.c        ****         spiWrBuf[i+1] = group_address[7][i];
 830              		.loc 1 358 0 is_stmt 0 discriminator 1
 831 00a6 042B     		cmp	r3, #4
 832 00a8 F5DD     		ble	.L39
 833              	.LBE14:
 360:main.c        ****     }
 361:main.c        ****     writeToSpi(spiWrBuf, 6, radio.RXAddr0);
 834              		.loc 1 361 0 is_stmt 1
 835 00aa 184B     		ldr	r3, .L44
 836              	.LVL95:
 837 00ac 9A7A     		ldrb	r2, [r3, #10]
 838 00ae 0621     		movs	r1, #6
 839 00b0 6846     		mov	r0, sp
 840 00b2 FFF7FEFF 		bl	writeToSpi
 841              	.LVL96:
 842              	.LBB15:
 362:main.c        ****     for(int i = 0; i < 5; i++){
 843              		.loc 1 362 0
 844 00b6 0023     		movs	r3, #0
 845 00b8 03E0     		b	.L40
 846              	.LVL97:
 847              	.L41:
 363:main.c        ****         spiWrBuf[i+1] = 0xC2;
 848              		.loc 1 363 0 discriminator 3
 849 00ba 0133     		adds	r3, r3, #1
 850              	.LVL98:
 851 00bc C222     		movs	r2, #194
 852 00be 6946     		mov	r1, sp
 853 00c0 CA54     		strb	r2, [r1, r3]
 854              	.LVL99:
 855              	.L40:
 362:main.c        ****     for(int i = 0; i < 5; i++){
 856              		.loc 1 362 0 discriminator 1
 857 00c2 042B     		cmp	r3, #4
 858 00c4 F9DD     		ble	.L41
 859              	.LBE15:
 364:main.c        ****     }
 365:main.c        ****     writeToSpi(spiWrBuf, 6, radio.RXAddr1);
 860              		.loc 1 365 0
 861 00c6 114B     		ldr	r3, .L44
 862              	.LVL100:
 863 00c8 DA7A     		ldrb	r2, [r3, #11]
 864 00ca 0621     		movs	r1, #6
 865 00cc 6846     		mov	r0, sp
 866 00ce FFF7FEFF 		bl	writeToSpi
 867              	.LVL101:
 868              	.LBB16:
 366:main.c        ****     for(int i = 0; i < 5; i++){
 869              		.loc 1 366 0
 870 00d2 0023     		movs	r3, #0
 871 00d4 07E0     		b	.L42
 872              	.LVL102:
 873              	.L43:
 367:main.c        ****         spiWrBuf[i+1] = group_address[7][i];
 874              		.loc 1 367 0 discriminator 3
 875 00d6 5A1C     		adds	r2, r3, #1
ARM GAS  C:\Users\HELLOK~1\AppData\Local\Temp\ccypIvsQ.s 			page 23


 876 00d8 0D49     		ldr	r1, .L44+4
 877 00da CB18     		adds	r3, r1, r3
 878              	.LVL103:
 879 00dc 3333     		adds	r3, r3, #51
 880 00de 1B78     		ldrb	r3, [r3]
 881 00e0 6946     		mov	r1, sp
 882 00e2 8B54     		strb	r3, [r1, r2]
 883              	.LVL104:
 366:main.c        ****     for(int i = 0; i < 5; i++){
 884              		.loc 1 366 0 discriminator 3
 885 00e4 1300     		movs	r3, r2
 886              	.LVL105:
 887              	.L42:
 366:main.c        ****     for(int i = 0; i < 5; i++){
 888              		.loc 1 366 0 is_stmt 0 discriminator 1
 889 00e6 042B     		cmp	r3, #4
 890 00e8 F5DD     		ble	.L43
 891              	.LBE16:
 368:main.c        ****     }
 369:main.c        ****     writeToSpi(spiWrBuf, 6, radio.TXAddr);
 892              		.loc 1 369 0 is_stmt 1
 893 00ea 084C     		ldr	r4, .L44
 894 00ec 227C     		ldrb	r2, [r4, #16]
 895 00ee 0621     		movs	r1, #6
 896 00f0 6846     		mov	r0, sp
 897 00f2 FFF7FEFF 		bl	writeToSpi
 898              	.LVL106:
 370:main.c        ****     //- Clear the NRF24 status register
 371:main.c        ****     spiWrBuf[1] = 0x00 | (0x00 | 0x40 | 0x20 | 0x10);
 899              		.loc 1 371 0
 900 00f6 7023     		movs	r3, #112
 901 00f8 6A46     		mov	r2, sp
 902 00fa 5370     		strb	r3, [r2, #1]
 372:main.c        ****     writeToSpi(spiWrBuf, 2, radio.Status);
 903              		.loc 1 372 0
 904 00fc E279     		ldrb	r2, [r4, #7]
 905 00fe 0221     		movs	r1, #2
 906 0100 6846     		mov	r0, sp
 907 0102 FFF7FEFF 		bl	writeToSpi
 908              	.LVL107:
 373:main.c        **** }
 909              		.loc 1 373 0
 910 0106 09B0     		add	sp, sp, #36
 911              		@ sp needed
 912 0108 30BD     		pop	{r4, r5, pc}
 913              	.L45:
 914 010a C046     		.align	2
 915              	.L44:
 916 010c 00000000 		.word	.LANCHOR0
 917 0110 00000000 		.word	.LANCHOR1
 918              		.cfi_endproc
 919              	.LFE38:
 920              		.size	Receiver, .-Receiver
 921              		.section	.text.SendMessage,"ax",%progbits
 922              		.align	2
 923              		.global	SendMessage
 924              		.code	16
ARM GAS  C:\Users\HELLOK~1\AppData\Local\Temp\ccypIvsQ.s 			page 24


 925              		.thumb_func
 926              		.type	SendMessage, %function
 927              	SendMessage:
 928              	.LFB39:
 374:main.c        **** 
 375:main.c        **** /*****************************************************************************
 376:main.c        **** 
 377:main.c        **** XXX: TODO SendMessage()
 378:main.c        **** 
 379:main.c        **** This function should send the input message to the target group.
 380:main.c        **** It should:
 381:main.c        ****     - Put the NRF24 in TX mode by calling the Transmitter() function
 382:main.c        ****     - Transmit the message
 383:main.c        ****     - Wait for IRQ to go low
 384:main.c        ****     - Validate whether it was sent correclty using the STATUS register
 385:main.c        ****     - Put the NRF24 back in Receive mode
 386:main.c        **** 
 387:main.c        **** Inputs:
 388:main.c        ****     - uint8 * message: Where the 16 byte message is stored
 389:main.c        ****     - int group: The target group that should receive the message
 390:main.c        ****                
 391:main.c        **** Outputs:
 392:main.c        ****     - 0 if message is sent correctly
 393:main.c        ****     - 1 if message isn't sent correctly
 394:main.c        **** 
 395:main.c        **** *****************************************************************************/
 396:main.c        **** int SendMessage(uint8 * message, int group){
 929              		.loc 1 396 0
 930              		.cfi_startproc
 931              		@ args = 0, pretend = 0, frame = 88
 932              		@ frame_needed = 0, uses_anonymous_args = 0
 933              	.LVL108:
 934 0000 70B5     		push	{r4, r5, r6, lr}
 935              		.cfi_def_cfa_offset 16
 936              		.cfi_offset 4, -16
 937              		.cfi_offset 5, -12
 938              		.cfi_offset 6, -8
 939              		.cfi_offset 14, -4
 940 0002 96B0     		sub	sp, sp, #88
 941              		.cfi_def_cfa_offset 104
 942 0004 0400     		movs	r4, r0
 943              	.LVL109:
 397:main.c        ****     int error = 0;
 398:main.c        ****     
 399:main.c        ****     // Put the NRF24 in transmitter mode  
 400:main.c        ****     Transmitter(group);
 944              		.loc 1 400 0
 945 0006 0800     		movs	r0, r1
 946              	.LVL110:
 947 0008 FFF7FEFF 		bl	Transmitter
 948              	.LVL111:
 401:main.c        ****     
 402:main.c        ****     //XXX: TODO Send payload and check result
 403:main.c        ****     uint8 spiWrBuf[32];
 404:main.c        ****     uint8 writeBuf[32];
 405:main.c        ****     
 406:main.c        ****     volatile uint32 readArray[6];
ARM GAS  C:\Users\HELLOK~1\AppData\Local\Temp\ccypIvsQ.s 			page 25


 407:main.c        ****     
 408:main.c        ****     writeBuf[0] = 0b10100000 /*W_TX_PAYLOAD*/;
 949              		.loc 1 408 0
 950 000c A022     		movs	r2, #160
 951 000e 06AB     		add	r3, sp, #24
 952 0010 1A70     		strb	r2, [r3]
 953              	.LVL112:
 409:main.c        ****     uint8 count = 0;
 954              		.loc 1 409 0
 955 0012 0023     		movs	r3, #0
 410:main.c        ****     while(count <= 16 && *(message+count) != '\v'){
 956              		.loc 1 410 0
 957 0014 03E0     		b	.L47
 958              	.LVL113:
 959              	.L49:
 411:main.c        ****         writeBuf[1+count] = *(message+count);
 960              		.loc 1 411 0
 961 0016 0133     		adds	r3, r3, #1
 962              	.LVL114:
 963 0018 06A9     		add	r1, sp, #24
 964 001a CA54     		strb	r2, [r1, r3]
 412:main.c        ****         count++;
 965              		.loc 1 412 0
 966 001c DBB2     		uxtb	r3, r3
 967              	.LVL115:
 968              	.L47:
 410:main.c        ****     while(count <= 16 && *(message+count) != '\v'){
 969              		.loc 1 410 0
 970 001e 102B     		cmp	r3, #16
 971 0020 02D8     		bhi	.L48
 410:main.c        ****     while(count <= 16 && *(message+count) != '\v'){
 972              		.loc 1 410 0 is_stmt 0 discriminator 1
 973 0022 E25C     		ldrb	r2, [r4, r3]
 974 0024 0B2A     		cmp	r2, #11
 975 0026 F6D1     		bne	.L49
 976              	.L48:
 413:main.c        ****     }
 414:main.c        ****     SPI_SpiUartClearRxBuffer();
 977              		.loc 1 414 0 is_stmt 1
 978 0028 FFF7FEFF 		bl	SPI_SpiUartClearRxBuffer
 979              	.LVL116:
 415:main.c        ****     SPI_SpiUartPutArray(writeBuf, 17);
 980              		.loc 1 415 0
 981 002c 1121     		movs	r1, #17
 982 002e 06A8     		add	r0, sp, #24
 983 0030 FFF7FEFF 		bl	SPI_SpiUartPutArray
 984              	.LVL117:
 985              	.L50:
 416:main.c        ****     while(SPI_SpiIsBusBusy() == 0);
 986              		.loc 1 416 0 discriminator 1
 987 0034 234B     		ldr	r3, .L62
 988 0036 1B68     		ldr	r3, [r3]
 989 0038 DB07     		lsls	r3, r3, #31
 990 003a FBD5     		bpl	.L50
 991              	.L51:
 417:main.c        ****     while(SPI_SpiIsBusBusy() == 1);
 992              		.loc 1 417 0 discriminator 1
ARM GAS  C:\Users\HELLOK~1\AppData\Local\Temp\ccypIvsQ.s 			page 26


 993 003c 214B     		ldr	r3, .L62
 994 003e 1B68     		ldr	r3, [r3]
 995 0040 DB07     		lsls	r3, r3, #31
 996 0042 FBD4     		bmi	.L51
 418:main.c        ****     CyDelay(6);
 997              		.loc 1 418 0
 998 0044 0620     		movs	r0, #6
 999 0046 FFF7FEFF 		bl	CyDelay
 1000              	.LVL118:
 419:main.c        ****     
 420:main.c        ****     writeBuf[0] = 0b000 |  /*Read from reg*/ radio.Status;
 1001              		.loc 1 420 0
 1002 004a 1F4B     		ldr	r3, .L62+4
 1003 004c DB79     		ldrb	r3, [r3, #7]
 1004 004e 06AC     		add	r4, sp, #24
 1005              	.LVL119:
 1006 0050 2370     		strb	r3, [r4]
 421:main.c        ****     SPI_SpiUartClearRxBuffer();
 1007              		.loc 1 421 0
 1008 0052 FFF7FEFF 		bl	SPI_SpiUartClearRxBuffer
 1009              	.LVL120:
 422:main.c        ****     SPI_SpiUartPutArray(writeBuf, 1);
 1010              		.loc 1 422 0
 1011 0056 0121     		movs	r1, #1
 1012 0058 2000     		movs	r0, r4
 1013 005a FFF7FEFF 		bl	SPI_SpiUartPutArray
 1014              	.LVL121:
 1015              	.L52:
 423:main.c        ****     while(SPI_SpiIsBusBusy() == 0);
 1016              		.loc 1 423 0 discriminator 1
 1017 005e 194B     		ldr	r3, .L62
 1018 0060 1B68     		ldr	r3, [r3]
 1019 0062 DB07     		lsls	r3, r3, #31
 1020 0064 FBD5     		bpl	.L52
 1021              	.L53:
 424:main.c        ****     while(SPI_SpiIsBusBusy() == 1);
 1022              		.loc 1 424 0 discriminator 1
 1023 0066 174B     		ldr	r3, .L62
 1024 0068 1B68     		ldr	r3, [r3]
 1025 006a DB07     		lsls	r3, r3, #31
 1026 006c FBD4     		bmi	.L53
 1027 006e 0024     		movs	r4, #0
 1028 0070 05E0     		b	.L54
 1029              	.LVL122:
 1030              	.L55:
 1031              	.LBB17:
 425:main.c        ****     for(int i = 0; i < 1; i++){
 426:main.c        ****         readArray[i] = SPI_SpiUartReadRxData();
 1032              		.loc 1 426 0 discriminator 3
 1033 0072 FFF7FEFF 		bl	SPI_SpiUartReadRxData
 1034              	.LVL123:
 1035 0076 A300     		lsls	r3, r4, #2
 1036 0078 6A46     		mov	r2, sp
 1037 007a 9850     		str	r0, [r3, r2]
 425:main.c        ****     for(int i = 0; i < 1; i++){
 1038              		.loc 1 425 0 discriminator 3
 1039 007c 0134     		adds	r4, r4, #1
ARM GAS  C:\Users\HELLOK~1\AppData\Local\Temp\ccypIvsQ.s 			page 27


 1040              	.LVL124:
 1041              	.L54:
 425:main.c        ****     for(int i = 0; i < 1; i++){
 1042              		.loc 1 425 0 is_stmt 0 discriminator 1
 1043 007e 002C     		cmp	r4, #0
 1044 0080 F7DD     		ble	.L55
 1045              	.LBE17:
 427:main.c        ****     }
 428:main.c        ****     SPI_SpiUartClearRxBuffer();
 1046              		.loc 1 428 0 is_stmt 1
 1047 0082 FFF7FEFF 		bl	SPI_SpiUartClearRxBuffer
 1048              	.LVL125:
 429:main.c        ****     uint8 TX_DS = readArray[0] & 0b00100000;
 1049              		.loc 1 429 0
 1050 0086 009B     		ldr	r3, [sp]
 1051 0088 2024     		movs	r4, #32
 1052              	.LVL126:
 1053 008a 1C40     		ands	r4, r3
 1054 008c 2500     		movs	r5, r4
 1055              	.LVL127:
 430:main.c        ****     uint8 MAX_RT = readArray[0] & 0b00010000;
 1056              		.loc 1 430 0
 1057 008e 009B     		ldr	r3, [sp]
 1058 0090 1024     		movs	r4, #16
 1059 0092 1C40     		ands	r4, r3
 1060              	.LVL128:
 431:main.c        ****     // Clear status reg
 432:main.c        ****     spiWrBuf[1] = 0x00 | (0x00 | 0x40 | 0x20 | 0x10);
 1061              		.loc 1 432 0
 1062 0094 0EA8     		add	r0, sp, #56
 1063 0096 7023     		movs	r3, #112
 1064 0098 4370     		strb	r3, [r0, #1]
 433:main.c        ****     writeToSpi(spiWrBuf, 2, radio.Status);
 1065              		.loc 1 433 0
 1066 009a 0B4B     		ldr	r3, .L62+4
 1067 009c DA79     		ldrb	r2, [r3, #7]
 1068 009e 0221     		movs	r1, #2
 1069 00a0 FFF7FEFF 		bl	writeToSpi
 1070              	.LVL129:
 434:main.c        ****     if(TX_DS == 0){
 1071              		.loc 1 434 0
 1072 00a4 002D     		cmp	r5, #0
 1073 00a6 01D0     		beq	.L59
 397:main.c        ****     
 1074              		.loc 1 397 0
 1075 00a8 0026     		movs	r6, #0
 1076 00aa 00E0     		b	.L56
 1077              	.L59:
 435:main.c        ****         error = 1;
 1078              		.loc 1 435 0
 1079 00ac 0126     		movs	r6, #1
 1080              	.L56:
 1081              	.LVL130:
 436:main.c        ****     }
 437:main.c        ****     if (MAX_RT == 0){
 1082              		.loc 1 437 0
 1083 00ae 002C     		cmp	r4, #0
ARM GAS  C:\Users\HELLOK~1\AppData\Local\Temp\ccypIvsQ.s 			page 28


 1084 00b0 00D1     		bne	.L57
 438:main.c        ****         error = 2;
 1085              		.loc 1 438 0
 1086 00b2 0226     		movs	r6, #2
 1087              	.LVL131:
 1088              	.L57:
 439:main.c        ****     }
 440:main.c        ****     if(TX_DS == 0 && MAX_RT == 0){
 1089              		.loc 1 440 0
 1090 00b4 2C43     		orrs	r4, r5
 1091              	.LVL132:
 1092 00b6 00D1     		bne	.L58
 441:main.c        ****         error = 3;
 1093              		.loc 1 441 0
 1094 00b8 0326     		movs	r6, #3
 1095              	.LVL133:
 1096              	.L58:
 442:main.c        ****     }
 443:main.c        **** //    else{
 444:main.c        **** //        error = 0;
 445:main.c        **** //    }
 446:main.c        ****     // Put the NRF24 in receiver mode again
 447:main.c        ****     Receiver();
 1097              		.loc 1 447 0
 1098 00ba FFF7FEFF 		bl	Receiver
 1099              	.LVL134:
 448:main.c        ****     
 449:main.c        ****     return error;
 450:main.c        **** }
 1100              		.loc 1 450 0
 1101 00be 3000     		movs	r0, r6
 1102 00c0 16B0     		add	sp, sp, #88
 1103              		@ sp needed
 1104              	.LVL135:
 1105              	.LVL136:
 1106 00c2 70BD     		pop	{r4, r5, r6, pc}
 1107              	.L63:
 1108              		.align	2
 1109              	.L62:
 1110 00c4 24002740 		.word	1076297764
 1111 00c8 00000000 		.word	.LANCHOR0
 1112              		.cfi_endproc
 1113              	.LFE39:
 1114              		.size	SendMessage, .-SendMessage
 1115              		.section	.text.jam,"ax",%progbits
 1116              		.align	2
 1117              		.global	jam
 1118              		.code	16
 1119              		.thumb_func
 1120              		.type	jam, %function
 1121              	jam:
 1122              	.LFB40:
 451:main.c        **** 
 452:main.c        **** /* 
 453:main.c        **** Ummm, this function does something special...
 454:main.c        **** */
 455:main.c        **** void jam(){
ARM GAS  C:\Users\HELLOK~1\AppData\Local\Temp\ccypIvsQ.s 			page 29


 1123              		.loc 1 455 0
 1124              		.cfi_startproc
 1125              		@ args = 0, pretend = 0, frame = 8
 1126              		@ frame_needed = 0, uses_anonymous_args = 0
 1127 0000 30B5     		push	{r4, r5, lr}
 1128              		.cfi_def_cfa_offset 12
 1129              		.cfi_offset 4, -12
 1130              		.cfi_offset 5, -8
 1131              		.cfi_offset 14, -4
 1132 0002 83B0     		sub	sp, sp, #12
 1133              		.cfi_def_cfa_offset 24
 456:main.c        ****     uint8 comm[6] = {' ', ' ', '1','0','0','\0'};
 1134              		.loc 1 456 0
 1135 0004 0622     		movs	r2, #6
 1136 0006 1749     		ldr	r1, .L76
 1137 0008 5431     		adds	r1, r1, #84
 1138 000a 6846     		mov	r0, sp
 1139 000c FFF7FEFF 		bl	memcpy
 1140              	.LVL137:
 1141              	.L74:
 1142              	.LBB18:
 457:main.c        ****     while(1){
 458:main.c        ****         for(int i = 0; i < 4; i++){
 1143              		.loc 1 458 0
 1144 0010 0025     		movs	r5, #0
 1145 0012 23E0     		b	.L65
 1146              	.LVL138:
 1147              	.L72:
 1148              	.LBB19:
 1149              	.LBB20:
 459:main.c        ****             for(int j = 0; j < 13; j++){
 460:main.c        ****                 switch(i){
 1150              		.loc 1 460 0
 1151 0014 012D     		cmp	r5, #1
 1152 0016 0CD0     		beq	.L67
 1153 0018 02DC     		bgt	.L68
 1154 001a 002D     		cmp	r5, #0
 1155 001c 05D0     		beq	.L69
 1156 001e 13E0     		b	.L66
 1157              	.L68:
 1158 0020 022D     		cmp	r5, #2
 1159 0022 0AD0     		beq	.L70
 1160 0024 032D     		cmp	r5, #3
 1161 0026 0CD0     		beq	.L71
 1162 0028 0EE0     		b	.L66
 1163              	.L69:
 461:main.c        ****                     case 0:
 462:main.c        ****                         comm[0] = 'R';
 1164              		.loc 1 462 0
 1165 002a 5223     		movs	r3, #82
 1166 002c 6A46     		mov	r2, sp
 1167 002e 1370     		strb	r3, [r2]
 463:main.c        ****                     break;
 1168              		.loc 1 463 0
 1169 0030 0AE0     		b	.L66
 1170              	.L67:
 464:main.c        ****                     case 1:
ARM GAS  C:\Users\HELLOK~1\AppData\Local\Temp\ccypIvsQ.s 			page 30


 465:main.c        ****                         comm[0] = 'G';
 1171              		.loc 1 465 0
 1172 0032 4723     		movs	r3, #71
 1173 0034 6A46     		mov	r2, sp
 1174 0036 1370     		strb	r3, [r2]
 466:main.c        ****                     break;
 1175              		.loc 1 466 0
 1176 0038 06E0     		b	.L66
 1177              	.L70:
 467:main.c        ****                     case 2:
 468:main.c        ****                         comm[0] = 'B';
 1178              		.loc 1 468 0
 1179 003a 4223     		movs	r3, #66
 1180 003c 6A46     		mov	r2, sp
 1181 003e 1370     		strb	r3, [r2]
 469:main.c        ****                     break;
 1182              		.loc 1 469 0
 1183 0040 02E0     		b	.L66
 1184              	.L71:
 470:main.c        ****                     case 3:
 471:main.c        ****                         comm[0] = 'Y';
 1185              		.loc 1 471 0
 1186 0042 5923     		movs	r3, #89
 1187 0044 6A46     		mov	r2, sp
 1188 0046 1370     		strb	r3, [r2]
 1189              	.L66:
 472:main.c        ****                     break;
 473:main.c        ****                 }
 474:main.c        ****                 uint8 error = SendMessage(comm, j);
 1190              		.loc 1 474 0 discriminator 2
 1191 0048 2100     		movs	r1, r4
 1192 004a 6846     		mov	r0, sp
 1193 004c FFF7FEFF 		bl	SendMessage
 1194              	.LVL139:
 1195              	.LBE20:
 459:main.c        ****                 switch(i){
 1196              		.loc 1 459 0 discriminator 2
 1197 0050 0134     		adds	r4, r4, #1
 1198              	.LVL140:
 1199 0052 00E0     		b	.L73
 1200              	.LVL141:
 1201              	.L75:
 1202              	.LBE19:
 1203 0054 0024     		movs	r4, #0
 1204              	.L73:
 1205              	.LVL142:
 1206              	.LBB21:
 459:main.c        ****                 switch(i){
 1207              		.loc 1 459 0 is_stmt 0 discriminator 1
 1208 0056 0C2C     		cmp	r4, #12
 1209 0058 DCDD     		ble	.L72
 1210              	.LBE21:
 458:main.c        ****             for(int j = 0; j < 13; j++){
 1211              		.loc 1 458 0 is_stmt 1 discriminator 2
 1212 005a 0135     		adds	r5, r5, #1
 1213              	.LVL143:
 1214              	.L65:
ARM GAS  C:\Users\HELLOK~1\AppData\Local\Temp\ccypIvsQ.s 			page 31


 458:main.c        ****             for(int j = 0; j < 13; j++){
 1215              		.loc 1 458 0 is_stmt 0 discriminator 1
 1216 005c 032D     		cmp	r5, #3
 1217 005e F9DD     		ble	.L75
 1218 0060 D6E7     		b	.L74
 1219              	.L77:
 1220 0062 C046     		.align	2
 1221              	.L76:
 1222 0064 00000000 		.word	.LANCHOR1
 1223              	.LBE18:
 1224              		.cfi_endproc
 1225              	.LFE40:
 1226              		.size	jam, .-jam
 1227              		.section	.text.main,"ax",%progbits
 1228              		.align	2
 1229              		.global	main
 1230              		.code	16
 1231              		.thumb_func
 1232              		.type	main, %function
 1233              	main:
 1234              	.LFB41:
 475:main.c        ****             }
 476:main.c        ****         }
 477:main.c        ****     }
 478:main.c        **** }
 479:main.c        **** 
 480:main.c        **** int main(void){
 1235              		.loc 1 480 0 is_stmt 1
 1236              		.cfi_startproc
 1237              		@ args = 0, pretend = 0, frame = 40
 1238              		@ frame_needed = 0, uses_anonymous_args = 0
 1239 0000 F0B5     		push	{r4, r5, r6, r7, lr}
 1240              		.cfi_def_cfa_offset 20
 1241              		.cfi_offset 4, -20
 1242              		.cfi_offset 5, -16
 1243              		.cfi_offset 6, -12
 1244              		.cfi_offset 7, -8
 1245              		.cfi_offset 14, -4
 1246 0002 8DB0     		sub	sp, sp, #52
 1247              		.cfi_def_cfa_offset 72
 1248              	.LVL144:
 481:main.c        ****     uint8 command[16];
 482:main.c        ****     int target = 0;
 483:main.c        ****     int brightness = 0;
 484:main.c        ****     int color_sel = 0;
 485:main.c        ****     
 486:main.c        ****     CyGlobalIntEnable; /* Enable global interrupts. */
 1249              		.loc 1 486 0
 1250              		.syntax divided
 1251              	@ 486 "main.c" 1
 1252 0004 62B6     		CPSIE   i
 1253              	@ 0 "" 2
 487:main.c        **** 
 488:main.c        ****     /* Place your initialization/startup code here (e.g. MyInst_Start()) */
 489:main.c        ****     LCD_Start();
 1254              		.loc 1 489 0
 1255              		.thumb
ARM GAS  C:\Users\HELLOK~1\AppData\Local\Temp\ccypIvsQ.s 			page 32


 1256              		.syntax unified
 1257 0006 FFF7FEFF 		bl	LCD_Start
 1258              	.LVL145:
 490:main.c        ****     SPI_Start();
 1259              		.loc 1 490 0
 1260 000a FFF7FEFF 		bl	SPI_Start
 1261              	.LVL146:
 491:main.c        ****     PWM_Start();
 1262              		.loc 1 491 0
 1263 000e FFF7FEFF 		bl	PWM_Start
 1264              	.LVL147:
 492:main.c        ****     PWM_WritePeriod(99); //Using a period of 99 gives an output rate of 1KHz
 1265              		.loc 1 492 0
 1266 0012 6320     		movs	r0, #99
 1267 0014 FFF7FEFF 		bl	PWM_WritePeriod
 1268              	.LVL148:
 493:main.c        ****     PWM_WriteCompare(0); //It also maps perfectly to a 0-100 duty cycle!
 1269              		.loc 1 493 0
 1270 0018 0020     		movs	r0, #0
 1271 001a FFF7FEFF 		bl	PWM_WriteCompare
 1272              	.LVL149:
 494:main.c        ****     PWM_SEL_Write(0);
 1273              		.loc 1 494 0
 1274 001e 0020     		movs	r0, #0
 1275 0020 FFF7FEFF 		bl	PWM_SEL_Write
 1276              	.LVL150:
 495:main.c        ****     ENC_ISR_Start();
 1277              		.loc 1 495 0
 1278 0024 FFF7FEFF 		bl	ENC_ISR_Start
 1279              	.LVL151:
 496:main.c        ****     BTN_ISR_Start();
 1280              		.loc 1 496 0
 1281 0028 FFF7FEFF 		bl	BTN_ISR_Start
 1282              	.LVL152:
 497:main.c        ****     NRF24_CE_Write(0);
 1283              		.loc 1 497 0
 1284 002c 0020     		movs	r0, #0
 1285 002e FFF7FEFF 		bl	NRF24_CE_Write
 1286              	.LVL153:
 498:main.c        ****     
 499:main.c        ****     CyDelay(100);
 1287              		.loc 1 499 0
 1288 0032 6420     		movs	r0, #100
 1289 0034 FFF7FEFF 		bl	CyDelay
 1290              	.LVL154:
 500:main.c        ****     
 501:main.c        ****     Receiver();
 1291              		.loc 1 501 0
 1292 0038 FFF7FEFF 		bl	Receiver
 1293              	.LVL155:
 502:main.c        ****     NRF24_CE_Write(1);
 1294              		.loc 1 502 0
 1295 003c 0120     		movs	r0, #1
 1296 003e FFF7FEFF 		bl	NRF24_CE_Write
 1297              	.LVL156:
 503:main.c        ****     
 504:main.c        ****     volatile int error = 0;
ARM GAS  C:\Users\HELLOK~1\AppData\Local\Temp\ccypIvsQ.s 			page 33


 1298              		.loc 1 504 0
 1299 0042 0023     		movs	r3, #0
 1300 0044 0793     		str	r3, [sp, #28]
 1301              	.LVL157:
 1302              	.L110:
 1303              	.LBB22:
 505:main.c        ****     for(;;){
 506:main.c        ****         /********************************************************************* 
 507:main.c        ****         This block of code selects the target group.
 508:main.c        ****              The encoder is used to cycle through the
 509:main.c        ****              13 possible groups until the button is pressed
 510:main.c        ****         *********************************************************************/
 511:main.c        ****         target = 0; //Initialize target group to 0
 512:main.c        ****         //jam(); // Uncomment this line to mess with other groups :)
 513:main.c        ****         char out1[11];
 514:main.c        ****         out1[10] = '\0';
 1304              		.loc 1 514 0
 1305 0046 0022     		movs	r2, #0
 1306 0048 04AB     		add	r3, sp, #16
 1307 004a 9A72     		strb	r2, [r3, #10]
 515:main.c        ****         LCD_ClearDisplay();
 1308              		.loc 1 515 0
 1309 004c 0120     		movs	r0, #1
 1310 004e FFF7FEFF 		bl	LCD_WriteControl
 1311              	.LVL158:
 516:main.c        ****         LCD_PrintString("Target: 0");
 1312              		.loc 1 516 0
 1313 0052 8D48     		ldr	r0, .L115
 1314 0054 FFF7FEFF 		bl	LCD_PrintString
 1315              	.LVL159:
 511:main.c        ****         //jam(); // Uncomment this line to mess with other groups :)
 1316              		.loc 1 511 0
 1317 0058 0024     		movs	r4, #0
 517:main.c        ****         // Here we wait for the button to be pressed
 518:main.c        ****         while (btn_flag == 0){
 1318              		.loc 1 518 0
 1319 005a 2CE0     		b	.L81
 1320              	.LVL160:
 1321              	.L84:
 519:main.c        ****             if (NRF24_IRQ_Read() == 0){
 1322              		.loc 1 519 0
 1323 005c FFF7FEFF 		bl	NRF24_IRQ_Read
 1324              	.LVL161:
 1325 0060 0028     		cmp	r0, #0
 1326 0062 01D1     		bne	.L80
 520:main.c        ****                 // There's a message for us!
 521:main.c        ****                 // XXX:TODO Get the message and set the right LED with
 522:main.c        ****                 //          the correct duty cycle
 523:main.c        ****                 processMessage();
 1327              		.loc 1 523 0
 1328 0064 FFF7FEFF 		bl	processMessage
 1329              	.LVL162:
 1330              	.L80:
 524:main.c        ****             }
 525:main.c        ****             
 526:main.c        ****             //XXX: TODO Get encoder direction and update LCD with
 527:main.c        ****             //     group number
ARM GAS  C:\Users\HELLOK~1\AppData\Local\Temp\ccypIvsQ.s 			page 34


 528:main.c        ****             
 529:main.c        ****              if(enc_flag){
 1331              		.loc 1 529 0
 1332 0068 884B     		ldr	r3, .L115+4
 1333 006a 1B68     		ldr	r3, [r3]
 1334 006c 002B     		cmp	r3, #0
 1335 006e 22D0     		beq	.L81
 530:main.c        ****                     if(encPos == 1){
 1336              		.loc 1 530 0
 1337 0070 864B     		ldr	r3, .L115+4
 1338 0072 5B68     		ldr	r3, [r3, #4]
 1339 0074 012B     		cmp	r3, #1
 1340 0076 04D1     		bne	.L82
 531:main.c        ****                         if(target != 12){
 1341              		.loc 1 531 0
 1342 0078 0C2C     		cmp	r4, #12
 1343 007a 01D0     		beq	.L111
 532:main.c        ****                             target++;
 1344              		.loc 1 532 0
 1345 007c 0134     		adds	r4, r4, #1
 1346              	.LVL163:
 1347 007e 00E0     		b	.L82
 1348              	.L111:
 533:main.c        ****                         }
 534:main.c        ****                         else{
 535:main.c        ****                             target = 0;
 1349              		.loc 1 535 0
 1350 0080 0024     		movs	r4, #0
 1351              	.LVL164:
 1352              	.L82:
 536:main.c        ****                         }
 537:main.c        ****                     }
 538:main.c        ****                     if(encPos == 2){
 1353              		.loc 1 538 0
 1354 0082 824B     		ldr	r3, .L115+4
 1355 0084 5B68     		ldr	r3, [r3, #4]
 1356 0086 022B     		cmp	r3, #2
 1357 0088 04D1     		bne	.L83
 539:main.c        ****                         if(target != 0){
 1358              		.loc 1 539 0
 1359 008a 002C     		cmp	r4, #0
 1360 008c 01D0     		beq	.L112
 540:main.c        ****                             target--;
 1361              		.loc 1 540 0
 1362 008e 013C     		subs	r4, r4, #1
 1363              	.LVL165:
 1364 0090 00E0     		b	.L83
 1365              	.L112:
 541:main.c        ****                         }
 542:main.c        ****                         else{
 543:main.c        ****                             target = 12;
 1366              		.loc 1 543 0
 1367 0092 0C24     		movs	r4, #12
 1368              	.LVL166:
 1369              	.L83:
 544:main.c        ****                         }
 545:main.c        ****                     }
ARM GAS  C:\Users\HELLOK~1\AppData\Local\Temp\ccypIvsQ.s 			page 35


 546:main.c        ****                     encPos = 0;
 1370              		.loc 1 546 0
 1371 0094 7D4B     		ldr	r3, .L115+4
 1372 0096 0022     		movs	r2, #0
 1373 0098 5A60     		str	r2, [r3, #4]
 547:main.c        ****                     enc_flag = 0;
 1374              		.loc 1 547 0
 1375 009a 1A60     		str	r2, [r3]
 548:main.c        ****                     snprintf(out1,sizeof(out1),"%d ",target);
 1376              		.loc 1 548 0
 1377 009c 2300     		movs	r3, r4
 1378 009e 7C4A     		ldr	r2, .L115+8
 1379 00a0 0B21     		movs	r1, #11
 1380 00a2 04A8     		add	r0, sp, #16
 1381 00a4 FFF7FEFF 		bl	snprintf
 1382              	.LVL167:
 549:main.c        ****                     LCD_Position(0,8);
 1383              		.loc 1 549 0
 1384 00a8 0821     		movs	r1, #8
 1385 00aa 0020     		movs	r0, #0
 1386 00ac FFF7FEFF 		bl	LCD_Position
 1387              	.LVL168:
 550:main.c        ****                     LCD_PrintString(out1);
 1388              		.loc 1 550 0
 1389 00b0 04A8     		add	r0, sp, #16
 1390 00b2 FFF7FEFF 		bl	LCD_PrintString
 1391              	.LVL169:
 1392              	.L81:
 518:main.c        ****             if (NRF24_IRQ_Read() == 0){
 1393              		.loc 1 518 0
 1394 00b6 754B     		ldr	r3, .L115+4
 1395 00b8 9B68     		ldr	r3, [r3, #8]
 1396 00ba 002B     		cmp	r3, #0
 1397 00bc CED0     		beq	.L84
 551:main.c        ****             }
 552:main.c        ****         }
 553:main.c        ****         btn_flag = 0;
 1398              		.loc 1 553 0
 1399 00be 0022     		movs	r2, #0
 1400 00c0 724B     		ldr	r3, .L115+4
 1401 00c2 9A60     		str	r2, [r3, #8]
 554:main.c        ****         LCD_Position(1,0);
 1402              		.loc 1 554 0
 1403 00c4 0021     		movs	r1, #0
 1404 00c6 0120     		movs	r0, #1
 1405 00c8 FFF7FEFF 		bl	LCD_Position
 1406              	.LVL170:
 555:main.c        ****         LCD_PrintString("R");
 1407              		.loc 1 555 0
 1408 00cc 7148     		ldr	r0, .L115+12
 1409 00ce FFF7FEFF 		bl	LCD_PrintString
 1410              	.LVL171:
 556:main.c        ****         /********************************************************************* 
 557:main.c        ****              This block of code selects the target LED color.
 558:main.c        ****              The encoder is used to cycle through the
 559:main.c        ****              R, G, B, or Y until the button is pressed
 560:main.c        ****         *********************************************************************/        
ARM GAS  C:\Users\HELLOK~1\AppData\Local\Temp\ccypIvsQ.s 			page 36


 561:main.c        ****         color_sel = 0;
 1411              		.loc 1 561 0
 1412 00d2 0025     		movs	r5, #0
 562:main.c        ****         while(btn_flag == 0){
 1413              		.loc 1 562 0
 1414 00d4 49E0     		b	.L87
 1415              	.LVL172:
 1416              	.L96:
 563:main.c        ****             if (NRF24_IRQ_Read() == 0){
 1417              		.loc 1 563 0
 1418 00d6 FFF7FEFF 		bl	NRF24_IRQ_Read
 1419              	.LVL173:
 1420 00da 0028     		cmp	r0, #0
 1421 00dc 01D1     		bne	.L86
 564:main.c        ****                 // There's a message for us!
 565:main.c        ****                 // XXX:TODO Get the message and set the right LED with
 566:main.c        ****                 //          the correct duty cycle
 567:main.c        ****                 processMessage();
 1422              		.loc 1 567 0
 1423 00de FFF7FEFF 		bl	processMessage
 1424              	.LVL174:
 1425              	.L86:
 568:main.c        ****             }
 569:main.c        ****             
 570:main.c        ****             //XXX: TODO Get encoder direction and update LCD with
 571:main.c        ****             //     correct color   
 572:main.c        ****             
 573:main.c        ****             if(enc_flag){
 1426              		.loc 1 573 0
 1427 00e2 6A4B     		ldr	r3, .L115+4
 1428 00e4 1B68     		ldr	r3, [r3]
 1429 00e6 002B     		cmp	r3, #0
 1430 00e8 3FD0     		beq	.L87
 574:main.c        ****                     if(encPos == 1){
 1431              		.loc 1 574 0
 1432 00ea 684B     		ldr	r3, .L115+4
 1433 00ec 5B68     		ldr	r3, [r3, #4]
 1434 00ee 012B     		cmp	r3, #1
 1435 00f0 04D1     		bne	.L88
 575:main.c        ****                         if(color_sel != 3){
 1436              		.loc 1 575 0
 1437 00f2 032D     		cmp	r5, #3
 1438 00f4 01D0     		beq	.L113
 576:main.c        ****                             color_sel++;
 1439              		.loc 1 576 0
 1440 00f6 0135     		adds	r5, r5, #1
 1441              	.LVL175:
 1442 00f8 00E0     		b	.L88
 1443              	.L113:
 577:main.c        ****                         }
 578:main.c        ****                         else{
 579:main.c        ****                             color_sel = 0;
 1444              		.loc 1 579 0
 1445 00fa 0025     		movs	r5, #0
 1446              	.LVL176:
 1447              	.L88:
 580:main.c        ****                         }
ARM GAS  C:\Users\HELLOK~1\AppData\Local\Temp\ccypIvsQ.s 			page 37


 581:main.c        ****                     }
 582:main.c        ****                     if(encPos == 2){
 1448              		.loc 1 582 0
 1449 00fc 634B     		ldr	r3, .L115+4
 1450 00fe 5B68     		ldr	r3, [r3, #4]
 1451 0100 022B     		cmp	r3, #2
 1452 0102 04D1     		bne	.L89
 583:main.c        ****                         if(color_sel != 0){
 1453              		.loc 1 583 0
 1454 0104 002D     		cmp	r5, #0
 1455 0106 01D0     		beq	.L114
 584:main.c        ****                             color_sel--;
 1456              		.loc 1 584 0
 1457 0108 013D     		subs	r5, r5, #1
 1458              	.LVL177:
 1459 010a 00E0     		b	.L89
 1460              	.L114:
 585:main.c        ****                         }
 586:main.c        ****                         else{
 587:main.c        ****                             color_sel = 3;
 1461              		.loc 1 587 0
 1462 010c 0325     		movs	r5, #3
 1463              	.LVL178:
 1464              	.L89:
 588:main.c        ****                         }
 589:main.c        ****                     }
 590:main.c        ****                     encPos = 0;
 1465              		.loc 1 590 0
 1466 010e 5F4B     		ldr	r3, .L115+4
 1467 0110 0022     		movs	r2, #0
 1468 0112 5A60     		str	r2, [r3, #4]
 591:main.c        ****                     enc_flag = 0;
 1469              		.loc 1 591 0
 1470 0114 1A60     		str	r2, [r3]
 592:main.c        ****                     switch(color_sel){
 1471              		.loc 1 592 0
 1472 0116 012D     		cmp	r5, #1
 1473 0118 10D0     		beq	.L91
 1474 011a 02DC     		bgt	.L92
 1475 011c 002D     		cmp	r5, #0
 1476 011e 05D0     		beq	.L93
 1477 0120 23E0     		b	.L87
 1478              	.L92:
 1479 0122 022D     		cmp	r5, #2
 1480 0124 12D0     		beq	.L94
 1481 0126 032D     		cmp	r5, #3
 1482 0128 18D0     		beq	.L95
 1483 012a 1EE0     		b	.L87
 1484              	.L93:
 593:main.c        ****                         case 0: 
 594:main.c        ****                             LCD_Position(1,0);
 1485              		.loc 1 594 0
 1486 012c 0021     		movs	r1, #0
 1487 012e 0120     		movs	r0, #1
 1488 0130 FFF7FEFF 		bl	LCD_Position
 1489              	.LVL179:
 595:main.c        ****                             LCD_PrintString("R");
ARM GAS  C:\Users\HELLOK~1\AppData\Local\Temp\ccypIvsQ.s 			page 38


 1490              		.loc 1 595 0
 1491 0134 5748     		ldr	r0, .L115+12
 1492 0136 FFF7FEFF 		bl	LCD_PrintString
 1493              	.LVL180:
 596:main.c        ****                             break;
 1494              		.loc 1 596 0
 1495 013a 16E0     		b	.L87
 1496              	.L91:
 597:main.c        ****                         case 1:
 598:main.c        ****                             LCD_Position(1,0);
 1497              		.loc 1 598 0
 1498 013c 0021     		movs	r1, #0
 1499 013e 0120     		movs	r0, #1
 1500 0140 FFF7FEFF 		bl	LCD_Position
 1501              	.LVL181:
 599:main.c        ****                             LCD_PrintString("G");
 1502              		.loc 1 599 0
 1503 0144 5448     		ldr	r0, .L115+16
 1504 0146 FFF7FEFF 		bl	LCD_PrintString
 1505              	.LVL182:
 600:main.c        ****                             break;
 1506              		.loc 1 600 0
 1507 014a 0EE0     		b	.L87
 1508              	.L94:
 601:main.c        ****                         case 2:
 602:main.c        ****                             LCD_Position(1,0);
 1509              		.loc 1 602 0
 1510 014c 0021     		movs	r1, #0
 1511 014e 0120     		movs	r0, #1
 1512 0150 FFF7FEFF 		bl	LCD_Position
 1513              	.LVL183:
 603:main.c        ****                             LCD_PrintString("B");
 1514              		.loc 1 603 0
 1515 0154 5148     		ldr	r0, .L115+20
 1516 0156 FFF7FEFF 		bl	LCD_PrintString
 1517              	.LVL184:
 604:main.c        ****                             break;
 1518              		.loc 1 604 0
 1519 015a 06E0     		b	.L87
 1520              	.L95:
 605:main.c        ****                         case 3:
 606:main.c        ****                             LCD_Position(1,0);
 1521              		.loc 1 606 0
 1522 015c 0021     		movs	r1, #0
 1523 015e 0120     		movs	r0, #1
 1524 0160 FFF7FEFF 		bl	LCD_Position
 1525              	.LVL185:
 607:main.c        ****                             LCD_PrintString("Y");
 1526              		.loc 1 607 0
 1527 0164 4E48     		ldr	r0, .L115+24
 1528 0166 FFF7FEFF 		bl	LCD_PrintString
 1529              	.LVL186:
 1530              	.L87:
 562:main.c        ****             if (NRF24_IRQ_Read() == 0){
 1531              		.loc 1 562 0
 1532 016a 484B     		ldr	r3, .L115+4
 1533 016c 9B68     		ldr	r3, [r3, #8]
ARM GAS  C:\Users\HELLOK~1\AppData\Local\Temp\ccypIvsQ.s 			page 39


 1534 016e 002B     		cmp	r3, #0
 1535 0170 B1D0     		beq	.L96
 608:main.c        ****                             break;
 609:main.c        ****                     }
 610:main.c        ****             }
 611:main.c        ****         }
 612:main.c        ****         btn_flag = 0;
 1536              		.loc 1 612 0
 1537 0172 0022     		movs	r2, #0
 1538 0174 454B     		ldr	r3, .L115+4
 1539 0176 9A60     		str	r2, [r3, #8]
 613:main.c        ****         switch(color_sel){
 1540              		.loc 1 613 0
 1541 0178 012D     		cmp	r5, #1
 1542 017a 0CD0     		beq	.L98
 1543 017c 02DC     		bgt	.L99
 1544 017e 002D     		cmp	r5, #0
 1545 0180 05D0     		beq	.L100
 1546 0182 13E0     		b	.L97
 1547              	.L99:
 1548 0184 022D     		cmp	r5, #2
 1549 0186 0AD0     		beq	.L101
 1550 0188 032D     		cmp	r5, #3
 1551 018a 0CD0     		beq	.L102
 1552 018c 0EE0     		b	.L97
 1553              	.L100:
 614:main.c        ****             case 0: 
 615:main.c        ****                 command[0] = 'R';
 1554              		.loc 1 615 0
 1555 018e 5222     		movs	r2, #82
 1556 0190 08AB     		add	r3, sp, #32
 1557 0192 1A70     		strb	r2, [r3]
 616:main.c        ****                 break;
 1558              		.loc 1 616 0
 1559 0194 0AE0     		b	.L97
 1560              	.L98:
 617:main.c        ****             case 1:
 618:main.c        ****                 command[0] = 'G';
 1561              		.loc 1 618 0
 1562 0196 4722     		movs	r2, #71
 1563 0198 08AB     		add	r3, sp, #32
 1564 019a 1A70     		strb	r2, [r3]
 619:main.c        ****                 break;
 1565              		.loc 1 619 0
 1566 019c 06E0     		b	.L97
 1567              	.L101:
 620:main.c        ****             case 2:
 621:main.c        ****                 command[0] = 'B';
 1568              		.loc 1 621 0
 1569 019e 4222     		movs	r2, #66
 1570 01a0 08AB     		add	r3, sp, #32
 1571 01a2 1A70     		strb	r2, [r3]
 622:main.c        ****                 break;
 1572              		.loc 1 622 0
 1573 01a4 02E0     		b	.L97
 1574              	.L102:
 623:main.c        ****             case 3:
ARM GAS  C:\Users\HELLOK~1\AppData\Local\Temp\ccypIvsQ.s 			page 40


 624:main.c        ****                 command[0] = 'Y';
 1575              		.loc 1 624 0
 1576 01a6 5922     		movs	r2, #89
 1577 01a8 08AB     		add	r3, sp, #32
 1578 01aa 1A70     		strb	r2, [r3]
 1579              	.L97:
 1580              	.LVL187:
 625:main.c        ****                 break;
 626:main.c        ****         }
 627:main.c        ****         /********************************************************************* 
 628:main.c        ****         This block of code selects the target LED brigthness/PWM duty cycle.
 629:main.c        ****              The encoder is used to cycle down to 0 and up to 100,
 630:main.c        ****              incrementing or decrementing once per click, until the
 631:main.c        ****              button is pressed.
 632:main.c        ****         *********************************************************************/              
 633:main.c        ****         brightness = 50;
 634:main.c        ****         char out4[6];
 635:main.c        ****         out4[5] = '\0';
 1581              		.loc 1 635 0
 1582 01ac 02AD     		add	r5, sp, #8
 1583              	.LVL188:
 1584 01ae 0026     		movs	r6, #0
 1585 01b0 6E71     		strb	r6, [r5, #5]
 636:main.c        ****         LCD_Position(1,2);
 1586              		.loc 1 636 0
 1587 01b2 0221     		movs	r1, #2
 1588 01b4 0120     		movs	r0, #1
 1589 01b6 FFF7FEFF 		bl	LCD_Position
 1590              	.LVL189:
 637:main.c        ****         snprintf(out4, 6, "%d", brightness);
 1591              		.loc 1 637 0
 1592 01ba 3223     		movs	r3, #50
 1593 01bc 394A     		ldr	r2, .L115+28
 1594 01be 0621     		movs	r1, #6
 1595 01c0 2800     		movs	r0, r5
 1596 01c2 FFF7FEFF 		bl	snprintf
 1597              	.LVL190:
 638:main.c        ****         out4[5] = '\0';
 1598              		.loc 1 638 0
 1599 01c6 6E71     		strb	r6, [r5, #5]
 639:main.c        ****         LCD_PrintString(out4);
 1600              		.loc 1 639 0
 1601 01c8 2800     		movs	r0, r5
 1602 01ca FFF7FEFF 		bl	LCD_PrintString
 1603              	.LVL191:
 633:main.c        ****         char out4[6];
 1604              		.loc 1 633 0
 1605 01ce 3236     		adds	r6, r6, #50
 640:main.c        ****         while(btn_flag == 0){
 1606              		.loc 1 640 0
 1607 01d0 2AE0     		b	.L105
 1608              	.LVL192:
 1609              	.L108:
 641:main.c        ****             if (NRF24_IRQ_Read() == 0){
 1610              		.loc 1 641 0
 1611 01d2 FFF7FEFF 		bl	NRF24_IRQ_Read
 1612              	.LVL193:
ARM GAS  C:\Users\HELLOK~1\AppData\Local\Temp\ccypIvsQ.s 			page 41


 1613 01d6 0028     		cmp	r0, #0
 1614 01d8 01D1     		bne	.L104
 642:main.c        ****                 // There's a message for us!
 643:main.c        ****                 // XXX:TODO Get the message and set the right LED with
 644:main.c        ****                 //          the correct duty cycle
 645:main.c        ****                 processMessage();
 1615              		.loc 1 645 0
 1616 01da FFF7FEFF 		bl	processMessage
 1617              	.LVL194:
 1618              	.L104:
 646:main.c        ****             }
 647:main.c        ****             
 648:main.c        ****             //XXX: TODO Get encoder direction and update LCD with
 649:main.c        ****             //     correct brightness value   
 650:main.c        ****             
 651:main.c        ****             if(enc_flag){
 1619              		.loc 1 651 0
 1620 01de 2B4B     		ldr	r3, .L115+4
 1621 01e0 1B68     		ldr	r3, [r3]
 1622 01e2 002B     		cmp	r3, #0
 1623 01e4 20D0     		beq	.L105
 652:main.c        ****                     if(encPos == 1){
 1624              		.loc 1 652 0
 1625 01e6 294B     		ldr	r3, .L115+4
 1626 01e8 5B68     		ldr	r3, [r3, #4]
 1627 01ea 012B     		cmp	r3, #1
 1628 01ec 02D1     		bne	.L106
 653:main.c        ****                         if(brightness == 100){
 1629              		.loc 1 653 0
 1630 01ee 642E     		cmp	r6, #100
 1631 01f0 00D0     		beq	.L106
 654:main.c        ****                         }
 655:main.c        ****                         else{
 656:main.c        ****                             brightness++;
 1632              		.loc 1 656 0
 1633 01f2 0136     		adds	r6, r6, #1
 1634              	.LVL195:
 1635              	.L106:
 657:main.c        ****                         }
 658:main.c        ****                     }
 659:main.c        ****                     if(encPos == 2){
 1636              		.loc 1 659 0
 1637 01f4 254B     		ldr	r3, .L115+4
 1638 01f6 5B68     		ldr	r3, [r3, #4]
 1639 01f8 022B     		cmp	r3, #2
 1640 01fa 02D1     		bne	.L107
 660:main.c        ****                         if(brightness == 0){
 1641              		.loc 1 660 0
 1642 01fc 002E     		cmp	r6, #0
 1643 01fe 00D0     		beq	.L107
 661:main.c        ****                         }
 662:main.c        ****                         else{
 663:main.c        ****                             brightness--;
 1644              		.loc 1 663 0
 1645 0200 013E     		subs	r6, r6, #1
 1646              	.LVL196:
 1647              	.L107:
ARM GAS  C:\Users\HELLOK~1\AppData\Local\Temp\ccypIvsQ.s 			page 42


 664:main.c        ****                         }
 665:main.c        ****                     }
 666:main.c        ****                     encPos = 0;
 1648              		.loc 1 666 0
 1649 0202 224B     		ldr	r3, .L115+4
 1650 0204 0027     		movs	r7, #0
 1651 0206 5F60     		str	r7, [r3, #4]
 667:main.c        ****                     enc_flag = 0;
 1652              		.loc 1 667 0
 1653 0208 1F60     		str	r7, [r3]
 668:main.c        ****                     
 669:main.c        ****                     //LCD_PrintString(out2);
 670:main.c        ****                     LCD_Position(1,2);
 1654              		.loc 1 670 0
 1655 020a 0221     		movs	r1, #2
 1656 020c 0120     		movs	r0, #1
 1657 020e FFF7FEFF 		bl	LCD_Position
 1658              	.LVL197:
 671:main.c        ****                     snprintf(out4, 6, "%d  ", brightness);
 1659              		.loc 1 671 0
 1660 0212 02AD     		add	r5, sp, #8
 1661 0214 3300     		movs	r3, r6
 1662 0216 244A     		ldr	r2, .L115+32
 1663 0218 0621     		movs	r1, #6
 1664 021a 2800     		movs	r0, r5
 1665 021c FFF7FEFF 		bl	snprintf
 1666              	.LVL198:
 672:main.c        ****                     out4[5] = '\0';
 1667              		.loc 1 672 0
 1668 0220 6F71     		strb	r7, [r5, #5]
 673:main.c        ****                     LCD_PrintString(out4);
 1669              		.loc 1 673 0
 1670 0222 2800     		movs	r0, r5
 1671 0224 FFF7FEFF 		bl	LCD_PrintString
 1672              	.LVL199:
 1673              	.L105:
 640:main.c        ****             if (NRF24_IRQ_Read() == 0){
 1674              		.loc 1 640 0
 1675 0228 184B     		ldr	r3, .L115+4
 1676 022a 9B68     		ldr	r3, [r3, #8]
 1677 022c 002B     		cmp	r3, #0
 1678 022e D0D0     		beq	.L108
 674:main.c        ****             }
 675:main.c        ****         }
 676:main.c        ****         btn_flag = 0;
 1679              		.loc 1 676 0
 1680 0230 0027     		movs	r7, #0
 1681 0232 164B     		ldr	r3, .L115+4
 1682 0234 9F60     		str	r7, [r3, #8]
 677:main.c        ****         snprintf(command, 6, "%c %d", command[0],brightness);
 1683              		.loc 1 677 0
 1684 0236 08AD     		add	r5, sp, #32
 1685 0238 2B78     		ldrb	r3, [r5]
 1686 023a 0096     		str	r6, [sp]
 1687 023c 1B4A     		ldr	r2, .L115+36
 1688 023e 0621     		movs	r1, #6
 1689 0240 2800     		movs	r0, r5
ARM GAS  C:\Users\HELLOK~1\AppData\Local\Temp\ccypIvsQ.s 			page 43


 1690 0242 FFF7FEFF 		bl	snprintf
 1691              	.LVL200:
 678:main.c        ****         command[5] = '\0';
 1692              		.loc 1 678 0
 1693 0246 6F71     		strb	r7, [r5, #5]
 679:main.c        ****         // Now that we have valid input, send it to the target group.
 680:main.c        ****         error = SendMessage(command, target);
 1694              		.loc 1 680 0
 1695 0248 2100     		movs	r1, r4
 1696 024a 2800     		movs	r0, r5
 1697 024c FFF7FEFF 		bl	SendMessage
 1698              	.LVL201:
 1699 0250 0790     		str	r0, [sp, #28]
 681:main.c        ****         if(error != 2){
 1700              		.loc 1 681 0
 1701 0252 079B     		ldr	r3, [sp, #28]
 1702 0254 022B     		cmp	r3, #2
 1703 0256 00D1     		bne	.LCB1620
 1704 0258 F5E6     		b	.L110	@long jump
 1705              	.LCB1620:
 682:main.c        ****             LCD_ClearDisplay();
 1706              		.loc 1 682 0
 1707 025a 0120     		movs	r0, #1
 1708 025c FFF7FEFF 		bl	LCD_WriteControl
 1709              	.LVL202:
 683:main.c        ****             LCD_Position(0,0);
 1710              		.loc 1 683 0
 1711 0260 0021     		movs	r1, #0
 1712 0262 0020     		movs	r0, #0
 1713 0264 FFF7FEFF 		bl	LCD_Position
 1714              	.LVL203:
 684:main.c        ****             LCD_PrintString("Failed");
 1715              		.loc 1 684 0
 1716 0268 1148     		ldr	r0, .L115+40
 1717 026a FFF7FEFF 		bl	LCD_PrintString
 1718              	.LVL204:
 685:main.c        ****             LCD_Position(1,0);
 1719              		.loc 1 685 0
 1720 026e 0021     		movs	r1, #0
 1721 0270 0120     		movs	r0, #1
 1722 0272 FFF7FEFF 		bl	LCD_Position
 1723              	.LVL205:
 686:main.c        ****             LCD_PrintString("Transmission!!");
 1724              		.loc 1 686 0
 1725 0276 0F48     		ldr	r0, .L115+44
 1726 0278 FFF7FEFF 		bl	LCD_PrintString
 1727              	.LVL206:
 687:main.c        ****             CyDelay(2000);
 1728              		.loc 1 687 0
 1729 027c FA20     		movs	r0, #250
 1730 027e C000     		lsls	r0, r0, #3
 1731 0280 FFF7FEFF 		bl	CyDelay
 1732              	.LVL207:
 1733              	.LBE22:
 688:main.c        ****         }
 689:main.c        ****         
 690:main.c        ****     }
ARM GAS  C:\Users\HELLOK~1\AppData\Local\Temp\ccypIvsQ.s 			page 44


 1734              		.loc 1 690 0
 1735 0284 DFE6     		b	.L110
 1736              	.L116:
 1737 0286 C046     		.align	2
 1738              	.L115:
 1739 0288 00000000 		.word	.LC8
 1740 028c 00000000 		.word	.LANCHOR2
 1741 0290 0C000000 		.word	.LC11
 1742 0294 10000000 		.word	.LC13
 1743 0298 14000000 		.word	.LC15
 1744 029c 18000000 		.word	.LC17
 1745 02a0 1C000000 		.word	.LC19
 1746 02a4 20000000 		.word	.LC21
 1747 02a8 24000000 		.word	.LC23
 1748 02ac 2C000000 		.word	.LC25
 1749 02b0 34000000 		.word	.LC27
 1750 02b4 3C000000 		.word	.LC29
 1751              		.cfi_endproc
 1752              	.LFE41:
 1753              		.size	main, .-main
 1754              		.global	group_channel
 1755              		.global	group_address
 1756              		.global	radio
 1757              		.global	encPos
 1758              		.global	btn_flag
 1759              		.global	enc_flag
 1760              		.section	.rodata
 1761              		.align	2
 1762              		.set	.LANCHOR1,. + 0
 1763              		.type	group_channel, %object
 1764              		.size	group_channel, 13
 1765              	group_channel:
 1766 0000 10       		.byte	16
 1767 0001 18       		.byte	24
 1768 0002 20       		.byte	32
 1769 0003 28       		.byte	40
 1770 0004 30       		.byte	48
 1771 0005 38       		.byte	56
 1772 0006 40       		.byte	64
 1773 0007 48       		.byte	72
 1774 0008 50       		.byte	80
 1775 0009 58       		.byte	88
 1776 000a 60       		.byte	96
 1777 000b 68       		.byte	104
 1778 000c 70       		.byte	112
 1779 000d 000000   		.space	3
 1780              		.type	group_address, %object
 1781              		.size	group_address, 65
 1782              	group_address:
 1783 0010 11       		.byte	17
 1784 0011 11       		.byte	17
 1785 0012 11       		.byte	17
 1786 0013 11       		.byte	17
 1787 0014 11       		.byte	17
 1788 0015 22       		.byte	34
 1789 0016 22       		.byte	34
 1790 0017 22       		.byte	34
ARM GAS  C:\Users\HELLOK~1\AppData\Local\Temp\ccypIvsQ.s 			page 45


 1791 0018 22       		.byte	34
 1792 0019 22       		.byte	34
 1793 001a 33       		.byte	51
 1794 001b 33       		.byte	51
 1795 001c 33       		.byte	51
 1796 001d 33       		.byte	51
 1797 001e 33       		.byte	51
 1798 001f 44       		.byte	68
 1799 0020 44       		.byte	68
 1800 0021 44       		.byte	68
 1801 0022 44       		.byte	68
 1802 0023 44       		.byte	68
 1803 0024 55       		.byte	85
 1804 0025 55       		.byte	85
 1805 0026 55       		.byte	85
 1806 0027 55       		.byte	85
 1807 0028 55       		.byte	85
 1808 0029 66       		.byte	102
 1809 002a 66       		.byte	102
 1810 002b 66       		.byte	102
 1811 002c 66       		.byte	102
 1812 002d 66       		.byte	102
 1813 002e 77       		.byte	119
 1814 002f 77       		.byte	119
 1815 0030 77       		.byte	119
 1816 0031 77       		.byte	119
 1817 0032 77       		.byte	119
 1818 0033 88       		.byte	-120
 1819 0034 88       		.byte	-120
 1820 0035 88       		.byte	-120
 1821 0036 88       		.byte	-120
 1822 0037 88       		.byte	-120
 1823 0038 99       		.byte	-103
 1824 0039 99       		.byte	-103
 1825 003a 99       		.byte	-103
 1826 003b 99       		.byte	-103
 1827 003c 99       		.byte	-103
 1828 003d AA       		.byte	-86
 1829 003e AA       		.byte	-86
 1830 003f AA       		.byte	-86
 1831 0040 AA       		.byte	-86
 1832 0041 AA       		.byte	-86
 1833 0042 BB       		.byte	-69
 1834 0043 BB       		.byte	-69
 1835 0044 BB       		.byte	-69
 1836 0045 BB       		.byte	-69
 1837 0046 BB       		.byte	-69
 1838 0047 CC       		.byte	-52
 1839 0048 CC       		.byte	-52
 1840 0049 CC       		.byte	-52
 1841 004a CC       		.byte	-52
 1842 004b CC       		.byte	-52
 1843 004c DD       		.byte	-35
 1844 004d DD       		.byte	-35
 1845 004e DD       		.byte	-35
 1846 004f DD       		.byte	-35
 1847 0050 DD       		.byte	-35
ARM GAS  C:\Users\HELLOK~1\AppData\Local\Temp\ccypIvsQ.s 			page 46


 1848 0051 000000   		.space	3
 1849              	.LC0:
 1850 0054 20       		.byte	32
 1851 0055 20       		.byte	32
 1852 0056 31       		.byte	49
 1853 0057 30       		.byte	48
 1854 0058 30       		.byte	48
 1855 0059 00       		.byte	0
 1856              		.data
 1857              		.align	2
 1858              		.set	.LANCHOR0,. + 0
 1859              		.type	radio, %object
 1860              		.size	radio, 26
 1861              	radio:
 1862 0000 00       		.byte	0
 1863 0001 01       		.byte	1
 1864 0002 02       		.byte	2
 1865 0003 03       		.byte	3
 1866 0004 04       		.byte	4
 1867 0005 05       		.byte	5
 1868 0006 06       		.byte	6
 1869 0007 07       		.byte	7
 1870 0008 08       		.byte	8
 1871 0009 09       		.byte	9
 1872 000a 0A       		.byte	10
 1873 000b 0B       		.byte	11
 1874 000c 0C       		.byte	12
 1875 000d 0D       		.byte	13
 1876 000e 0E       		.byte	14
 1877 000f 0F       		.byte	15
 1878 0010 10       		.byte	16
 1879 0011 11       		.byte	17
 1880 0012 12       		.byte	18
 1881 0013 13       		.byte	19
 1882 0014 14       		.byte	20
 1883 0015 15       		.byte	21
 1884 0016 16       		.byte	22
 1885 0017 17       		.byte	23
 1886 0018 1C       		.byte	28
 1887 0019 1D       		.byte	29
 1888              		.section	.rodata.str1.4,"aMS",%progbits,1
 1889              		.align	2
 1890              	.LC8:
 1891 0000 54617267 		.ascii	"Target: 0\000"
 1891      65743A20 
 1891      3000
 1892 000a 0000     		.space	2
 1893              	.LC11:
 1894 000c 25642000 		.ascii	"%d \000"
 1895              	.LC13:
 1896 0010 5200     		.ascii	"R\000"
 1897 0012 0000     		.space	2
 1898              	.LC15:
 1899 0014 4700     		.ascii	"G\000"
 1900 0016 0000     		.space	2
 1901              	.LC17:
 1902 0018 4200     		.ascii	"B\000"
ARM GAS  C:\Users\HELLOK~1\AppData\Local\Temp\ccypIvsQ.s 			page 47


 1903 001a 0000     		.space	2
 1904              	.LC19:
 1905 001c 5900     		.ascii	"Y\000"
 1906 001e 0000     		.space	2
 1907              	.LC21:
 1908 0020 256400   		.ascii	"%d\000"
 1909 0023 00       		.space	1
 1910              	.LC23:
 1911 0024 25642020 		.ascii	"%d  \000"
 1911      00
 1912 0029 000000   		.space	3
 1913              	.LC25:
 1914 002c 25632025 		.ascii	"%c %d\000"
 1914      6400
 1915 0032 0000     		.space	2
 1916              	.LC27:
 1917 0034 4661696C 		.ascii	"Failed\000"
 1917      656400
 1918 003b 00       		.space	1
 1919              	.LC29:
 1920 003c 5472616E 		.ascii	"Transmission!!\000"
 1920      736D6973 
 1920      73696F6E 
 1920      212100
 1921              		.bss
 1922              		.align	2
 1923              		.set	.LANCHOR2,. + 0
 1924              		.type	enc_flag, %object
 1925              		.size	enc_flag, 4
 1926              	enc_flag:
 1927 0000 00000000 		.space	4
 1928              		.type	encPos, %object
 1929              		.size	encPos, 4
 1930              	encPos:
 1931 0004 00000000 		.space	4
 1932              		.type	btn_flag, %object
 1933              		.size	btn_flag, 4
 1934              	btn_flag:
 1935 0008 00000000 		.space	4
 1936              		.text
 1937              	.Letext0:
 1938              		.file 2 "Generated_Source\\PSoC4/cytypes.h"
 1939              		.file 3 "Generated_Source\\PSoC4/SPI_SPI_UART.h"
 1940              		.file 4 "Generated_Source\\PSoC4/PWM.h"
 1941              		.file 5 "Generated_Source\\PSoC4/PWM_SEL.h"
 1942              		.file 6 "Generated_Source\\PSoC4/CyLib.h"
 1943              		.file 7 "Generated_Source\\PSoC4/LCD.h"
 1944              		.file 8 "Generated_Source\\PSoC4/NRF24_IRQ.h"
 1945              		.file 9 "c:\\program files (x86)\\cypress\\psoc creator\\4.2\\psoc creator\\import\\gnu\\arm\\5.4.
 1946              		.file 10 "Generated_Source\\PSoC4/SPI.h"
 1947              		.file 11 "Generated_Source\\PSoC4/ENC_ISR.h"
 1948              		.file 12 "Generated_Source\\PSoC4/BTN_ISR.h"
 1949              		.file 13 "Generated_Source\\PSoC4/NRF24_CE.h"