ARM GAS  C:\Users\HELLOK~1.1\AppData\Local\Temp\cc17Mr4p.s 			page 1


   1              		.syntax unified
   2              		.cpu cortex-m0
   3              		.fpu softvfp
   4              		.eabi_attribute 20, 1
   5              		.eabi_attribute 21, 1
   6              		.eabi_attribute 23, 3
   7              		.eabi_attribute 24, 1
   8              		.eabi_attribute 25, 1
   9              		.eabi_attribute 26, 1
  10              		.eabi_attribute 30, 1
  11              		.eabi_attribute 34, 0
  12              		.eabi_attribute 18, 4
  13              		.thumb
  14              		.syntax unified
  15              		.file	"main.c"
  16              		.text
  17              	.Ltext0:
  18              		.cfi_sections	.debug_frame
  19              		.section	.text.MVCCW,"ax",%progbits
  20              		.align	2
  21              		.global	MVCCW
  22              		.code	16
  23              		.thumb_func
  24              		.type	MVCCW, %function
  25              	MVCCW:
  26              	.LFB34:
  27              		.file 1 "main.c"
   1:main.c        **** /* ========================================
   2:main.c        ****  *
   3:main.c        ****  * Copyright YOUR COMPANY, THE YEAR
   4:main.c        ****  * All Rights Reserved
   5:main.c        ****  * UNPUBLISHED, LICENSED SOFTWARE.
   6:main.c        ****  *
   7:main.c        ****  * CONFIDENTIAL AND PROPRIETARY INFORMATION
   8:main.c        ****  * WHICH IS THE PROPERTY OF your company.
   9:main.c        ****  *
  10:main.c        ****  * ========================================
  11:main.c        **** */
  12:main.c        **** #include "project.h"
  13:main.c        **** #include <string.h>
  14:main.c        **** struct MTR{
  15:main.c        ****         unsigned int position : 4;
  16:main.c        **** };
  17:main.c        **** int MVCCW(struct MTR motor){
  28              		.loc 1 17 0
  29              		.cfi_startproc
  30              		@ args = 0, pretend = 0, frame = 0
  31              		@ frame_needed = 0, uses_anonymous_args = 0
  32              	.LVL0:
  33 0000 10B5     		push	{r4, lr}
  34              		.cfi_def_cfa_offset 8
  35              		.cfi_offset 4, -8
  36              		.cfi_offset 14, -4
  18:main.c        ****     if(motor.position >= 4){
  37              		.loc 1 18 0
  38 0002 0307     		lsls	r3, r0, #28
  39 0004 1B0F     		lsrs	r3, r3, #28
ARM GAS  C:\Users\HELLOK~1.1\AppData\Local\Temp\cc17Mr4p.s 			page 2


  40 0006 032B     		cmp	r3, #3
  41 0008 04DD     		ble	.L2
  19:main.c        ****         motor.position = 1;
  42              		.loc 1 19 0
  43 000a 0F23     		movs	r3, #15
  44 000c 9843     		bics	r0, r3
  45              	.LVL1:
  46 000e 0E3B     		subs	r3, r3, #14
  47 0010 1843     		orrs	r0, r3
  48 0012 04E0     		b	.L3
  49              	.LVL2:
  50              	.L2:
  20:main.c        ****     }
  21:main.c        ****     else{
  22:main.c        ****         motor.position += 1;
  51              		.loc 1 22 0
  52 0014 0133     		adds	r3, r3, #1
  53 0016 0F22     		movs	r2, #15
  54 0018 1340     		ands	r3, r2
  55 001a 9043     		bics	r0, r2
  56              	.LVL3:
  57 001c 1843     		orrs	r0, r3
  58              	.L3:
  59              	.LVL4:
  23:main.c        ****     }
  24:main.c        ****     switch(motor.position){
  60              		.loc 1 24 0
  61 001e 0007     		lsls	r0, r0, #28
  62              	.LVL5:
  63 0020 040F     		lsrs	r4, r0, #28
  64 0022 022C     		cmp	r4, #2
  65 0024 0CD0     		beq	.L5
  66 0026 02D8     		bhi	.L6
  67 0028 012C     		cmp	r4, #1
  68 002a 05D0     		beq	.L7
  69 002c 13E0     		b	.L4
  70              	.L6:
  71 002e 032C     		cmp	r4, #3
  72 0030 0AD0     		beq	.L8
  73 0032 042C     		cmp	r4, #4
  74 0034 0CD0     		beq	.L9
  75 0036 0EE0     		b	.L4
  76              	.L7:
  25:main.c        ****         case 1:
  26:main.c        ****             // 0011 -> 1001
  27:main.c        ****             Motor_Write(0x9);
  77              		.loc 1 27 0
  78 0038 0920     		movs	r0, #9
  79 003a FFF7FEFF 		bl	Motor_Write
  80              	.LVL6:
  28:main.c        ****             break;
  81              		.loc 1 28 0
  82 003e 0AE0     		b	.L4
  83              	.L5:
  29:main.c        ****         case 2:
  30:main.c        ****             // 1001 -> 1100
  31:main.c        ****             Motor_Write(0xC);
ARM GAS  C:\Users\HELLOK~1.1\AppData\Local\Temp\cc17Mr4p.s 			page 3


  84              		.loc 1 31 0
  85 0040 0C20     		movs	r0, #12
  86 0042 FFF7FEFF 		bl	Motor_Write
  87              	.LVL7:
  32:main.c        ****             break;
  88              		.loc 1 32 0
  89 0046 06E0     		b	.L4
  90              	.L8:
  33:main.c        ****         case 3:
  34:main.c        ****             // 1100 -> 0110
  35:main.c        ****             Motor_Write(0x6);
  91              		.loc 1 35 0
  92 0048 0620     		movs	r0, #6
  93 004a FFF7FEFF 		bl	Motor_Write
  94              	.LVL8:
  36:main.c        ****             break;
  95              		.loc 1 36 0
  96 004e 02E0     		b	.L4
  97              	.L9:
  37:main.c        ****         case 4:
  38:main.c        ****             // 0110 -> 0011
  39:main.c        ****             Motor_Write(0x3);
  98              		.loc 1 39 0
  99 0050 0320     		movs	r0, #3
 100 0052 FFF7FEFF 		bl	Motor_Write
 101              	.LVL9:
 102              	.L4:
  40:main.c        ****             break;
  41:main.c        ****     }
  42:main.c        ****     CyDelayUs(3000);
 103              		.loc 1 42 0
 104 0056 0448     		ldr	r0, .L10
 105 0058 FFF7FEFF 		bl	CyDelayUs
 106              	.LVL10:
  43:main.c        ****     Motor_Write(0b0000);
 107              		.loc 1 43 0
 108 005c 0020     		movs	r0, #0
 109 005e FFF7FEFF 		bl	Motor_Write
 110              	.LVL11:
  44:main.c        ****     return motor.position;
  45:main.c        **** }
 111              		.loc 1 45 0
 112 0062 2000     		movs	r0, r4
 113              		@ sp needed
 114 0064 10BD     		pop	{r4, pc}
 115              	.L11:
 116 0066 C046     		.align	2
 117              	.L10:
 118 0068 B80B0000 		.word	3000
 119              		.cfi_endproc
 120              	.LFE34:
 121              		.size	MVCCW, .-MVCCW
 122              		.section	.text.MVCW,"ax",%progbits
 123              		.align	2
 124              		.global	MVCW
 125              		.code	16
 126              		.thumb_func
ARM GAS  C:\Users\HELLOK~1.1\AppData\Local\Temp\cc17Mr4p.s 			page 4


 127              		.type	MVCW, %function
 128              	MVCW:
 129              	.LFB35:
  46:main.c        **** int MVCW(struct MTR motor){
 130              		.loc 1 46 0
 131              		.cfi_startproc
 132              		@ args = 0, pretend = 0, frame = 0
 133              		@ frame_needed = 0, uses_anonymous_args = 0
 134              	.LVL12:
 135 0000 10B5     		push	{r4, lr}
 136              		.cfi_def_cfa_offset 8
 137              		.cfi_offset 4, -8
 138              		.cfi_offset 14, -4
  47:main.c        ****     if(motor.position <= 1){
 139              		.loc 1 47 0
 140 0002 0307     		lsls	r3, r0, #28
 141 0004 1B0F     		lsrs	r3, r3, #28
 142 0006 012B     		cmp	r3, #1
 143 0008 04DC     		bgt	.L13
  48:main.c        ****         motor.position = 4;
 144              		.loc 1 48 0
 145 000a 0F23     		movs	r3, #15
 146 000c 9843     		bics	r0, r3
 147              	.LVL13:
 148 000e 0B3B     		subs	r3, r3, #11
 149 0010 1843     		orrs	r0, r3
 150 0012 04E0     		b	.L14
 151              	.LVL14:
 152              	.L13:
  49:main.c        ****     }
  50:main.c        ****     else{
  51:main.c        ****         motor.position -= 1;
 153              		.loc 1 51 0
 154 0014 013B     		subs	r3, r3, #1
 155 0016 0F22     		movs	r2, #15
 156 0018 1340     		ands	r3, r2
 157 001a 9043     		bics	r0, r2
 158              	.LVL15:
 159 001c 1843     		orrs	r0, r3
 160              	.L14:
 161              	.LVL16:
  52:main.c        ****     }
  53:main.c        ****     switch(motor.position){
 162              		.loc 1 53 0
 163 001e 0007     		lsls	r0, r0, #28
 164              	.LVL17:
 165 0020 040F     		lsrs	r4, r0, #28
 166 0022 022C     		cmp	r4, #2
 167 0024 0FD0     		beq	.L16
 168 0026 02D8     		bhi	.L17
 169 0028 012C     		cmp	r4, #1
 170 002a 10D0     		beq	.L18
 171 002c 12E0     		b	.L15
 172              	.L17:
 173 002e 032C     		cmp	r4, #3
 174 0030 05D0     		beq	.L19
 175 0032 042C     		cmp	r4, #4
ARM GAS  C:\Users\HELLOK~1.1\AppData\Local\Temp\cc17Mr4p.s 			page 5


 176 0034 0ED1     		bne	.L15
  54:main.c        ****         case 4:
  55:main.c        ****             // 1100 -> 1001
  56:main.c        ****             Motor_Write(0x9);
 177              		.loc 1 56 0
 178 0036 0920     		movs	r0, #9
 179 0038 FFF7FEFF 		bl	Motor_Write
 180              	.LVL18:
  57:main.c        ****             break;
 181              		.loc 1 57 0
 182 003c 0AE0     		b	.L15
 183              	.L19:
  58:main.c        ****         case 3:
  59:main.c        ****             // 1001 -> 0011
  60:main.c        ****             Motor_Write(0x3);
 184              		.loc 1 60 0
 185 003e 0320     		movs	r0, #3
 186 0040 FFF7FEFF 		bl	Motor_Write
 187              	.LVL19:
  61:main.c        ****             break;
 188              		.loc 1 61 0
 189 0044 06E0     		b	.L15
 190              	.L16:
  62:main.c        ****         case 2:
  63:main.c        ****             // 0011 -> 0110
  64:main.c        ****             Motor_Write(0x6);
 191              		.loc 1 64 0
 192 0046 0620     		movs	r0, #6
 193 0048 FFF7FEFF 		bl	Motor_Write
 194              	.LVL20:
  65:main.c        ****             break;
 195              		.loc 1 65 0
 196 004c 02E0     		b	.L15
 197              	.L18:
  66:main.c        ****         case 1:
  67:main.c        ****             // 0110 -> 1100
  68:main.c        ****             Motor_Write(0xC);
 198              		.loc 1 68 0
 199 004e 0C20     		movs	r0, #12
 200 0050 FFF7FEFF 		bl	Motor_Write
 201              	.LVL21:
 202              	.L15:
  69:main.c        ****             break;
  70:main.c        ****     }
  71:main.c        ****     CyDelayUs(3000);
 203              		.loc 1 71 0
 204 0054 0348     		ldr	r0, .L21
 205 0056 FFF7FEFF 		bl	CyDelayUs
 206              	.LVL22:
  72:main.c        ****     Motor_Write(0b0000);
 207              		.loc 1 72 0
 208 005a 0020     		movs	r0, #0
 209 005c FFF7FEFF 		bl	Motor_Write
 210              	.LVL23:
  73:main.c        ****     return motor.position;
  74:main.c        **** }
 211              		.loc 1 74 0
ARM GAS  C:\Users\HELLOK~1.1\AppData\Local\Temp\cc17Mr4p.s 			page 6


 212 0060 2000     		movs	r0, r4
 213              		@ sp needed
 214 0062 10BD     		pop	{r4, pc}
 215              	.L22:
 216              		.align	2
 217              	.L21:
 218 0064 B80B0000 		.word	3000
 219              		.cfi_endproc
 220              	.LFE35:
 221              		.size	MVCW, .-MVCW
 222              		.section	.text.runCommand,"ax",%progbits
 223              		.align	2
 224              		.global	runCommand
 225              		.code	16
 226              		.thumb_func
 227              		.type	runCommand, %function
 228              	runCommand:
 229              	.LFB36:
  75:main.c        **** void runCommand(char* command){
 230              		.loc 1 75 0
 231              		.cfi_startproc
 232              		@ args = 0, pretend = 0, frame = 16
 233              		@ frame_needed = 0, uses_anonymous_args = 0
 234              	.LVL24:
 235 0000 30B5     		push	{r4, r5, lr}
 236              		.cfi_def_cfa_offset 12
 237              		.cfi_offset 4, -12
 238              		.cfi_offset 5, -8
 239              		.cfi_offset 14, -4
 240 0002 85B0     		sub	sp, sp, #20
 241              		.cfi_def_cfa_offset 32
 242 0004 0500     		movs	r5, r0
 243              	.LVL25:
 244              	.LBB2:
  76:main.c        ****     
  77:main.c        ****     for(int i = 0; i < 16; i++){
 245              		.loc 1 77 0
 246 0006 0024     		movs	r4, #0
 247 0008 14E0     		b	.L24
 248              	.LVL26:
 249              	.L29:
  78:main.c        ****         if(*(command+i) == 's' || *(command+i) == 'S'){
 250              		.loc 1 78 0
 251 000a 2B5D     		ldrb	r3, [r5, r4]
 252 000c 732B     		cmp	r3, #115
 253 000e 01D0     		beq	.L25
 254              		.loc 1 78 0 is_stmt 0 discriminator 1
 255 0010 532B     		cmp	r3, #83
 256 0012 0ED1     		bne	.L26
 257              	.L25:
 258              	.LBB3:
  79:main.c        ****             i +=2;
 259              		.loc 1 79 0 is_stmt 1
 260 0014 A31C     		adds	r3, r4, #2
 261              	.LVL27:
  80:main.c        ****             char value[16];
  81:main.c        ****             value[15] = '\0';
ARM GAS  C:\Users\HELLOK~1.1\AppData\Local\Temp\cc17Mr4p.s 			page 7


 262              		.loc 1 81 0
 263 0016 0022     		movs	r2, #0
 264 0018 6946     		mov	r1, sp
 265 001a CA73     		strb	r2, [r1, #15]
 266              	.LVL28:
  79:main.c        ****             i +=2;
 267              		.loc 1 79 0
 268 001c 1C00     		movs	r4, r3
 269              	.LBB4:
  82:main.c        ****             for(int j = i; j < 16;i++){
 270              		.loc 1 82 0
 271 001e 03E0     		b	.L27
 272              	.LVL29:
 273              	.L28:
  83:main.c        ****                 value[j] = *(command + j);
 274              		.loc 1 83 0 discriminator 3
 275 0020 EA5C     		ldrb	r2, [r5, r3]
 276 0022 6946     		mov	r1, sp
 277 0024 CA54     		strb	r2, [r1, r3]
  82:main.c        ****             for(int j = i; j < 16;i++){
 278              		.loc 1 82 0 discriminator 3
 279 0026 0134     		adds	r4, r4, #1
 280              	.LVL30:
 281              	.L27:
  82:main.c        ****             for(int j = i; j < 16;i++){
 282              		.loc 1 82 0 is_stmt 0 discriminator 1
 283 0028 0F2B     		cmp	r3, #15
 284 002a F9DD     		ble	.L28
 285              	.LBE4:
  84:main.c        ****             }
  85:main.c        ****             double floatvalue = atof(value);
 286              		.loc 1 85 0 is_stmt 1
 287 002c 6846     		mov	r0, sp
 288 002e FFF7FEFF 		bl	atof
 289              	.LVL31:
 290              	.L26:
 291              	.LBE3:
  77:main.c        ****         if(*(command+i) == 's' || *(command+i) == 'S'){
 292              		.loc 1 77 0 discriminator 2
 293 0032 0134     		adds	r4, r4, #1
 294              	.LVL32:
 295              	.L24:
  77:main.c        ****         if(*(command+i) == 's' || *(command+i) == 'S'){
 296              		.loc 1 77 0 is_stmt 0 discriminator 1
 297 0034 0F2C     		cmp	r4, #15
 298 0036 E8DD     		ble	.L29
 299              	.LBE2:
  86:main.c        ****         }
  87:main.c        ****     }
  88:main.c        ****     
  89:main.c        ****     
  90:main.c        **** }
 300              		.loc 1 90 0 is_stmt 1
 301 0038 05B0     		add	sp, sp, #20
 302              		@ sp needed
 303              	.LVL33:
 304              	.LVL34:
ARM GAS  C:\Users\HELLOK~1.1\AppData\Local\Temp\cc17Mr4p.s 			page 8


 305 003a 30BD     		pop	{r4, r5, pc}
 306              		.cfi_endproc
 307              	.LFE36:
 308              		.size	runCommand, .-runCommand
 309              		.section	.text.main,"ax",%progbits
 310              		.align	2
 311              		.global	main
 312              		.code	16
 313              		.thumb_func
 314              		.type	main, %function
 315              	main:
 316              	.LFB37:
  91:main.c        **** int main(void)
  92:main.c        **** {
 317              		.loc 1 92 0
 318              		.cfi_startproc
 319              		@ args = 0, pretend = 0, frame = 24
 320              		@ frame_needed = 0, uses_anonymous_args = 0
 321 0000 F0B5     		push	{r4, r5, r6, r7, lr}
 322              		.cfi_def_cfa_offset 20
 323              		.cfi_offset 4, -20
 324              		.cfi_offset 5, -16
 325              		.cfi_offset 6, -12
 326              		.cfi_offset 7, -8
 327              		.cfi_offset 14, -4
 328 0002 87B0     		sub	sp, sp, #28
 329              		.cfi_def_cfa_offset 48
  93:main.c        ****     CyGlobalIntEnable; /* Enable global interrupts. */
 330              		.loc 1 93 0
 331              		.syntax divided
 332              	@ 93 "main.c" 1
 333 0004 62B6     		CPSIE   i
 334              	@ 0 "" 2
  94:main.c        **** 
  95:main.c        ****     /* Place your initialization/startup code here (e.g. MyInst_Start()) */
  96:main.c        ****     
  97:main.c        ****     struct MTR motor = {1};
 335              		.loc 1 97 0
 336              		.thumb
 337              		.syntax unified
 338 0006 0124     		movs	r4, #1
 339              	.LVL35:
  98:main.c        ****     UART_Start();
 340              		.loc 1 98 0
 341 0008 FFF7FEFF 		bl	UART_Start
 342              	.LVL36:
  99:main.c        ****     UART_UartPutString("Type a command please.\r\n");
 343              		.loc 1 99 0
 344 000c 2948     		ldr	r0, .L40
 345 000e FFF7FEFF 		bl	UART_UartPutString
 346              	.LVL37:
 100:main.c        ****     char command[17];
 101:main.c        ****     command[16] = '\0';
 347              		.loc 1 101 0
 348 0012 0022     		movs	r2, #0
 349 0014 01AB     		add	r3, sp, #4
 350 0016 1A74     		strb	r2, [r3, #16]
ARM GAS  C:\Users\HELLOK~1.1\AppData\Local\Temp\cc17Mr4p.s 			page 9


 351              	.LVL38:
 102:main.c        ****     unsigned int index = 0;
 352              		.loc 1 102 0
 353 0018 0027     		movs	r7, #0
 354              	.LVL39:
 355              	.L32:
 356              	.LBB5:
 103:main.c        ****     for(;;)
 104:main.c        ****     {
 105:main.c        ****         /* Place your application code here. */
 106:main.c        ****         char input = 0;
 107:main.c        ****         do{
 108:main.c        ****             input = UART_UartGetChar();
 357              		.loc 1 108 0 discriminator 1
 358 001a FFF7FEFF 		bl	UART_UartGetChar
 359              	.LVL40:
 360 001e 0500     		movs	r5, r0
 361 0020 C6B2     		uxtb	r6, r0
 362              	.LVL41:
 109:main.c        ****             
 110:main.c        ****         CyDelay(5);
 363              		.loc 1 110 0 discriminator 1
 364 0022 0520     		movs	r0, #5
 365 0024 FFF7FEFF 		bl	CyDelay
 366              	.LVL42:
 111:main.c        ****         motor.position = MVCW(motor);
 367              		.loc 1 111 0 discriminator 1
 368 0028 2000     		movs	r0, r4
 369 002a FFF7FEFF 		bl	MVCW
 370              	.LVL43:
 371 002e 0F23     		movs	r3, #15
 372 0030 1840     		ands	r0, r3
 373 0032 9C43     		bics	r4, r3
 374              	.LVL44:
 375 0034 0443     		orrs	r4, r0
 112:main.c        ****         }
 113:main.c        ****         while(input == 0);
 376              		.loc 1 113 0 discriminator 1
 377 0036 002E     		cmp	r6, #0
 378 0038 EFD0     		beq	.L32
 114:main.c        ****         if(input == 0x7f){
 379              		.loc 1 114 0
 380 003a 7F2E     		cmp	r6, #127
 381 003c 16D1     		bne	.L33
 115:main.c        ****             if (index == 0){
 382              		.loc 1 115 0
 383 003e 002F     		cmp	r7, #0
 384 0040 03D1     		bne	.L34
 116:main.c        ****                 UART_UartPutChar(0x07);
 385              		.loc 1 116 0
 386 0042 0720     		movs	r0, #7
 387 0044 FFF7FEFF 		bl	UART_SpiUartWriteTxData
 388              	.LVL45:
 389 0048 E7E7     		b	.L32
 390              	.L34:
 117:main.c        ****             }
 118:main.c        ****             else{
ARM GAS  C:\Users\HELLOK~1.1\AppData\Local\Temp\cc17Mr4p.s 			page 10


 119:main.c        ****                 UART_UartPutChar('\b');
 391              		.loc 1 119 0
 392 004a 0820     		movs	r0, #8
 393 004c FFF7FEFF 		bl	UART_SpiUartWriteTxData
 394              	.LVL46:
 120:main.c        ****                 UART_UartPutChar(' ');
 395              		.loc 1 120 0
 396 0050 2020     		movs	r0, #32
 397 0052 FFF7FEFF 		bl	UART_SpiUartWriteTxData
 398              	.LVL47:
 121:main.c        ****                 UART_UartPutChar('\b');
 399              		.loc 1 121 0
 400 0056 0820     		movs	r0, #8
 401 0058 FFF7FEFF 		bl	UART_SpiUartWriteTxData
 402              	.LVL48:
 122:main.c        ****                 if(index != 0){
 403              		.loc 1 122 0
 404 005c 002F     		cmp	r7, #0
 405 005e DCD0     		beq	.L32
 123:main.c        ****                     command[index] = '\0';
 406              		.loc 1 123 0
 407 0060 01AB     		add	r3, sp, #4
 408 0062 0022     		movs	r2, #0
 409 0064 DA55     		strb	r2, [r3, r7]
 124:main.c        ****                     command[index-1] = '\0';
 410              		.loc 1 124 0
 411 0066 013F     		subs	r7, r7, #1
 412 0068 DA55     		strb	r2, [r3, r7]
 413              	.LVL49:
 414 006a D6E7     		b	.L32
 415              	.LVL50:
 416              	.L33:
 125:main.c        ****                     index--;
 126:main.c        ****                 }
 127:main.c        ****             }
 128:main.c        ****         }
 129:main.c        ****         else if(input == 0x0D){
 417              		.loc 1 129 0
 418 006c 0D2E     		cmp	r6, #13
 419 006e 12D1     		bne	.L36
 420              	.LBB6:
 130:main.c        ****             UART_UartPutString("\r\n");
 421              		.loc 1 130 0
 422 0070 1148     		ldr	r0, .L40+4
 423 0072 FFF7FEFF 		bl	UART_UartPutString
 424              	.LVL51:
 131:main.c        ****             char* pointer = command;
 132:main.c        ****             runCommand(pointer);
 425              		.loc 1 132 0
 426 0076 01A8     		add	r0, sp, #4
 427              	.LVL52:
 428 0078 FFF7FEFF 		bl	runCommand
 429              	.LVL53:
 430              	.LBB7:
 133:main.c        ****             for(int i = 0; i < 16; i++){
 431              		.loc 1 133 0
 432 007c 0023     		movs	r3, #0
ARM GAS  C:\Users\HELLOK~1.1\AppData\Local\Temp\cc17Mr4p.s 			page 11


 433 007e 03E0     		b	.L37
 434              	.LVL54:
 435              	.L38:
 134:main.c        ****                 command[i] = '\0';
 436              		.loc 1 134 0 discriminator 3
 437 0080 0021     		movs	r1, #0
 438 0082 01AA     		add	r2, sp, #4
 439              	.LVL55:
 440 0084 D154     		strb	r1, [r2, r3]
 133:main.c        ****             for(int i = 0; i < 16; i++){
 441              		.loc 1 133 0 discriminator 3
 442 0086 0133     		adds	r3, r3, #1
 443              	.LVL56:
 444              	.L37:
 133:main.c        ****             for(int i = 0; i < 16; i++){
 445              		.loc 1 133 0 is_stmt 0 discriminator 1
 446 0088 0F2B     		cmp	r3, #15
 447 008a F9DD     		ble	.L38
 448              	.LBE7:
 135:main.c        ****             }
 136:main.c        ****             command[16] = '\0';
 449              		.loc 1 136 0 is_stmt 1
 450 008c 0022     		movs	r2, #0
 451 008e 01AB     		add	r3, sp, #4
 452              	.LVL57:
 453 0090 1A74     		strb	r2, [r3, #16]
 454              	.LVL58:
 137:main.c        ****             index = 0;
 455              		.loc 1 137 0
 456 0092 0027     		movs	r7, #0
 457              	.LBE6:
 458 0094 C1E7     		b	.L32
 459              	.LVL59:
 460              	.L36:
 138:main.c        ****         }
 139:main.c        ****         else{
 140:main.c        ****             if(index == 16){
 461              		.loc 1 140 0
 462 0096 102F     		cmp	r7, #16
 463 0098 03D1     		bne	.L39
 141:main.c        ****                 UART_UartPutChar(0x07);
 464              		.loc 1 141 0
 465 009a 0720     		movs	r0, #7
 466 009c FFF7FEFF 		bl	UART_SpiUartWriteTxData
 467              	.LVL60:
 468 00a0 BBE7     		b	.L32
 469              	.L39:
 142:main.c        ****             }
 143:main.c        ****             else{
 144:main.c        ****                 UART_UartPutChar(input);
 470              		.loc 1 144 0
 471 00a2 FF20     		movs	r0, #255
 472 00a4 2840     		ands	r0, r5
 473 00a6 FFF7FEFF 		bl	UART_SpiUartWriteTxData
 474              	.LVL61:
 145:main.c        ****                 command[index++] = input;
 475              		.loc 1 145 0
ARM GAS  C:\Users\HELLOK~1.1\AppData\Local\Temp\cc17Mr4p.s 			page 12


 476 00aa 01AB     		add	r3, sp, #4
 477 00ac DE55     		strb	r6, [r3, r7]
 478 00ae 0137     		adds	r7, r7, #1
 479              	.LVL62:
 480 00b0 B3E7     		b	.L32
 481              	.L41:
 482 00b2 C046     		.align	2
 483              	.L40:
 484 00b4 00000000 		.word	.LC0
 485 00b8 1C000000 		.word	.LC2
 486              	.LBE5:
 487              		.cfi_endproc
 488              	.LFE37:
 489              		.size	main, .-main
 490              		.section	.rodata.str1.4,"aMS",%progbits,1
 491              		.align	2
 492              	.LC0:
 493 0000 54797065 		.ascii	"Type a command please.\015\012\000"
 493      20612063 
 493      6F6D6D61 
 493      6E642070 
 493      6C656173 
 494 0019 000000   		.space	3
 495              	.LC2:
 496 001c 0D0A00   		.ascii	"\015\012\000"
 497              		.text
 498              	.Letext0:
 499              		.file 2 "Generated_Source\\PSoC4/Motor.h"
 500              		.file 3 "Generated_Source\\PSoC4/CyLib.h"
 501              		.file 4 "Generated_Source\\PSoC4/UART_SPI_UART.h"
 502              		.file 5 "Generated_Source\\PSoC4/UART.h"
 503              		.file 6 "Generated_Source\\PSoC4/cytypes.h"