ARM GAS  C:\Users\HELLOK~1\AppData\Local\Temp\ccoRRogI.s 			page 1


   1              		.syntax unified
   2              		.cpu cortex-m0
   3              		.fpu softvfp
   4              		.eabi_attribute 20, 1
   5              		.eabi_attribute 21, 1
   6              		.eabi_attribute 23, 3
   7              		.eabi_attribute 24, 1
   8              		.eabi_attribute 25, 1
   9              		.eabi_attribute 26, 1
  10              		.eabi_attribute 30, 1
  11              		.eabi_attribute 34, 0
  12              		.eabi_attribute 18, 4
  13              		.thumb
  14              		.syntax unified
  15              		.file	"LCD_Timer_ISR.c"
  16              		.text
  17              	.Ltext0:
  18              		.cfi_sections	.debug_frame
  19              		.section	.text.LCD_Timer_ISR_Interrupt,"ax",%progbits
  20              		.align	2
  21              		.global	LCD_Timer_ISR_Interrupt
  22              		.code	16
  23              		.thumb_func
  24              		.type	LCD_Timer_ISR_Interrupt, %function
  25              	LCD_Timer_ISR_Interrupt:
  26              	.LFB4:
  27              		.file 1 "Generated_Source\\PSoC4\\LCD_Timer_ISR.c"
   1:Generated_Source\PSoC4/LCD_Timer_ISR.c **** /*******************************************************************************
   2:Generated_Source\PSoC4/LCD_Timer_ISR.c **** * File Name: LCD_Timer_ISR.c  
   3:Generated_Source\PSoC4/LCD_Timer_ISR.c **** * Version 1.70
   4:Generated_Source\PSoC4/LCD_Timer_ISR.c **** *
   5:Generated_Source\PSoC4/LCD_Timer_ISR.c **** *  Description:
   6:Generated_Source\PSoC4/LCD_Timer_ISR.c **** *   API for controlling the state of an interrupt.
   7:Generated_Source\PSoC4/LCD_Timer_ISR.c **** *
   8:Generated_Source\PSoC4/LCD_Timer_ISR.c **** *
   9:Generated_Source\PSoC4/LCD_Timer_ISR.c **** *  Note:
  10:Generated_Source\PSoC4/LCD_Timer_ISR.c **** *
  11:Generated_Source\PSoC4/LCD_Timer_ISR.c **** ********************************************************************************
  12:Generated_Source\PSoC4/LCD_Timer_ISR.c **** * Copyright 2008-2015, Cypress Semiconductor Corporation.  All rights reserved.
  13:Generated_Source\PSoC4/LCD_Timer_ISR.c **** * You may use this file only in accordance with the license, terms, conditions, 
  14:Generated_Source\PSoC4/LCD_Timer_ISR.c **** * disclaimers, and limitations in the end user license agreement accompanying 
  15:Generated_Source\PSoC4/LCD_Timer_ISR.c **** * the software package with which this file was provided.
  16:Generated_Source\PSoC4/LCD_Timer_ISR.c **** *******************************************************************************/
  17:Generated_Source\PSoC4/LCD_Timer_ISR.c **** 
  18:Generated_Source\PSoC4/LCD_Timer_ISR.c **** 
  19:Generated_Source\PSoC4/LCD_Timer_ISR.c **** #include <cydevice_trm.h>
  20:Generated_Source\PSoC4/LCD_Timer_ISR.c **** #include <CyLib.h>
  21:Generated_Source\PSoC4/LCD_Timer_ISR.c **** #include <LCD_Timer_ISR.h>
  22:Generated_Source\PSoC4/LCD_Timer_ISR.c **** #include "cyapicallbacks.h"
  23:Generated_Source\PSoC4/LCD_Timer_ISR.c **** 
  24:Generated_Source\PSoC4/LCD_Timer_ISR.c **** #if !defined(LCD_Timer_ISR__REMOVED) /* Check for removal by optimization */
  25:Generated_Source\PSoC4/LCD_Timer_ISR.c **** 
  26:Generated_Source\PSoC4/LCD_Timer_ISR.c **** /*******************************************************************************
  27:Generated_Source\PSoC4/LCD_Timer_ISR.c **** *  Place your includes, defines and code here 
  28:Generated_Source\PSoC4/LCD_Timer_ISR.c **** ********************************************************************************/
  29:Generated_Source\PSoC4/LCD_Timer_ISR.c **** /* `#START LCD_Timer_ISR_intc` */
  30:Generated_Source\PSoC4/LCD_Timer_ISR.c **** #include "LCD_Timer.h"
ARM GAS  C:\Users\HELLOK~1\AppData\Local\Temp\ccoRRogI.s 			page 2


  31:Generated_Source\PSoC4/LCD_Timer_ISR.c **** extern volatile int barSync;
  32:Generated_Source\PSoC4/LCD_Timer_ISR.c **** /* `#END` */
  33:Generated_Source\PSoC4/LCD_Timer_ISR.c **** 
  34:Generated_Source\PSoC4/LCD_Timer_ISR.c **** extern cyisraddress CyRamVectors[CYINT_IRQ_BASE + CY_NUM_INTERRUPTS];
  35:Generated_Source\PSoC4/LCD_Timer_ISR.c **** 
  36:Generated_Source\PSoC4/LCD_Timer_ISR.c **** /* Declared in startup, used to set unused interrupts to. */
  37:Generated_Source\PSoC4/LCD_Timer_ISR.c **** CY_ISR_PROTO(IntDefaultHandler);
  38:Generated_Source\PSoC4/LCD_Timer_ISR.c **** 
  39:Generated_Source\PSoC4/LCD_Timer_ISR.c **** 
  40:Generated_Source\PSoC4/LCD_Timer_ISR.c **** /*******************************************************************************
  41:Generated_Source\PSoC4/LCD_Timer_ISR.c **** * Function Name: LCD_Timer_ISR_Start
  42:Generated_Source\PSoC4/LCD_Timer_ISR.c **** ********************************************************************************
  43:Generated_Source\PSoC4/LCD_Timer_ISR.c **** *
  44:Generated_Source\PSoC4/LCD_Timer_ISR.c **** * Summary:
  45:Generated_Source\PSoC4/LCD_Timer_ISR.c **** *  Set up the interrupt and enable it. This function disables the interrupt, 
  46:Generated_Source\PSoC4/LCD_Timer_ISR.c **** *  sets the default interrupt vector, sets the priority from the value in the
  47:Generated_Source\PSoC4/LCD_Timer_ISR.c **** *  Design Wide Resources Interrupt Editor, then enables the interrupt to the 
  48:Generated_Source\PSoC4/LCD_Timer_ISR.c **** *  interrupt controller.
  49:Generated_Source\PSoC4/LCD_Timer_ISR.c **** *
  50:Generated_Source\PSoC4/LCD_Timer_ISR.c **** * Parameters:  
  51:Generated_Source\PSoC4/LCD_Timer_ISR.c **** *   None
  52:Generated_Source\PSoC4/LCD_Timer_ISR.c **** *
  53:Generated_Source\PSoC4/LCD_Timer_ISR.c **** * Return:
  54:Generated_Source\PSoC4/LCD_Timer_ISR.c **** *   None
  55:Generated_Source\PSoC4/LCD_Timer_ISR.c **** *
  56:Generated_Source\PSoC4/LCD_Timer_ISR.c **** *******************************************************************************/
  57:Generated_Source\PSoC4/LCD_Timer_ISR.c **** void LCD_Timer_ISR_Start(void)
  58:Generated_Source\PSoC4/LCD_Timer_ISR.c **** {
  59:Generated_Source\PSoC4/LCD_Timer_ISR.c ****     /* For all we know the interrupt is active. */
  60:Generated_Source\PSoC4/LCD_Timer_ISR.c ****     LCD_Timer_ISR_Disable();
  61:Generated_Source\PSoC4/LCD_Timer_ISR.c **** 
  62:Generated_Source\PSoC4/LCD_Timer_ISR.c ****     /* Set the ISR to point to the LCD_Timer_ISR Interrupt. */
  63:Generated_Source\PSoC4/LCD_Timer_ISR.c ****     LCD_Timer_ISR_SetVector(&LCD_Timer_ISR_Interrupt);
  64:Generated_Source\PSoC4/LCD_Timer_ISR.c **** 
  65:Generated_Source\PSoC4/LCD_Timer_ISR.c ****     /* Set the priority. */
  66:Generated_Source\PSoC4/LCD_Timer_ISR.c ****     LCD_Timer_ISR_SetPriority((uint8)LCD_Timer_ISR_INTC_PRIOR_NUMBER);
  67:Generated_Source\PSoC4/LCD_Timer_ISR.c **** 
  68:Generated_Source\PSoC4/LCD_Timer_ISR.c ****     /* Enable it. */
  69:Generated_Source\PSoC4/LCD_Timer_ISR.c ****     LCD_Timer_ISR_Enable();
  70:Generated_Source\PSoC4/LCD_Timer_ISR.c **** }
  71:Generated_Source\PSoC4/LCD_Timer_ISR.c **** 
  72:Generated_Source\PSoC4/LCD_Timer_ISR.c **** 
  73:Generated_Source\PSoC4/LCD_Timer_ISR.c **** /*******************************************************************************
  74:Generated_Source\PSoC4/LCD_Timer_ISR.c **** * Function Name: LCD_Timer_ISR_StartEx
  75:Generated_Source\PSoC4/LCD_Timer_ISR.c **** ********************************************************************************
  76:Generated_Source\PSoC4/LCD_Timer_ISR.c **** *
  77:Generated_Source\PSoC4/LCD_Timer_ISR.c **** * Summary:
  78:Generated_Source\PSoC4/LCD_Timer_ISR.c **** *  Sets up the interrupt and enables it. This function disables the interrupt,
  79:Generated_Source\PSoC4/LCD_Timer_ISR.c **** *  sets the interrupt vector based on the address passed in, sets the priority 
  80:Generated_Source\PSoC4/LCD_Timer_ISR.c **** *  from the value in the Design Wide Resources Interrupt Editor, then enables 
  81:Generated_Source\PSoC4/LCD_Timer_ISR.c **** *  the interrupt to the interrupt controller.
  82:Generated_Source\PSoC4/LCD_Timer_ISR.c **** *  
  83:Generated_Source\PSoC4/LCD_Timer_ISR.c **** *  When defining ISR functions, the CY_ISR and CY_ISR_PROTO macros should be 
  84:Generated_Source\PSoC4/LCD_Timer_ISR.c **** *  used to provide consistent definition across compilers:
  85:Generated_Source\PSoC4/LCD_Timer_ISR.c **** *  
  86:Generated_Source\PSoC4/LCD_Timer_ISR.c **** *  Function definition example:
  87:Generated_Source\PSoC4/LCD_Timer_ISR.c **** *   CY_ISR(MyISR)
ARM GAS  C:\Users\HELLOK~1\AppData\Local\Temp\ccoRRogI.s 			page 3


  88:Generated_Source\PSoC4/LCD_Timer_ISR.c **** *   {
  89:Generated_Source\PSoC4/LCD_Timer_ISR.c **** *   }
  90:Generated_Source\PSoC4/LCD_Timer_ISR.c **** *   Function prototype example:
  91:Generated_Source\PSoC4/LCD_Timer_ISR.c **** *   CY_ISR_PROTO(MyISR);
  92:Generated_Source\PSoC4/LCD_Timer_ISR.c **** *
  93:Generated_Source\PSoC4/LCD_Timer_ISR.c **** * Parameters:  
  94:Generated_Source\PSoC4/LCD_Timer_ISR.c **** *   address: Address of the ISR to set in the interrupt vector table.
  95:Generated_Source\PSoC4/LCD_Timer_ISR.c **** *
  96:Generated_Source\PSoC4/LCD_Timer_ISR.c **** * Return:
  97:Generated_Source\PSoC4/LCD_Timer_ISR.c **** *   None
  98:Generated_Source\PSoC4/LCD_Timer_ISR.c **** *
  99:Generated_Source\PSoC4/LCD_Timer_ISR.c **** *******************************************************************************/
 100:Generated_Source\PSoC4/LCD_Timer_ISR.c **** void LCD_Timer_ISR_StartEx(cyisraddress address)
 101:Generated_Source\PSoC4/LCD_Timer_ISR.c **** {
 102:Generated_Source\PSoC4/LCD_Timer_ISR.c ****     /* For all we know the interrupt is active. */
 103:Generated_Source\PSoC4/LCD_Timer_ISR.c ****     LCD_Timer_ISR_Disable();
 104:Generated_Source\PSoC4/LCD_Timer_ISR.c **** 
 105:Generated_Source\PSoC4/LCD_Timer_ISR.c ****     /* Set the ISR to point to the LCD_Timer_ISR Interrupt. */
 106:Generated_Source\PSoC4/LCD_Timer_ISR.c ****     LCD_Timer_ISR_SetVector(address);
 107:Generated_Source\PSoC4/LCD_Timer_ISR.c **** 
 108:Generated_Source\PSoC4/LCD_Timer_ISR.c ****     /* Set the priority. */
 109:Generated_Source\PSoC4/LCD_Timer_ISR.c ****     LCD_Timer_ISR_SetPriority((uint8)LCD_Timer_ISR_INTC_PRIOR_NUMBER);
 110:Generated_Source\PSoC4/LCD_Timer_ISR.c **** 
 111:Generated_Source\PSoC4/LCD_Timer_ISR.c ****     /* Enable it. */
 112:Generated_Source\PSoC4/LCD_Timer_ISR.c ****     LCD_Timer_ISR_Enable();
 113:Generated_Source\PSoC4/LCD_Timer_ISR.c **** }
 114:Generated_Source\PSoC4/LCD_Timer_ISR.c **** 
 115:Generated_Source\PSoC4/LCD_Timer_ISR.c **** 
 116:Generated_Source\PSoC4/LCD_Timer_ISR.c **** /*******************************************************************************
 117:Generated_Source\PSoC4/LCD_Timer_ISR.c **** * Function Name: LCD_Timer_ISR_Stop
 118:Generated_Source\PSoC4/LCD_Timer_ISR.c **** ********************************************************************************
 119:Generated_Source\PSoC4/LCD_Timer_ISR.c **** *
 120:Generated_Source\PSoC4/LCD_Timer_ISR.c **** * Summary:
 121:Generated_Source\PSoC4/LCD_Timer_ISR.c **** *   Disables and removes the interrupt.
 122:Generated_Source\PSoC4/LCD_Timer_ISR.c **** *
 123:Generated_Source\PSoC4/LCD_Timer_ISR.c **** * Parameters:  
 124:Generated_Source\PSoC4/LCD_Timer_ISR.c **** *   None
 125:Generated_Source\PSoC4/LCD_Timer_ISR.c **** *
 126:Generated_Source\PSoC4/LCD_Timer_ISR.c **** * Return:
 127:Generated_Source\PSoC4/LCD_Timer_ISR.c **** *   None
 128:Generated_Source\PSoC4/LCD_Timer_ISR.c **** *
 129:Generated_Source\PSoC4/LCD_Timer_ISR.c **** *******************************************************************************/
 130:Generated_Source\PSoC4/LCD_Timer_ISR.c **** void LCD_Timer_ISR_Stop(void)
 131:Generated_Source\PSoC4/LCD_Timer_ISR.c **** {
 132:Generated_Source\PSoC4/LCD_Timer_ISR.c ****     /* Disable this interrupt. */
 133:Generated_Source\PSoC4/LCD_Timer_ISR.c ****     LCD_Timer_ISR_Disable();
 134:Generated_Source\PSoC4/LCD_Timer_ISR.c **** 
 135:Generated_Source\PSoC4/LCD_Timer_ISR.c ****     /* Set the ISR to point to the passive one. */
 136:Generated_Source\PSoC4/LCD_Timer_ISR.c ****     LCD_Timer_ISR_SetVector(&IntDefaultHandler);
 137:Generated_Source\PSoC4/LCD_Timer_ISR.c **** }
 138:Generated_Source\PSoC4/LCD_Timer_ISR.c **** 
 139:Generated_Source\PSoC4/LCD_Timer_ISR.c **** 
 140:Generated_Source\PSoC4/LCD_Timer_ISR.c **** /*******************************************************************************
 141:Generated_Source\PSoC4/LCD_Timer_ISR.c **** * Function Name: LCD_Timer_ISR_Interrupt
 142:Generated_Source\PSoC4/LCD_Timer_ISR.c **** ********************************************************************************
 143:Generated_Source\PSoC4/LCD_Timer_ISR.c **** *
 144:Generated_Source\PSoC4/LCD_Timer_ISR.c **** * Summary:
ARM GAS  C:\Users\HELLOK~1\AppData\Local\Temp\ccoRRogI.s 			page 4


 145:Generated_Source\PSoC4/LCD_Timer_ISR.c **** *   The default Interrupt Service Routine for LCD_Timer_ISR.
 146:Generated_Source\PSoC4/LCD_Timer_ISR.c **** *
 147:Generated_Source\PSoC4/LCD_Timer_ISR.c **** *   Add custom code between the START and END comments to keep the next version
 148:Generated_Source\PSoC4/LCD_Timer_ISR.c **** *   of this file from over-writing your code.
 149:Generated_Source\PSoC4/LCD_Timer_ISR.c **** *
 150:Generated_Source\PSoC4/LCD_Timer_ISR.c **** *   Note You may use either the default ISR by using this API, or you may define
 151:Generated_Source\PSoC4/LCD_Timer_ISR.c **** *   your own separate ISR through ISR_StartEx().
 152:Generated_Source\PSoC4/LCD_Timer_ISR.c **** *
 153:Generated_Source\PSoC4/LCD_Timer_ISR.c **** * Parameters:  
 154:Generated_Source\PSoC4/LCD_Timer_ISR.c **** *   None
 155:Generated_Source\PSoC4/LCD_Timer_ISR.c **** *
 156:Generated_Source\PSoC4/LCD_Timer_ISR.c **** * Return:
 157:Generated_Source\PSoC4/LCD_Timer_ISR.c **** *   None
 158:Generated_Source\PSoC4/LCD_Timer_ISR.c **** *
 159:Generated_Source\PSoC4/LCD_Timer_ISR.c **** *******************************************************************************/
 160:Generated_Source\PSoC4/LCD_Timer_ISR.c **** CY_ISR(LCD_Timer_ISR_Interrupt)
 161:Generated_Source\PSoC4/LCD_Timer_ISR.c **** {
  28              		.loc 1 161 0
  29              		.cfi_startproc
  30              		@ args = 0, pretend = 0, frame = 0
  31              		@ frame_needed = 0, uses_anonymous_args = 0
  32 0000 10B5     		push	{r4, lr}
  33              		.cfi_def_cfa_offset 8
  34              		.cfi_offset 4, -8
  35              		.cfi_offset 14, -4
 162:Generated_Source\PSoC4/LCD_Timer_ISR.c ****     #ifdef LCD_Timer_ISR_INTERRUPT_INTERRUPT_CALLBACK
 163:Generated_Source\PSoC4/LCD_Timer_ISR.c ****         LCD_Timer_ISR_Interrupt_InterruptCallback();
 164:Generated_Source\PSoC4/LCD_Timer_ISR.c ****     #endif /* LCD_Timer_ISR_INTERRUPT_INTERRUPT_CALLBACK */ 
 165:Generated_Source\PSoC4/LCD_Timer_ISR.c **** 
 166:Generated_Source\PSoC4/LCD_Timer_ISR.c ****     /*  Place your Interrupt code here. */
 167:Generated_Source\PSoC4/LCD_Timer_ISR.c ****     /* `#START LCD_Timer_ISR_Interrupt` */
 168:Generated_Source\PSoC4/LCD_Timer_ISR.c ****     LCD_Timer_ClearInterrupt(LCD_Timer_TC_INTERRUPT_MASK);
  36              		.loc 1 168 0
  37 0002 0120     		movs	r0, #1
  38 0004 FFF7FEFF 		bl	LCD_Timer_ClearInterrupt
  39              	.LVL0:
 169:Generated_Source\PSoC4/LCD_Timer_ISR.c ****     barSync = 1;
  40              		.loc 1 169 0
  41 0008 0122     		movs	r2, #1
  42 000a 014B     		ldr	r3, .L2
  43 000c 1A60     		str	r2, [r3]
 170:Generated_Source\PSoC4/LCD_Timer_ISR.c ****     
 171:Generated_Source\PSoC4/LCD_Timer_ISR.c ****     /* `#END` */
 172:Generated_Source\PSoC4/LCD_Timer_ISR.c **** }
  44              		.loc 1 172 0
  45              		@ sp needed
  46 000e 10BD     		pop	{r4, pc}
  47              	.L3:
  48              		.align	2
  49              	.L2:
  50 0010 00000000 		.word	barSync
  51              		.cfi_endproc
  52              	.LFE4:
  53              		.size	LCD_Timer_ISR_Interrupt, .-LCD_Timer_ISR_Interrupt
  54              		.section	.text.LCD_Timer_ISR_SetVector,"ax",%progbits
  55              		.align	2
  56              		.global	LCD_Timer_ISR_SetVector
ARM GAS  C:\Users\HELLOK~1\AppData\Local\Temp\ccoRRogI.s 			page 5


  57              		.code	16
  58              		.thumb_func
  59              		.type	LCD_Timer_ISR_SetVector, %function
  60              	LCD_Timer_ISR_SetVector:
  61              	.LFB5:
 173:Generated_Source\PSoC4/LCD_Timer_ISR.c **** 
 174:Generated_Source\PSoC4/LCD_Timer_ISR.c **** 
 175:Generated_Source\PSoC4/LCD_Timer_ISR.c **** /*******************************************************************************
 176:Generated_Source\PSoC4/LCD_Timer_ISR.c **** * Function Name: LCD_Timer_ISR_SetVector
 177:Generated_Source\PSoC4/LCD_Timer_ISR.c **** ********************************************************************************
 178:Generated_Source\PSoC4/LCD_Timer_ISR.c **** *
 179:Generated_Source\PSoC4/LCD_Timer_ISR.c **** * Summary:
 180:Generated_Source\PSoC4/LCD_Timer_ISR.c **** *   Change the ISR vector for the Interrupt. Note calling LCD_Timer_ISR_Start
 181:Generated_Source\PSoC4/LCD_Timer_ISR.c **** *   will override any effect this method would have had. To set the vector 
 182:Generated_Source\PSoC4/LCD_Timer_ISR.c **** *   before the component has been started use LCD_Timer_ISR_StartEx instead.
 183:Generated_Source\PSoC4/LCD_Timer_ISR.c **** * 
 184:Generated_Source\PSoC4/LCD_Timer_ISR.c **** *   When defining ISR functions, the CY_ISR and CY_ISR_PROTO macros should be 
 185:Generated_Source\PSoC4/LCD_Timer_ISR.c **** *   used to provide consistent definition across compilers:
 186:Generated_Source\PSoC4/LCD_Timer_ISR.c **** *
 187:Generated_Source\PSoC4/LCD_Timer_ISR.c **** *   Function definition example:
 188:Generated_Source\PSoC4/LCD_Timer_ISR.c **** *   CY_ISR(MyISR)
 189:Generated_Source\PSoC4/LCD_Timer_ISR.c **** *   {
 190:Generated_Source\PSoC4/LCD_Timer_ISR.c **** *   }
 191:Generated_Source\PSoC4/LCD_Timer_ISR.c **** *
 192:Generated_Source\PSoC4/LCD_Timer_ISR.c **** *   Function prototype example:
 193:Generated_Source\PSoC4/LCD_Timer_ISR.c **** *     CY_ISR_PROTO(MyISR);
 194:Generated_Source\PSoC4/LCD_Timer_ISR.c **** *
 195:Generated_Source\PSoC4/LCD_Timer_ISR.c **** * Parameters:
 196:Generated_Source\PSoC4/LCD_Timer_ISR.c **** *   address: Address of the ISR to set in the interrupt vector table.
 197:Generated_Source\PSoC4/LCD_Timer_ISR.c **** *
 198:Generated_Source\PSoC4/LCD_Timer_ISR.c **** * Return:
 199:Generated_Source\PSoC4/LCD_Timer_ISR.c **** *   None
 200:Generated_Source\PSoC4/LCD_Timer_ISR.c **** *
 201:Generated_Source\PSoC4/LCD_Timer_ISR.c **** *******************************************************************************/
 202:Generated_Source\PSoC4/LCD_Timer_ISR.c **** void LCD_Timer_ISR_SetVector(cyisraddress address)
 203:Generated_Source\PSoC4/LCD_Timer_ISR.c **** {
  62              		.loc 1 203 0
  63              		.cfi_startproc
  64              		@ args = 0, pretend = 0, frame = 0
  65              		@ frame_needed = 0, uses_anonymous_args = 0
  66              		@ link register save eliminated.
  67              	.LVL1:
 204:Generated_Source\PSoC4/LCD_Timer_ISR.c ****     CyRamVectors[CYINT_IRQ_BASE + LCD_Timer_ISR__INTC_NUMBER] = address;
  68              		.loc 1 204 0
  69 0000 8C23     		movs	r3, #140
  70 0002 014A     		ldr	r2, .L5
  71 0004 D050     		str	r0, [r2, r3]
 205:Generated_Source\PSoC4/LCD_Timer_ISR.c **** }
  72              		.loc 1 205 0
  73              		@ sp needed
  74 0006 7047     		bx	lr
  75              	.L6:
  76              		.align	2
  77              	.L5:
  78 0008 00000000 		.word	CyRamVectors
  79              		.cfi_endproc
  80              	.LFE5:
ARM GAS  C:\Users\HELLOK~1\AppData\Local\Temp\ccoRRogI.s 			page 6


  81              		.size	LCD_Timer_ISR_SetVector, .-LCD_Timer_ISR_SetVector
  82              		.section	.text.LCD_Timer_ISR_GetVector,"ax",%progbits
  83              		.align	2
  84              		.global	LCD_Timer_ISR_GetVector
  85              		.code	16
  86              		.thumb_func
  87              		.type	LCD_Timer_ISR_GetVector, %function
  88              	LCD_Timer_ISR_GetVector:
  89              	.LFB6:
 206:Generated_Source\PSoC4/LCD_Timer_ISR.c **** 
 207:Generated_Source\PSoC4/LCD_Timer_ISR.c **** 
 208:Generated_Source\PSoC4/LCD_Timer_ISR.c **** /*******************************************************************************
 209:Generated_Source\PSoC4/LCD_Timer_ISR.c **** * Function Name: LCD_Timer_ISR_GetVector
 210:Generated_Source\PSoC4/LCD_Timer_ISR.c **** ********************************************************************************
 211:Generated_Source\PSoC4/LCD_Timer_ISR.c **** *
 212:Generated_Source\PSoC4/LCD_Timer_ISR.c **** * Summary:
 213:Generated_Source\PSoC4/LCD_Timer_ISR.c **** *   Gets the "address" of the current ISR vector for the Interrupt.
 214:Generated_Source\PSoC4/LCD_Timer_ISR.c **** *
 215:Generated_Source\PSoC4/LCD_Timer_ISR.c **** * Parameters:
 216:Generated_Source\PSoC4/LCD_Timer_ISR.c **** *   None
 217:Generated_Source\PSoC4/LCD_Timer_ISR.c **** *
 218:Generated_Source\PSoC4/LCD_Timer_ISR.c **** * Return:
 219:Generated_Source\PSoC4/LCD_Timer_ISR.c **** *   Address of the ISR in the interrupt vector table.
 220:Generated_Source\PSoC4/LCD_Timer_ISR.c **** *
 221:Generated_Source\PSoC4/LCD_Timer_ISR.c **** *******************************************************************************/
 222:Generated_Source\PSoC4/LCD_Timer_ISR.c **** cyisraddress LCD_Timer_ISR_GetVector(void)
 223:Generated_Source\PSoC4/LCD_Timer_ISR.c **** {
  90              		.loc 1 223 0
  91              		.cfi_startproc
  92              		@ args = 0, pretend = 0, frame = 0
  93              		@ frame_needed = 0, uses_anonymous_args = 0
  94              		@ link register save eliminated.
 224:Generated_Source\PSoC4/LCD_Timer_ISR.c ****     return CyRamVectors[CYINT_IRQ_BASE + LCD_Timer_ISR__INTC_NUMBER];
  95              		.loc 1 224 0
  96 0000 8C23     		movs	r3, #140
  97 0002 014A     		ldr	r2, .L8
  98 0004 D058     		ldr	r0, [r2, r3]
 225:Generated_Source\PSoC4/LCD_Timer_ISR.c **** }
  99              		.loc 1 225 0
 100              		@ sp needed
 101 0006 7047     		bx	lr
 102              	.L9:
 103              		.align	2
 104              	.L8:
 105 0008 00000000 		.word	CyRamVectors
 106              		.cfi_endproc
 107              	.LFE6:
 108              		.size	LCD_Timer_ISR_GetVector, .-LCD_Timer_ISR_GetVector
 109              		.section	.text.LCD_Timer_ISR_SetPriority,"ax",%progbits
 110              		.align	2
 111              		.global	LCD_Timer_ISR_SetPriority
 112              		.code	16
 113              		.thumb_func
 114              		.type	LCD_Timer_ISR_SetPriority, %function
 115              	LCD_Timer_ISR_SetPriority:
 116              	.LFB7:
 226:Generated_Source\PSoC4/LCD_Timer_ISR.c **** 
ARM GAS  C:\Users\HELLOK~1\AppData\Local\Temp\ccoRRogI.s 			page 7


 227:Generated_Source\PSoC4/LCD_Timer_ISR.c **** 
 228:Generated_Source\PSoC4/LCD_Timer_ISR.c **** /*******************************************************************************
 229:Generated_Source\PSoC4/LCD_Timer_ISR.c **** * Function Name: LCD_Timer_ISR_SetPriority
 230:Generated_Source\PSoC4/LCD_Timer_ISR.c **** ********************************************************************************
 231:Generated_Source\PSoC4/LCD_Timer_ISR.c **** *
 232:Generated_Source\PSoC4/LCD_Timer_ISR.c **** * Summary:
 233:Generated_Source\PSoC4/LCD_Timer_ISR.c **** *   Sets the Priority of the Interrupt. 
 234:Generated_Source\PSoC4/LCD_Timer_ISR.c **** *
 235:Generated_Source\PSoC4/LCD_Timer_ISR.c **** *   Note calling LCD_Timer_ISR_Start or LCD_Timer_ISR_StartEx will 
 236:Generated_Source\PSoC4/LCD_Timer_ISR.c **** *   override any effect this API would have had. This API should only be called
 237:Generated_Source\PSoC4/LCD_Timer_ISR.c **** *   after LCD_Timer_ISR_Start or LCD_Timer_ISR_StartEx has been called. 
 238:Generated_Source\PSoC4/LCD_Timer_ISR.c **** *   To set the initial priority for the component, use the Design-Wide Resources
 239:Generated_Source\PSoC4/LCD_Timer_ISR.c **** *   Interrupt Editor.
 240:Generated_Source\PSoC4/LCD_Timer_ISR.c **** *
 241:Generated_Source\PSoC4/LCD_Timer_ISR.c **** *   Note This API has no effect on Non-maskable interrupt NMI).
 242:Generated_Source\PSoC4/LCD_Timer_ISR.c **** *
 243:Generated_Source\PSoC4/LCD_Timer_ISR.c **** * Parameters:
 244:Generated_Source\PSoC4/LCD_Timer_ISR.c **** *   priority: Priority of the interrupt, 0 being the highest priority
 245:Generated_Source\PSoC4/LCD_Timer_ISR.c **** *             PSoC 3 and PSoC 5LP: Priority is from 0 to 7.
 246:Generated_Source\PSoC4/LCD_Timer_ISR.c **** *             PSoC 4: Priority is from 0 to 3.
 247:Generated_Source\PSoC4/LCD_Timer_ISR.c **** *
 248:Generated_Source\PSoC4/LCD_Timer_ISR.c **** * Return:
 249:Generated_Source\PSoC4/LCD_Timer_ISR.c **** *   None
 250:Generated_Source\PSoC4/LCD_Timer_ISR.c **** *
 251:Generated_Source\PSoC4/LCD_Timer_ISR.c **** *******************************************************************************/
 252:Generated_Source\PSoC4/LCD_Timer_ISR.c **** void LCD_Timer_ISR_SetPriority(uint8 priority)
 253:Generated_Source\PSoC4/LCD_Timer_ISR.c **** {
 117              		.loc 1 253 0
 118              		.cfi_startproc
 119              		@ args = 0, pretend = 0, frame = 0
 120              		@ frame_needed = 0, uses_anonymous_args = 0
 121              	.LVL2:
 122 0000 10B5     		push	{r4, lr}
 123              		.cfi_def_cfa_offset 8
 124              		.cfi_offset 4, -8
 125              		.cfi_offset 14, -4
 126 0002 0400     		movs	r4, r0
 127              	.LVL3:
 254:Generated_Source\PSoC4/LCD_Timer_ISR.c **** 	uint8 interruptState;
 255:Generated_Source\PSoC4/LCD_Timer_ISR.c ****     uint32 priorityOffset = ((LCD_Timer_ISR__INTC_NUMBER % 4u) * 8u) + 6u;
 256:Generated_Source\PSoC4/LCD_Timer_ISR.c ****     
 257:Generated_Source\PSoC4/LCD_Timer_ISR.c **** 	interruptState = CyEnterCriticalSection();
 128              		.loc 1 257 0
 129 0004 FFF7FEFF 		bl	CyEnterCriticalSection
 130              	.LVL4:
 258:Generated_Source\PSoC4/LCD_Timer_ISR.c ****     *LCD_Timer_ISR_INTC_PRIOR = (*LCD_Timer_ISR_INTC_PRIOR & (uint32)(~LCD_Timer_ISR__INTC_PRIOR_MA
 131              		.loc 1 258 0
 132 0008 044A     		ldr	r2, .L11
 133 000a 1368     		ldr	r3, [r2]
 134 000c 9B00     		lsls	r3, r3, #2
 135 000e 9B08     		lsrs	r3, r3, #2
 259:Generated_Source\PSoC4/LCD_Timer_ISR.c ****                                     ((uint32)priority << priorityOffset);
 136              		.loc 1 259 0
 137 0010 A407     		lsls	r4, r4, #30
 258:Generated_Source\PSoC4/LCD_Timer_ISR.c ****     *LCD_Timer_ISR_INTC_PRIOR = (*LCD_Timer_ISR_INTC_PRIOR & (uint32)(~LCD_Timer_ISR__INTC_PRIOR_MA
 138              		.loc 1 258 0
 139 0012 1C43     		orrs	r4, r3
ARM GAS  C:\Users\HELLOK~1\AppData\Local\Temp\ccoRRogI.s 			page 8


 140 0014 1460     		str	r4, [r2]
 260:Generated_Source\PSoC4/LCD_Timer_ISR.c **** 	CyExitCriticalSection(interruptState);
 141              		.loc 1 260 0
 142 0016 FFF7FEFF 		bl	CyExitCriticalSection
 143              	.LVL5:
 261:Generated_Source\PSoC4/LCD_Timer_ISR.c **** }
 144              		.loc 1 261 0
 145              		@ sp needed
 146 001a 10BD     		pop	{r4, pc}
 147              	.L12:
 148              		.align	2
 149              	.L11:
 150 001c 10E400E0 		.word	-536812528
 151              		.cfi_endproc
 152              	.LFE7:
 153              		.size	LCD_Timer_ISR_SetPriority, .-LCD_Timer_ISR_SetPriority
 154              		.section	.text.LCD_Timer_ISR_GetPriority,"ax",%progbits
 155              		.align	2
 156              		.global	LCD_Timer_ISR_GetPriority
 157              		.code	16
 158              		.thumb_func
 159              		.type	LCD_Timer_ISR_GetPriority, %function
 160              	LCD_Timer_ISR_GetPriority:
 161              	.LFB8:
 262:Generated_Source\PSoC4/LCD_Timer_ISR.c **** 
 263:Generated_Source\PSoC4/LCD_Timer_ISR.c **** 
 264:Generated_Source\PSoC4/LCD_Timer_ISR.c **** /*******************************************************************************
 265:Generated_Source\PSoC4/LCD_Timer_ISR.c **** * Function Name: LCD_Timer_ISR_GetPriority
 266:Generated_Source\PSoC4/LCD_Timer_ISR.c **** ********************************************************************************
 267:Generated_Source\PSoC4/LCD_Timer_ISR.c **** *
 268:Generated_Source\PSoC4/LCD_Timer_ISR.c **** * Summary:
 269:Generated_Source\PSoC4/LCD_Timer_ISR.c **** *   Gets the Priority of the Interrupt.
 270:Generated_Source\PSoC4/LCD_Timer_ISR.c **** *
 271:Generated_Source\PSoC4/LCD_Timer_ISR.c **** * Parameters:
 272:Generated_Source\PSoC4/LCD_Timer_ISR.c **** *   None
 273:Generated_Source\PSoC4/LCD_Timer_ISR.c **** *
 274:Generated_Source\PSoC4/LCD_Timer_ISR.c **** * Return:
 275:Generated_Source\PSoC4/LCD_Timer_ISR.c **** *   Priority of the interrupt, 0 being the highest priority
 276:Generated_Source\PSoC4/LCD_Timer_ISR.c **** *    PSoC 3 and PSoC 5LP: Priority is from 0 to 7.
 277:Generated_Source\PSoC4/LCD_Timer_ISR.c **** *    PSoC 4: Priority is from 0 to 3.
 278:Generated_Source\PSoC4/LCD_Timer_ISR.c **** *
 279:Generated_Source\PSoC4/LCD_Timer_ISR.c **** *******************************************************************************/
 280:Generated_Source\PSoC4/LCD_Timer_ISR.c **** uint8 LCD_Timer_ISR_GetPriority(void)
 281:Generated_Source\PSoC4/LCD_Timer_ISR.c **** {
 162              		.loc 1 281 0
 163              		.cfi_startproc
 164              		@ args = 0, pretend = 0, frame = 0
 165              		@ frame_needed = 0, uses_anonymous_args = 0
 166              		@ link register save eliminated.
 167              	.LVL6:
 282:Generated_Source\PSoC4/LCD_Timer_ISR.c ****     uint32 priority;
 283:Generated_Source\PSoC4/LCD_Timer_ISR.c **** 	uint32 priorityOffset = ((LCD_Timer_ISR__INTC_NUMBER % 4u) * 8u) + 6u;
 284:Generated_Source\PSoC4/LCD_Timer_ISR.c **** 
 285:Generated_Source\PSoC4/LCD_Timer_ISR.c ****     priority = (*LCD_Timer_ISR_INTC_PRIOR & LCD_Timer_ISR__INTC_PRIOR_MASK) >> priorityOffset;
 168              		.loc 1 285 0
 169 0000 014B     		ldr	r3, .L14
 170 0002 1868     		ldr	r0, [r3]
ARM GAS  C:\Users\HELLOK~1\AppData\Local\Temp\ccoRRogI.s 			page 9


 171              	.LVL7:
 286:Generated_Source\PSoC4/LCD_Timer_ISR.c **** 
 287:Generated_Source\PSoC4/LCD_Timer_ISR.c ****     return (uint8)priority;
 172              		.loc 1 287 0
 173 0004 800F     		lsrs	r0, r0, #30
 174              	.LVL8:
 288:Generated_Source\PSoC4/LCD_Timer_ISR.c **** }
 175              		.loc 1 288 0
 176              		@ sp needed
 177 0006 7047     		bx	lr
 178              	.L15:
 179              		.align	2
 180              	.L14:
 181 0008 10E400E0 		.word	-536812528
 182              		.cfi_endproc
 183              	.LFE8:
 184              		.size	LCD_Timer_ISR_GetPriority, .-LCD_Timer_ISR_GetPriority
 185              		.section	.text.LCD_Timer_ISR_Enable,"ax",%progbits
 186              		.align	2
 187              		.global	LCD_Timer_ISR_Enable
 188              		.code	16
 189              		.thumb_func
 190              		.type	LCD_Timer_ISR_Enable, %function
 191              	LCD_Timer_ISR_Enable:
 192              	.LFB9:
 289:Generated_Source\PSoC4/LCD_Timer_ISR.c **** 
 290:Generated_Source\PSoC4/LCD_Timer_ISR.c **** 
 291:Generated_Source\PSoC4/LCD_Timer_ISR.c **** /*******************************************************************************
 292:Generated_Source\PSoC4/LCD_Timer_ISR.c **** * Function Name: LCD_Timer_ISR_Enable
 293:Generated_Source\PSoC4/LCD_Timer_ISR.c **** ********************************************************************************
 294:Generated_Source\PSoC4/LCD_Timer_ISR.c **** *
 295:Generated_Source\PSoC4/LCD_Timer_ISR.c **** * Summary:
 296:Generated_Source\PSoC4/LCD_Timer_ISR.c **** *   Enables the interrupt to the interrupt controller. Do not call this function
 297:Generated_Source\PSoC4/LCD_Timer_ISR.c **** *   unless ISR_Start() has been called or the functionality of the ISR_Start() 
 298:Generated_Source\PSoC4/LCD_Timer_ISR.c **** *   function, which sets the vector and the priority, has been called.
 299:Generated_Source\PSoC4/LCD_Timer_ISR.c **** *
 300:Generated_Source\PSoC4/LCD_Timer_ISR.c **** * Parameters:
 301:Generated_Source\PSoC4/LCD_Timer_ISR.c **** *   None
 302:Generated_Source\PSoC4/LCD_Timer_ISR.c **** *
 303:Generated_Source\PSoC4/LCD_Timer_ISR.c **** * Return:
 304:Generated_Source\PSoC4/LCD_Timer_ISR.c **** *   None
 305:Generated_Source\PSoC4/LCD_Timer_ISR.c **** *
 306:Generated_Source\PSoC4/LCD_Timer_ISR.c **** *******************************************************************************/
 307:Generated_Source\PSoC4/LCD_Timer_ISR.c **** void LCD_Timer_ISR_Enable(void)
 308:Generated_Source\PSoC4/LCD_Timer_ISR.c **** {
 193              		.loc 1 308 0
 194              		.cfi_startproc
 195              		@ args = 0, pretend = 0, frame = 0
 196              		@ frame_needed = 0, uses_anonymous_args = 0
 197              		@ link register save eliminated.
 309:Generated_Source\PSoC4/LCD_Timer_ISR.c ****     /* Enable the general interrupt. */
 310:Generated_Source\PSoC4/LCD_Timer_ISR.c ****     *LCD_Timer_ISR_INTC_SET_EN = LCD_Timer_ISR__INTC_MASK;
 198              		.loc 1 310 0
 199 0000 8022     		movs	r2, #128
 200 0002 1203     		lsls	r2, r2, #12
 201 0004 014B     		ldr	r3, .L17
 202 0006 1A60     		str	r2, [r3]
ARM GAS  C:\Users\HELLOK~1\AppData\Local\Temp\ccoRRogI.s 			page 10


 311:Generated_Source\PSoC4/LCD_Timer_ISR.c **** }
 203              		.loc 1 311 0
 204              		@ sp needed
 205 0008 7047     		bx	lr
 206              	.L18:
 207 000a C046     		.align	2
 208              	.L17:
 209 000c 00E100E0 		.word	-536813312
 210              		.cfi_endproc
 211              	.LFE9:
 212              		.size	LCD_Timer_ISR_Enable, .-LCD_Timer_ISR_Enable
 213              		.section	.text.LCD_Timer_ISR_GetState,"ax",%progbits
 214              		.align	2
 215              		.global	LCD_Timer_ISR_GetState
 216              		.code	16
 217              		.thumb_func
 218              		.type	LCD_Timer_ISR_GetState, %function
 219              	LCD_Timer_ISR_GetState:
 220              	.LFB10:
 312:Generated_Source\PSoC4/LCD_Timer_ISR.c **** 
 313:Generated_Source\PSoC4/LCD_Timer_ISR.c **** 
 314:Generated_Source\PSoC4/LCD_Timer_ISR.c **** /*******************************************************************************
 315:Generated_Source\PSoC4/LCD_Timer_ISR.c **** * Function Name: LCD_Timer_ISR_GetState
 316:Generated_Source\PSoC4/LCD_Timer_ISR.c **** ********************************************************************************
 317:Generated_Source\PSoC4/LCD_Timer_ISR.c **** *
 318:Generated_Source\PSoC4/LCD_Timer_ISR.c **** * Summary:
 319:Generated_Source\PSoC4/LCD_Timer_ISR.c **** *   Gets the state (enabled, disabled) of the Interrupt.
 320:Generated_Source\PSoC4/LCD_Timer_ISR.c **** *
 321:Generated_Source\PSoC4/LCD_Timer_ISR.c **** * Parameters:
 322:Generated_Source\PSoC4/LCD_Timer_ISR.c **** *   None
 323:Generated_Source\PSoC4/LCD_Timer_ISR.c **** *
 324:Generated_Source\PSoC4/LCD_Timer_ISR.c **** * Return:
 325:Generated_Source\PSoC4/LCD_Timer_ISR.c **** *   1 if enabled, 0 if disabled.
 326:Generated_Source\PSoC4/LCD_Timer_ISR.c **** *
 327:Generated_Source\PSoC4/LCD_Timer_ISR.c **** *******************************************************************************/
 328:Generated_Source\PSoC4/LCD_Timer_ISR.c **** uint8 LCD_Timer_ISR_GetState(void)
 329:Generated_Source\PSoC4/LCD_Timer_ISR.c **** {
 221              		.loc 1 329 0
 222              		.cfi_startproc
 223              		@ args = 0, pretend = 0, frame = 0
 224              		@ frame_needed = 0, uses_anonymous_args = 0
 225              		@ link register save eliminated.
 330:Generated_Source\PSoC4/LCD_Timer_ISR.c ****     /* Get the state of the general interrupt. */
 331:Generated_Source\PSoC4/LCD_Timer_ISR.c ****     return ((*LCD_Timer_ISR_INTC_SET_EN & (uint32)LCD_Timer_ISR__INTC_MASK) != 0u) ? 1u:0u;
 226              		.loc 1 331 0
 227 0000 034B     		ldr	r3, .L22
 228 0002 1B68     		ldr	r3, [r3]
 229 0004 1B03     		lsls	r3, r3, #12
 230 0006 01D5     		bpl	.L21
 231 0008 0120     		movs	r0, #1
 232 000a 00E0     		b	.L20
 233              	.L21:
 234 000c 0020     		movs	r0, #0
 235              	.L20:
 332:Generated_Source\PSoC4/LCD_Timer_ISR.c **** }
 236              		.loc 1 332 0 discriminator 4
 237              		@ sp needed
ARM GAS  C:\Users\HELLOK~1\AppData\Local\Temp\ccoRRogI.s 			page 11


 238 000e 7047     		bx	lr
 239              	.L23:
 240              		.align	2
 241              	.L22:
 242 0010 00E100E0 		.word	-536813312
 243              		.cfi_endproc
 244              	.LFE10:
 245              		.size	LCD_Timer_ISR_GetState, .-LCD_Timer_ISR_GetState
 246              		.section	.text.LCD_Timer_ISR_Disable,"ax",%progbits
 247              		.align	2
 248              		.global	LCD_Timer_ISR_Disable
 249              		.code	16
 250              		.thumb_func
 251              		.type	LCD_Timer_ISR_Disable, %function
 252              	LCD_Timer_ISR_Disable:
 253              	.LFB11:
 333:Generated_Source\PSoC4/LCD_Timer_ISR.c **** 
 334:Generated_Source\PSoC4/LCD_Timer_ISR.c **** 
 335:Generated_Source\PSoC4/LCD_Timer_ISR.c **** /*******************************************************************************
 336:Generated_Source\PSoC4/LCD_Timer_ISR.c **** * Function Name: LCD_Timer_ISR_Disable
 337:Generated_Source\PSoC4/LCD_Timer_ISR.c **** ********************************************************************************
 338:Generated_Source\PSoC4/LCD_Timer_ISR.c **** *
 339:Generated_Source\PSoC4/LCD_Timer_ISR.c **** * Summary:
 340:Generated_Source\PSoC4/LCD_Timer_ISR.c **** *   Disables the Interrupt in the interrupt controller.
 341:Generated_Source\PSoC4/LCD_Timer_ISR.c **** *
 342:Generated_Source\PSoC4/LCD_Timer_ISR.c **** * Parameters:
 343:Generated_Source\PSoC4/LCD_Timer_ISR.c **** *   None
 344:Generated_Source\PSoC4/LCD_Timer_ISR.c **** *
 345:Generated_Source\PSoC4/LCD_Timer_ISR.c **** * Return:
 346:Generated_Source\PSoC4/LCD_Timer_ISR.c **** *   None
 347:Generated_Source\PSoC4/LCD_Timer_ISR.c **** *
 348:Generated_Source\PSoC4/LCD_Timer_ISR.c **** *******************************************************************************/
 349:Generated_Source\PSoC4/LCD_Timer_ISR.c **** void LCD_Timer_ISR_Disable(void)
 350:Generated_Source\PSoC4/LCD_Timer_ISR.c **** {
 254              		.loc 1 350 0
 255              		.cfi_startproc
 256              		@ args = 0, pretend = 0, frame = 0
 257              		@ frame_needed = 0, uses_anonymous_args = 0
 258              		@ link register save eliminated.
 351:Generated_Source\PSoC4/LCD_Timer_ISR.c ****     /* Disable the general interrupt. */
 352:Generated_Source\PSoC4/LCD_Timer_ISR.c ****     *LCD_Timer_ISR_INTC_CLR_EN = LCD_Timer_ISR__INTC_MASK;
 259              		.loc 1 352 0
 260 0000 8022     		movs	r2, #128
 261 0002 1203     		lsls	r2, r2, #12
 262 0004 014B     		ldr	r3, .L25
 263 0006 1A60     		str	r2, [r3]
 353:Generated_Source\PSoC4/LCD_Timer_ISR.c **** }
 264              		.loc 1 353 0
 265              		@ sp needed
 266 0008 7047     		bx	lr
 267              	.L26:
 268 000a C046     		.align	2
 269              	.L25:
 270 000c 80E100E0 		.word	-536813184
 271              		.cfi_endproc
 272              	.LFE11:
 273              		.size	LCD_Timer_ISR_Disable, .-LCD_Timer_ISR_Disable
ARM GAS  C:\Users\HELLOK~1\AppData\Local\Temp\ccoRRogI.s 			page 12


 274              		.section	.text.LCD_Timer_ISR_Start,"ax",%progbits
 275              		.align	2
 276              		.global	LCD_Timer_ISR_Start
 277              		.code	16
 278              		.thumb_func
 279              		.type	LCD_Timer_ISR_Start, %function
 280              	LCD_Timer_ISR_Start:
 281              	.LFB1:
  58:Generated_Source\PSoC4/LCD_Timer_ISR.c ****     /* For all we know the interrupt is active. */
 282              		.loc 1 58 0
 283              		.cfi_startproc
 284              		@ args = 0, pretend = 0, frame = 0
 285              		@ frame_needed = 0, uses_anonymous_args = 0
 286 0000 10B5     		push	{r4, lr}
 287              		.cfi_def_cfa_offset 8
 288              		.cfi_offset 4, -8
 289              		.cfi_offset 14, -4
  60:Generated_Source\PSoC4/LCD_Timer_ISR.c **** 
 290              		.loc 1 60 0
 291 0002 FFF7FEFF 		bl	LCD_Timer_ISR_Disable
 292              	.LVL9:
  63:Generated_Source\PSoC4/LCD_Timer_ISR.c **** 
 293              		.loc 1 63 0
 294 0006 0448     		ldr	r0, .L28
 295 0008 FFF7FEFF 		bl	LCD_Timer_ISR_SetVector
 296              	.LVL10:
  66:Generated_Source\PSoC4/LCD_Timer_ISR.c **** 
 297              		.loc 1 66 0
 298 000c 0320     		movs	r0, #3
 299 000e FFF7FEFF 		bl	LCD_Timer_ISR_SetPriority
 300              	.LVL11:
  69:Generated_Source\PSoC4/LCD_Timer_ISR.c **** }
 301              		.loc 1 69 0
 302 0012 FFF7FEFF 		bl	LCD_Timer_ISR_Enable
 303              	.LVL12:
  70:Generated_Source\PSoC4/LCD_Timer_ISR.c **** 
 304              		.loc 1 70 0
 305              		@ sp needed
 306 0016 10BD     		pop	{r4, pc}
 307              	.L29:
 308              		.align	2
 309              	.L28:
 310 0018 00000000 		.word	LCD_Timer_ISR_Interrupt
 311              		.cfi_endproc
 312              	.LFE1:
 313              		.size	LCD_Timer_ISR_Start, .-LCD_Timer_ISR_Start
 314              		.section	.text.LCD_Timer_ISR_StartEx,"ax",%progbits
 315              		.align	2
 316              		.global	LCD_Timer_ISR_StartEx
 317              		.code	16
 318              		.thumb_func
 319              		.type	LCD_Timer_ISR_StartEx, %function
 320              	LCD_Timer_ISR_StartEx:
 321              	.LFB2:
 101:Generated_Source\PSoC4/LCD_Timer_ISR.c ****     /* For all we know the interrupt is active. */
 322              		.loc 1 101 0
 323              		.cfi_startproc
ARM GAS  C:\Users\HELLOK~1\AppData\Local\Temp\ccoRRogI.s 			page 13


 324              		@ args = 0, pretend = 0, frame = 0
 325              		@ frame_needed = 0, uses_anonymous_args = 0
 326              	.LVL13:
 327 0000 10B5     		push	{r4, lr}
 328              		.cfi_def_cfa_offset 8
 329              		.cfi_offset 4, -8
 330              		.cfi_offset 14, -4
 331 0002 0400     		movs	r4, r0
 103:Generated_Source\PSoC4/LCD_Timer_ISR.c **** 
 332              		.loc 1 103 0
 333 0004 FFF7FEFF 		bl	LCD_Timer_ISR_Disable
 334              	.LVL14:
 106:Generated_Source\PSoC4/LCD_Timer_ISR.c **** 
 335              		.loc 1 106 0
 336 0008 2000     		movs	r0, r4
 337 000a FFF7FEFF 		bl	LCD_Timer_ISR_SetVector
 338              	.LVL15:
 109:Generated_Source\PSoC4/LCD_Timer_ISR.c **** 
 339              		.loc 1 109 0
 340 000e 0320     		movs	r0, #3
 341 0010 FFF7FEFF 		bl	LCD_Timer_ISR_SetPriority
 342              	.LVL16:
 112:Generated_Source\PSoC4/LCD_Timer_ISR.c **** }
 343              		.loc 1 112 0
 344 0014 FFF7FEFF 		bl	LCD_Timer_ISR_Enable
 345              	.LVL17:
 113:Generated_Source\PSoC4/LCD_Timer_ISR.c **** 
 346              		.loc 1 113 0
 347              		@ sp needed
 348              	.LVL18:
 349 0018 10BD     		pop	{r4, pc}
 350              		.cfi_endproc
 351              	.LFE2:
 352              		.size	LCD_Timer_ISR_StartEx, .-LCD_Timer_ISR_StartEx
 353 001a C046     		.section	.text.LCD_Timer_ISR_Stop,"ax",%progbits
 354              		.align	2
 355              		.global	LCD_Timer_ISR_Stop
 356              		.code	16
 357              		.thumb_func
 358              		.type	LCD_Timer_ISR_Stop, %function
 359              	LCD_Timer_ISR_Stop:
 360              	.LFB3:
 131:Generated_Source\PSoC4/LCD_Timer_ISR.c ****     /* Disable this interrupt. */
 361              		.loc 1 131 0
 362              		.cfi_startproc
 363              		@ args = 0, pretend = 0, frame = 0
 364              		@ frame_needed = 0, uses_anonymous_args = 0
 365 0000 10B5     		push	{r4, lr}
 366              		.cfi_def_cfa_offset 8
 367              		.cfi_offset 4, -8
 368              		.cfi_offset 14, -4
 133:Generated_Source\PSoC4/LCD_Timer_ISR.c **** 
 369              		.loc 1 133 0
 370 0002 FFF7FEFF 		bl	LCD_Timer_ISR_Disable
 371              	.LVL19:
 136:Generated_Source\PSoC4/LCD_Timer_ISR.c **** }
 372              		.loc 1 136 0
ARM GAS  C:\Users\HELLOK~1\AppData\Local\Temp\ccoRRogI.s 			page 14


 373 0006 0248     		ldr	r0, .L32
 374 0008 FFF7FEFF 		bl	LCD_Timer_ISR_SetVector
 375              	.LVL20:
 137:Generated_Source\PSoC4/LCD_Timer_ISR.c **** 
 376              		.loc 1 137 0
 377              		@ sp needed
 378 000c 10BD     		pop	{r4, pc}
 379              	.L33:
 380 000e C046     		.align	2
 381              	.L32:
 382 0010 00000000 		.word	IntDefaultHandler
 383              		.cfi_endproc
 384              	.LFE3:
 385              		.size	LCD_Timer_ISR_Stop, .-LCD_Timer_ISR_Stop
 386              		.section	.text.LCD_Timer_ISR_SetPending,"ax",%progbits
 387              		.align	2
 388              		.global	LCD_Timer_ISR_SetPending
 389              		.code	16
 390              		.thumb_func
 391              		.type	LCD_Timer_ISR_SetPending, %function
 392              	LCD_Timer_ISR_SetPending:
 393              	.LFB12:
 354:Generated_Source\PSoC4/LCD_Timer_ISR.c **** 
 355:Generated_Source\PSoC4/LCD_Timer_ISR.c **** 
 356:Generated_Source\PSoC4/LCD_Timer_ISR.c **** /*******************************************************************************
 357:Generated_Source\PSoC4/LCD_Timer_ISR.c **** * Function Name: LCD_Timer_ISR_SetPending
 358:Generated_Source\PSoC4/LCD_Timer_ISR.c **** ********************************************************************************
 359:Generated_Source\PSoC4/LCD_Timer_ISR.c **** *
 360:Generated_Source\PSoC4/LCD_Timer_ISR.c **** * Summary:
 361:Generated_Source\PSoC4/LCD_Timer_ISR.c **** *   Causes the Interrupt to enter the pending state, a software method of
 362:Generated_Source\PSoC4/LCD_Timer_ISR.c **** *   generating the interrupt.
 363:Generated_Source\PSoC4/LCD_Timer_ISR.c **** *
 364:Generated_Source\PSoC4/LCD_Timer_ISR.c **** * Parameters:
 365:Generated_Source\PSoC4/LCD_Timer_ISR.c **** *   None
 366:Generated_Source\PSoC4/LCD_Timer_ISR.c **** *
 367:Generated_Source\PSoC4/LCD_Timer_ISR.c **** * Return:
 368:Generated_Source\PSoC4/LCD_Timer_ISR.c **** *   None
 369:Generated_Source\PSoC4/LCD_Timer_ISR.c **** *
 370:Generated_Source\PSoC4/LCD_Timer_ISR.c **** * Side Effects:
 371:Generated_Source\PSoC4/LCD_Timer_ISR.c **** *   If interrupts are enabled and the interrupt is set up properly, the ISR is
 372:Generated_Source\PSoC4/LCD_Timer_ISR.c **** *   entered (depending on the priority of this interrupt and other pending 
 373:Generated_Source\PSoC4/LCD_Timer_ISR.c **** *   interrupts).
 374:Generated_Source\PSoC4/LCD_Timer_ISR.c **** *
 375:Generated_Source\PSoC4/LCD_Timer_ISR.c **** *******************************************************************************/
 376:Generated_Source\PSoC4/LCD_Timer_ISR.c **** void LCD_Timer_ISR_SetPending(void)
 377:Generated_Source\PSoC4/LCD_Timer_ISR.c **** {
 394              		.loc 1 377 0
 395              		.cfi_startproc
 396              		@ args = 0, pretend = 0, frame = 0
 397              		@ frame_needed = 0, uses_anonymous_args = 0
 398              		@ link register save eliminated.
 378:Generated_Source\PSoC4/LCD_Timer_ISR.c ****     *LCD_Timer_ISR_INTC_SET_PD = LCD_Timer_ISR__INTC_MASK;
 399              		.loc 1 378 0
 400 0000 8022     		movs	r2, #128
 401 0002 1203     		lsls	r2, r2, #12
 402 0004 014B     		ldr	r3, .L35
 403 0006 1A60     		str	r2, [r3]
ARM GAS  C:\Users\HELLOK~1\AppData\Local\Temp\ccoRRogI.s 			page 15


 379:Generated_Source\PSoC4/LCD_Timer_ISR.c **** }
 404              		.loc 1 379 0
 405              		@ sp needed
 406 0008 7047     		bx	lr
 407              	.L36:
 408 000a C046     		.align	2
 409              	.L35:
 410 000c 00E200E0 		.word	-536813056
 411              		.cfi_endproc
 412              	.LFE12:
 413              		.size	LCD_Timer_ISR_SetPending, .-LCD_Timer_ISR_SetPending
 414              		.section	.text.LCD_Timer_ISR_ClearPending,"ax",%progbits
 415              		.align	2
 416              		.global	LCD_Timer_ISR_ClearPending
 417              		.code	16
 418              		.thumb_func
 419              		.type	LCD_Timer_ISR_ClearPending, %function
 420              	LCD_Timer_ISR_ClearPending:
 421              	.LFB13:
 380:Generated_Source\PSoC4/LCD_Timer_ISR.c **** 
 381:Generated_Source\PSoC4/LCD_Timer_ISR.c **** 
 382:Generated_Source\PSoC4/LCD_Timer_ISR.c **** /*******************************************************************************
 383:Generated_Source\PSoC4/LCD_Timer_ISR.c **** * Function Name: LCD_Timer_ISR_ClearPending
 384:Generated_Source\PSoC4/LCD_Timer_ISR.c **** ********************************************************************************
 385:Generated_Source\PSoC4/LCD_Timer_ISR.c **** *
 386:Generated_Source\PSoC4/LCD_Timer_ISR.c **** * Summary:
 387:Generated_Source\PSoC4/LCD_Timer_ISR.c **** *   Clears a pending interrupt in the interrupt controller.
 388:Generated_Source\PSoC4/LCD_Timer_ISR.c **** *
 389:Generated_Source\PSoC4/LCD_Timer_ISR.c **** *   Note Some interrupt sources are clear-on-read and require the block 
 390:Generated_Source\PSoC4/LCD_Timer_ISR.c **** *   interrupt/status register to be read/cleared with the appropriate block API 
 391:Generated_Source\PSoC4/LCD_Timer_ISR.c **** *   (GPIO, UART, and so on). Otherwise the ISR will continue to remain in 
 392:Generated_Source\PSoC4/LCD_Timer_ISR.c **** *   pending state even though the interrupt itself is cleared using this API.
 393:Generated_Source\PSoC4/LCD_Timer_ISR.c **** *
 394:Generated_Source\PSoC4/LCD_Timer_ISR.c **** * Parameters:
 395:Generated_Source\PSoC4/LCD_Timer_ISR.c **** *   None
 396:Generated_Source\PSoC4/LCD_Timer_ISR.c **** *
 397:Generated_Source\PSoC4/LCD_Timer_ISR.c **** * Return:
 398:Generated_Source\PSoC4/LCD_Timer_ISR.c **** *   None
 399:Generated_Source\PSoC4/LCD_Timer_ISR.c **** *
 400:Generated_Source\PSoC4/LCD_Timer_ISR.c **** *******************************************************************************/
 401:Generated_Source\PSoC4/LCD_Timer_ISR.c **** void LCD_Timer_ISR_ClearPending(void)
 402:Generated_Source\PSoC4/LCD_Timer_ISR.c **** {
 422              		.loc 1 402 0
 423              		.cfi_startproc
 424              		@ args = 0, pretend = 0, frame = 0
 425              		@ frame_needed = 0, uses_anonymous_args = 0
 426              		@ link register save eliminated.
 403:Generated_Source\PSoC4/LCD_Timer_ISR.c ****     *LCD_Timer_ISR_INTC_CLR_PD = LCD_Timer_ISR__INTC_MASK;
 427              		.loc 1 403 0
 428 0000 8022     		movs	r2, #128
 429 0002 1203     		lsls	r2, r2, #12
 430 0004 014B     		ldr	r3, .L38
 431 0006 1A60     		str	r2, [r3]
 404:Generated_Source\PSoC4/LCD_Timer_ISR.c **** }
 432              		.loc 1 404 0
 433              		@ sp needed
 434 0008 7047     		bx	lr
ARM GAS  C:\Users\HELLOK~1\AppData\Local\Temp\ccoRRogI.s 			page 16


 435              	.L39:
 436 000a C046     		.align	2
 437              	.L38:
 438 000c 80E200E0 		.word	-536812928
 439              		.cfi_endproc
 440              	.LFE13:
 441              		.size	LCD_Timer_ISR_ClearPending, .-LCD_Timer_ISR_ClearPending
 442              		.text
 443              	.Letext0:
 444              		.file 2 "Generated_Source\\PSoC4/cytypes.h"
 445              		.file 3 "Generated_Source\\PSoC4\\LCD_Timer.h"
 446              		.file 4 "Generated_Source\\PSoC4/CyLib.h"