ARM GAS  C:\Users\HELLOK~1\AppData\Local\Temp\cciw2CL3.s 			page 1


   1              		.syntax unified
   2              		.cpu cortex-m0
   3              		.fpu softvfp
   4              		.eabi_attribute 20, 1
   5              		.eabi_attribute 21, 1
   6              		.eabi_attribute 23, 3
   7              		.eabi_attribute 24, 1
   8              		.eabi_attribute 25, 1
   9              		.eabi_attribute 26, 1
  10              		.eabi_attribute 30, 1
  11              		.eabi_attribute 34, 0
  12              		.eabi_attribute 18, 4
  13              		.thumb
  14              		.syntax unified
  15              		.file	"ENC_ISR.c"
  16              		.text
  17              	.Ltext0:
  18              		.cfi_sections	.debug_frame
  19              		.section	.text.ENC_ISR_Interrupt,"ax",%progbits
  20              		.align	2
  21              		.global	ENC_ISR_Interrupt
  22              		.code	16
  23              		.thumb_func
  24              		.type	ENC_ISR_Interrupt, %function
  25              	ENC_ISR_Interrupt:
  26              	.LFB4:
  27              		.file 1 "Generated_Source\\PSoC4\\ENC_ISR.c"
   1:Generated_Source\PSoC4/ENC_ISR.c **** /*******************************************************************************
   2:Generated_Source\PSoC4/ENC_ISR.c **** * File Name: ENC_ISR.c  
   3:Generated_Source\PSoC4/ENC_ISR.c **** * Version 1.70
   4:Generated_Source\PSoC4/ENC_ISR.c **** *
   5:Generated_Source\PSoC4/ENC_ISR.c **** *  Description:
   6:Generated_Source\PSoC4/ENC_ISR.c **** *   API for controlling the state of an interrupt.
   7:Generated_Source\PSoC4/ENC_ISR.c **** *
   8:Generated_Source\PSoC4/ENC_ISR.c **** *
   9:Generated_Source\PSoC4/ENC_ISR.c **** *  Note:
  10:Generated_Source\PSoC4/ENC_ISR.c **** *
  11:Generated_Source\PSoC4/ENC_ISR.c **** ********************************************************************************
  12:Generated_Source\PSoC4/ENC_ISR.c **** * Copyright 2008-2015, Cypress Semiconductor Corporation.  All rights reserved.
  13:Generated_Source\PSoC4/ENC_ISR.c **** * You may use this file only in accordance with the license, terms, conditions, 
  14:Generated_Source\PSoC4/ENC_ISR.c **** * disclaimers, and limitations in the end user license agreement accompanying 
  15:Generated_Source\PSoC4/ENC_ISR.c **** * the software package with which this file was provided.
  16:Generated_Source\PSoC4/ENC_ISR.c **** *******************************************************************************/
  17:Generated_Source\PSoC4/ENC_ISR.c **** 
  18:Generated_Source\PSoC4/ENC_ISR.c **** 
  19:Generated_Source\PSoC4/ENC_ISR.c **** #include <cydevice_trm.h>
  20:Generated_Source\PSoC4/ENC_ISR.c **** #include <CyLib.h>
  21:Generated_Source\PSoC4/ENC_ISR.c **** #include <ENC_ISR.h>
  22:Generated_Source\PSoC4/ENC_ISR.c **** #include "cyapicallbacks.h"
  23:Generated_Source\PSoC4/ENC_ISR.c **** 
  24:Generated_Source\PSoC4/ENC_ISR.c **** #if !defined(ENC_ISR__REMOVED) /* Check for removal by optimization */
  25:Generated_Source\PSoC4/ENC_ISR.c **** 
  26:Generated_Source\PSoC4/ENC_ISR.c **** /*******************************************************************************
  27:Generated_Source\PSoC4/ENC_ISR.c **** *  Place your includes, defines and code here 
  28:Generated_Source\PSoC4/ENC_ISR.c **** ********************************************************************************/
  29:Generated_Source\PSoC4/ENC_ISR.c **** /* `#START ENC_ISR_intc` */
  30:Generated_Source\PSoC4/ENC_ISR.c **** #include "ENC.h"
ARM GAS  C:\Users\HELLOK~1\AppData\Local\Temp\cciw2CL3.s 			page 2


  31:Generated_Source\PSoC4/ENC_ISR.c **** // Take variables from global space (main.c)
  32:Generated_Source\PSoC4/ENC_ISR.c **** extern volatile int encoderAsync;
  33:Generated_Source\PSoC4/ENC_ISR.c **** extern volatile int encoderPos;
  34:Generated_Source\PSoC4/ENC_ISR.c **** /* `#END` */
  35:Generated_Source\PSoC4/ENC_ISR.c **** 
  36:Generated_Source\PSoC4/ENC_ISR.c **** extern cyisraddress CyRamVectors[CYINT_IRQ_BASE + CY_NUM_INTERRUPTS];
  37:Generated_Source\PSoC4/ENC_ISR.c **** 
  38:Generated_Source\PSoC4/ENC_ISR.c **** /* Declared in startup, used to set unused interrupts to. */
  39:Generated_Source\PSoC4/ENC_ISR.c **** CY_ISR_PROTO(IntDefaultHandler);
  40:Generated_Source\PSoC4/ENC_ISR.c **** 
  41:Generated_Source\PSoC4/ENC_ISR.c **** 
  42:Generated_Source\PSoC4/ENC_ISR.c **** /*******************************************************************************
  43:Generated_Source\PSoC4/ENC_ISR.c **** * Function Name: ENC_ISR_Start
  44:Generated_Source\PSoC4/ENC_ISR.c **** ********************************************************************************
  45:Generated_Source\PSoC4/ENC_ISR.c **** *
  46:Generated_Source\PSoC4/ENC_ISR.c **** * Summary:
  47:Generated_Source\PSoC4/ENC_ISR.c **** *  Set up the interrupt and enable it. This function disables the interrupt, 
  48:Generated_Source\PSoC4/ENC_ISR.c **** *  sets the default interrupt vector, sets the priority from the value in the
  49:Generated_Source\PSoC4/ENC_ISR.c **** *  Design Wide Resources Interrupt Editor, then enables the interrupt to the 
  50:Generated_Source\PSoC4/ENC_ISR.c **** *  interrupt controller.
  51:Generated_Source\PSoC4/ENC_ISR.c **** *
  52:Generated_Source\PSoC4/ENC_ISR.c **** * Parameters:  
  53:Generated_Source\PSoC4/ENC_ISR.c **** *   None
  54:Generated_Source\PSoC4/ENC_ISR.c **** *
  55:Generated_Source\PSoC4/ENC_ISR.c **** * Return:
  56:Generated_Source\PSoC4/ENC_ISR.c **** *   None
  57:Generated_Source\PSoC4/ENC_ISR.c **** *
  58:Generated_Source\PSoC4/ENC_ISR.c **** *******************************************************************************/
  59:Generated_Source\PSoC4/ENC_ISR.c **** void ENC_ISR_Start(void)
  60:Generated_Source\PSoC4/ENC_ISR.c **** {
  61:Generated_Source\PSoC4/ENC_ISR.c ****     /* For all we know the interrupt is active. */
  62:Generated_Source\PSoC4/ENC_ISR.c ****     ENC_ISR_Disable();
  63:Generated_Source\PSoC4/ENC_ISR.c **** 
  64:Generated_Source\PSoC4/ENC_ISR.c ****     /* Set the ISR to point to the ENC_ISR Interrupt. */
  65:Generated_Source\PSoC4/ENC_ISR.c ****     ENC_ISR_SetVector(&ENC_ISR_Interrupt);
  66:Generated_Source\PSoC4/ENC_ISR.c **** 
  67:Generated_Source\PSoC4/ENC_ISR.c ****     /* Set the priority. */
  68:Generated_Source\PSoC4/ENC_ISR.c ****     ENC_ISR_SetPriority((uint8)ENC_ISR_INTC_PRIOR_NUMBER);
  69:Generated_Source\PSoC4/ENC_ISR.c **** 
  70:Generated_Source\PSoC4/ENC_ISR.c ****     /* Enable it. */
  71:Generated_Source\PSoC4/ENC_ISR.c ****     ENC_ISR_Enable();
  72:Generated_Source\PSoC4/ENC_ISR.c **** }
  73:Generated_Source\PSoC4/ENC_ISR.c **** 
  74:Generated_Source\PSoC4/ENC_ISR.c **** 
  75:Generated_Source\PSoC4/ENC_ISR.c **** /*******************************************************************************
  76:Generated_Source\PSoC4/ENC_ISR.c **** * Function Name: ENC_ISR_StartEx
  77:Generated_Source\PSoC4/ENC_ISR.c **** ********************************************************************************
  78:Generated_Source\PSoC4/ENC_ISR.c **** *
  79:Generated_Source\PSoC4/ENC_ISR.c **** * Summary:
  80:Generated_Source\PSoC4/ENC_ISR.c **** *  Sets up the interrupt and enables it. This function disables the interrupt,
  81:Generated_Source\PSoC4/ENC_ISR.c **** *  sets the interrupt vector based on the address passed in, sets the priority 
  82:Generated_Source\PSoC4/ENC_ISR.c **** *  from the value in the Design Wide Resources Interrupt Editor, then enables 
  83:Generated_Source\PSoC4/ENC_ISR.c **** *  the interrupt to the interrupt controller.
  84:Generated_Source\PSoC4/ENC_ISR.c **** *  
  85:Generated_Source\PSoC4/ENC_ISR.c **** *  When defining ISR functions, the CY_ISR and CY_ISR_PROTO macros should be 
  86:Generated_Source\PSoC4/ENC_ISR.c **** *  used to provide consistent definition across compilers:
  87:Generated_Source\PSoC4/ENC_ISR.c **** *  
ARM GAS  C:\Users\HELLOK~1\AppData\Local\Temp\cciw2CL3.s 			page 3


  88:Generated_Source\PSoC4/ENC_ISR.c **** *  Function definition example:
  89:Generated_Source\PSoC4/ENC_ISR.c **** *   CY_ISR(MyISR)
  90:Generated_Source\PSoC4/ENC_ISR.c **** *   {
  91:Generated_Source\PSoC4/ENC_ISR.c **** *   }
  92:Generated_Source\PSoC4/ENC_ISR.c **** *   Function prototype example:
  93:Generated_Source\PSoC4/ENC_ISR.c **** *   CY_ISR_PROTO(MyISR);
  94:Generated_Source\PSoC4/ENC_ISR.c **** *
  95:Generated_Source\PSoC4/ENC_ISR.c **** * Parameters:  
  96:Generated_Source\PSoC4/ENC_ISR.c **** *   address: Address of the ISR to set in the interrupt vector table.
  97:Generated_Source\PSoC4/ENC_ISR.c **** *
  98:Generated_Source\PSoC4/ENC_ISR.c **** * Return:
  99:Generated_Source\PSoC4/ENC_ISR.c **** *   None
 100:Generated_Source\PSoC4/ENC_ISR.c **** *
 101:Generated_Source\PSoC4/ENC_ISR.c **** *******************************************************************************/
 102:Generated_Source\PSoC4/ENC_ISR.c **** void ENC_ISR_StartEx(cyisraddress address)
 103:Generated_Source\PSoC4/ENC_ISR.c **** {
 104:Generated_Source\PSoC4/ENC_ISR.c ****     /* For all we know the interrupt is active. */
 105:Generated_Source\PSoC4/ENC_ISR.c ****     ENC_ISR_Disable();
 106:Generated_Source\PSoC4/ENC_ISR.c **** 
 107:Generated_Source\PSoC4/ENC_ISR.c ****     /* Set the ISR to point to the ENC_ISR Interrupt. */
 108:Generated_Source\PSoC4/ENC_ISR.c ****     ENC_ISR_SetVector(address);
 109:Generated_Source\PSoC4/ENC_ISR.c **** 
 110:Generated_Source\PSoC4/ENC_ISR.c ****     /* Set the priority. */
 111:Generated_Source\PSoC4/ENC_ISR.c ****     ENC_ISR_SetPriority((uint8)ENC_ISR_INTC_PRIOR_NUMBER);
 112:Generated_Source\PSoC4/ENC_ISR.c **** 
 113:Generated_Source\PSoC4/ENC_ISR.c ****     /* Enable it. */
 114:Generated_Source\PSoC4/ENC_ISR.c ****     ENC_ISR_Enable();
 115:Generated_Source\PSoC4/ENC_ISR.c **** }
 116:Generated_Source\PSoC4/ENC_ISR.c **** 
 117:Generated_Source\PSoC4/ENC_ISR.c **** 
 118:Generated_Source\PSoC4/ENC_ISR.c **** /*******************************************************************************
 119:Generated_Source\PSoC4/ENC_ISR.c **** * Function Name: ENC_ISR_Stop
 120:Generated_Source\PSoC4/ENC_ISR.c **** ********************************************************************************
 121:Generated_Source\PSoC4/ENC_ISR.c **** *
 122:Generated_Source\PSoC4/ENC_ISR.c **** * Summary:
 123:Generated_Source\PSoC4/ENC_ISR.c **** *   Disables and removes the interrupt.
 124:Generated_Source\PSoC4/ENC_ISR.c **** *
 125:Generated_Source\PSoC4/ENC_ISR.c **** * Parameters:  
 126:Generated_Source\PSoC4/ENC_ISR.c **** *   None
 127:Generated_Source\PSoC4/ENC_ISR.c **** *
 128:Generated_Source\PSoC4/ENC_ISR.c **** * Return:
 129:Generated_Source\PSoC4/ENC_ISR.c **** *   None
 130:Generated_Source\PSoC4/ENC_ISR.c **** *
 131:Generated_Source\PSoC4/ENC_ISR.c **** *******************************************************************************/
 132:Generated_Source\PSoC4/ENC_ISR.c **** void ENC_ISR_Stop(void)
 133:Generated_Source\PSoC4/ENC_ISR.c **** {
 134:Generated_Source\PSoC4/ENC_ISR.c ****     /* Disable this interrupt. */
 135:Generated_Source\PSoC4/ENC_ISR.c ****     ENC_ISR_Disable();
 136:Generated_Source\PSoC4/ENC_ISR.c **** 
 137:Generated_Source\PSoC4/ENC_ISR.c ****     /* Set the ISR to point to the passive one. */
 138:Generated_Source\PSoC4/ENC_ISR.c ****     ENC_ISR_SetVector(&IntDefaultHandler);
 139:Generated_Source\PSoC4/ENC_ISR.c **** }
 140:Generated_Source\PSoC4/ENC_ISR.c **** 
 141:Generated_Source\PSoC4/ENC_ISR.c **** 
 142:Generated_Source\PSoC4/ENC_ISR.c **** /*******************************************************************************
 143:Generated_Source\PSoC4/ENC_ISR.c **** * Function Name: ENC_ISR_Interrupt
 144:Generated_Source\PSoC4/ENC_ISR.c **** ********************************************************************************
ARM GAS  C:\Users\HELLOK~1\AppData\Local\Temp\cciw2CL3.s 			page 4


 145:Generated_Source\PSoC4/ENC_ISR.c **** *
 146:Generated_Source\PSoC4/ENC_ISR.c **** * Summary:
 147:Generated_Source\PSoC4/ENC_ISR.c **** *   The default Interrupt Service Routine for ENC_ISR.
 148:Generated_Source\PSoC4/ENC_ISR.c **** *
 149:Generated_Source\PSoC4/ENC_ISR.c **** *   Add custom code between the START and END comments to keep the next version
 150:Generated_Source\PSoC4/ENC_ISR.c **** *   of this file from over-writing your code.
 151:Generated_Source\PSoC4/ENC_ISR.c **** *
 152:Generated_Source\PSoC4/ENC_ISR.c **** *   Note You may use either the default ISR by using this API, or you may define
 153:Generated_Source\PSoC4/ENC_ISR.c **** *   your own separate ISR through ISR_StartEx().
 154:Generated_Source\PSoC4/ENC_ISR.c **** *
 155:Generated_Source\PSoC4/ENC_ISR.c **** * Parameters:  
 156:Generated_Source\PSoC4/ENC_ISR.c **** *   None
 157:Generated_Source\PSoC4/ENC_ISR.c **** *
 158:Generated_Source\PSoC4/ENC_ISR.c **** * Return:
 159:Generated_Source\PSoC4/ENC_ISR.c **** *   None
 160:Generated_Source\PSoC4/ENC_ISR.c **** *
 161:Generated_Source\PSoC4/ENC_ISR.c **** *******************************************************************************/
 162:Generated_Source\PSoC4/ENC_ISR.c **** CY_ISR(ENC_ISR_Interrupt)
 163:Generated_Source\PSoC4/ENC_ISR.c **** {
  28              		.loc 1 163 0
  29              		.cfi_startproc
  30              		@ args = 0, pretend = 0, frame = 16
  31              		@ frame_needed = 0, uses_anonymous_args = 0
  32 0000 00B5     		push	{lr}
  33              		.cfi_def_cfa_offset 4
  34              		.cfi_offset 14, -4
  35 0002 85B0     		sub	sp, sp, #20
  36              		.cfi_def_cfa_offset 24
 164:Generated_Source\PSoC4/ENC_ISR.c ****     #ifdef ENC_ISR_INTERRUPT_INTERRUPT_CALLBACK
 165:Generated_Source\PSoC4/ENC_ISR.c ****         ENC_ISR_Interrupt_InterruptCallback();
 166:Generated_Source\PSoC4/ENC_ISR.c ****     #endif /* ENC_ISR_INTERRUPT_INTERRUPT_CALLBACK */ 
 167:Generated_Source\PSoC4/ENC_ISR.c **** 
 168:Generated_Source\PSoC4/ENC_ISR.c ****     /*  Place your Interrupt code here. */
 169:Generated_Source\PSoC4/ENC_ISR.c ****     /* `#START ENC_ISR_Interrupt` */
 170:Generated_Source\PSoC4/ENC_ISR.c ****     // Read the first variable, then wait for it to change
 171:Generated_Source\PSoC4/ENC_ISR.c ****     volatile int a  = ENC_Read();
  37              		.loc 1 171 0
  38 0004 FFF7FEFF 		bl	ENC_Read
  39              	.LVL0:
  40 0008 0390     		str	r0, [sp, #12]
  41              	.L2:
 172:Generated_Source\PSoC4/ENC_ISR.c ****     while(a == ENC_Read());
  42              		.loc 1 172 0 discriminator 1
  43 000a FFF7FEFF 		bl	ENC_Read
  44              	.LVL1:
  45 000e 039B     		ldr	r3, [sp, #12]
  46 0010 9842     		cmp	r0, r3
  47 0012 FAD0     		beq	.L2
 173:Generated_Source\PSoC4/ENC_ISR.c ****     // Read next variable, then wait for it to change
 174:Generated_Source\PSoC4/ENC_ISR.c ****     volatile int b  = ENC_Read();
  48              		.loc 1 174 0
  49 0014 FFF7FEFF 		bl	ENC_Read
  50              	.LVL2:
  51 0018 0290     		str	r0, [sp, #8]
  52              	.L3:
 175:Generated_Source\PSoC4/ENC_ISR.c ****     while(b == ENC_Read());
  53              		.loc 1 175 0 discriminator 1
ARM GAS  C:\Users\HELLOK~1\AppData\Local\Temp\cciw2CL3.s 			page 5


  54 001a FFF7FEFF 		bl	ENC_Read
  55              	.LVL3:
  56 001e 029B     		ldr	r3, [sp, #8]
  57 0020 9842     		cmp	r0, r3
  58 0022 FAD0     		beq	.L3
 176:Generated_Source\PSoC4/ENC_ISR.c ****     // Read next variable, then wait for it to change
 177:Generated_Source\PSoC4/ENC_ISR.c ****     volatile int c  = ENC_Read();
  59              		.loc 1 177 0
  60 0024 FFF7FEFF 		bl	ENC_Read
  61              	.LVL4:
  62 0028 0190     		str	r0, [sp, #4]
  63              	.L4:
 178:Generated_Source\PSoC4/ENC_ISR.c ****     while(c == ENC_Read());
  64              		.loc 1 178 0 discriminator 1
  65 002a FFF7FEFF 		bl	ENC_Read
  66              	.LVL5:
  67 002e 019B     		ldr	r3, [sp, #4]
  68 0030 9842     		cmp	r0, r3
  69 0032 FAD0     		beq	.L4
 179:Generated_Source\PSoC4/ENC_ISR.c ****     // Based on the following variables, decide whether it is CW or CCW
 180:Generated_Source\PSoC4/ENC_ISR.c ****     if(a == 1 && c == 2){
  70              		.loc 1 180 0
  71 0034 039B     		ldr	r3, [sp, #12]
  72 0036 012B     		cmp	r3, #1
  73 0038 0ED1     		bne	.L5
  74              		.loc 1 180 0 is_stmt 0 discriminator 1
  75 003a 019B     		ldr	r3, [sp, #4]
  76 003c 022B     		cmp	r3, #2
  77 003e 0BD1     		bne	.L5
 181:Generated_Source\PSoC4/ENC_ISR.c ****         // Clockwise (increase bar)
 182:Generated_Source\PSoC4/ENC_ISR.c ****         // Set flag
 183:Generated_Source\PSoC4/ENC_ISR.c ****         encoderAsync = 1;
  78              		.loc 1 183 0 is_stmt 1
  79 0040 0122     		movs	r2, #1
  80 0042 104B     		ldr	r3, .L7
  81 0044 1A60     		str	r2, [r3]
 184:Generated_Source\PSoC4/ENC_ISR.c ****         // Set limit of 80 on the right side
 185:Generated_Source\PSoC4/ENC_ISR.c ****         if(encoderPos == 80){}
  82              		.loc 1 185 0
  83 0046 104B     		ldr	r3, .L7+4
  84 0048 1B68     		ldr	r3, [r3]
  85 004a 502B     		cmp	r3, #80
  86 004c 15D0     		beq	.L6
 186:Generated_Source\PSoC4/ENC_ISR.c ****         // If not at limit, increase position
 187:Generated_Source\PSoC4/ENC_ISR.c ****         else{
 188:Generated_Source\PSoC4/ENC_ISR.c ****             encoderPos++;
  87              		.loc 1 188 0
  88 004e 0E4A     		ldr	r2, .L7+4
  89 0050 1368     		ldr	r3, [r2]
  90 0052 0133     		adds	r3, r3, #1
  91 0054 1360     		str	r3, [r2]
  92 0056 10E0     		b	.L6
  93              	.L5:
 189:Generated_Source\PSoC4/ENC_ISR.c ****         }
 190:Generated_Source\PSoC4/ENC_ISR.c ****     }
 191:Generated_Source\PSoC4/ENC_ISR.c ****     else if(a == 2 && c==1){
  94              		.loc 1 191 0
ARM GAS  C:\Users\HELLOK~1\AppData\Local\Temp\cciw2CL3.s 			page 6


  95 0058 039B     		ldr	r3, [sp, #12]
  96 005a 022B     		cmp	r3, #2
  97 005c 0DD1     		bne	.L6
  98              		.loc 1 191 0 is_stmt 0 discriminator 1
  99 005e 019B     		ldr	r3, [sp, #4]
 100 0060 012B     		cmp	r3, #1
 101 0062 0AD1     		bne	.L6
 192:Generated_Source\PSoC4/ENC_ISR.c ****         // Counter-Clockwise (decrease bar)
 193:Generated_Source\PSoC4/ENC_ISR.c ****         // Set flag
 194:Generated_Source\PSoC4/ENC_ISR.c ****         encoderAsync = 1;
 102              		.loc 1 194 0 is_stmt 1
 103 0064 0122     		movs	r2, #1
 104 0066 074B     		ldr	r3, .L7
 105 0068 1A60     		str	r2, [r3]
 195:Generated_Source\PSoC4/ENC_ISR.c ****         // Set limit of 0 on the left side
 196:Generated_Source\PSoC4/ENC_ISR.c ****         if(encoderPos == 0){}
 106              		.loc 1 196 0
 107 006a 074B     		ldr	r3, .L7+4
 108 006c 1B68     		ldr	r3, [r3]
 109 006e 002B     		cmp	r3, #0
 110 0070 03D0     		beq	.L6
 197:Generated_Source\PSoC4/ENC_ISR.c ****         // If not at limit, decrease position
 198:Generated_Source\PSoC4/ENC_ISR.c ****         else{
 199:Generated_Source\PSoC4/ENC_ISR.c ****             encoderPos--;
 111              		.loc 1 199 0
 112 0072 054A     		ldr	r2, .L7+4
 113 0074 1368     		ldr	r3, [r2]
 114 0076 013B     		subs	r3, r3, #1
 115 0078 1360     		str	r3, [r2]
 116              	.L6:
 200:Generated_Source\PSoC4/ENC_ISR.c ****         }
 201:Generated_Source\PSoC4/ENC_ISR.c ****     }
 202:Generated_Source\PSoC4/ENC_ISR.c ****     // Clear interrupt
 203:Generated_Source\PSoC4/ENC_ISR.c ****     ENC_ClearInterrupt();   
 117              		.loc 1 203 0
 118 007a FFF7FEFF 		bl	ENC_ClearInterrupt
 119              	.LVL6:
 204:Generated_Source\PSoC4/ENC_ISR.c ****     /* `#END` */
 205:Generated_Source\PSoC4/ENC_ISR.c **** }
 120              		.loc 1 205 0
 121 007e 05B0     		add	sp, sp, #20
 122              		@ sp needed
 123 0080 00BD     		pop	{pc}
 124              	.L8:
 125 0082 C046     		.align	2
 126              	.L7:
 127 0084 00000000 		.word	encoderAsync
 128 0088 00000000 		.word	encoderPos
 129              		.cfi_endproc
 130              	.LFE4:
 131              		.size	ENC_ISR_Interrupt, .-ENC_ISR_Interrupt
 132              		.section	.text.ENC_ISR_SetVector,"ax",%progbits
 133              		.align	2
 134              		.global	ENC_ISR_SetVector
 135              		.code	16
 136              		.thumb_func
 137              		.type	ENC_ISR_SetVector, %function
ARM GAS  C:\Users\HELLOK~1\AppData\Local\Temp\cciw2CL3.s 			page 7


 138              	ENC_ISR_SetVector:
 139              	.LFB5:
 206:Generated_Source\PSoC4/ENC_ISR.c **** 
 207:Generated_Source\PSoC4/ENC_ISR.c **** 
 208:Generated_Source\PSoC4/ENC_ISR.c **** /*******************************************************************************
 209:Generated_Source\PSoC4/ENC_ISR.c **** * Function Name: ENC_ISR_SetVector
 210:Generated_Source\PSoC4/ENC_ISR.c **** ********************************************************************************
 211:Generated_Source\PSoC4/ENC_ISR.c **** *
 212:Generated_Source\PSoC4/ENC_ISR.c **** * Summary:
 213:Generated_Source\PSoC4/ENC_ISR.c **** *   Change the ISR vector for the Interrupt. Note calling ENC_ISR_Start
 214:Generated_Source\PSoC4/ENC_ISR.c **** *   will override any effect this method would have had. To set the vector 
 215:Generated_Source\PSoC4/ENC_ISR.c **** *   before the component has been started use ENC_ISR_StartEx instead.
 216:Generated_Source\PSoC4/ENC_ISR.c **** * 
 217:Generated_Source\PSoC4/ENC_ISR.c **** *   When defining ISR functions, the CY_ISR and CY_ISR_PROTO macros should be 
 218:Generated_Source\PSoC4/ENC_ISR.c **** *   used to provide consistent definition across compilers:
 219:Generated_Source\PSoC4/ENC_ISR.c **** *
 220:Generated_Source\PSoC4/ENC_ISR.c **** *   Function definition example:
 221:Generated_Source\PSoC4/ENC_ISR.c **** *   CY_ISR(MyISR)
 222:Generated_Source\PSoC4/ENC_ISR.c **** *   {
 223:Generated_Source\PSoC4/ENC_ISR.c **** *   }
 224:Generated_Source\PSoC4/ENC_ISR.c **** *
 225:Generated_Source\PSoC4/ENC_ISR.c **** *   Function prototype example:
 226:Generated_Source\PSoC4/ENC_ISR.c **** *     CY_ISR_PROTO(MyISR);
 227:Generated_Source\PSoC4/ENC_ISR.c **** *
 228:Generated_Source\PSoC4/ENC_ISR.c **** * Parameters:
 229:Generated_Source\PSoC4/ENC_ISR.c **** *   address: Address of the ISR to set in the interrupt vector table.
 230:Generated_Source\PSoC4/ENC_ISR.c **** *
 231:Generated_Source\PSoC4/ENC_ISR.c **** * Return:
 232:Generated_Source\PSoC4/ENC_ISR.c **** *   None
 233:Generated_Source\PSoC4/ENC_ISR.c **** *
 234:Generated_Source\PSoC4/ENC_ISR.c **** *******************************************************************************/
 235:Generated_Source\PSoC4/ENC_ISR.c **** void ENC_ISR_SetVector(cyisraddress address)
 236:Generated_Source\PSoC4/ENC_ISR.c **** {
 140              		.loc 1 236 0
 141              		.cfi_startproc
 142              		@ args = 0, pretend = 0, frame = 0
 143              		@ frame_needed = 0, uses_anonymous_args = 0
 144              		@ link register save eliminated.
 145              	.LVL7:
 237:Generated_Source\PSoC4/ENC_ISR.c ****     CyRamVectors[CYINT_IRQ_BASE + ENC_ISR__INTC_NUMBER] = address;
 146              		.loc 1 237 0
 147 0000 014B     		ldr	r3, .L10
 148 0002 1864     		str	r0, [r3, #64]
 238:Generated_Source\PSoC4/ENC_ISR.c **** }
 149              		.loc 1 238 0
 150              		@ sp needed
 151 0004 7047     		bx	lr
 152              	.L11:
 153 0006 C046     		.align	2
 154              	.L10:
 155 0008 00000000 		.word	CyRamVectors
 156              		.cfi_endproc
 157              	.LFE5:
 158              		.size	ENC_ISR_SetVector, .-ENC_ISR_SetVector
 159              		.section	.text.ENC_ISR_GetVector,"ax",%progbits
 160              		.align	2
 161              		.global	ENC_ISR_GetVector
ARM GAS  C:\Users\HELLOK~1\AppData\Local\Temp\cciw2CL3.s 			page 8


 162              		.code	16
 163              		.thumb_func
 164              		.type	ENC_ISR_GetVector, %function
 165              	ENC_ISR_GetVector:
 166              	.LFB6:
 239:Generated_Source\PSoC4/ENC_ISR.c **** 
 240:Generated_Source\PSoC4/ENC_ISR.c **** 
 241:Generated_Source\PSoC4/ENC_ISR.c **** /*******************************************************************************
 242:Generated_Source\PSoC4/ENC_ISR.c **** * Function Name: ENC_ISR_GetVector
 243:Generated_Source\PSoC4/ENC_ISR.c **** ********************************************************************************
 244:Generated_Source\PSoC4/ENC_ISR.c **** *
 245:Generated_Source\PSoC4/ENC_ISR.c **** * Summary:
 246:Generated_Source\PSoC4/ENC_ISR.c **** *   Gets the "address" of the current ISR vector for the Interrupt.
 247:Generated_Source\PSoC4/ENC_ISR.c **** *
 248:Generated_Source\PSoC4/ENC_ISR.c **** * Parameters:
 249:Generated_Source\PSoC4/ENC_ISR.c **** *   None
 250:Generated_Source\PSoC4/ENC_ISR.c **** *
 251:Generated_Source\PSoC4/ENC_ISR.c **** * Return:
 252:Generated_Source\PSoC4/ENC_ISR.c **** *   Address of the ISR in the interrupt vector table.
 253:Generated_Source\PSoC4/ENC_ISR.c **** *
 254:Generated_Source\PSoC4/ENC_ISR.c **** *******************************************************************************/
 255:Generated_Source\PSoC4/ENC_ISR.c **** cyisraddress ENC_ISR_GetVector(void)
 256:Generated_Source\PSoC4/ENC_ISR.c **** {
 167              		.loc 1 256 0
 168              		.cfi_startproc
 169              		@ args = 0, pretend = 0, frame = 0
 170              		@ frame_needed = 0, uses_anonymous_args = 0
 171              		@ link register save eliminated.
 257:Generated_Source\PSoC4/ENC_ISR.c ****     return CyRamVectors[CYINT_IRQ_BASE + ENC_ISR__INTC_NUMBER];
 172              		.loc 1 257 0
 173 0000 014B     		ldr	r3, .L13
 174 0002 186C     		ldr	r0, [r3, #64]
 258:Generated_Source\PSoC4/ENC_ISR.c **** }
 175              		.loc 1 258 0
 176              		@ sp needed
 177 0004 7047     		bx	lr
 178              	.L14:
 179 0006 C046     		.align	2
 180              	.L13:
 181 0008 00000000 		.word	CyRamVectors
 182              		.cfi_endproc
 183              	.LFE6:
 184              		.size	ENC_ISR_GetVector, .-ENC_ISR_GetVector
 185              		.section	.text.ENC_ISR_SetPriority,"ax",%progbits
 186              		.align	2
 187              		.global	ENC_ISR_SetPriority
 188              		.code	16
 189              		.thumb_func
 190              		.type	ENC_ISR_SetPriority, %function
 191              	ENC_ISR_SetPriority:
 192              	.LFB7:
 259:Generated_Source\PSoC4/ENC_ISR.c **** 
 260:Generated_Source\PSoC4/ENC_ISR.c **** 
 261:Generated_Source\PSoC4/ENC_ISR.c **** /*******************************************************************************
 262:Generated_Source\PSoC4/ENC_ISR.c **** * Function Name: ENC_ISR_SetPriority
 263:Generated_Source\PSoC4/ENC_ISR.c **** ********************************************************************************
 264:Generated_Source\PSoC4/ENC_ISR.c **** *
ARM GAS  C:\Users\HELLOK~1\AppData\Local\Temp\cciw2CL3.s 			page 9


 265:Generated_Source\PSoC4/ENC_ISR.c **** * Summary:
 266:Generated_Source\PSoC4/ENC_ISR.c **** *   Sets the Priority of the Interrupt. 
 267:Generated_Source\PSoC4/ENC_ISR.c **** *
 268:Generated_Source\PSoC4/ENC_ISR.c **** *   Note calling ENC_ISR_Start or ENC_ISR_StartEx will 
 269:Generated_Source\PSoC4/ENC_ISR.c **** *   override any effect this API would have had. This API should only be called
 270:Generated_Source\PSoC4/ENC_ISR.c **** *   after ENC_ISR_Start or ENC_ISR_StartEx has been called. 
 271:Generated_Source\PSoC4/ENC_ISR.c **** *   To set the initial priority for the component, use the Design-Wide Resources
 272:Generated_Source\PSoC4/ENC_ISR.c **** *   Interrupt Editor.
 273:Generated_Source\PSoC4/ENC_ISR.c **** *
 274:Generated_Source\PSoC4/ENC_ISR.c **** *   Note This API has no effect on Non-maskable interrupt NMI).
 275:Generated_Source\PSoC4/ENC_ISR.c **** *
 276:Generated_Source\PSoC4/ENC_ISR.c **** * Parameters:
 277:Generated_Source\PSoC4/ENC_ISR.c **** *   priority: Priority of the interrupt, 0 being the highest priority
 278:Generated_Source\PSoC4/ENC_ISR.c **** *             PSoC 3 and PSoC 5LP: Priority is from 0 to 7.
 279:Generated_Source\PSoC4/ENC_ISR.c **** *             PSoC 4: Priority is from 0 to 3.
 280:Generated_Source\PSoC4/ENC_ISR.c **** *
 281:Generated_Source\PSoC4/ENC_ISR.c **** * Return:
 282:Generated_Source\PSoC4/ENC_ISR.c **** *   None
 283:Generated_Source\PSoC4/ENC_ISR.c **** *
 284:Generated_Source\PSoC4/ENC_ISR.c **** *******************************************************************************/
 285:Generated_Source\PSoC4/ENC_ISR.c **** void ENC_ISR_SetPriority(uint8 priority)
 286:Generated_Source\PSoC4/ENC_ISR.c **** {
 193              		.loc 1 286 0
 194              		.cfi_startproc
 195              		@ args = 0, pretend = 0, frame = 0
 196              		@ frame_needed = 0, uses_anonymous_args = 0
 197              	.LVL8:
 198 0000 10B5     		push	{r4, lr}
 199              		.cfi_def_cfa_offset 8
 200              		.cfi_offset 4, -8
 201              		.cfi_offset 14, -4
 202 0002 0400     		movs	r4, r0
 203              	.LVL9:
 287:Generated_Source\PSoC4/ENC_ISR.c **** 	uint8 interruptState;
 288:Generated_Source\PSoC4/ENC_ISR.c ****     uint32 priorityOffset = ((ENC_ISR__INTC_NUMBER % 4u) * 8u) + 6u;
 289:Generated_Source\PSoC4/ENC_ISR.c ****     
 290:Generated_Source\PSoC4/ENC_ISR.c **** 	interruptState = CyEnterCriticalSection();
 204              		.loc 1 290 0
 205 0004 FFF7FEFF 		bl	CyEnterCriticalSection
 206              	.LVL10:
 291:Generated_Source\PSoC4/ENC_ISR.c ****     *ENC_ISR_INTC_PRIOR = (*ENC_ISR_INTC_PRIOR & (uint32)(~ENC_ISR__INTC_PRIOR_MASK)) |
 207              		.loc 1 291 0
 208 0008 044A     		ldr	r2, .L16
 209 000a 1368     		ldr	r3, [r2]
 210 000c C021     		movs	r1, #192
 211 000e 8B43     		bics	r3, r1
 292:Generated_Source\PSoC4/ENC_ISR.c ****                                     ((uint32)priority << priorityOffset);
 212              		.loc 1 292 0
 213 0010 A401     		lsls	r4, r4, #6
 291:Generated_Source\PSoC4/ENC_ISR.c ****     *ENC_ISR_INTC_PRIOR = (*ENC_ISR_INTC_PRIOR & (uint32)(~ENC_ISR__INTC_PRIOR_MASK)) |
 214              		.loc 1 291 0
 215 0012 1C43     		orrs	r4, r3
 216 0014 1460     		str	r4, [r2]
 293:Generated_Source\PSoC4/ENC_ISR.c **** 	CyExitCriticalSection(interruptState);
 217              		.loc 1 293 0
 218 0016 FFF7FEFF 		bl	CyExitCriticalSection
 219              	.LVL11:
ARM GAS  C:\Users\HELLOK~1\AppData\Local\Temp\cciw2CL3.s 			page 10


 294:Generated_Source\PSoC4/ENC_ISR.c **** }
 220              		.loc 1 294 0
 221              		@ sp needed
 222 001a 10BD     		pop	{r4, pc}
 223              	.L17:
 224              		.align	2
 225              	.L16:
 226 001c 00E400E0 		.word	-536812544
 227              		.cfi_endproc
 228              	.LFE7:
 229              		.size	ENC_ISR_SetPriority, .-ENC_ISR_SetPriority
 230              		.section	.text.ENC_ISR_GetPriority,"ax",%progbits
 231              		.align	2
 232              		.global	ENC_ISR_GetPriority
 233              		.code	16
 234              		.thumb_func
 235              		.type	ENC_ISR_GetPriority, %function
 236              	ENC_ISR_GetPriority:
 237              	.LFB8:
 295:Generated_Source\PSoC4/ENC_ISR.c **** 
 296:Generated_Source\PSoC4/ENC_ISR.c **** 
 297:Generated_Source\PSoC4/ENC_ISR.c **** /*******************************************************************************
 298:Generated_Source\PSoC4/ENC_ISR.c **** * Function Name: ENC_ISR_GetPriority
 299:Generated_Source\PSoC4/ENC_ISR.c **** ********************************************************************************
 300:Generated_Source\PSoC4/ENC_ISR.c **** *
 301:Generated_Source\PSoC4/ENC_ISR.c **** * Summary:
 302:Generated_Source\PSoC4/ENC_ISR.c **** *   Gets the Priority of the Interrupt.
 303:Generated_Source\PSoC4/ENC_ISR.c **** *
 304:Generated_Source\PSoC4/ENC_ISR.c **** * Parameters:
 305:Generated_Source\PSoC4/ENC_ISR.c **** *   None
 306:Generated_Source\PSoC4/ENC_ISR.c **** *
 307:Generated_Source\PSoC4/ENC_ISR.c **** * Return:
 308:Generated_Source\PSoC4/ENC_ISR.c **** *   Priority of the interrupt, 0 being the highest priority
 309:Generated_Source\PSoC4/ENC_ISR.c **** *    PSoC 3 and PSoC 5LP: Priority is from 0 to 7.
 310:Generated_Source\PSoC4/ENC_ISR.c **** *    PSoC 4: Priority is from 0 to 3.
 311:Generated_Source\PSoC4/ENC_ISR.c **** *
 312:Generated_Source\PSoC4/ENC_ISR.c **** *******************************************************************************/
 313:Generated_Source\PSoC4/ENC_ISR.c **** uint8 ENC_ISR_GetPriority(void)
 314:Generated_Source\PSoC4/ENC_ISR.c **** {
 238              		.loc 1 314 0
 239              		.cfi_startproc
 240              		@ args = 0, pretend = 0, frame = 0
 241              		@ frame_needed = 0, uses_anonymous_args = 0
 242              		@ link register save eliminated.
 243              	.LVL12:
 315:Generated_Source\PSoC4/ENC_ISR.c ****     uint32 priority;
 316:Generated_Source\PSoC4/ENC_ISR.c **** 	uint32 priorityOffset = ((ENC_ISR__INTC_NUMBER % 4u) * 8u) + 6u;
 317:Generated_Source\PSoC4/ENC_ISR.c **** 
 318:Generated_Source\PSoC4/ENC_ISR.c ****     priority = (*ENC_ISR_INTC_PRIOR & ENC_ISR__INTC_PRIOR_MASK) >> priorityOffset;
 244              		.loc 1 318 0
 245 0000 024B     		ldr	r3, .L19
 246 0002 1868     		ldr	r0, [r3]
 247 0004 8009     		lsrs	r0, r0, #6
 248              	.LVL13:
 319:Generated_Source\PSoC4/ENC_ISR.c **** 
 320:Generated_Source\PSoC4/ENC_ISR.c ****     return (uint8)priority;
 249              		.loc 1 320 0
ARM GAS  C:\Users\HELLOK~1\AppData\Local\Temp\cciw2CL3.s 			page 11


 250 0006 0323     		movs	r3, #3
 251 0008 1840     		ands	r0, r3
 252              	.LVL14:
 321:Generated_Source\PSoC4/ENC_ISR.c **** }
 253              		.loc 1 321 0
 254              		@ sp needed
 255 000a 7047     		bx	lr
 256              	.L20:
 257              		.align	2
 258              	.L19:
 259 000c 00E400E0 		.word	-536812544
 260              		.cfi_endproc
 261              	.LFE8:
 262              		.size	ENC_ISR_GetPriority, .-ENC_ISR_GetPriority
 263              		.section	.text.ENC_ISR_Enable,"ax",%progbits
 264              		.align	2
 265              		.global	ENC_ISR_Enable
 266              		.code	16
 267              		.thumb_func
 268              		.type	ENC_ISR_Enable, %function
 269              	ENC_ISR_Enable:
 270              	.LFB9:
 322:Generated_Source\PSoC4/ENC_ISR.c **** 
 323:Generated_Source\PSoC4/ENC_ISR.c **** 
 324:Generated_Source\PSoC4/ENC_ISR.c **** /*******************************************************************************
 325:Generated_Source\PSoC4/ENC_ISR.c **** * Function Name: ENC_ISR_Enable
 326:Generated_Source\PSoC4/ENC_ISR.c **** ********************************************************************************
 327:Generated_Source\PSoC4/ENC_ISR.c **** *
 328:Generated_Source\PSoC4/ENC_ISR.c **** * Summary:
 329:Generated_Source\PSoC4/ENC_ISR.c **** *   Enables the interrupt to the interrupt controller. Do not call this function
 330:Generated_Source\PSoC4/ENC_ISR.c **** *   unless ISR_Start() has been called or the functionality of the ISR_Start() 
 331:Generated_Source\PSoC4/ENC_ISR.c **** *   function, which sets the vector and the priority, has been called.
 332:Generated_Source\PSoC4/ENC_ISR.c **** *
 333:Generated_Source\PSoC4/ENC_ISR.c **** * Parameters:
 334:Generated_Source\PSoC4/ENC_ISR.c **** *   None
 335:Generated_Source\PSoC4/ENC_ISR.c **** *
 336:Generated_Source\PSoC4/ENC_ISR.c **** * Return:
 337:Generated_Source\PSoC4/ENC_ISR.c **** *   None
 338:Generated_Source\PSoC4/ENC_ISR.c **** *
 339:Generated_Source\PSoC4/ENC_ISR.c **** *******************************************************************************/
 340:Generated_Source\PSoC4/ENC_ISR.c **** void ENC_ISR_Enable(void)
 341:Generated_Source\PSoC4/ENC_ISR.c **** {
 271              		.loc 1 341 0
 272              		.cfi_startproc
 273              		@ args = 0, pretend = 0, frame = 0
 274              		@ frame_needed = 0, uses_anonymous_args = 0
 275              		@ link register save eliminated.
 342:Generated_Source\PSoC4/ENC_ISR.c ****     /* Enable the general interrupt. */
 343:Generated_Source\PSoC4/ENC_ISR.c ****     *ENC_ISR_INTC_SET_EN = ENC_ISR__INTC_MASK;
 276              		.loc 1 343 0
 277 0000 0122     		movs	r2, #1
 278 0002 014B     		ldr	r3, .L22
 279 0004 1A60     		str	r2, [r3]
 344:Generated_Source\PSoC4/ENC_ISR.c **** }
 280              		.loc 1 344 0
 281              		@ sp needed
 282 0006 7047     		bx	lr
ARM GAS  C:\Users\HELLOK~1\AppData\Local\Temp\cciw2CL3.s 			page 12


 283              	.L23:
 284              		.align	2
 285              	.L22:
 286 0008 00E100E0 		.word	-536813312
 287              		.cfi_endproc
 288              	.LFE9:
 289              		.size	ENC_ISR_Enable, .-ENC_ISR_Enable
 290              		.section	.text.ENC_ISR_GetState,"ax",%progbits
 291              		.align	2
 292              		.global	ENC_ISR_GetState
 293              		.code	16
 294              		.thumb_func
 295              		.type	ENC_ISR_GetState, %function
 296              	ENC_ISR_GetState:
 297              	.LFB10:
 345:Generated_Source\PSoC4/ENC_ISR.c **** 
 346:Generated_Source\PSoC4/ENC_ISR.c **** 
 347:Generated_Source\PSoC4/ENC_ISR.c **** /*******************************************************************************
 348:Generated_Source\PSoC4/ENC_ISR.c **** * Function Name: ENC_ISR_GetState
 349:Generated_Source\PSoC4/ENC_ISR.c **** ********************************************************************************
 350:Generated_Source\PSoC4/ENC_ISR.c **** *
 351:Generated_Source\PSoC4/ENC_ISR.c **** * Summary:
 352:Generated_Source\PSoC4/ENC_ISR.c **** *   Gets the state (enabled, disabled) of the Interrupt.
 353:Generated_Source\PSoC4/ENC_ISR.c **** *
 354:Generated_Source\PSoC4/ENC_ISR.c **** * Parameters:
 355:Generated_Source\PSoC4/ENC_ISR.c **** *   None
 356:Generated_Source\PSoC4/ENC_ISR.c **** *
 357:Generated_Source\PSoC4/ENC_ISR.c **** * Return:
 358:Generated_Source\PSoC4/ENC_ISR.c **** *   1 if enabled, 0 if disabled.
 359:Generated_Source\PSoC4/ENC_ISR.c **** *
 360:Generated_Source\PSoC4/ENC_ISR.c **** *******************************************************************************/
 361:Generated_Source\PSoC4/ENC_ISR.c **** uint8 ENC_ISR_GetState(void)
 362:Generated_Source\PSoC4/ENC_ISR.c **** {
 298              		.loc 1 362 0
 299              		.cfi_startproc
 300              		@ args = 0, pretend = 0, frame = 0
 301              		@ frame_needed = 0, uses_anonymous_args = 0
 302              		@ link register save eliminated.
 363:Generated_Source\PSoC4/ENC_ISR.c ****     /* Get the state of the general interrupt. */
 364:Generated_Source\PSoC4/ENC_ISR.c ****     return ((*ENC_ISR_INTC_SET_EN & (uint32)ENC_ISR__INTC_MASK) != 0u) ? 1u:0u;
 303              		.loc 1 364 0
 304 0000 024B     		ldr	r3, .L25
 305 0002 1B68     		ldr	r3, [r3]
 306 0004 0120     		movs	r0, #1
 307 0006 1840     		ands	r0, r3
 365:Generated_Source\PSoC4/ENC_ISR.c **** }
 308              		.loc 1 365 0
 309              		@ sp needed
 310 0008 7047     		bx	lr
 311              	.L26:
 312 000a C046     		.align	2
 313              	.L25:
 314 000c 00E100E0 		.word	-536813312
 315              		.cfi_endproc
 316              	.LFE10:
 317              		.size	ENC_ISR_GetState, .-ENC_ISR_GetState
 318              		.section	.text.ENC_ISR_Disable,"ax",%progbits
ARM GAS  C:\Users\HELLOK~1\AppData\Local\Temp\cciw2CL3.s 			page 13


 319              		.align	2
 320              		.global	ENC_ISR_Disable
 321              		.code	16
 322              		.thumb_func
 323              		.type	ENC_ISR_Disable, %function
 324              	ENC_ISR_Disable:
 325              	.LFB11:
 366:Generated_Source\PSoC4/ENC_ISR.c **** 
 367:Generated_Source\PSoC4/ENC_ISR.c **** 
 368:Generated_Source\PSoC4/ENC_ISR.c **** /*******************************************************************************
 369:Generated_Source\PSoC4/ENC_ISR.c **** * Function Name: ENC_ISR_Disable
 370:Generated_Source\PSoC4/ENC_ISR.c **** ********************************************************************************
 371:Generated_Source\PSoC4/ENC_ISR.c **** *
 372:Generated_Source\PSoC4/ENC_ISR.c **** * Summary:
 373:Generated_Source\PSoC4/ENC_ISR.c **** *   Disables the Interrupt in the interrupt controller.
 374:Generated_Source\PSoC4/ENC_ISR.c **** *
 375:Generated_Source\PSoC4/ENC_ISR.c **** * Parameters:
 376:Generated_Source\PSoC4/ENC_ISR.c **** *   None
 377:Generated_Source\PSoC4/ENC_ISR.c **** *
 378:Generated_Source\PSoC4/ENC_ISR.c **** * Return:
 379:Generated_Source\PSoC4/ENC_ISR.c **** *   None
 380:Generated_Source\PSoC4/ENC_ISR.c **** *
 381:Generated_Source\PSoC4/ENC_ISR.c **** *******************************************************************************/
 382:Generated_Source\PSoC4/ENC_ISR.c **** void ENC_ISR_Disable(void)
 383:Generated_Source\PSoC4/ENC_ISR.c **** {
 326              		.loc 1 383 0
 327              		.cfi_startproc
 328              		@ args = 0, pretend = 0, frame = 0
 329              		@ frame_needed = 0, uses_anonymous_args = 0
 330              		@ link register save eliminated.
 384:Generated_Source\PSoC4/ENC_ISR.c ****     /* Disable the general interrupt. */
 385:Generated_Source\PSoC4/ENC_ISR.c ****     *ENC_ISR_INTC_CLR_EN = ENC_ISR__INTC_MASK;
 331              		.loc 1 385 0
 332 0000 0122     		movs	r2, #1
 333 0002 014B     		ldr	r3, .L28
 334 0004 1A60     		str	r2, [r3]
 386:Generated_Source\PSoC4/ENC_ISR.c **** }
 335              		.loc 1 386 0
 336              		@ sp needed
 337 0006 7047     		bx	lr
 338              	.L29:
 339              		.align	2
 340              	.L28:
 341 0008 80E100E0 		.word	-536813184
 342              		.cfi_endproc
 343              	.LFE11:
 344              		.size	ENC_ISR_Disable, .-ENC_ISR_Disable
 345              		.section	.text.ENC_ISR_Start,"ax",%progbits
 346              		.align	2
 347              		.global	ENC_ISR_Start
 348              		.code	16
 349              		.thumb_func
 350              		.type	ENC_ISR_Start, %function
 351              	ENC_ISR_Start:
 352              	.LFB1:
  60:Generated_Source\PSoC4/ENC_ISR.c ****     /* For all we know the interrupt is active. */
 353              		.loc 1 60 0
ARM GAS  C:\Users\HELLOK~1\AppData\Local\Temp\cciw2CL3.s 			page 14


 354              		.cfi_startproc
 355              		@ args = 0, pretend = 0, frame = 0
 356              		@ frame_needed = 0, uses_anonymous_args = 0
 357 0000 10B5     		push	{r4, lr}
 358              		.cfi_def_cfa_offset 8
 359              		.cfi_offset 4, -8
 360              		.cfi_offset 14, -4
  62:Generated_Source\PSoC4/ENC_ISR.c **** 
 361              		.loc 1 62 0
 362 0002 FFF7FEFF 		bl	ENC_ISR_Disable
 363              	.LVL15:
  65:Generated_Source\PSoC4/ENC_ISR.c **** 
 364              		.loc 1 65 0
 365 0006 0448     		ldr	r0, .L31
 366 0008 FFF7FEFF 		bl	ENC_ISR_SetVector
 367              	.LVL16:
  68:Generated_Source\PSoC4/ENC_ISR.c **** 
 368              		.loc 1 68 0
 369 000c 0320     		movs	r0, #3
 370 000e FFF7FEFF 		bl	ENC_ISR_SetPriority
 371              	.LVL17:
  71:Generated_Source\PSoC4/ENC_ISR.c **** }
 372              		.loc 1 71 0
 373 0012 FFF7FEFF 		bl	ENC_ISR_Enable
 374              	.LVL18:
  72:Generated_Source\PSoC4/ENC_ISR.c **** 
 375              		.loc 1 72 0
 376              		@ sp needed
 377 0016 10BD     		pop	{r4, pc}
 378              	.L32:
 379              		.align	2
 380              	.L31:
 381 0018 00000000 		.word	ENC_ISR_Interrupt
 382              		.cfi_endproc
 383              	.LFE1:
 384              		.size	ENC_ISR_Start, .-ENC_ISR_Start
 385              		.section	.text.ENC_ISR_StartEx,"ax",%progbits
 386              		.align	2
 387              		.global	ENC_ISR_StartEx
 388              		.code	16
 389              		.thumb_func
 390              		.type	ENC_ISR_StartEx, %function
 391              	ENC_ISR_StartEx:
 392              	.LFB2:
 103:Generated_Source\PSoC4/ENC_ISR.c ****     /* For all we know the interrupt is active. */
 393              		.loc 1 103 0
 394              		.cfi_startproc
 395              		@ args = 0, pretend = 0, frame = 0
 396              		@ frame_needed = 0, uses_anonymous_args = 0
 397              	.LVL19:
 398 0000 10B5     		push	{r4, lr}
 399              		.cfi_def_cfa_offset 8
 400              		.cfi_offset 4, -8
 401              		.cfi_offset 14, -4
 402 0002 0400     		movs	r4, r0
 105:Generated_Source\PSoC4/ENC_ISR.c **** 
 403              		.loc 1 105 0
ARM GAS  C:\Users\HELLOK~1\AppData\Local\Temp\cciw2CL3.s 			page 15


 404 0004 FFF7FEFF 		bl	ENC_ISR_Disable
 405              	.LVL20:
 108:Generated_Source\PSoC4/ENC_ISR.c **** 
 406              		.loc 1 108 0
 407 0008 2000     		movs	r0, r4
 408 000a FFF7FEFF 		bl	ENC_ISR_SetVector
 409              	.LVL21:
 111:Generated_Source\PSoC4/ENC_ISR.c **** 
 410              		.loc 1 111 0
 411 000e 0320     		movs	r0, #3
 412 0010 FFF7FEFF 		bl	ENC_ISR_SetPriority
 413              	.LVL22:
 114:Generated_Source\PSoC4/ENC_ISR.c **** }
 414              		.loc 1 114 0
 415 0014 FFF7FEFF 		bl	ENC_ISR_Enable
 416              	.LVL23:
 115:Generated_Source\PSoC4/ENC_ISR.c **** 
 417              		.loc 1 115 0
 418              		@ sp needed
 419              	.LVL24:
 420 0018 10BD     		pop	{r4, pc}
 421              		.cfi_endproc
 422              	.LFE2:
 423              		.size	ENC_ISR_StartEx, .-ENC_ISR_StartEx
 424 001a C046     		.section	.text.ENC_ISR_Stop,"ax",%progbits
 425              		.align	2
 426              		.global	ENC_ISR_Stop
 427              		.code	16
 428              		.thumb_func
 429              		.type	ENC_ISR_Stop, %function
 430              	ENC_ISR_Stop:
 431              	.LFB3:
 133:Generated_Source\PSoC4/ENC_ISR.c ****     /* Disable this interrupt. */
 432              		.loc 1 133 0
 433              		.cfi_startproc
 434              		@ args = 0, pretend = 0, frame = 0
 435              		@ frame_needed = 0, uses_anonymous_args = 0
 436 0000 10B5     		push	{r4, lr}
 437              		.cfi_def_cfa_offset 8
 438              		.cfi_offset 4, -8
 439              		.cfi_offset 14, -4
 135:Generated_Source\PSoC4/ENC_ISR.c **** 
 440              		.loc 1 135 0
 441 0002 FFF7FEFF 		bl	ENC_ISR_Disable
 442              	.LVL25:
 138:Generated_Source\PSoC4/ENC_ISR.c **** }
 443              		.loc 1 138 0
 444 0006 0248     		ldr	r0, .L35
 445 0008 FFF7FEFF 		bl	ENC_ISR_SetVector
 446              	.LVL26:
 139:Generated_Source\PSoC4/ENC_ISR.c **** 
 447              		.loc 1 139 0
 448              		@ sp needed
 449 000c 10BD     		pop	{r4, pc}
 450              	.L36:
 451 000e C046     		.align	2
 452              	.L35:
ARM GAS  C:\Users\HELLOK~1\AppData\Local\Temp\cciw2CL3.s 			page 16


 453 0010 00000000 		.word	IntDefaultHandler
 454              		.cfi_endproc
 455              	.LFE3:
 456              		.size	ENC_ISR_Stop, .-ENC_ISR_Stop
 457              		.section	.text.ENC_ISR_SetPending,"ax",%progbits
 458              		.align	2
 459              		.global	ENC_ISR_SetPending
 460              		.code	16
 461              		.thumb_func
 462              		.type	ENC_ISR_SetPending, %function
 463              	ENC_ISR_SetPending:
 464              	.LFB12:
 387:Generated_Source\PSoC4/ENC_ISR.c **** 
 388:Generated_Source\PSoC4/ENC_ISR.c **** 
 389:Generated_Source\PSoC4/ENC_ISR.c **** /*******************************************************************************
 390:Generated_Source\PSoC4/ENC_ISR.c **** * Function Name: ENC_ISR_SetPending
 391:Generated_Source\PSoC4/ENC_ISR.c **** ********************************************************************************
 392:Generated_Source\PSoC4/ENC_ISR.c **** *
 393:Generated_Source\PSoC4/ENC_ISR.c **** * Summary:
 394:Generated_Source\PSoC4/ENC_ISR.c **** *   Causes the Interrupt to enter the pending state, a software method of
 395:Generated_Source\PSoC4/ENC_ISR.c **** *   generating the interrupt.
 396:Generated_Source\PSoC4/ENC_ISR.c **** *
 397:Generated_Source\PSoC4/ENC_ISR.c **** * Parameters:
 398:Generated_Source\PSoC4/ENC_ISR.c **** *   None
 399:Generated_Source\PSoC4/ENC_ISR.c **** *
 400:Generated_Source\PSoC4/ENC_ISR.c **** * Return:
 401:Generated_Source\PSoC4/ENC_ISR.c **** *   None
 402:Generated_Source\PSoC4/ENC_ISR.c **** *
 403:Generated_Source\PSoC4/ENC_ISR.c **** * Side Effects:
 404:Generated_Source\PSoC4/ENC_ISR.c **** *   If interrupts are enabled and the interrupt is set up properly, the ISR is
 405:Generated_Source\PSoC4/ENC_ISR.c **** *   entered (depending on the priority of this interrupt and other pending 
 406:Generated_Source\PSoC4/ENC_ISR.c **** *   interrupts).
 407:Generated_Source\PSoC4/ENC_ISR.c **** *
 408:Generated_Source\PSoC4/ENC_ISR.c **** *******************************************************************************/
 409:Generated_Source\PSoC4/ENC_ISR.c **** void ENC_ISR_SetPending(void)
 410:Generated_Source\PSoC4/ENC_ISR.c **** {
 465              		.loc 1 410 0
 466              		.cfi_startproc
 467              		@ args = 0, pretend = 0, frame = 0
 468              		@ frame_needed = 0, uses_anonymous_args = 0
 469              		@ link register save eliminated.
 411:Generated_Source\PSoC4/ENC_ISR.c ****     *ENC_ISR_INTC_SET_PD = ENC_ISR__INTC_MASK;
 470              		.loc 1 411 0
 471 0000 0122     		movs	r2, #1
 472 0002 014B     		ldr	r3, .L38
 473 0004 1A60     		str	r2, [r3]
 412:Generated_Source\PSoC4/ENC_ISR.c **** }
 474              		.loc 1 412 0
 475              		@ sp needed
 476 0006 7047     		bx	lr
 477              	.L39:
 478              		.align	2
 479              	.L38:
 480 0008 00E200E0 		.word	-536813056
 481              		.cfi_endproc
 482              	.LFE12:
 483              		.size	ENC_ISR_SetPending, .-ENC_ISR_SetPending
ARM GAS  C:\Users\HELLOK~1\AppData\Local\Temp\cciw2CL3.s 			page 17


 484              		.section	.text.ENC_ISR_ClearPending,"ax",%progbits
 485              		.align	2
 486              		.global	ENC_ISR_ClearPending
 487              		.code	16
 488              		.thumb_func
 489              		.type	ENC_ISR_ClearPending, %function
 490              	ENC_ISR_ClearPending:
 491              	.LFB13:
 413:Generated_Source\PSoC4/ENC_ISR.c **** 
 414:Generated_Source\PSoC4/ENC_ISR.c **** 
 415:Generated_Source\PSoC4/ENC_ISR.c **** /*******************************************************************************
 416:Generated_Source\PSoC4/ENC_ISR.c **** * Function Name: ENC_ISR_ClearPending
 417:Generated_Source\PSoC4/ENC_ISR.c **** ********************************************************************************
 418:Generated_Source\PSoC4/ENC_ISR.c **** *
 419:Generated_Source\PSoC4/ENC_ISR.c **** * Summary:
 420:Generated_Source\PSoC4/ENC_ISR.c **** *   Clears a pending interrupt in the interrupt controller.
 421:Generated_Source\PSoC4/ENC_ISR.c **** *
 422:Generated_Source\PSoC4/ENC_ISR.c **** *   Note Some interrupt sources are clear-on-read and require the block 
 423:Generated_Source\PSoC4/ENC_ISR.c **** *   interrupt/status register to be read/cleared with the appropriate block API 
 424:Generated_Source\PSoC4/ENC_ISR.c **** *   (GPIO, UART, and so on). Otherwise the ISR will continue to remain in 
 425:Generated_Source\PSoC4/ENC_ISR.c **** *   pending state even though the interrupt itself is cleared using this API.
 426:Generated_Source\PSoC4/ENC_ISR.c **** *
 427:Generated_Source\PSoC4/ENC_ISR.c **** * Parameters:
 428:Generated_Source\PSoC4/ENC_ISR.c **** *   None
 429:Generated_Source\PSoC4/ENC_ISR.c **** *
 430:Generated_Source\PSoC4/ENC_ISR.c **** * Return:
 431:Generated_Source\PSoC4/ENC_ISR.c **** *   None
 432:Generated_Source\PSoC4/ENC_ISR.c **** *
 433:Generated_Source\PSoC4/ENC_ISR.c **** *******************************************************************************/
 434:Generated_Source\PSoC4/ENC_ISR.c **** void ENC_ISR_ClearPending(void)
 435:Generated_Source\PSoC4/ENC_ISR.c **** {
 492              		.loc 1 435 0
 493              		.cfi_startproc
 494              		@ args = 0, pretend = 0, frame = 0
 495              		@ frame_needed = 0, uses_anonymous_args = 0
 496              		@ link register save eliminated.
 436:Generated_Source\PSoC4/ENC_ISR.c ****     *ENC_ISR_INTC_CLR_PD = ENC_ISR__INTC_MASK;
 497              		.loc 1 436 0
 498 0000 0122     		movs	r2, #1
 499 0002 014B     		ldr	r3, .L41
 500 0004 1A60     		str	r2, [r3]
 437:Generated_Source\PSoC4/ENC_ISR.c **** }
 501              		.loc 1 437 0
 502              		@ sp needed
 503 0006 7047     		bx	lr
 504              	.L42:
 505              		.align	2
 506              	.L41:
 507 0008 80E200E0 		.word	-536812928
 508              		.cfi_endproc
 509              	.LFE13:
 510              		.size	ENC_ISR_ClearPending, .-ENC_ISR_ClearPending
 511              		.text
 512              	.Letext0:
 513              		.file 2 "Generated_Source\\PSoC4/cytypes.h"
 514              		.file 3 "Generated_Source\\PSoC4\\ENC.h"
 515              		.file 4 "Generated_Source\\PSoC4/CyLib.h"
ARM GAS  C:\Users\HELLOK~1\AppData\Local\Temp\cciw2CL3.s 			page 18

