ARM GAS  C:\Users\HELLOK~1.1\AppData\Local\Temp\ccWvkwgc.s 			page 1


   1              		.syntax unified
   2              		.cpu cortex-m0
   3              		.fpu softvfp
   4              		.eabi_attribute 20, 1
   5              		.eabi_attribute 21, 1
   6              		.eabi_attribute 23, 3
   7              		.eabi_attribute 24, 1
   8              		.eabi_attribute 25, 1
   9              		.eabi_attribute 26, 1
  10              		.eabi_attribute 30, 1
  11              		.eabi_attribute 34, 0
  12              		.eabi_attribute 18, 4
  13              		.thumb
  14              		.syntax unified
  15              		.file	"cyfitter_cfg.c"
  16              		.text
  17              	.Ltext0:
  18              		.cfi_sections	.debug_frame
  19              		.section	.text.cfg_write_bytes32,"ax",%progbits
  20              		.align	2
  21              		.code	16
  22              		.thumb_func
  23              		.type	cfg_write_bytes32, %function
  24              	cfg_write_bytes32:
  25              	.LFB4:
  26              		.file 1 "Generated_Source\\PSoC4\\cyfitter_cfg.c"
   1:Generated_Source\PSoC4/cyfitter_cfg.c **** 
   2:Generated_Source\PSoC4/cyfitter_cfg.c **** /*******************************************************************************
   3:Generated_Source\PSoC4/cyfitter_cfg.c **** * File Name: cyfitter_cfg.c
   4:Generated_Source\PSoC4/cyfitter_cfg.c **** * 
   5:Generated_Source\PSoC4/cyfitter_cfg.c **** * PSoC Creator  4.4
   6:Generated_Source\PSoC4/cyfitter_cfg.c **** *
   7:Generated_Source\PSoC4/cyfitter_cfg.c **** * Description:
   8:Generated_Source\PSoC4/cyfitter_cfg.c **** * This file contains device initialization code.
   9:Generated_Source\PSoC4/cyfitter_cfg.c **** * Except for the user defined sections in CyClockStartupError(), this file should not be modified.
  10:Generated_Source\PSoC4/cyfitter_cfg.c **** * This file is automatically generated by PSoC Creator.
  11:Generated_Source\PSoC4/cyfitter_cfg.c **** *
  12:Generated_Source\PSoC4/cyfitter_cfg.c **** ********************************************************************************
  13:Generated_Source\PSoC4/cyfitter_cfg.c **** * Copyright (c) 2007-2020 Cypress Semiconductor.  All rights reserved.
  14:Generated_Source\PSoC4/cyfitter_cfg.c **** * You may use this file only in accordance with the license, terms, conditions, 
  15:Generated_Source\PSoC4/cyfitter_cfg.c **** * disclaimers, and limitations in the end user license agreement accompanying 
  16:Generated_Source\PSoC4/cyfitter_cfg.c **** * the software package with which this file was provided.
  17:Generated_Source\PSoC4/cyfitter_cfg.c **** ********************************************************************************/
  18:Generated_Source\PSoC4/cyfitter_cfg.c **** 
  19:Generated_Source\PSoC4/cyfitter_cfg.c **** #include <string.h>
  20:Generated_Source\PSoC4/cyfitter_cfg.c **** #include "cytypes.h"
  21:Generated_Source\PSoC4/cyfitter_cfg.c **** #include "cydevice_trm.h"
  22:Generated_Source\PSoC4/cyfitter_cfg.c **** #include "cyfitter.h"
  23:Generated_Source\PSoC4/cyfitter_cfg.c **** #include "CyLib.h"
  24:Generated_Source\PSoC4/cyfitter_cfg.c **** #include "CyLFClk.h"
  25:Generated_Source\PSoC4/cyfitter_cfg.c **** #include "cyfitter_cfg.h"
  26:Generated_Source\PSoC4/cyfitter_cfg.c **** #include "cyapicallbacks.h"
  27:Generated_Source\PSoC4/cyfitter_cfg.c **** 
  28:Generated_Source\PSoC4/cyfitter_cfg.c **** 
  29:Generated_Source\PSoC4/cyfitter_cfg.c **** #if defined(__GNUC__) || defined(__ARMCC_VERSION)
  30:Generated_Source\PSoC4/cyfitter_cfg.c ****     #define CYPACKED 
  31:Generated_Source\PSoC4/cyfitter_cfg.c ****     #define CYPACKED_ATTR __attribute__ ((packed))
ARM GAS  C:\Users\HELLOK~1.1\AppData\Local\Temp\ccWvkwgc.s 			page 2


  32:Generated_Source\PSoC4/cyfitter_cfg.c ****     #define CYALIGNED __attribute__ ((aligned))
  33:Generated_Source\PSoC4/cyfitter_cfg.c ****     #define CY_CFG_UNUSED __attribute__ ((unused))
  34:Generated_Source\PSoC4/cyfitter_cfg.c ****     #ifndef CY_CFG_SECTION
  35:Generated_Source\PSoC4/cyfitter_cfg.c ****         #define CY_CFG_SECTION __attribute__ ((section(".psocinit")))
  36:Generated_Source\PSoC4/cyfitter_cfg.c ****     #endif
  37:Generated_Source\PSoC4/cyfitter_cfg.c ****     
  38:Generated_Source\PSoC4/cyfitter_cfg.c ****     #if defined(__ARMCC_VERSION)
  39:Generated_Source\PSoC4/cyfitter_cfg.c ****         #define CY_CFG_MEMORY_BARRIER() __memory_changed()
  40:Generated_Source\PSoC4/cyfitter_cfg.c ****     #else
  41:Generated_Source\PSoC4/cyfitter_cfg.c ****         #define CY_CFG_MEMORY_BARRIER() __sync_synchronize()
  42:Generated_Source\PSoC4/cyfitter_cfg.c ****     #endif
  43:Generated_Source\PSoC4/cyfitter_cfg.c ****     
  44:Generated_Source\PSoC4/cyfitter_cfg.c **** #elif defined(__ICCARM__)
  45:Generated_Source\PSoC4/cyfitter_cfg.c ****     #include <intrinsics.h>
  46:Generated_Source\PSoC4/cyfitter_cfg.c **** 
  47:Generated_Source\PSoC4/cyfitter_cfg.c ****     #define CYPACKED __packed
  48:Generated_Source\PSoC4/cyfitter_cfg.c ****     #define CYPACKED_ATTR 
  49:Generated_Source\PSoC4/cyfitter_cfg.c ****     #define CYALIGNED _Pragma("data_alignment=4")
  50:Generated_Source\PSoC4/cyfitter_cfg.c ****     #define CY_CFG_UNUSED _Pragma("diag_suppress=Pe177")
  51:Generated_Source\PSoC4/cyfitter_cfg.c ****     #define CY_CFG_SECTION _Pragma("location=\".psocinit\"")
  52:Generated_Source\PSoC4/cyfitter_cfg.c ****     
  53:Generated_Source\PSoC4/cyfitter_cfg.c ****     #define CY_CFG_MEMORY_BARRIER() __DMB()
  54:Generated_Source\PSoC4/cyfitter_cfg.c ****     
  55:Generated_Source\PSoC4/cyfitter_cfg.c **** #else
  56:Generated_Source\PSoC4/cyfitter_cfg.c ****     #error Unsupported toolchain
  57:Generated_Source\PSoC4/cyfitter_cfg.c **** #endif
  58:Generated_Source\PSoC4/cyfitter_cfg.c **** 
  59:Generated_Source\PSoC4/cyfitter_cfg.c **** #ifndef CYCODE
  60:Generated_Source\PSoC4/cyfitter_cfg.c ****     #define CYCODE
  61:Generated_Source\PSoC4/cyfitter_cfg.c **** #endif
  62:Generated_Source\PSoC4/cyfitter_cfg.c **** #ifndef CYDATA
  63:Generated_Source\PSoC4/cyfitter_cfg.c ****     #define CYDATA
  64:Generated_Source\PSoC4/cyfitter_cfg.c **** #endif
  65:Generated_Source\PSoC4/cyfitter_cfg.c **** #ifndef CYFAR
  66:Generated_Source\PSoC4/cyfitter_cfg.c ****     #define CYFAR
  67:Generated_Source\PSoC4/cyfitter_cfg.c **** #endif
  68:Generated_Source\PSoC4/cyfitter_cfg.c **** #ifndef CYXDATA
  69:Generated_Source\PSoC4/cyfitter_cfg.c ****     #define CYXDATA
  70:Generated_Source\PSoC4/cyfitter_cfg.c **** #endif
  71:Generated_Source\PSoC4/cyfitter_cfg.c **** 
  72:Generated_Source\PSoC4/cyfitter_cfg.c **** 
  73:Generated_Source\PSoC4/cyfitter_cfg.c **** CY_CFG_UNUSED
  74:Generated_Source\PSoC4/cyfitter_cfg.c **** static void CYMEMZERO(void *s, size_t n);
  75:Generated_Source\PSoC4/cyfitter_cfg.c **** CY_CFG_UNUSED
  76:Generated_Source\PSoC4/cyfitter_cfg.c **** static void CYMEMZERO(void *s, size_t n)
  77:Generated_Source\PSoC4/cyfitter_cfg.c **** {
  78:Generated_Source\PSoC4/cyfitter_cfg.c **** 	(void)memset(s, 0, n);
  79:Generated_Source\PSoC4/cyfitter_cfg.c **** }
  80:Generated_Source\PSoC4/cyfitter_cfg.c **** CY_CFG_UNUSED
  81:Generated_Source\PSoC4/cyfitter_cfg.c **** static void CYCONFIGCPY(void *dest, const void *src, size_t n);
  82:Generated_Source\PSoC4/cyfitter_cfg.c **** CY_CFG_UNUSED
  83:Generated_Source\PSoC4/cyfitter_cfg.c **** static void CYCONFIGCPY(void *dest, const void *src, size_t n)
  84:Generated_Source\PSoC4/cyfitter_cfg.c **** {
  85:Generated_Source\PSoC4/cyfitter_cfg.c **** 	(void)memcpy(dest, src, n);
  86:Generated_Source\PSoC4/cyfitter_cfg.c **** }
  87:Generated_Source\PSoC4/cyfitter_cfg.c **** CY_CFG_UNUSED
  88:Generated_Source\PSoC4/cyfitter_cfg.c **** static void CYCONFIGCPYCODE(void *dest, const void *src, size_t n);
ARM GAS  C:\Users\HELLOK~1.1\AppData\Local\Temp\ccWvkwgc.s 			page 3


  89:Generated_Source\PSoC4/cyfitter_cfg.c **** CY_CFG_UNUSED
  90:Generated_Source\PSoC4/cyfitter_cfg.c **** static void CYCONFIGCPYCODE(void *dest, const void *src, size_t n)
  91:Generated_Source\PSoC4/cyfitter_cfg.c **** {
  92:Generated_Source\PSoC4/cyfitter_cfg.c **** 	(void)memcpy(dest, src, n);
  93:Generated_Source\PSoC4/cyfitter_cfg.c **** }
  94:Generated_Source\PSoC4/cyfitter_cfg.c **** 
  95:Generated_Source\PSoC4/cyfitter_cfg.c **** 
  96:Generated_Source\PSoC4/cyfitter_cfg.c **** 
  97:Generated_Source\PSoC4/cyfitter_cfg.c **** 
  98:Generated_Source\PSoC4/cyfitter_cfg.c **** /* Clock startup error codes                                                   */
  99:Generated_Source\PSoC4/cyfitter_cfg.c **** #define CYCLOCKSTART_NO_ERROR    0u
 100:Generated_Source\PSoC4/cyfitter_cfg.c **** #define CYCLOCKSTART_XTAL_ERROR  1u
 101:Generated_Source\PSoC4/cyfitter_cfg.c **** #define CYCLOCKSTART_32KHZ_ERROR 2u
 102:Generated_Source\PSoC4/cyfitter_cfg.c **** #define CYCLOCKSTART_PLL_ERROR   3u
 103:Generated_Source\PSoC4/cyfitter_cfg.c **** #define CYCLOCKSTART_FLL_ERROR   4u
 104:Generated_Source\PSoC4/cyfitter_cfg.c **** #define CYCLOCKSTART_WCO_ERROR   5u
 105:Generated_Source\PSoC4/cyfitter_cfg.c **** 
 106:Generated_Source\PSoC4/cyfitter_cfg.c **** 
 107:Generated_Source\PSoC4/cyfitter_cfg.c **** #ifdef CY_NEED_CYCLOCKSTARTUPERROR
 108:Generated_Source\PSoC4/cyfitter_cfg.c **** /*******************************************************************************
 109:Generated_Source\PSoC4/cyfitter_cfg.c **** * Function Name: CyClockStartupError
 110:Generated_Source\PSoC4/cyfitter_cfg.c **** ********************************************************************************
 111:Generated_Source\PSoC4/cyfitter_cfg.c **** * Summary:
 112:Generated_Source\PSoC4/cyfitter_cfg.c **** *  If an error is encountered during clock configuration (crystal startup error,
 113:Generated_Source\PSoC4/cyfitter_cfg.c **** *  PLL lock error, etc.), the system will end up here.  Unless reimplemented by
 114:Generated_Source\PSoC4/cyfitter_cfg.c **** *  the customer, this function will stop in an infinite loop.
 115:Generated_Source\PSoC4/cyfitter_cfg.c **** *
 116:Generated_Source\PSoC4/cyfitter_cfg.c **** * Parameters:
 117:Generated_Source\PSoC4/cyfitter_cfg.c **** *   void
 118:Generated_Source\PSoC4/cyfitter_cfg.c **** *
 119:Generated_Source\PSoC4/cyfitter_cfg.c **** * Return:
 120:Generated_Source\PSoC4/cyfitter_cfg.c **** *   void
 121:Generated_Source\PSoC4/cyfitter_cfg.c **** *
 122:Generated_Source\PSoC4/cyfitter_cfg.c **** *******************************************************************************/
 123:Generated_Source\PSoC4/cyfitter_cfg.c **** CY_CFG_UNUSED
 124:Generated_Source\PSoC4/cyfitter_cfg.c **** static void CyClockStartupError(uint8 errorCode);
 125:Generated_Source\PSoC4/cyfitter_cfg.c **** CY_CFG_UNUSED
 126:Generated_Source\PSoC4/cyfitter_cfg.c **** static void CyClockStartupError(uint8 errorCode)
 127:Generated_Source\PSoC4/cyfitter_cfg.c **** {
 128:Generated_Source\PSoC4/cyfitter_cfg.c ****     /* To remove the compiler warning if errorCode not used.                */
 129:Generated_Source\PSoC4/cyfitter_cfg.c ****     errorCode = errorCode;
 130:Generated_Source\PSoC4/cyfitter_cfg.c **** 
 131:Generated_Source\PSoC4/cyfitter_cfg.c ****     /* If we have a clock startup error (bad MHz crystal, PLL lock, etc.),  */
 132:Generated_Source\PSoC4/cyfitter_cfg.c ****     /* we will end up here to allow the customer to implement something to  */
 133:Generated_Source\PSoC4/cyfitter_cfg.c ****     /* deal with the clock condition.                                       */
 134:Generated_Source\PSoC4/cyfitter_cfg.c **** 
 135:Generated_Source\PSoC4/cyfitter_cfg.c **** #ifdef CY_CFG_CLOCK_STARTUP_ERROR_CALLBACK
 136:Generated_Source\PSoC4/cyfitter_cfg.c ****     CY_CFG_Clock_Startup_ErrorCallback();
 137:Generated_Source\PSoC4/cyfitter_cfg.c **** #else
 138:Generated_Source\PSoC4/cyfitter_cfg.c ****     /*  If not using CY_CFG_CLOCK_STARTUP_ERROR_CALLBACK, place your clock startup code here. */
 139:Generated_Source\PSoC4/cyfitter_cfg.c ****     /* `#START CyClockStartupError` */
 140:Generated_Source\PSoC4/cyfitter_cfg.c **** 
 141:Generated_Source\PSoC4/cyfitter_cfg.c **** 
 142:Generated_Source\PSoC4/cyfitter_cfg.c **** 
 143:Generated_Source\PSoC4/cyfitter_cfg.c ****     /* `#END` */
 144:Generated_Source\PSoC4/cyfitter_cfg.c **** 
 145:Generated_Source\PSoC4/cyfitter_cfg.c ****     while(1) {}
ARM GAS  C:\Users\HELLOK~1.1\AppData\Local\Temp\ccWvkwgc.s 			page 4


 146:Generated_Source\PSoC4/cyfitter_cfg.c **** #endif /* CY_CFG_CLOCK_STARTUP_ERROR_CALLBACK */
 147:Generated_Source\PSoC4/cyfitter_cfg.c **** }
 148:Generated_Source\PSoC4/cyfitter_cfg.c **** #endif
 149:Generated_Source\PSoC4/cyfitter_cfg.c **** 
 150:Generated_Source\PSoC4/cyfitter_cfg.c **** #define CY_CFG_BASE_ADDR_COUNT 7u
 151:Generated_Source\PSoC4/cyfitter_cfg.c **** CYPACKED typedef struct
 152:Generated_Source\PSoC4/cyfitter_cfg.c **** {
 153:Generated_Source\PSoC4/cyfitter_cfg.c **** 	uint8 offset;
 154:Generated_Source\PSoC4/cyfitter_cfg.c **** 	uint8 value;
 155:Generated_Source\PSoC4/cyfitter_cfg.c **** } CYPACKED_ATTR cy_cfg_addrvalue_t;
 156:Generated_Source\PSoC4/cyfitter_cfg.c **** 
 157:Generated_Source\PSoC4/cyfitter_cfg.c **** 
 158:Generated_Source\PSoC4/cyfitter_cfg.c **** 
 159:Generated_Source\PSoC4/cyfitter_cfg.c **** /*******************************************************************************
 160:Generated_Source\PSoC4/cyfitter_cfg.c **** * Function Name: cfg_write_bytes32
 161:Generated_Source\PSoC4/cyfitter_cfg.c **** ********************************************************************************
 162:Generated_Source\PSoC4/cyfitter_cfg.c **** * Summary:
 163:Generated_Source\PSoC4/cyfitter_cfg.c **** *  This function is used for setting up the chip configuration areas that
 164:Generated_Source\PSoC4/cyfitter_cfg.c **** *  contain relatively sparse data.
 165:Generated_Source\PSoC4/cyfitter_cfg.c **** *
 166:Generated_Source\PSoC4/cyfitter_cfg.c **** * Parameters:
 167:Generated_Source\PSoC4/cyfitter_cfg.c **** *   void
 168:Generated_Source\PSoC4/cyfitter_cfg.c **** *
 169:Generated_Source\PSoC4/cyfitter_cfg.c **** * Return:
 170:Generated_Source\PSoC4/cyfitter_cfg.c **** *   void
 171:Generated_Source\PSoC4/cyfitter_cfg.c **** *
 172:Generated_Source\PSoC4/cyfitter_cfg.c **** *******************************************************************************/
 173:Generated_Source\PSoC4/cyfitter_cfg.c **** static void cfg_write_bytes32(const uint32 addr_table[], const cy_cfg_addrvalue_t data_table[]);
 174:Generated_Source\PSoC4/cyfitter_cfg.c **** static void cfg_write_bytes32(const uint32 addr_table[], const cy_cfg_addrvalue_t data_table[])
 175:Generated_Source\PSoC4/cyfitter_cfg.c **** {
  27              		.loc 1 175 0
  28              		.cfi_startproc
  29              		@ args = 0, pretend = 0, frame = 0
  30              		@ frame_needed = 0, uses_anonymous_args = 0
  31              	.LVL0:
  32 0000 F0B5     		push	{r4, r5, r6, r7, lr}
  33              		.cfi_def_cfa_offset 20
  34              		.cfi_offset 4, -20
  35              		.cfi_offset 5, -16
  36              		.cfi_offset 6, -12
  37              		.cfi_offset 7, -8
  38              		.cfi_offset 14, -4
  39              	.LVL1:
 176:Generated_Source\PSoC4/cyfitter_cfg.c **** 	/* For 32-bit little-endian architectures */
 177:Generated_Source\PSoC4/cyfitter_cfg.c **** 	uint32 i, j = 0u;
  40              		.loc 1 177 0
  41 0002 0025     		movs	r5, #0
 178:Generated_Source\PSoC4/cyfitter_cfg.c **** 	for (i = 0u; i < CY_CFG_BASE_ADDR_COUNT; i++)
  42              		.loc 1 178 0
  43 0004 0027     		movs	r7, #0
  44 0006 11E0     		b	.L2
  45              	.LVL2:
  46              	.L5:
  47              	.LBB2:
 179:Generated_Source\PSoC4/cyfitter_cfg.c **** 	{
 180:Generated_Source\PSoC4/cyfitter_cfg.c **** 		uint32 baseAddr = addr_table[i];
  48              		.loc 1 180 0
ARM GAS  C:\Users\HELLOK~1.1\AppData\Local\Temp\ccWvkwgc.s 			page 5


  49 0008 BB00     		lsls	r3, r7, #2
  50 000a C658     		ldr	r6, [r0, r3]
  51              	.LVL3:
 181:Generated_Source\PSoC4/cyfitter_cfg.c **** 		uint8 count = (uint8)baseAddr;
  52              		.loc 1 181 0
  53 000c F3B2     		uxtb	r3, r6
  54              	.LVL4:
 182:Generated_Source\PSoC4/cyfitter_cfg.c **** 		baseAddr &= 0xFFFFFF00u;
  55              		.loc 1 182 0
  56 000e FF22     		movs	r2, #255
  57 0010 9643     		bics	r6, r2
  58              	.LVL5:
 183:Generated_Source\PSoC4/cyfitter_cfg.c **** 		while (count != 0u)
  59              		.loc 1 183 0
  60 0012 08E0     		b	.L3
  61              	.L4:
 184:Generated_Source\PSoC4/cyfitter_cfg.c **** 		{
 185:Generated_Source\PSoC4/cyfitter_cfg.c **** 			CY_SET_REG8((void *)(baseAddr + data_table[j].offset), data_table[j].value);
  62              		.loc 1 185 0
  63 0014 6A00     		lsls	r2, r5, #1
  64 0016 8A18     		adds	r2, r1, r2
  65 0018 1478     		ldrb	r4, [r2]
  66 001a A419     		adds	r4, r4, r6
  67 001c 5278     		ldrb	r2, [r2, #1]
  68 001e 2270     		strb	r2, [r4]
 186:Generated_Source\PSoC4/cyfitter_cfg.c **** 			j++;
  69              		.loc 1 186 0
  70 0020 0135     		adds	r5, r5, #1
  71              	.LVL6:
 187:Generated_Source\PSoC4/cyfitter_cfg.c **** 			count--;
  72              		.loc 1 187 0
  73 0022 013B     		subs	r3, r3, #1
  74              	.LVL7:
  75 0024 DBB2     		uxtb	r3, r3
  76              	.LVL8:
  77              	.L3:
 183:Generated_Source\PSoC4/cyfitter_cfg.c **** 		{
  78              		.loc 1 183 0
  79 0026 002B     		cmp	r3, #0
  80 0028 F4D1     		bne	.L4
  81              	.LBE2:
 178:Generated_Source\PSoC4/cyfitter_cfg.c **** 	{
  82              		.loc 1 178 0 discriminator 2
  83 002a 0137     		adds	r7, r7, #1
  84              	.LVL9:
  85              	.L2:
 178:Generated_Source\PSoC4/cyfitter_cfg.c **** 	{
  86              		.loc 1 178 0 is_stmt 0 discriminator 1
  87 002c 062F     		cmp	r7, #6
  88 002e EBD9     		bls	.L5
 188:Generated_Source\PSoC4/cyfitter_cfg.c **** 		}
 189:Generated_Source\PSoC4/cyfitter_cfg.c **** 	}
 190:Generated_Source\PSoC4/cyfitter_cfg.c **** }
  89              		.loc 1 190 0 is_stmt 1
  90              		@ sp needed
  91              	.LVL10:
  92              	.LVL11:
ARM GAS  C:\Users\HELLOK~1.1\AppData\Local\Temp\ccWvkwgc.s 			page 6


  93 0030 F0BD     		pop	{r4, r5, r6, r7, pc}
  94              		.cfi_endproc
  95              	.LFE4:
  96              		.size	cfg_write_bytes32, .-cfg_write_bytes32
  97 0032 C046     		.section	.text.AnalogSetDefault,"ax",%progbits
  98              		.align	2
  99              		.code	16
 100              		.thumb_func
 101              		.type	AnalogSetDefault, %function
 102              	AnalogSetDefault:
 103              	.LFB6:
 191:Generated_Source\PSoC4/cyfitter_cfg.c **** 
 192:Generated_Source\PSoC4/cyfitter_cfg.c **** 
 193:Generated_Source\PSoC4/cyfitter_cfg.c **** /*******************************************************************************
 194:Generated_Source\PSoC4/cyfitter_cfg.c **** * Function Name: ClockSetup
 195:Generated_Source\PSoC4/cyfitter_cfg.c **** ********************************************************************************
 196:Generated_Source\PSoC4/cyfitter_cfg.c **** *
 197:Generated_Source\PSoC4/cyfitter_cfg.c **** * Summary:
 198:Generated_Source\PSoC4/cyfitter_cfg.c **** *   Performs the initialization of all of the clocks in the device based on the
 199:Generated_Source\PSoC4/cyfitter_cfg.c **** *   settings in the Clock tab of the DWR.  This includes enabling the requested
 200:Generated_Source\PSoC4/cyfitter_cfg.c **** *   clocks and setting the necessary dividers to produce the desired frequency. 
 201:Generated_Source\PSoC4/cyfitter_cfg.c **** *
 202:Generated_Source\PSoC4/cyfitter_cfg.c **** * Parameters:
 203:Generated_Source\PSoC4/cyfitter_cfg.c **** *   void
 204:Generated_Source\PSoC4/cyfitter_cfg.c **** *
 205:Generated_Source\PSoC4/cyfitter_cfg.c **** * Return:
 206:Generated_Source\PSoC4/cyfitter_cfg.c **** *   void
 207:Generated_Source\PSoC4/cyfitter_cfg.c **** *
 208:Generated_Source\PSoC4/cyfitter_cfg.c **** *******************************************************************************/
 209:Generated_Source\PSoC4/cyfitter_cfg.c **** static void ClockSetup(void);
 210:Generated_Source\PSoC4/cyfitter_cfg.c **** CY_CFG_SECTION
 211:Generated_Source\PSoC4/cyfitter_cfg.c **** static void ClockSetup(void)
 212:Generated_Source\PSoC4/cyfitter_cfg.c **** {
 213:Generated_Source\PSoC4/cyfitter_cfg.c **** 
 214:Generated_Source\PSoC4/cyfitter_cfg.c **** 	/* Set Flash Cycles based on max possible frequency in case a glitch occurs during ClockSetup(). *
 215:Generated_Source\PSoC4/cyfitter_cfg.c **** 	CY_SET_REG32((void CYXDATA *)(CYREG_CPUSS_FLASH_CTL), (0x0012u));
 216:Generated_Source\PSoC4/cyfitter_cfg.c **** 	/* Setup and trim IMO based on desired frequency. */
 217:Generated_Source\PSoC4/cyfitter_cfg.c **** 	CySysClkWriteImoFreq(48u);
 218:Generated_Source\PSoC4/cyfitter_cfg.c **** 	/* CYDEV_CLK_ILO_CONFIG Starting address: CYDEV_CLK_ILO_CONFIG */
 219:Generated_Source\PSoC4/cyfitter_cfg.c **** 	CY_SET_REG32((void *)(CYREG_CLK_ILO_CONFIG), 0x80000006u);
 220:Generated_Source\PSoC4/cyfitter_cfg.c **** 
 221:Generated_Source\PSoC4/cyfitter_cfg.c **** 
 222:Generated_Source\PSoC4/cyfitter_cfg.c **** 	/* Setup phase aligned clocks */
 223:Generated_Source\PSoC4/cyfitter_cfg.c **** 	CY_SET_REG32((void *)CYREG_PERI_DIV_16_CTL1, 0x00002F00u);
 224:Generated_Source\PSoC4/cyfitter_cfg.c **** 	CY_SET_REG32((void *)CYREG_PERI_DIV_CMD, 0x8000FF41u);
 225:Generated_Source\PSoC4/cyfitter_cfg.c **** 	CY_SET_REG32((void *)CYREG_PERI_DIV_16_CTL2, 0x00004400u);
 226:Generated_Source\PSoC4/cyfitter_cfg.c **** 	CY_SET_REG32((void *)CYREG_PERI_DIV_CMD, 0x8000FF42u);
 227:Generated_Source\PSoC4/cyfitter_cfg.c **** 	CY_SET_REG32((void *)CYREG_PERI_DIV_16_CTL0, 0x00001D00u);
 228:Generated_Source\PSoC4/cyfitter_cfg.c **** 	CY_SET_REG32((void *)CYREG_PERI_DIV_CMD, 0x8000FF40u);
 229:Generated_Source\PSoC4/cyfitter_cfg.c **** 
 230:Generated_Source\PSoC4/cyfitter_cfg.c **** 	/* CYDEV_CLK_IMO_CONFIG Starting address: CYDEV_CLK_IMO_CONFIG */
 231:Generated_Source\PSoC4/cyfitter_cfg.c **** 	CY_SET_REG32((void *)(CYREG_CLK_IMO_CONFIG), 0x80000000u);
 232:Generated_Source\PSoC4/cyfitter_cfg.c **** 
 233:Generated_Source\PSoC4/cyfitter_cfg.c **** 	/* CYDEV_CLK_SELECT Starting address: CYDEV_CLK_SELECT */
 234:Generated_Source\PSoC4/cyfitter_cfg.c **** 	CY_SET_REG32((void *)(CYREG_CLK_SELECT), 0x00040000u);
 235:Generated_Source\PSoC4/cyfitter_cfg.c **** 
 236:Generated_Source\PSoC4/cyfitter_cfg.c **** 	/* CYDEV_PERI_PCLK_CTL13 Starting address: CYDEV_PERI_PCLK_CTL13 */
ARM GAS  C:\Users\HELLOK~1.1\AppData\Local\Temp\ccWvkwgc.s 			page 7


 237:Generated_Source\PSoC4/cyfitter_cfg.c **** 	CY_SET_REG32((void *)(CYREG_PERI_PCLK_CTL13), 0x00000041u);
 238:Generated_Source\PSoC4/cyfitter_cfg.c **** 
 239:Generated_Source\PSoC4/cyfitter_cfg.c **** 	/* CYDEV_PERI_PCLK_CTL11 Starting address: CYDEV_PERI_PCLK_CTL11 */
 240:Generated_Source\PSoC4/cyfitter_cfg.c **** 	CY_SET_REG32((void *)(CYREG_PERI_PCLK_CTL11), 0x00000041u);
 241:Generated_Source\PSoC4/cyfitter_cfg.c **** 
 242:Generated_Source\PSoC4/cyfitter_cfg.c **** 	/* CYDEV_PERI_PCLK_CTL5 Starting address: CYDEV_PERI_PCLK_CTL5 */
 243:Generated_Source\PSoC4/cyfitter_cfg.c **** 	CY_SET_REG32((void *)(CYREG_PERI_PCLK_CTL5), 0x00000042u);
 244:Generated_Source\PSoC4/cyfitter_cfg.c **** 
 245:Generated_Source\PSoC4/cyfitter_cfg.c **** 	/* CYDEV_PERI_PCLK_CTL2 Starting address: CYDEV_PERI_PCLK_CTL2 */
 246:Generated_Source\PSoC4/cyfitter_cfg.c **** 	CY_SET_REG32((void *)(CYREG_PERI_PCLK_CTL2), 0x00000040u);
 247:Generated_Source\PSoC4/cyfitter_cfg.c **** 
 248:Generated_Source\PSoC4/cyfitter_cfg.c **** 	(void)CyIntSetVector(7u, &CySysWdtIsr);
 249:Generated_Source\PSoC4/cyfitter_cfg.c **** 	CyIntEnable(7u);
 250:Generated_Source\PSoC4/cyfitter_cfg.c **** 	CY_SET_REG32((void *)(CYREG_WDT_CONFIG), 0x00000000u);
 251:Generated_Source\PSoC4/cyfitter_cfg.c **** }
 252:Generated_Source\PSoC4/cyfitter_cfg.c **** 
 253:Generated_Source\PSoC4/cyfitter_cfg.c **** 
 254:Generated_Source\PSoC4/cyfitter_cfg.c **** /* Analog API Functions */
 255:Generated_Source\PSoC4/cyfitter_cfg.c **** 
 256:Generated_Source\PSoC4/cyfitter_cfg.c **** 
 257:Generated_Source\PSoC4/cyfitter_cfg.c **** /*******************************************************************************
 258:Generated_Source\PSoC4/cyfitter_cfg.c **** * Function Name: AnalogSetDefault
 259:Generated_Source\PSoC4/cyfitter_cfg.c **** ********************************************************************************
 260:Generated_Source\PSoC4/cyfitter_cfg.c **** *
 261:Generated_Source\PSoC4/cyfitter_cfg.c **** * Summary:
 262:Generated_Source\PSoC4/cyfitter_cfg.c **** *  Sets up the analog portions of the chip to default values based on chip
 263:Generated_Source\PSoC4/cyfitter_cfg.c **** *  configuration options from the project.
 264:Generated_Source\PSoC4/cyfitter_cfg.c **** *
 265:Generated_Source\PSoC4/cyfitter_cfg.c **** * Parameters:
 266:Generated_Source\PSoC4/cyfitter_cfg.c **** *  void
 267:Generated_Source\PSoC4/cyfitter_cfg.c **** *
 268:Generated_Source\PSoC4/cyfitter_cfg.c **** * Return:
 269:Generated_Source\PSoC4/cyfitter_cfg.c **** *  void
 270:Generated_Source\PSoC4/cyfitter_cfg.c **** *
 271:Generated_Source\PSoC4/cyfitter_cfg.c **** *******************************************************************************/
 272:Generated_Source\PSoC4/cyfitter_cfg.c **** static void AnalogSetDefault(void);
 273:Generated_Source\PSoC4/cyfitter_cfg.c **** static void AnalogSetDefault(void)
 274:Generated_Source\PSoC4/cyfitter_cfg.c **** {
 104              		.loc 1 274 0
 105              		.cfi_startproc
 106              		@ args = 0, pretend = 0, frame = 0
 107              		@ frame_needed = 0, uses_anonymous_args = 0
 108              		@ link register save eliminated.
 275:Generated_Source\PSoC4/cyfitter_cfg.c **** 	CY_SET_XTND_REG32((void CYFAR *)CYREG_CTBM0_DFT_CTRL, 0x00000003u);
 109              		.loc 1 275 0
 110 0000 0323     		movs	r3, #3
 111 0002 044A     		ldr	r2, .L7
 112 0004 1360     		str	r3, [r2]
 276:Generated_Source\PSoC4/cyfitter_cfg.c **** 	CY_SET_XTND_REG32((void CYFAR *)CYREG_CTBM1_DFT_CTRL, 0x00000003u);
 113              		.loc 1 276 0
 114 0006 044A     		ldr	r2, .L7+4
 115 0008 1360     		str	r3, [r2]
 277:Generated_Source\PSoC4/cyfitter_cfg.c **** 	CY_SET_XTND_REG32((void CYFAR *)CYREG_PASS_DSAB_DSAB_CTRL, 0x00000000u);
 116              		.loc 1 277 0
 117 000a 0022     		movs	r2, #0
 118 000c 034B     		ldr	r3, .L7+8
 119 000e 1A60     		str	r2, [r3]
ARM GAS  C:\Users\HELLOK~1.1\AppData\Local\Temp\ccWvkwgc.s 			page 8


 278:Generated_Source\PSoC4/cyfitter_cfg.c **** }
 120              		.loc 1 278 0
 121              		@ sp needed
 122 0010 7047     		bx	lr
 123              	.L8:
 124 0012 C046     		.align	2
 125              	.L7:
 126 0014 30003040 		.word	1076887600
 127 0018 30003140 		.word	1076953136
 128 001c 000E3F40 		.word	1077874176
 129              		.cfi_endproc
 130              	.LFE6:
 131              		.size	AnalogSetDefault, .-AnalogSetDefault
 132              		.section	.text.CYMEMZERO,"ax",%progbits
 133              		.align	2
 134              		.code	16
 135              		.thumb_func
 136              		.type	CYMEMZERO, %function
 137              	CYMEMZERO:
 138              	.LFB1:
  77:Generated_Source\PSoC4/cyfitter_cfg.c **** 	(void)memset(s, 0, n);
 139              		.loc 1 77 0
 140              		.cfi_startproc
 141              		@ args = 0, pretend = 0, frame = 0
 142              		@ frame_needed = 0, uses_anonymous_args = 0
 143              	.LVL12:
 144 0000 10B5     		push	{r4, lr}
 145              		.cfi_def_cfa_offset 8
 146              		.cfi_offset 4, -8
 147              		.cfi_offset 14, -4
 148 0002 0A00     		movs	r2, r1
  78:Generated_Source\PSoC4/cyfitter_cfg.c **** }
 149              		.loc 1 78 0
 150 0004 0021     		movs	r1, #0
 151              	.LVL13:
 152 0006 FFF7FEFF 		bl	memset
 153              	.LVL14:
  79:Generated_Source\PSoC4/cyfitter_cfg.c **** CY_CFG_UNUSED
 154              		.loc 1 79 0
 155              		@ sp needed
 156 000a 10BD     		pop	{r4, pc}
 157              		.cfi_endproc
 158              	.LFE1:
 159              		.size	CYMEMZERO, .-CYMEMZERO
 160              		.section	.psocinit,"ax",%progbits
 161              		.align	2
 162              		.code	16
 163              		.thumb_func
 164              		.type	ClockSetup, %function
 165              	ClockSetup:
 166              	.LFB5:
 212:Generated_Source\PSoC4/cyfitter_cfg.c **** 
 167              		.loc 1 212 0
 168              		.cfi_startproc
 169              		@ args = 0, pretend = 0, frame = 0
 170              		@ frame_needed = 0, uses_anonymous_args = 0
 171 0000 10B5     		push	{r4, lr}
ARM GAS  C:\Users\HELLOK~1.1\AppData\Local\Temp\ccWvkwgc.s 			page 9


 172              		.cfi_def_cfa_offset 8
 173              		.cfi_offset 4, -8
 174              		.cfi_offset 14, -4
 215:Generated_Source\PSoC4/cyfitter_cfg.c **** 	/* Setup and trim IMO based on desired frequency. */
 175              		.loc 1 215 0
 176 0002 1222     		movs	r2, #18
 177 0004 1C4B     		ldr	r3, .L11
 178 0006 1A60     		str	r2, [r3]
 217:Generated_Source\PSoC4/cyfitter_cfg.c **** 	/* CYDEV_CLK_ILO_CONFIG Starting address: CYDEV_CLK_ILO_CONFIG */
 179              		.loc 1 217 0
 180 0008 3020     		movs	r0, #48
 181 000a FFF7FEFF 		bl	CySysClkWriteImoFreq
 182              	.LVL15:
 219:Generated_Source\PSoC4/cyfitter_cfg.c **** 
 183              		.loc 1 219 0
 184 000e 1B4A     		ldr	r2, .L11+4
 185 0010 1B4B     		ldr	r3, .L11+8
 186 0012 1A60     		str	r2, [r3]
 223:Generated_Source\PSoC4/cyfitter_cfg.c **** 	CY_SET_REG32((void *)CYREG_PERI_DIV_CMD, 0x8000FF41u);
 187              		.loc 1 223 0
 188 0014 BC22     		movs	r2, #188
 189 0016 9201     		lsls	r2, r2, #6
 190 0018 1A4B     		ldr	r3, .L11+12
 191 001a 1A60     		str	r2, [r3]
 224:Generated_Source\PSoC4/cyfitter_cfg.c **** 	CY_SET_REG32((void *)CYREG_PERI_DIV_16_CTL2, 0x00004400u);
 192              		.loc 1 224 0
 193 001c 1A4B     		ldr	r3, .L11+16
 194 001e 1B4A     		ldr	r2, .L11+20
 195 0020 1A60     		str	r2, [r3]
 225:Generated_Source\PSoC4/cyfitter_cfg.c **** 	CY_SET_REG32((void *)CYREG_PERI_DIV_CMD, 0x8000FF42u);
 196              		.loc 1 225 0
 197 0022 8821     		movs	r1, #136
 198 0024 C901     		lsls	r1, r1, #7
 199 0026 1A4A     		ldr	r2, .L11+24
 200 0028 1160     		str	r1, [r2]
 226:Generated_Source\PSoC4/cyfitter_cfg.c **** 	CY_SET_REG32((void *)CYREG_PERI_DIV_16_CTL0, 0x00001D00u);
 201              		.loc 1 226 0
 202 002a 1A4A     		ldr	r2, .L11+28
 203 002c 1A60     		str	r2, [r3]
 227:Generated_Source\PSoC4/cyfitter_cfg.c **** 	CY_SET_REG32((void *)CYREG_PERI_DIV_CMD, 0x8000FF40u);
 204              		.loc 1 227 0
 205 002e E821     		movs	r1, #232
 206 0030 4901     		lsls	r1, r1, #5
 207 0032 194A     		ldr	r2, .L11+32
 208 0034 1160     		str	r1, [r2]
 228:Generated_Source\PSoC4/cyfitter_cfg.c **** 
 209              		.loc 1 228 0
 210 0036 194A     		ldr	r2, .L11+36
 211 0038 1A60     		str	r2, [r3]
 231:Generated_Source\PSoC4/cyfitter_cfg.c **** 
 212              		.loc 1 231 0
 213 003a 8022     		movs	r2, #128
 214 003c 1206     		lsls	r2, r2, #24
 215 003e 184B     		ldr	r3, .L11+40
 216 0040 1A60     		str	r2, [r3]
 234:Generated_Source\PSoC4/cyfitter_cfg.c **** 
 217              		.loc 1 234 0
ARM GAS  C:\Users\HELLOK~1.1\AppData\Local\Temp\ccWvkwgc.s 			page 10


 218 0042 8022     		movs	r2, #128
 219 0044 D202     		lsls	r2, r2, #11
 220 0046 174B     		ldr	r3, .L11+44
 221 0048 1A60     		str	r2, [r3]
 237:Generated_Source\PSoC4/cyfitter_cfg.c **** 
 222              		.loc 1 237 0
 223 004a 4123     		movs	r3, #65
 224 004c 164A     		ldr	r2, .L11+48
 225 004e 1360     		str	r3, [r2]
 240:Generated_Source\PSoC4/cyfitter_cfg.c **** 
 226              		.loc 1 240 0
 227 0050 164A     		ldr	r2, .L11+52
 228 0052 1360     		str	r3, [r2]
 243:Generated_Source\PSoC4/cyfitter_cfg.c **** 
 229              		.loc 1 243 0
 230 0054 4222     		movs	r2, #66
 231 0056 164B     		ldr	r3, .L11+56
 232 0058 1A60     		str	r2, [r3]
 246:Generated_Source\PSoC4/cyfitter_cfg.c **** 
 233              		.loc 1 246 0
 234 005a 023A     		subs	r2, r2, #2
 235 005c 154B     		ldr	r3, .L11+60
 236 005e 1A60     		str	r2, [r3]
 248:Generated_Source\PSoC4/cyfitter_cfg.c **** 	CyIntEnable(7u);
 237              		.loc 1 248 0
 238 0060 1549     		ldr	r1, .L11+64
 239 0062 0720     		movs	r0, #7
 240 0064 FFF7FEFF 		bl	CyIntSetVector
 241              	.LVL16:
 249:Generated_Source\PSoC4/cyfitter_cfg.c **** 	CY_SET_REG32((void *)(CYREG_WDT_CONFIG), 0x00000000u);
 242              		.loc 1 249 0
 243 0068 0720     		movs	r0, #7
 244 006a FFF7FEFF 		bl	CyIntEnable
 245              	.LVL17:
 250:Generated_Source\PSoC4/cyfitter_cfg.c **** }
 246              		.loc 1 250 0
 247 006e 0022     		movs	r2, #0
 248 0070 124B     		ldr	r3, .L11+68
 249 0072 1A60     		str	r2, [r3]
 251:Generated_Source\PSoC4/cyfitter_cfg.c **** 
 250              		.loc 1 251 0
 251              		@ sp needed
 252 0074 10BD     		pop	{r4, pc}
 253              	.L12:
 254 0076 C046     		.align	2
 255              	.L11:
 256 0078 30001040 		.word	1074790448
 257 007c 06000080 		.word	-2147483642
 258 0080 04010B40 		.word	1074462980
 259 0084 04030140 		.word	1073808132
 260 0088 00000140 		.word	1073807360
 261 008c 41FF0080 		.word	-2147418303
 262 0090 08030140 		.word	1073808136
 263 0094 42FF0080 		.word	-2147418302
 264 0098 00030140 		.word	1073808128
 265 009c 40FF0080 		.word	-2147418304
 266 00a0 08010B40 		.word	1074462984
ARM GAS  C:\Users\HELLOK~1.1\AppData\Local\Temp\ccWvkwgc.s 			page 11


 267 00a4 00010B40 		.word	1074462976
 268 00a8 34010140 		.word	1073807668
 269 00ac 2C010140 		.word	1073807660
 270 00b0 14010140 		.word	1073807636
 271 00b4 08010140 		.word	1073807624
 272 00b8 00000000 		.word	CySysWdtIsr
 273 00bc 0C020B40 		.word	1074463244
 274              		.cfi_endproc
 275              	.LFE5:
 276              		.size	ClockSetup, .-ClockSetup
 277              		.align	2
 278              		.global	cyfitter_cfg
 279              		.code	16
 280              		.thumb_func
 281              		.type	cyfitter_cfg, %function
 282              	cyfitter_cfg:
 283              	.LFB7:
 279:Generated_Source\PSoC4/cyfitter_cfg.c **** 
 280:Generated_Source\PSoC4/cyfitter_cfg.c **** 
 281:Generated_Source\PSoC4/cyfitter_cfg.c **** 
 282:Generated_Source\PSoC4/cyfitter_cfg.c **** 
 283:Generated_Source\PSoC4/cyfitter_cfg.c **** /*******************************************************************************
 284:Generated_Source\PSoC4/cyfitter_cfg.c **** * Function Name: cyfitter_cfg
 285:Generated_Source\PSoC4/cyfitter_cfg.c **** ********************************************************************************
 286:Generated_Source\PSoC4/cyfitter_cfg.c **** * Summary:
 287:Generated_Source\PSoC4/cyfitter_cfg.c **** *  This function is called by the start-up code for the selected device. It
 288:Generated_Source\PSoC4/cyfitter_cfg.c **** *  performs all of the necessary device configuration based on the design
 289:Generated_Source\PSoC4/cyfitter_cfg.c **** *  settings.  This includes settings from the Design Wide Resources (DWR) such
 290:Generated_Source\PSoC4/cyfitter_cfg.c **** *  as Clocks and Pins as well as any component configuration that is necessary.
 291:Generated_Source\PSoC4/cyfitter_cfg.c **** *
 292:Generated_Source\PSoC4/cyfitter_cfg.c **** * Parameters:
 293:Generated_Source\PSoC4/cyfitter_cfg.c **** *   void
 294:Generated_Source\PSoC4/cyfitter_cfg.c **** *
 295:Generated_Source\PSoC4/cyfitter_cfg.c **** * Return:
 296:Generated_Source\PSoC4/cyfitter_cfg.c **** *   void
 297:Generated_Source\PSoC4/cyfitter_cfg.c **** *
 298:Generated_Source\PSoC4/cyfitter_cfg.c **** *******************************************************************************/
 299:Generated_Source\PSoC4/cyfitter_cfg.c **** CY_CFG_SECTION
 300:Generated_Source\PSoC4/cyfitter_cfg.c **** void cyfitter_cfg(void)
 301:Generated_Source\PSoC4/cyfitter_cfg.c **** {
 284              		.loc 1 301 0
 285              		.cfi_startproc
 286              		@ args = 0, pretend = 0, frame = 0
 287              		@ frame_needed = 0, uses_anonymous_args = 0
 288 00c0 10B5     		push	{r4, lr}
 289              		.cfi_def_cfa_offset 8
 290              		.cfi_offset 4, -8
 291              		.cfi_offset 14, -4
 302:Generated_Source\PSoC4/cyfitter_cfg.c **** 	/* Disable interrupts by default. Let user enable if/when they want. */
 303:Generated_Source\PSoC4/cyfitter_cfg.c **** 	CyGlobalIntDisable;
 292              		.loc 1 303 0
 293              		.syntax divided
 294              	@ 303 "Generated_Source\PSoC4\cyfitter_cfg.c" 1
 295 00c2 72B6     		CPSID   i
 296              	@ 0 "" 2
 304:Generated_Source\PSoC4/cyfitter_cfg.c **** 
 305:Generated_Source\PSoC4/cyfitter_cfg.c **** 	/* Enable the clock in the interrupt controller for the routed interrupts */
ARM GAS  C:\Users\HELLOK~1.1\AppData\Local\Temp\ccWvkwgc.s 			page 12


 306:Generated_Source\PSoC4/cyfitter_cfg.c **** 	CY_SET_REG8((void *)CYREG_UDB_UDBIF_INT_CLK_CTL, 0x01u);
 297              		.loc 1 306 0
 298              		.thumb
 299              		.syntax unified
 300 00c4 0122     		movs	r2, #1
 301 00c6 404B     		ldr	r3, .L16
 302 00c8 1A70     		strb	r2, [r3]
 303              	.LVL18:
 304              	.LBB3:
 307:Generated_Source\PSoC4/cyfitter_cfg.c **** 	{
 308:Generated_Source\PSoC4/cyfitter_cfg.c **** 		static const uint32 CYCODE cy_cfg_addr_table[] = {
 309:Generated_Source\PSoC4/cyfitter_cfg.c **** 			0x400F3102u, /* Base address: 0x400F3100 Count: 2 */
 310:Generated_Source\PSoC4/cyfitter_cfg.c **** 			0x400F320Fu, /* Base address: 0x400F3200 Count: 15 */
 311:Generated_Source\PSoC4/cyfitter_cfg.c **** 			0x400F3316u, /* Base address: 0x400F3300 Count: 22 */
 312:Generated_Source\PSoC4/cyfitter_cfg.c **** 			0x400F400Au, /* Base address: 0x400F4000 Count: 10 */
 313:Generated_Source\PSoC4/cyfitter_cfg.c **** 			0x400F4102u, /* Base address: 0x400F4100 Count: 2 */
 314:Generated_Source\PSoC4/cyfitter_cfg.c **** 			0x400F4208u, /* Base address: 0x400F4200 Count: 8 */
 315:Generated_Source\PSoC4/cyfitter_cfg.c **** 			0x400F430Fu, /* Base address: 0x400F4300 Count: 15 */
 316:Generated_Source\PSoC4/cyfitter_cfg.c **** 		};
 317:Generated_Source\PSoC4/cyfitter_cfg.c **** 
 318:Generated_Source\PSoC4/cyfitter_cfg.c **** 		static const cy_cfg_addrvalue_t CYCODE cy_cfg_data_table[] = {
 319:Generated_Source\PSoC4/cyfitter_cfg.c **** 			{0x83u, 0x40u},
 320:Generated_Source\PSoC4/cyfitter_cfg.c **** 			{0x8Cu, 0x01u},
 321:Generated_Source\PSoC4/cyfitter_cfg.c **** 			{0x5Bu, 0x04u},
 322:Generated_Source\PSoC4/cyfitter_cfg.c **** 			{0x5Fu, 0x01u},
 323:Generated_Source\PSoC4/cyfitter_cfg.c **** 			{0x96u, 0x0Fu},
 324:Generated_Source\PSoC4/cyfitter_cfg.c **** 			{0xA8u, 0x03u},
 325:Generated_Source\PSoC4/cyfitter_cfg.c **** 			{0xAAu, 0x0Cu},
 326:Generated_Source\PSoC4/cyfitter_cfg.c **** 			{0xACu, 0x06u},
 327:Generated_Source\PSoC4/cyfitter_cfg.c **** 			{0xAEu, 0x09u},
 328:Generated_Source\PSoC4/cyfitter_cfg.c **** 			{0xB0u, 0x01u},
 329:Generated_Source\PSoC4/cyfitter_cfg.c **** 			{0xB2u, 0x04u},
 330:Generated_Source\PSoC4/cyfitter_cfg.c **** 			{0xB4u, 0x02u},
 331:Generated_Source\PSoC4/cyfitter_cfg.c **** 			{0xB6u, 0x08u},
 332:Generated_Source\PSoC4/cyfitter_cfg.c **** 			{0xBEu, 0x55u},
 333:Generated_Source\PSoC4/cyfitter_cfg.c **** 			{0xD8u, 0x04u},
 334:Generated_Source\PSoC4/cyfitter_cfg.c **** 			{0xDBu, 0x04u},
 335:Generated_Source\PSoC4/cyfitter_cfg.c **** 			{0xDFu, 0x01u},
 336:Generated_Source\PSoC4/cyfitter_cfg.c **** 			{0x08u, 0x08u},
 337:Generated_Source\PSoC4/cyfitter_cfg.c **** 			{0x10u, 0x0Au},
 338:Generated_Source\PSoC4/cyfitter_cfg.c **** 			{0x18u, 0x22u},
 339:Generated_Source\PSoC4/cyfitter_cfg.c **** 			{0x1Au, 0x88u},
 340:Generated_Source\PSoC4/cyfitter_cfg.c **** 			{0x68u, 0x0Au},
 341:Generated_Source\PSoC4/cyfitter_cfg.c **** 			{0x6Eu, 0x80u},
 342:Generated_Source\PSoC4/cyfitter_cfg.c **** 			{0x6Fu, 0x68u},
 343:Generated_Source\PSoC4/cyfitter_cfg.c **** 			{0x82u, 0x40u},
 344:Generated_Source\PSoC4/cyfitter_cfg.c **** 			{0x86u, 0x40u},
 345:Generated_Source\PSoC4/cyfitter_cfg.c **** 			{0x8Bu, 0x20u},
 346:Generated_Source\PSoC4/cyfitter_cfg.c **** 			{0x8Cu, 0x08u},
 347:Generated_Source\PSoC4/cyfitter_cfg.c **** 			{0x8Fu, 0x08u},
 348:Generated_Source\PSoC4/cyfitter_cfg.c **** 			{0x94u, 0x22u},
 349:Generated_Source\PSoC4/cyfitter_cfg.c **** 			{0x96u, 0x08u},
 350:Generated_Source\PSoC4/cyfitter_cfg.c **** 			{0x9Fu, 0x40u},
 351:Generated_Source\PSoC4/cyfitter_cfg.c **** 			{0xA8u, 0x10u},
 352:Generated_Source\PSoC4/cyfitter_cfg.c **** 			{0xB2u, 0x04u},
 353:Generated_Source\PSoC4/cyfitter_cfg.c **** 			{0xC2u, 0x04u},
 354:Generated_Source\PSoC4/cyfitter_cfg.c **** 			{0xC4u, 0x03u},
ARM GAS  C:\Users\HELLOK~1.1\AppData\Local\Temp\ccWvkwgc.s 			page 13


 355:Generated_Source\PSoC4/cyfitter_cfg.c **** 			{0xE2u, 0x80u},
 356:Generated_Source\PSoC4/cyfitter_cfg.c **** 			{0xE4u, 0x03u},
 357:Generated_Source\PSoC4/cyfitter_cfg.c **** 			{0xE8u, 0x04u},
 358:Generated_Source\PSoC4/cyfitter_cfg.c **** 			{0x1Eu, 0x04u},
 359:Generated_Source\PSoC4/cyfitter_cfg.c **** 			{0x56u, 0x02u},
 360:Generated_Source\PSoC4/cyfitter_cfg.c **** 			{0x5Au, 0x80u},
 361:Generated_Source\PSoC4/cyfitter_cfg.c **** 			{0x6Eu, 0x04u},
 362:Generated_Source\PSoC4/cyfitter_cfg.c **** 			{0x82u, 0x40u},
 363:Generated_Source\PSoC4/cyfitter_cfg.c **** 			{0xC6u, 0x80u},
 364:Generated_Source\PSoC4/cyfitter_cfg.c **** 			{0xD4u, 0x80u},
 365:Generated_Source\PSoC4/cyfitter_cfg.c **** 			{0xD6u, 0x20u},
 366:Generated_Source\PSoC4/cyfitter_cfg.c **** 			{0xDAu, 0x80u},
 367:Generated_Source\PSoC4/cyfitter_cfg.c **** 			{0xE6u, 0x80u},
 368:Generated_Source\PSoC4/cyfitter_cfg.c **** 			{0x8Au, 0x02u},
 369:Generated_Source\PSoC4/cyfitter_cfg.c **** 			{0x9Eu, 0x02u},
 370:Generated_Source\PSoC4/cyfitter_cfg.c **** 			{0x52u, 0x80u},
 371:Generated_Source\PSoC4/cyfitter_cfg.c **** 			{0x54u, 0x80u},
 372:Generated_Source\PSoC4/cyfitter_cfg.c **** 			{0x5Bu, 0x40u},
 373:Generated_Source\PSoC4/cyfitter_cfg.c **** 			{0x5Eu, 0x20u},
 374:Generated_Source\PSoC4/cyfitter_cfg.c **** 			{0x8Eu, 0x80u},
 375:Generated_Source\PSoC4/cyfitter_cfg.c **** 			{0xD4u, 0x07u},
 376:Generated_Source\PSoC4/cyfitter_cfg.c **** 			{0xD6u, 0x04u},
 377:Generated_Source\PSoC4/cyfitter_cfg.c **** 			{0xE0u, 0x02u},
 378:Generated_Source\PSoC4/cyfitter_cfg.c **** 			{0x19u, 0x08u},
 379:Generated_Source\PSoC4/cyfitter_cfg.c **** 			{0x50u, 0x04u},
 380:Generated_Source\PSoC4/cyfitter_cfg.c **** 			{0x58u, 0x10u},
 381:Generated_Source\PSoC4/cyfitter_cfg.c **** 			{0x83u, 0x40u},
 382:Generated_Source\PSoC4/cyfitter_cfg.c **** 			{0x84u, 0x10u},
 383:Generated_Source\PSoC4/cyfitter_cfg.c **** 			{0x8Cu, 0x04u},
 384:Generated_Source\PSoC4/cyfitter_cfg.c **** 			{0x8Du, 0x08u},
 385:Generated_Source\PSoC4/cyfitter_cfg.c **** 			{0x9Fu, 0x40u},
 386:Generated_Source\PSoC4/cyfitter_cfg.c **** 			{0xA8u, 0x80u},
 387:Generated_Source\PSoC4/cyfitter_cfg.c **** 			{0xB2u, 0x10u},
 388:Generated_Source\PSoC4/cyfitter_cfg.c **** 			{0xC6u, 0x08u},
 389:Generated_Source\PSoC4/cyfitter_cfg.c **** 			{0xD4u, 0x05u},
 390:Generated_Source\PSoC4/cyfitter_cfg.c **** 			{0xE0u, 0x08u},
 391:Generated_Source\PSoC4/cyfitter_cfg.c **** 			{0xE2u, 0x02u},
 392:Generated_Source\PSoC4/cyfitter_cfg.c **** 			{0xE8u, 0x01u},
 393:Generated_Source\PSoC4/cyfitter_cfg.c **** 		};
 394:Generated_Source\PSoC4/cyfitter_cfg.c **** 
 395:Generated_Source\PSoC4/cyfitter_cfg.c **** 
 396:Generated_Source\PSoC4/cyfitter_cfg.c **** 
 397:Generated_Source\PSoC4/cyfitter_cfg.c **** 		CYPACKED typedef struct {
 398:Generated_Source\PSoC4/cyfitter_cfg.c **** 			void CYFAR *address;
 399:Generated_Source\PSoC4/cyfitter_cfg.c **** 			uint16 size;
 400:Generated_Source\PSoC4/cyfitter_cfg.c **** 		} CYPACKED_ATTR cfg_memset_t;
 401:Generated_Source\PSoC4/cyfitter_cfg.c **** 
 402:Generated_Source\PSoC4/cyfitter_cfg.c **** 		static const cfg_memset_t CYCODE cfg_memset_list[] = {
 403:Generated_Source\PSoC4/cyfitter_cfg.c **** 			/* address, size */
 404:Generated_Source\PSoC4/cyfitter_cfg.c **** 			{(void CYFAR *)(CYDEV_UDB_P0_U0_BASE), 1024u},
 405:Generated_Source\PSoC4/cyfitter_cfg.c **** 			{(void CYFAR *)(CYDEV_UDB_DSI0_BASE), 1024u},
 406:Generated_Source\PSoC4/cyfitter_cfg.c **** 		};
 407:Generated_Source\PSoC4/cyfitter_cfg.c **** 
 408:Generated_Source\PSoC4/cyfitter_cfg.c **** 		uint8 CYDATA i;
 409:Generated_Source\PSoC4/cyfitter_cfg.c **** 
 410:Generated_Source\PSoC4/cyfitter_cfg.c **** 		/* Zero out critical memory blocks before beginning configuration */
 411:Generated_Source\PSoC4/cyfitter_cfg.c **** 		for (i = 0u; i < (sizeof(cfg_memset_list)/sizeof(cfg_memset_list[0])); i++)
ARM GAS  C:\Users\HELLOK~1.1\AppData\Local\Temp\ccWvkwgc.s 			page 14


 305              		.loc 1 411 0
 306 00ca 0024     		movs	r4, #0
 307 00cc 0FE0     		b	.L14
 308              	.LVL19:
 309              	.L15:
 310              	.LBB4:
 412:Generated_Source\PSoC4/cyfitter_cfg.c **** 		{
 413:Generated_Source\PSoC4/cyfitter_cfg.c **** 			const cfg_memset_t CYCODE * CYDATA ms = &cfg_memset_list[i];
 414:Generated_Source\PSoC4/cyfitter_cfg.c **** 			CYMEMZERO(ms->address, (size_t)(uint32)(ms->size));
 311              		.loc 1 414 0 discriminator 3
 312 00ce 3F48     		ldr	r0, .L16+4
 313 00d0 6200     		lsls	r2, r4, #1
 314 00d2 1319     		adds	r3, r2, r4
 315 00d4 5900     		lsls	r1, r3, #1
 316 00d6 0B00     		movs	r3, r1
 317 00d8 4118     		adds	r1, r0, r1
 318 00da 8988     		ldrh	r1, [r1, #4]
 319 00dc 1A5A     		ldrh	r2, [r3, r0]
 320 00de C318     		adds	r3, r0, r3
 321 00e0 5888     		ldrh	r0, [r3, #2]
 322 00e2 0004     		lsls	r0, r0, #16
 323 00e4 1043     		orrs	r0, r2
 324 00e6 FFF7FEFF 		bl	CYMEMZERO
 325              	.LVL20:
 326              	.LBE4:
 411:Generated_Source\PSoC4/cyfitter_cfg.c **** 		{
 327              		.loc 1 411 0 discriminator 3
 328 00ea 0134     		adds	r4, r4, #1
 329              	.LVL21:
 330 00ec E4B2     		uxtb	r4, r4
 331              	.LVL22:
 332              	.L14:
 411:Generated_Source\PSoC4/cyfitter_cfg.c **** 		{
 333              		.loc 1 411 0 is_stmt 0 discriminator 1
 334 00ee 012C     		cmp	r4, #1
 335 00f0 EDD9     		bls	.L15
 415:Generated_Source\PSoC4/cyfitter_cfg.c **** 		}
 416:Generated_Source\PSoC4/cyfitter_cfg.c **** 
 417:Generated_Source\PSoC4/cyfitter_cfg.c **** 		cfg_write_bytes32(cy_cfg_addr_table, cy_cfg_data_table);
 336              		.loc 1 417 0 is_stmt 1
 337 00f2 3649     		ldr	r1, .L16+4
 338 00f4 0C31     		adds	r1, r1, #12
 339 00f6 3648     		ldr	r0, .L16+8
 340 00f8 2030     		adds	r0, r0, #32
 341 00fa FFF7FEFF 		bl	cfg_write_bytes32
 342              	.LVL23:
 418:Generated_Source\PSoC4/cyfitter_cfg.c **** 
 419:Generated_Source\PSoC4/cyfitter_cfg.c **** 		/* HSIOM Starting address: CYDEV_HSIOM_BASE */
 420:Generated_Source\PSoC4/cyfitter_cfg.c **** 		CY_SET_REG32((void *)(CYDEV_HSIOM_BASE), 0x00003300u);
 343              		.loc 1 420 0
 344 00fe CC22     		movs	r2, #204
 345 0100 9201     		lsls	r2, r2, #6
 346 0102 344B     		ldr	r3, .L16+12
 347 0104 1A60     		str	r2, [r3]
 421:Generated_Source\PSoC4/cyfitter_cfg.c **** 		CY_SET_REG32((void *)(CYREG_HSIOM_PORT_SEL2), 0x00003333u);
 348              		.loc 1 421 0
 349 0106 344A     		ldr	r2, .L16+16
ARM GAS  C:\Users\HELLOK~1.1\AppData\Local\Temp\ccWvkwgc.s 			page 15


 350 0108 344B     		ldr	r3, .L16+20
 351 010a 1A60     		str	r2, [r3]
 422:Generated_Source\PSoC4/cyfitter_cfg.c **** 		CY_SET_REG32((void *)(CYREG_HSIOM_PORT_SEL3), 0x0008EE33u);
 352              		.loc 1 422 0
 353 010c 344A     		ldr	r2, .L16+24
 354 010e 354B     		ldr	r3, .L16+28
 355 0110 1A60     		str	r2, [r3]
 423:Generated_Source\PSoC4/cyfitter_cfg.c **** 		CY_SET_REG32((void *)(CYREG_HSIOM_PORT_SEL4), 0x000000EEu);
 356              		.loc 1 423 0
 357 0112 EE22     		movs	r2, #238
 358 0114 344B     		ldr	r3, .L16+32
 359 0116 1A60     		str	r2, [r3]
 424:Generated_Source\PSoC4/cyfitter_cfg.c **** 		CY_SET_REG32((void *)(CYREG_HSIOM_PORT_SEL7), 0x00000099u);
 360              		.loc 1 424 0
 361 0118 553A     		subs	r2, r2, #85
 362 011a 344B     		ldr	r3, .L16+36
 363 011c 1A60     		str	r2, [r3]
 425:Generated_Source\PSoC4/cyfitter_cfg.c **** 
 426:Generated_Source\PSoC4/cyfitter_cfg.c **** 		/* UDB_PA_0 Starting address: CYDEV_UDB_PA0_BASE */
 427:Generated_Source\PSoC4/cyfitter_cfg.c **** 		CY_SET_REG32((void *)(CYDEV_UDB_PA0_BASE), 0x00990000u);
 364              		.loc 1 427 0
 365 011e 9923     		movs	r3, #153
 366 0120 1B04     		lsls	r3, r3, #16
 367 0122 334A     		ldr	r2, .L16+40
 368 0124 1360     		str	r3, [r2]
 428:Generated_Source\PSoC4/cyfitter_cfg.c **** 		CY_SET_REG32((void *)(CYREG_UDB_PA0_CFG8), 0x00B00000u);
 369              		.loc 1 428 0
 370 0126 B021     		movs	r1, #176
 371 0128 0904     		lsls	r1, r1, #16
 372 012a 324A     		ldr	r2, .L16+44
 373 012c 1160     		str	r1, [r2]
 429:Generated_Source\PSoC4/cyfitter_cfg.c **** 
 430:Generated_Source\PSoC4/cyfitter_cfg.c **** 		/* UDB_PA_2 Starting address: CYDEV_UDB_PA2_BASE */
 431:Generated_Source\PSoC4/cyfitter_cfg.c **** 		CY_SET_REG32((void *)(CYDEV_UDB_PA2_BASE), 0x00990000u);
 374              		.loc 1 431 0
 375 012e 324A     		ldr	r2, .L16+48
 376 0130 1360     		str	r3, [r2]
 432:Generated_Source\PSoC4/cyfitter_cfg.c **** 		CY_SET_REG32((void *)(CYREG_UDB_PA2_CFG8), 0x00390000u);
 377              		.loc 1 432 0
 378 0132 E421     		movs	r1, #228
 379 0134 8903     		lsls	r1, r1, #14
 380 0136 314A     		ldr	r2, .L16+52
 381 0138 1160     		str	r1, [r2]
 433:Generated_Source\PSoC4/cyfitter_cfg.c **** 
 434:Generated_Source\PSoC4/cyfitter_cfg.c **** 		/* UDB_PA_3 Starting address: CYDEV_UDB_PA3_BASE */
 435:Generated_Source\PSoC4/cyfitter_cfg.c **** 		CY_SET_REG32((void *)(CYDEV_UDB_PA3_BASE), 0x00990000u);
 382              		.loc 1 435 0
 383 013a 314A     		ldr	r2, .L16+56
 384 013c 1360     		str	r3, [r2]
 436:Generated_Source\PSoC4/cyfitter_cfg.c **** 		CY_SET_REG32((void *)(CYREG_UDB_PA3_CFG8), 0x00520000u);
 385              		.loc 1 436 0
 386 013e A422     		movs	r2, #164
 387 0140 D203     		lsls	r2, r2, #15
 388 0142 304B     		ldr	r3, .L16+60
 389 0144 1A60     		str	r2, [r3]
 437:Generated_Source\PSoC4/cyfitter_cfg.c **** 
 438:Generated_Source\PSoC4/cyfitter_cfg.c **** 		/* INT_SELECT Starting address: CYDEV_CPUSS_INT_SEL */
ARM GAS  C:\Users\HELLOK~1.1\AppData\Local\Temp\ccWvkwgc.s 			page 16


 439:Generated_Source\PSoC4/cyfitter_cfg.c **** 		CY_SET_REG32((void *)(CYREG_CPUSS_INT_SEL), 0x00000002u);
 390              		.loc 1 439 0
 391 0146 0221     		movs	r1, #2
 392 0148 2F4B     		ldr	r3, .L16+64
 393 014a 1960     		str	r1, [r3]
 440:Generated_Source\PSoC4/cyfitter_cfg.c **** 
 441:Generated_Source\PSoC4/cyfitter_cfg.c **** 		/* Enable UDB array and digital routing */
 442:Generated_Source\PSoC4/cyfitter_cfg.c **** 		CY_SET_XTND_REG8((void *)CYREG_UDB_UDBIF_WAIT_CFG, (uint8)((CY_GET_XTND_REG8((void *)CYREG_UDB_UD
 394              		.loc 1 442 0
 395 014c 2F48     		ldr	r0, .L16+68
 396 014e 0378     		ldrb	r3, [r0]
 397 0150 3C22     		movs	r2, #60
 398 0152 9343     		bics	r3, r2
 399 0154 1422     		movs	r2, #20
 400 0156 1343     		orrs	r3, r2
 401 0158 DBB2     		uxtb	r3, r3
 402 015a 0370     		strb	r3, [r0]
 443:Generated_Source\PSoC4/cyfitter_cfg.c **** 		CY_SET_XTND_REG8((void *)CYREG_UDB_UDBIF_BANK_CTL, (uint8)(CY_GET_XTND_REG8((void *)CYREG_UDB_UDB
 403              		.loc 1 443 0
 404 015c 2C4A     		ldr	r2, .L16+72
 405 015e 1078     		ldrb	r0, [r2]
 406 0160 1623     		movs	r3, #22
 407 0162 0343     		orrs	r3, r0
 408 0164 DBB2     		uxtb	r3, r3
 409 0166 1370     		strb	r3, [r2]
 410              	.LBE3:
 444:Generated_Source\PSoC4/cyfitter_cfg.c **** 	}
 445:Generated_Source\PSoC4/cyfitter_cfg.c **** 
 446:Generated_Source\PSoC4/cyfitter_cfg.c **** 	/* Perform second pass device configuration. These items must be configured in specific order afte
 447:Generated_Source\PSoC4/cyfitter_cfg.c **** 	/* IOPINS0_0 Starting address: CYDEV_GPIO_PRT0_BASE */
 448:Generated_Source\PSoC4/cyfitter_cfg.c **** 	CY_SET_REG32((void *)(CYDEV_GPIO_PRT0_BASE), 0x0000000Cu);
 411              		.loc 1 448 0
 412 0168 0C22     		movs	r2, #12
 413 016a 2A4B     		ldr	r3, .L16+76
 414 016c 1A60     		str	r2, [r3]
 449:Generated_Source\PSoC4/cyfitter_cfg.c **** 	CY_SET_REG32((void *)(CYREG_GPIO_PRT0_PC), 0x00000D89u);
 415              		.loc 1 449 0
 416 016e 2A4A     		ldr	r2, .L16+80
 417 0170 2A4B     		ldr	r3, .L16+84
 418 0172 1A60     		str	r2, [r3]
 450:Generated_Source\PSoC4/cyfitter_cfg.c **** 	CY_SET_REG32((void *)(CYREG_GPIO_PRT0_INTR_CFG), 0x0000000Fu);
 419              		.loc 1 450 0
 420 0174 0F23     		movs	r3, #15
 421 0176 2A4A     		ldr	r2, .L16+88
 422 0178 1360     		str	r3, [r2]
 451:Generated_Source\PSoC4/cyfitter_cfg.c **** 
 452:Generated_Source\PSoC4/cyfitter_cfg.c **** 	/* IOPINS0_2 Starting address: CYDEV_GPIO_PRT2_BASE */
 453:Generated_Source\PSoC4/cyfitter_cfg.c **** 	CY_SET_REG32((void *)(CYDEV_GPIO_PRT2_BASE), 0x0000000Fu);
 423              		.loc 1 453 0
 424 017a 2A4A     		ldr	r2, .L16+92
 425 017c 1360     		str	r3, [r2]
 454:Generated_Source\PSoC4/cyfitter_cfg.c **** 	CY_SET_REG32((void *)(CYREG_GPIO_PRT2_PC), 0x00000DB6u);
 426              		.loc 1 454 0
 427 017e 2A4A     		ldr	r2, .L16+96
 428 0180 2A4B     		ldr	r3, .L16+100
 429 0182 1A60     		str	r2, [r3]
 455:Generated_Source\PSoC4/cyfitter_cfg.c **** 
ARM GAS  C:\Users\HELLOK~1.1\AppData\Local\Temp\ccWvkwgc.s 			page 17


 456:Generated_Source\PSoC4/cyfitter_cfg.c **** 	/* IOPINS0_3 Starting address: CYDEV_GPIO_PRT3_BASE */
 457:Generated_Source\PSoC4/cyfitter_cfg.c **** 	CY_SET_REG32((void *)(CYDEV_GPIO_PRT3_BASE), 0x00000013u);
 430              		.loc 1 457 0
 431 0184 1322     		movs	r2, #19
 432 0186 2A4B     		ldr	r3, .L16+104
 433 0188 1A60     		str	r2, [r3]
 458:Generated_Source\PSoC4/cyfitter_cfg.c **** 	CY_SET_REG32((void *)(CYREG_GPIO_PRT3_PC), 0x00006DB6u);
 434              		.loc 1 458 0
 435 018a 2A4A     		ldr	r2, .L16+108
 436 018c 2A4B     		ldr	r3, .L16+112
 437 018e 1A60     		str	r2, [r3]
 459:Generated_Source\PSoC4/cyfitter_cfg.c **** 
 460:Generated_Source\PSoC4/cyfitter_cfg.c **** 	/* IOPINS0_4 Starting address: CYDEV_GPIO_PRT4_BASE */
 461:Generated_Source\PSoC4/cyfitter_cfg.c **** 	CY_SET_REG32((void *)(CYDEV_GPIO_PRT4_BASE), 0x00000003u);
 438              		.loc 1 461 0
 439 0190 0322     		movs	r2, #3
 440 0192 2A4B     		ldr	r3, .L16+116
 441 0194 1A60     		str	r2, [r3]
 462:Generated_Source\PSoC4/cyfitter_cfg.c **** 	CY_SET_REG32((void *)(CYREG_GPIO_PRT4_PC), 0x00018024u);
 442              		.loc 1 462 0
 443 0196 2A4A     		ldr	r2, .L16+120
 444 0198 2A4B     		ldr	r3, .L16+124
 445 019a 1A60     		str	r2, [r3]
 463:Generated_Source\PSoC4/cyfitter_cfg.c **** 	CY_SET_REG32((void *)(CYREG_GPIO_PRT4_INTR_CFG), 0x00000400u);
 446              		.loc 1 463 0
 447 019c 8023     		movs	r3, #128
 448 019e DB00     		lsls	r3, r3, #3
 449 01a0 294A     		ldr	r2, .L16+128
 450 01a2 1360     		str	r3, [r2]
 464:Generated_Source\PSoC4/cyfitter_cfg.c **** 
 465:Generated_Source\PSoC4/cyfitter_cfg.c **** 	/* IOPINS0_5 Starting address: CYDEV_GPIO_PRT5_BASE */
 466:Generated_Source\PSoC4/cyfitter_cfg.c **** 	CY_SET_REG32((void *)(CYREG_GPIO_PRT5_PC), 0x00008200u);
 451              		.loc 1 466 0
 452 01a4 8220     		movs	r0, #130
 453 01a6 0002     		lsls	r0, r0, #8
 454 01a8 284A     		ldr	r2, .L16+132
 455 01aa 1060     		str	r0, [r2]
 467:Generated_Source\PSoC4/cyfitter_cfg.c **** 	CY_SET_REG32((void *)(CYREG_GPIO_PRT5_INTR_CFG), 0x00000400u);
 456              		.loc 1 467 0
 457 01ac 284A     		ldr	r2, .L16+136
 458 01ae 1360     		str	r3, [r2]
 468:Generated_Source\PSoC4/cyfitter_cfg.c **** 
 469:Generated_Source\PSoC4/cyfitter_cfg.c **** 	/* IOPINS0_7 Starting address: CYDEV_GPIO_PRT7_BASE */
 470:Generated_Source\PSoC4/cyfitter_cfg.c **** 	CY_SET_REG32((void *)(CYDEV_GPIO_PRT7_BASE), 0x00000002u);
 459              		.loc 1 470 0
 460 01b0 284B     		ldr	r3, .L16+140
 461 01b2 1960     		str	r1, [r3]
 471:Generated_Source\PSoC4/cyfitter_cfg.c **** 	CY_SET_REG32((void *)(CYREG_GPIO_PRT7_PC), 0x00000031u);
 462              		.loc 1 471 0
 463 01b4 3122     		movs	r2, #49
 464 01b6 284B     		ldr	r3, .L16+144
 465 01b8 1A60     		str	r2, [r3]
 472:Generated_Source\PSoC4/cyfitter_cfg.c **** 	CY_SET_REG32((void *)(CYREG_GPIO_PRT7_PC2), 0x00000002u);
 466              		.loc 1 472 0
 467 01ba 284B     		ldr	r3, .L16+148
 468 01bc 1960     		str	r1, [r3]
 473:Generated_Source\PSoC4/cyfitter_cfg.c **** 
ARM GAS  C:\Users\HELLOK~1.1\AppData\Local\Temp\ccWvkwgc.s 			page 18


 474:Generated_Source\PSoC4/cyfitter_cfg.c **** 
 475:Generated_Source\PSoC4/cyfitter_cfg.c **** 	/* Setup clocks based on selections from Clock DWR */
 476:Generated_Source\PSoC4/cyfitter_cfg.c **** 	ClockSetup();
 469              		.loc 1 476 0
 470 01be FFF71FFF 		bl	ClockSetup
 471              	.LVL24:
 477:Generated_Source\PSoC4/cyfitter_cfg.c **** 
 478:Generated_Source\PSoC4/cyfitter_cfg.c **** 	/* Perform basic analog initialization to defaults */
 479:Generated_Source\PSoC4/cyfitter_cfg.c **** 	AnalogSetDefault();
 472              		.loc 1 479 0
 473 01c2 FFF7FEFF 		bl	AnalogSetDefault
 474              	.LVL25:
 480:Generated_Source\PSoC4/cyfitter_cfg.c **** 
 481:Generated_Source\PSoC4/cyfitter_cfg.c **** }
 475              		.loc 1 481 0
 476              		@ sp needed
 477              	.LVL26:
 478 01c6 10BD     		pop	{r4, pc}
 479              	.L17:
 480              		.align	2
 481              	.L16:
 482 01c8 1C700F40 		.word	1074753564
 483 01cc 00000000 		.word	.LANCHOR0
 484 01d0 80000000 		.word	.LANCHOR1
 485 01d4 00000240 		.word	1073872896
 486 01d8 33330000 		.word	13107
 487 01dc 00020240 		.word	1073873408
 488 01e0 33EE0800 		.word	585267
 489 01e4 00030240 		.word	1073873664
 490 01e8 00040240 		.word	1073873920
 491 01ec 00070240 		.word	1073874688
 492 01f0 00500F40 		.word	1074745344
 493 01f4 08500F40 		.word	1074745352
 494 01f8 20500F40 		.word	1074745376
 495 01fc 28500F40 		.word	1074745384
 496 0200 30500F40 		.word	1074745392
 497 0204 38500F40 		.word	1074745400
 498 0208 20001040 		.word	1074790432
 499 020c 01700F40 		.word	1074753537
 500 0210 00700F40 		.word	1074753536
 501 0214 00000440 		.word	1074003968
 502 0218 890D0000 		.word	3465
 503 021c 08000440 		.word	1074003976
 504 0220 0C000440 		.word	1074003980
 505 0224 00020440 		.word	1074004480
 506 0228 B60D0000 		.word	3510
 507 022c 08020440 		.word	1074004488
 508 0230 00030440 		.word	1074004736
 509 0234 B66D0000 		.word	28086
 510 0238 08030440 		.word	1074004744
 511 023c 00040440 		.word	1074004992
 512 0240 24800100 		.word	98340
 513 0244 08040440 		.word	1074005000
 514 0248 0C040440 		.word	1074005004
 515 024c 08050440 		.word	1074005256
 516 0250 0C050440 		.word	1074005260
 517 0254 00070440 		.word	1074005760
ARM GAS  C:\Users\HELLOK~1.1\AppData\Local\Temp\ccWvkwgc.s 			page 19


 518 0258 08070440 		.word	1074005768
 519 025c 18070440 		.word	1074005784
 520              		.cfi_endproc
 521              	.LFE7:
 522              		.size	cyfitter_cfg, .-cyfitter_cfg
 523              		.section	.rodata
 524              		.align	2
 525              		.set	.LANCHOR0,. + 0
 526              		.set	.LANCHOR1,. + 128
 527              		.type	cfg_memset_list.4911, %object
 528              		.size	cfg_memset_list.4911, 12
 529              	cfg_memset_list.4911:
 530 0000 00300F40 		.word	1074737152
 531 0004 0004     		.short	1024
 532 0006 00400F40 		.4byte	1074741248
 533 000a 0004     		.short	1024
 534              		.type	cy_cfg_data_table.4906, %object
 535              		.size	cy_cfg_data_table.4906, 148
 536              	cy_cfg_data_table.4906:
 537 000c 83       		.byte	-125
 538 000d 40       		.byte	64
 539 000e 8C       		.byte	-116
 540 000f 01       		.byte	1
 541 0010 5B       		.byte	91
 542 0011 04       		.byte	4
 543 0012 5F       		.byte	95
 544 0013 01       		.byte	1
 545 0014 96       		.byte	-106
 546 0015 0F       		.byte	15
 547 0016 A8       		.byte	-88
 548 0017 03       		.byte	3
 549 0018 AA       		.byte	-86
 550 0019 0C       		.byte	12
 551 001a AC       		.byte	-84
 552 001b 06       		.byte	6
 553 001c AE       		.byte	-82
 554 001d 09       		.byte	9
 555 001e B0       		.byte	-80
 556 001f 01       		.byte	1
 557 0020 B2       		.byte	-78
 558 0021 04       		.byte	4
 559 0022 B4       		.byte	-76
 560 0023 02       		.byte	2
 561 0024 B6       		.byte	-74
 562 0025 08       		.byte	8
 563 0026 BE       		.byte	-66
 564 0027 55       		.byte	85
 565 0028 D8       		.byte	-40
 566 0029 04       		.byte	4
 567 002a DB       		.byte	-37
 568 002b 04       		.byte	4
 569 002c DF       		.byte	-33
 570 002d 01       		.byte	1
 571 002e 08       		.byte	8
 572 002f 08       		.byte	8
 573 0030 10       		.byte	16
 574 0031 0A       		.byte	10
ARM GAS  C:\Users\HELLOK~1.1\AppData\Local\Temp\ccWvkwgc.s 			page 20


 575 0032 18       		.byte	24
 576 0033 22       		.byte	34
 577 0034 1A       		.byte	26
 578 0035 88       		.byte	-120
 579 0036 68       		.byte	104
 580 0037 0A       		.byte	10
 581 0038 6E       		.byte	110
 582 0039 80       		.byte	-128
 583 003a 6F       		.byte	111
 584 003b 68       		.byte	104
 585 003c 82       		.byte	-126
 586 003d 40       		.byte	64
 587 003e 86       		.byte	-122
 588 003f 40       		.byte	64
 589 0040 8B       		.byte	-117
 590 0041 20       		.byte	32
 591 0042 8C       		.byte	-116
 592 0043 08       		.byte	8
 593 0044 8F       		.byte	-113
 594 0045 08       		.byte	8
 595 0046 94       		.byte	-108
 596 0047 22       		.byte	34
 597 0048 96       		.byte	-106
 598 0049 08       		.byte	8
 599 004a 9F       		.byte	-97
 600 004b 40       		.byte	64
 601 004c A8       		.byte	-88
 602 004d 10       		.byte	16
 603 004e B2       		.byte	-78
 604 004f 04       		.byte	4
 605 0050 C2       		.byte	-62
 606 0051 04       		.byte	4
 607 0052 C4       		.byte	-60
 608 0053 03       		.byte	3
 609 0054 E2       		.byte	-30
 610 0055 80       		.byte	-128
 611 0056 E4       		.byte	-28
 612 0057 03       		.byte	3
 613 0058 E8       		.byte	-24
 614 0059 04       		.byte	4
 615 005a 1E       		.byte	30
 616 005b 04       		.byte	4
 617 005c 56       		.byte	86
 618 005d 02       		.byte	2
 619 005e 5A       		.byte	90
 620 005f 80       		.byte	-128
 621 0060 6E       		.byte	110
 622 0061 04       		.byte	4
 623 0062 82       		.byte	-126
 624 0063 40       		.byte	64
 625 0064 C6       		.byte	-58
 626 0065 80       		.byte	-128
 627 0066 D4       		.byte	-44
 628 0067 80       		.byte	-128
 629 0068 D6       		.byte	-42
 630 0069 20       		.byte	32
 631 006a DA       		.byte	-38
ARM GAS  C:\Users\HELLOK~1.1\AppData\Local\Temp\ccWvkwgc.s 			page 21


 632 006b 80       		.byte	-128
 633 006c E6       		.byte	-26
 634 006d 80       		.byte	-128
 635 006e 8A       		.byte	-118
 636 006f 02       		.byte	2
 637 0070 9E       		.byte	-98
 638 0071 02       		.byte	2
 639 0072 52       		.byte	82
 640 0073 80       		.byte	-128
 641 0074 54       		.byte	84
 642 0075 80       		.byte	-128
 643 0076 5B       		.byte	91
 644 0077 40       		.byte	64
 645 0078 5E       		.byte	94
 646 0079 20       		.byte	32
 647 007a 8E       		.byte	-114
 648 007b 80       		.byte	-128
 649 007c D4       		.byte	-44
 650 007d 07       		.byte	7
 651 007e D6       		.byte	-42
 652 007f 04       		.byte	4
 653 0080 E0       		.byte	-32
 654 0081 02       		.byte	2
 655 0082 19       		.byte	25
 656 0083 08       		.byte	8
 657 0084 50       		.byte	80
 658 0085 04       		.byte	4
 659 0086 58       		.byte	88
 660 0087 10       		.byte	16
 661 0088 83       		.byte	-125
 662 0089 40       		.byte	64
 663 008a 84       		.byte	-124
 664 008b 10       		.byte	16
 665 008c 8C       		.byte	-116
 666 008d 04       		.byte	4
 667 008e 8D       		.byte	-115
 668 008f 08       		.byte	8
 669 0090 9F       		.byte	-97
 670 0091 40       		.byte	64
 671 0092 A8       		.byte	-88
 672 0093 80       		.byte	-128
 673 0094 B2       		.byte	-78
 674 0095 10       		.byte	16
 675 0096 C6       		.byte	-58
 676 0097 08       		.byte	8
 677 0098 D4       		.byte	-44
 678 0099 05       		.byte	5
 679 009a E0       		.byte	-32
 680 009b 08       		.byte	8
 681 009c E2       		.byte	-30
 682 009d 02       		.byte	2
 683 009e E8       		.byte	-24
 684 009f 01       		.byte	1
 685              		.type	cy_cfg_addr_table.4905, %object
 686              		.size	cy_cfg_addr_table.4905, 28
 687              	cy_cfg_addr_table.4905:
 688 00a0 02310F40 		.word	1074737410
ARM GAS  C:\Users\HELLOK~1.1\AppData\Local\Temp\ccWvkwgc.s 			page 22


 689 00a4 0F320F40 		.word	1074737679
 690 00a8 16330F40 		.word	1074737942
 691 00ac 0A400F40 		.word	1074741258
 692 00b0 02410F40 		.word	1074741506
 693 00b4 08420F40 		.word	1074741768
 694 00b8 0F430F40 		.word	1074742031
 695              		.text
 696              	.Letext0:
 697              		.file 2 "c:\\program files (x86)\\cypress\\psoc creator\\4.4\\psoc creator\\import\\gnu\\arm\\5.4.
 698              		.file 3 "Generated_Source\\PSoC4\\cytypes.h"
 699              		.file 4 "Generated_Source\\PSoC4\\CyLib.h"