ARM GAS  C:\Users\HELLOK~1\AppData\Local\Temp\ccC6GXFo.s 			page 1


   1              		.syntax unified
   2              		.cpu cortex-m0
   3              		.fpu softvfp
   4              		.eabi_attribute 20, 1
   5              		.eabi_attribute 21, 1
   6              		.eabi_attribute 23, 3
   7              		.eabi_attribute 24, 1
   8              		.eabi_attribute 25, 1
   9              		.eabi_attribute 26, 1
  10              		.eabi_attribute 30, 1
  11              		.eabi_attribute 34, 0
  12              		.eabi_attribute 18, 4
  13              		.thumb
  14              		.syntax unified
  15              		.file	"ENC_ISR.c"
  16              		.text
  17              	.Ltext0:
  18              		.cfi_sections	.debug_frame
  19              		.section	.text.ENC_ISR_Interrupt,"ax",%progbits
  20              		.align	2
  21              		.global	ENC_ISR_Interrupt
  22              		.code	16
  23              		.thumb_func
  24              		.type	ENC_ISR_Interrupt, %function
  25              	ENC_ISR_Interrupt:
  26              	.LFB4:
  27              		.file 1 "Generated_Source\\PSoC4\\ENC_ISR.c"
   1:Generated_Source\PSoC4/ENC_ISR.c **** /*******************************************************************************
   2:Generated_Source\PSoC4/ENC_ISR.c **** * File Name: ENC_ISR.c  
   3:Generated_Source\PSoC4/ENC_ISR.c **** * Version 1.71
   4:Generated_Source\PSoC4/ENC_ISR.c **** *
   5:Generated_Source\PSoC4/ENC_ISR.c **** *  Description:
   6:Generated_Source\PSoC4/ENC_ISR.c **** *   API for controlling the state of an interrupt.
   7:Generated_Source\PSoC4/ENC_ISR.c **** *
   8:Generated_Source\PSoC4/ENC_ISR.c **** *
   9:Generated_Source\PSoC4/ENC_ISR.c **** *  Note:
  10:Generated_Source\PSoC4/ENC_ISR.c **** *
  11:Generated_Source\PSoC4/ENC_ISR.c **** ********************************************************************************
  12:Generated_Source\PSoC4/ENC_ISR.c **** * Copyright 2008-2015, Cypress Semiconductor Corporation.  All rights reserved.
  13:Generated_Source\PSoC4/ENC_ISR.c **** * You may use this file only in accordance with the license, terms, conditions, 
  14:Generated_Source\PSoC4/ENC_ISR.c **** * disclaimers, and limitations in the end user license agreement accompanying 
  15:Generated_Source\PSoC4/ENC_ISR.c **** * the software package with which this file was provided.
  16:Generated_Source\PSoC4/ENC_ISR.c **** *******************************************************************************/
  17:Generated_Source\PSoC4/ENC_ISR.c **** 
  18:Generated_Source\PSoC4/ENC_ISR.c **** 
  19:Generated_Source\PSoC4/ENC_ISR.c **** #include <cydevice_trm.h>
  20:Generated_Source\PSoC4/ENC_ISR.c **** #include <CyLib.h>
  21:Generated_Source\PSoC4/ENC_ISR.c **** #include <ENC_ISR.h>
  22:Generated_Source\PSoC4/ENC_ISR.c **** #include "cyapicallbacks.h"
  23:Generated_Source\PSoC4/ENC_ISR.c **** 
  24:Generated_Source\PSoC4/ENC_ISR.c **** #if !defined(ENC_ISR__REMOVED) /* Check for removal by optimization */
  25:Generated_Source\PSoC4/ENC_ISR.c **** 
  26:Generated_Source\PSoC4/ENC_ISR.c **** /*******************************************************************************
  27:Generated_Source\PSoC4/ENC_ISR.c **** *  Place your includes, defines and code here 
  28:Generated_Source\PSoC4/ENC_ISR.c **** ********************************************************************************/
  29:Generated_Source\PSoC4/ENC_ISR.c **** /* `#START ENC_ISR_intc` */
  30:Generated_Source\PSoC4/ENC_ISR.c **** #include "ENC.h"
ARM GAS  C:\Users\HELLOK~1\AppData\Local\Temp\ccC6GXFo.s 			page 2


  31:Generated_Source\PSoC4/ENC_ISR.c **** extern volatile uint8 encFlag;
  32:Generated_Source\PSoC4/ENC_ISR.c **** extern volatile uint8 encPos;
  33:Generated_Source\PSoC4/ENC_ISR.c **** /* `#END` */
  34:Generated_Source\PSoC4/ENC_ISR.c **** 
  35:Generated_Source\PSoC4/ENC_ISR.c **** extern cyisraddress CyRamVectors[CYINT_IRQ_BASE + CY_NUM_INTERRUPTS];
  36:Generated_Source\PSoC4/ENC_ISR.c **** 
  37:Generated_Source\PSoC4/ENC_ISR.c **** /* Declared in startup, used to set unused interrupts to. */
  38:Generated_Source\PSoC4/ENC_ISR.c **** CY_ISR_PROTO(IntDefaultHandler);
  39:Generated_Source\PSoC4/ENC_ISR.c **** 
  40:Generated_Source\PSoC4/ENC_ISR.c **** 
  41:Generated_Source\PSoC4/ENC_ISR.c **** /*******************************************************************************
  42:Generated_Source\PSoC4/ENC_ISR.c **** * Function Name: ENC_ISR_Start
  43:Generated_Source\PSoC4/ENC_ISR.c **** ********************************************************************************
  44:Generated_Source\PSoC4/ENC_ISR.c **** *
  45:Generated_Source\PSoC4/ENC_ISR.c **** * Summary:
  46:Generated_Source\PSoC4/ENC_ISR.c **** *  Set up the interrupt and enable it. This function disables the interrupt, 
  47:Generated_Source\PSoC4/ENC_ISR.c **** *  sets the default interrupt vector, sets the priority from the value in the
  48:Generated_Source\PSoC4/ENC_ISR.c **** *  Design Wide Resources Interrupt Editor, then enables the interrupt to the 
  49:Generated_Source\PSoC4/ENC_ISR.c **** *  interrupt controller.
  50:Generated_Source\PSoC4/ENC_ISR.c **** *
  51:Generated_Source\PSoC4/ENC_ISR.c **** * Parameters:  
  52:Generated_Source\PSoC4/ENC_ISR.c **** *   None
  53:Generated_Source\PSoC4/ENC_ISR.c **** *
  54:Generated_Source\PSoC4/ENC_ISR.c **** * Return:
  55:Generated_Source\PSoC4/ENC_ISR.c **** *   None
  56:Generated_Source\PSoC4/ENC_ISR.c **** *
  57:Generated_Source\PSoC4/ENC_ISR.c **** *******************************************************************************/
  58:Generated_Source\PSoC4/ENC_ISR.c **** void ENC_ISR_Start(void)
  59:Generated_Source\PSoC4/ENC_ISR.c **** {
  60:Generated_Source\PSoC4/ENC_ISR.c ****     /* For all we know the interrupt is active. */
  61:Generated_Source\PSoC4/ENC_ISR.c ****     ENC_ISR_Disable();
  62:Generated_Source\PSoC4/ENC_ISR.c **** 
  63:Generated_Source\PSoC4/ENC_ISR.c ****     /* Set the ISR to point to the ENC_ISR Interrupt. */
  64:Generated_Source\PSoC4/ENC_ISR.c ****     ENC_ISR_SetVector(&ENC_ISR_Interrupt);
  65:Generated_Source\PSoC4/ENC_ISR.c **** 
  66:Generated_Source\PSoC4/ENC_ISR.c ****     /* Set the priority. */
  67:Generated_Source\PSoC4/ENC_ISR.c ****     ENC_ISR_SetPriority((uint8)ENC_ISR_INTC_PRIOR_NUMBER);
  68:Generated_Source\PSoC4/ENC_ISR.c **** 
  69:Generated_Source\PSoC4/ENC_ISR.c ****     /* Enable it. */
  70:Generated_Source\PSoC4/ENC_ISR.c ****     ENC_ISR_Enable();
  71:Generated_Source\PSoC4/ENC_ISR.c **** }
  72:Generated_Source\PSoC4/ENC_ISR.c **** 
  73:Generated_Source\PSoC4/ENC_ISR.c **** 
  74:Generated_Source\PSoC4/ENC_ISR.c **** /*******************************************************************************
  75:Generated_Source\PSoC4/ENC_ISR.c **** * Function Name: ENC_ISR_StartEx
  76:Generated_Source\PSoC4/ENC_ISR.c **** ********************************************************************************
  77:Generated_Source\PSoC4/ENC_ISR.c **** *
  78:Generated_Source\PSoC4/ENC_ISR.c **** * Summary:
  79:Generated_Source\PSoC4/ENC_ISR.c **** *  Sets up the interrupt and enables it. This function disables the interrupt,
  80:Generated_Source\PSoC4/ENC_ISR.c **** *  sets the interrupt vector based on the address passed in, sets the priority 
  81:Generated_Source\PSoC4/ENC_ISR.c **** *  from the value in the Design Wide Resources Interrupt Editor, then enables 
  82:Generated_Source\PSoC4/ENC_ISR.c **** *  the interrupt to the interrupt controller.
  83:Generated_Source\PSoC4/ENC_ISR.c **** *  
  84:Generated_Source\PSoC4/ENC_ISR.c **** *  When defining ISR functions, the CY_ISR and CY_ISR_PROTO macros should be 
  85:Generated_Source\PSoC4/ENC_ISR.c **** *  used to provide consistent definition across compilers:
  86:Generated_Source\PSoC4/ENC_ISR.c **** *  
  87:Generated_Source\PSoC4/ENC_ISR.c **** *  Function definition example:
ARM GAS  C:\Users\HELLOK~1\AppData\Local\Temp\ccC6GXFo.s 			page 3


  88:Generated_Source\PSoC4/ENC_ISR.c **** *   CY_ISR(MyISR)
  89:Generated_Source\PSoC4/ENC_ISR.c **** *   {
  90:Generated_Source\PSoC4/ENC_ISR.c **** *   }
  91:Generated_Source\PSoC4/ENC_ISR.c **** *   Function prototype example:
  92:Generated_Source\PSoC4/ENC_ISR.c **** *   CY_ISR_PROTO(MyISR);
  93:Generated_Source\PSoC4/ENC_ISR.c **** *
  94:Generated_Source\PSoC4/ENC_ISR.c **** * Parameters:  
  95:Generated_Source\PSoC4/ENC_ISR.c **** *   address: Address of the ISR to set in the interrupt vector table.
  96:Generated_Source\PSoC4/ENC_ISR.c **** *
  97:Generated_Source\PSoC4/ENC_ISR.c **** * Return:
  98:Generated_Source\PSoC4/ENC_ISR.c **** *   None
  99:Generated_Source\PSoC4/ENC_ISR.c **** *
 100:Generated_Source\PSoC4/ENC_ISR.c **** *******************************************************************************/
 101:Generated_Source\PSoC4/ENC_ISR.c **** void ENC_ISR_StartEx(cyisraddress address)
 102:Generated_Source\PSoC4/ENC_ISR.c **** {
 103:Generated_Source\PSoC4/ENC_ISR.c ****     /* For all we know the interrupt is active. */
 104:Generated_Source\PSoC4/ENC_ISR.c ****     ENC_ISR_Disable();
 105:Generated_Source\PSoC4/ENC_ISR.c **** 
 106:Generated_Source\PSoC4/ENC_ISR.c ****     /* Set the ISR to point to the ENC_ISR Interrupt. */
 107:Generated_Source\PSoC4/ENC_ISR.c ****     ENC_ISR_SetVector(address);
 108:Generated_Source\PSoC4/ENC_ISR.c **** 
 109:Generated_Source\PSoC4/ENC_ISR.c ****     /* Set the priority. */
 110:Generated_Source\PSoC4/ENC_ISR.c ****     ENC_ISR_SetPriority((uint8)ENC_ISR_INTC_PRIOR_NUMBER);
 111:Generated_Source\PSoC4/ENC_ISR.c **** 
 112:Generated_Source\PSoC4/ENC_ISR.c ****     /* Enable it. */
 113:Generated_Source\PSoC4/ENC_ISR.c ****     ENC_ISR_Enable();
 114:Generated_Source\PSoC4/ENC_ISR.c **** }
 115:Generated_Source\PSoC4/ENC_ISR.c **** 
 116:Generated_Source\PSoC4/ENC_ISR.c **** 
 117:Generated_Source\PSoC4/ENC_ISR.c **** /*******************************************************************************
 118:Generated_Source\PSoC4/ENC_ISR.c **** * Function Name: ENC_ISR_Stop
 119:Generated_Source\PSoC4/ENC_ISR.c **** ********************************************************************************
 120:Generated_Source\PSoC4/ENC_ISR.c **** *
 121:Generated_Source\PSoC4/ENC_ISR.c **** * Summary:
 122:Generated_Source\PSoC4/ENC_ISR.c **** *   Disables and removes the interrupt.
 123:Generated_Source\PSoC4/ENC_ISR.c **** *
 124:Generated_Source\PSoC4/ENC_ISR.c **** * Parameters:  
 125:Generated_Source\PSoC4/ENC_ISR.c **** *   None
 126:Generated_Source\PSoC4/ENC_ISR.c **** *
 127:Generated_Source\PSoC4/ENC_ISR.c **** * Return:
 128:Generated_Source\PSoC4/ENC_ISR.c **** *   None
 129:Generated_Source\PSoC4/ENC_ISR.c **** *
 130:Generated_Source\PSoC4/ENC_ISR.c **** *******************************************************************************/
 131:Generated_Source\PSoC4/ENC_ISR.c **** void ENC_ISR_Stop(void)
 132:Generated_Source\PSoC4/ENC_ISR.c **** {
 133:Generated_Source\PSoC4/ENC_ISR.c ****     /* Disable this interrupt. */
 134:Generated_Source\PSoC4/ENC_ISR.c ****     ENC_ISR_Disable();
 135:Generated_Source\PSoC4/ENC_ISR.c **** 
 136:Generated_Source\PSoC4/ENC_ISR.c ****     /* Set the ISR to point to the passive one. */
 137:Generated_Source\PSoC4/ENC_ISR.c ****     ENC_ISR_SetVector(&IntDefaultHandler);
 138:Generated_Source\PSoC4/ENC_ISR.c **** }
 139:Generated_Source\PSoC4/ENC_ISR.c **** 
 140:Generated_Source\PSoC4/ENC_ISR.c **** 
 141:Generated_Source\PSoC4/ENC_ISR.c **** /*******************************************************************************
 142:Generated_Source\PSoC4/ENC_ISR.c **** * Function Name: ENC_ISR_Interrupt
 143:Generated_Source\PSoC4/ENC_ISR.c **** ********************************************************************************
 144:Generated_Source\PSoC4/ENC_ISR.c **** *
ARM GAS  C:\Users\HELLOK~1\AppData\Local\Temp\ccC6GXFo.s 			page 4


 145:Generated_Source\PSoC4/ENC_ISR.c **** * Summary:
 146:Generated_Source\PSoC4/ENC_ISR.c **** *   The default Interrupt Service Routine for ENC_ISR.
 147:Generated_Source\PSoC4/ENC_ISR.c **** *
 148:Generated_Source\PSoC4/ENC_ISR.c **** *   Add custom code between the START and END comments to keep the next version
 149:Generated_Source\PSoC4/ENC_ISR.c **** *   of this file from over-writing your code.
 150:Generated_Source\PSoC4/ENC_ISR.c **** *
 151:Generated_Source\PSoC4/ENC_ISR.c **** *   Note You may use either the default ISR by using this API, or you may define
 152:Generated_Source\PSoC4/ENC_ISR.c **** *   your own separate ISR through ISR_StartEx().
 153:Generated_Source\PSoC4/ENC_ISR.c **** *
 154:Generated_Source\PSoC4/ENC_ISR.c **** * Parameters:  
 155:Generated_Source\PSoC4/ENC_ISR.c **** *   None
 156:Generated_Source\PSoC4/ENC_ISR.c **** *
 157:Generated_Source\PSoC4/ENC_ISR.c **** * Return:
 158:Generated_Source\PSoC4/ENC_ISR.c **** *   None
 159:Generated_Source\PSoC4/ENC_ISR.c **** *
 160:Generated_Source\PSoC4/ENC_ISR.c **** *******************************************************************************/
 161:Generated_Source\PSoC4/ENC_ISR.c **** CY_ISR(ENC_ISR_Interrupt)
 162:Generated_Source\PSoC4/ENC_ISR.c **** {
  28              		.loc 1 162 0
  29              		.cfi_startproc
  30              		@ args = 0, pretend = 0, frame = 16
  31              		@ frame_needed = 0, uses_anonymous_args = 0
  32 0000 10B5     		push	{r4, lr}
  33              		.cfi_def_cfa_offset 8
  34              		.cfi_offset 4, -8
  35              		.cfi_offset 14, -4
  36 0002 84B0     		sub	sp, sp, #16
  37              		.cfi_def_cfa_offset 24
 163:Generated_Source\PSoC4/ENC_ISR.c ****     #ifdef ENC_ISR_INTERRUPT_INTERRUPT_CALLBACK
 164:Generated_Source\PSoC4/ENC_ISR.c ****         ENC_ISR_Interrupt_InterruptCallback();
 165:Generated_Source\PSoC4/ENC_ISR.c ****     #endif /* ENC_ISR_INTERRUPT_INTERRUPT_CALLBACK */ 
 166:Generated_Source\PSoC4/ENC_ISR.c **** 
 167:Generated_Source\PSoC4/ENC_ISR.c ****     /*  Place your Interrupt code here. */
 168:Generated_Source\PSoC4/ENC_ISR.c ****     /* `#START ENC_ISR_Interrupt` */
 169:Generated_Source\PSoC4/ENC_ISR.c ****     // Read the first variable, then wait for it to change
 170:Generated_Source\PSoC4/ENC_ISR.c ****     volatile int a  = ENC_Read();
  38              		.loc 1 170 0
  39 0004 FFF7FEFF 		bl	ENC_Read
  40              	.LVL0:
  41 0008 0390     		str	r0, [sp, #12]
  42              	.LVL1:
 171:Generated_Source\PSoC4/ENC_ISR.c ****     int count = 0;
  43              		.loc 1 171 0
  44 000a 0024     		movs	r4, #0
 172:Generated_Source\PSoC4/ENC_ISR.c ****     while(a == ENC_Read() && count < 100000){
  45              		.loc 1 172 0
  46 000c 00E0     		b	.L2
  47              	.LVL2:
  48              	.L4:
 173:Generated_Source\PSoC4/ENC_ISR.c ****         count++;
  49              		.loc 1 173 0
  50 000e 0134     		adds	r4, r4, #1
  51              	.LVL3:
  52              	.L2:
 172:Generated_Source\PSoC4/ENC_ISR.c ****     while(a == ENC_Read() && count < 100000){
  53              		.loc 1 172 0
  54 0010 FFF7FEFF 		bl	ENC_Read
ARM GAS  C:\Users\HELLOK~1\AppData\Local\Temp\ccC6GXFo.s 			page 5


  55              	.LVL4:
  56 0014 039B     		ldr	r3, [sp, #12]
  57 0016 9842     		cmp	r0, r3
  58 0018 02D1     		bne	.L3
 172:Generated_Source\PSoC4/ENC_ISR.c ****     while(a == ENC_Read() && count < 100000){
  59              		.loc 1 172 0 is_stmt 0 discriminator 1
  60 001a 1D4B     		ldr	r3, .L13
  61 001c 9C42     		cmp	r4, r3
  62 001e F6DD     		ble	.L4
  63              	.L3:
  64              	.LVL5:
 174:Generated_Source\PSoC4/ENC_ISR.c ****     }
 175:Generated_Source\PSoC4/ENC_ISR.c ****     count = 0;
 176:Generated_Source\PSoC4/ENC_ISR.c ****     // Read next variable, then wait for it to change
 177:Generated_Source\PSoC4/ENC_ISR.c ****     volatile int b  = ENC_Read();
  65              		.loc 1 177 0 is_stmt 1
  66 0020 FFF7FEFF 		bl	ENC_Read
  67              	.LVL6:
  68 0024 0290     		str	r0, [sp, #8]
 175:Generated_Source\PSoC4/ENC_ISR.c ****     // Read next variable, then wait for it to change
  69              		.loc 1 175 0
  70 0026 0024     		movs	r4, #0
 178:Generated_Source\PSoC4/ENC_ISR.c ****     while(b == ENC_Read() && count < 100000){
  71              		.loc 1 178 0
  72 0028 00E0     		b	.L5
  73              	.LVL7:
  74              	.L7:
 179:Generated_Source\PSoC4/ENC_ISR.c ****         count++;
  75              		.loc 1 179 0
  76 002a 0134     		adds	r4, r4, #1
  77              	.LVL8:
  78              	.L5:
 178:Generated_Source\PSoC4/ENC_ISR.c ****     while(b == ENC_Read() && count < 100000){
  79              		.loc 1 178 0
  80 002c FFF7FEFF 		bl	ENC_Read
  81              	.LVL9:
  82 0030 029B     		ldr	r3, [sp, #8]
  83 0032 9842     		cmp	r0, r3
  84 0034 02D1     		bne	.L6
 178:Generated_Source\PSoC4/ENC_ISR.c ****     while(b == ENC_Read() && count < 100000){
  85              		.loc 1 178 0 is_stmt 0 discriminator 1
  86 0036 164B     		ldr	r3, .L13
  87 0038 9C42     		cmp	r4, r3
  88 003a F6DD     		ble	.L7
  89              	.L6:
  90              	.LVL10:
 180:Generated_Source\PSoC4/ENC_ISR.c ****     }
 181:Generated_Source\PSoC4/ENC_ISR.c ****     count = 0;
 182:Generated_Source\PSoC4/ENC_ISR.c ****     // Read next variable, then wait for it to change
 183:Generated_Source\PSoC4/ENC_ISR.c ****     volatile int c  = ENC_Read();
  91              		.loc 1 183 0 is_stmt 1
  92 003c FFF7FEFF 		bl	ENC_Read
  93              	.LVL11:
  94 0040 0190     		str	r0, [sp, #4]
 181:Generated_Source\PSoC4/ENC_ISR.c ****     // Read next variable, then wait for it to change
  95              		.loc 1 181 0
  96 0042 0024     		movs	r4, #0
ARM GAS  C:\Users\HELLOK~1\AppData\Local\Temp\ccC6GXFo.s 			page 6


 184:Generated_Source\PSoC4/ENC_ISR.c ****     while(c == ENC_Read() && count < 100000){
  97              		.loc 1 184 0
  98 0044 00E0     		b	.L8
  99              	.LVL12:
 100              	.L10:
 185:Generated_Source\PSoC4/ENC_ISR.c ****         count++;
 101              		.loc 1 185 0
 102 0046 0134     		adds	r4, r4, #1
 103              	.LVL13:
 104              	.L8:
 184:Generated_Source\PSoC4/ENC_ISR.c ****     while(c == ENC_Read() && count < 100000){
 105              		.loc 1 184 0
 106 0048 FFF7FEFF 		bl	ENC_Read
 107              	.LVL14:
 108 004c 019B     		ldr	r3, [sp, #4]
 109 004e 9842     		cmp	r0, r3
 110 0050 02D1     		bne	.L9
 184:Generated_Source\PSoC4/ENC_ISR.c ****     while(c == ENC_Read() && count < 100000){
 111              		.loc 1 184 0 is_stmt 0 discriminator 1
 112 0052 0F4B     		ldr	r3, .L13
 113 0054 9C42     		cmp	r4, r3
 114 0056 F6DD     		ble	.L10
 115              	.L9:
 116              	.LVL15:
 186:Generated_Source\PSoC4/ENC_ISR.c ****     }
 187:Generated_Source\PSoC4/ENC_ISR.c ****     count = 0;
 188:Generated_Source\PSoC4/ENC_ISR.c ****     // Based on the following variables, decide whether it is CW or CCW
 189:Generated_Source\PSoC4/ENC_ISR.c ****     if(a == 1 && c == 2){
 117              		.loc 1 189 0 is_stmt 1
 118 0058 039B     		ldr	r3, [sp, #12]
 119 005a 012B     		cmp	r3, #1
 120 005c 09D1     		bne	.L11
 121              		.loc 1 189 0 is_stmt 0 discriminator 1
 122 005e 019B     		ldr	r3, [sp, #4]
 123 0060 022B     		cmp	r3, #2
 124 0062 06D1     		bne	.L11
 190:Generated_Source\PSoC4/ENC_ISR.c ****         // Clockwise (increase bar)
 191:Generated_Source\PSoC4/ENC_ISR.c ****         // Set flag
 192:Generated_Source\PSoC4/ENC_ISR.c ****         encFlag = 1;
 125              		.loc 1 192 0 is_stmt 1
 126 0064 0122     		movs	r2, #1
 127 0066 0B4B     		ldr	r3, .L13+4
 128 0068 1A70     		strb	r2, [r3]
 193:Generated_Source\PSoC4/ENC_ISR.c ****         // Set limit of 80 on the right side
 194:Generated_Source\PSoC4/ENC_ISR.c ****         encPos = 2;
 129              		.loc 1 194 0
 130 006a 0132     		adds	r2, r2, #1
 131 006c 0A4B     		ldr	r3, .L13+8
 132 006e 1A70     		strb	r2, [r3]
 133 0070 09E0     		b	.L12
 134              	.L11:
 195:Generated_Source\PSoC4/ENC_ISR.c ****     }
 196:Generated_Source\PSoC4/ENC_ISR.c ****     else if(a == 2 && c==1){
 135              		.loc 1 196 0
 136 0072 039B     		ldr	r3, [sp, #12]
 137 0074 022B     		cmp	r3, #2
 138 0076 06D1     		bne	.L12
ARM GAS  C:\Users\HELLOK~1\AppData\Local\Temp\ccC6GXFo.s 			page 7


 139              		.loc 1 196 0 is_stmt 0 discriminator 1
 140 0078 019B     		ldr	r3, [sp, #4]
 141 007a 012B     		cmp	r3, #1
 142 007c 03D1     		bne	.L12
 197:Generated_Source\PSoC4/ENC_ISR.c ****         // Counter-Clockwise (decrease bar)
 198:Generated_Source\PSoC4/ENC_ISR.c ****         // Set flag
 199:Generated_Source\PSoC4/ENC_ISR.c ****         encFlag = 1;
 143              		.loc 1 199 0 is_stmt 1
 144 007e 054A     		ldr	r2, .L13+4
 145 0080 1370     		strb	r3, [r2]
 200:Generated_Source\PSoC4/ENC_ISR.c ****         // Set limit of 0 on the left side
 201:Generated_Source\PSoC4/ENC_ISR.c ****         encPos = 1;
 146              		.loc 1 201 0
 147 0082 054A     		ldr	r2, .L13+8
 148 0084 1370     		strb	r3, [r2]
 149              	.L12:
 202:Generated_Source\PSoC4/ENC_ISR.c ****     }
 203:Generated_Source\PSoC4/ENC_ISR.c ****     // Clear interrupt
 204:Generated_Source\PSoC4/ENC_ISR.c ****     ENC_ClearInterrupt();
 150              		.loc 1 204 0
 151 0086 FFF7FEFF 		bl	ENC_ClearInterrupt
 152              	.LVL16:
 205:Generated_Source\PSoC4/ENC_ISR.c ****     /* `#END` */
 206:Generated_Source\PSoC4/ENC_ISR.c **** }
 153              		.loc 1 206 0
 154 008a 04B0     		add	sp, sp, #16
 155              		@ sp needed
 156 008c 10BD     		pop	{r4, pc}
 157              	.L14:
 158 008e C046     		.align	2
 159              	.L13:
 160 0090 9F860100 		.word	99999
 161 0094 00000000 		.word	encFlag
 162 0098 00000000 		.word	encPos
 163              		.cfi_endproc
 164              	.LFE4:
 165              		.size	ENC_ISR_Interrupt, .-ENC_ISR_Interrupt
 166              		.section	.text.ENC_ISR_SetVector,"ax",%progbits
 167              		.align	2
 168              		.global	ENC_ISR_SetVector
 169              		.code	16
 170              		.thumb_func
 171              		.type	ENC_ISR_SetVector, %function
 172              	ENC_ISR_SetVector:
 173              	.LFB5:
 207:Generated_Source\PSoC4/ENC_ISR.c **** 
 208:Generated_Source\PSoC4/ENC_ISR.c **** 
 209:Generated_Source\PSoC4/ENC_ISR.c **** /*******************************************************************************
 210:Generated_Source\PSoC4/ENC_ISR.c **** * Function Name: ENC_ISR_SetVector
 211:Generated_Source\PSoC4/ENC_ISR.c **** ********************************************************************************
 212:Generated_Source\PSoC4/ENC_ISR.c **** *
 213:Generated_Source\PSoC4/ENC_ISR.c **** * Summary:
 214:Generated_Source\PSoC4/ENC_ISR.c **** *   Change the ISR vector for the Interrupt. Note calling ENC_ISR_Start
 215:Generated_Source\PSoC4/ENC_ISR.c **** *   will override any effect this method would have had. To set the vector 
 216:Generated_Source\PSoC4/ENC_ISR.c **** *   before the component has been started use ENC_ISR_StartEx instead.
 217:Generated_Source\PSoC4/ENC_ISR.c **** * 
 218:Generated_Source\PSoC4/ENC_ISR.c **** *   When defining ISR functions, the CY_ISR and CY_ISR_PROTO macros should be 
ARM GAS  C:\Users\HELLOK~1\AppData\Local\Temp\ccC6GXFo.s 			page 8


 219:Generated_Source\PSoC4/ENC_ISR.c **** *   used to provide consistent definition across compilers:
 220:Generated_Source\PSoC4/ENC_ISR.c **** *
 221:Generated_Source\PSoC4/ENC_ISR.c **** *   Function definition example:
 222:Generated_Source\PSoC4/ENC_ISR.c **** *   CY_ISR(MyISR)
 223:Generated_Source\PSoC4/ENC_ISR.c **** *   {
 224:Generated_Source\PSoC4/ENC_ISR.c **** *   }
 225:Generated_Source\PSoC4/ENC_ISR.c **** *
 226:Generated_Source\PSoC4/ENC_ISR.c **** *   Function prototype example:
 227:Generated_Source\PSoC4/ENC_ISR.c **** *     CY_ISR_PROTO(MyISR);
 228:Generated_Source\PSoC4/ENC_ISR.c **** *
 229:Generated_Source\PSoC4/ENC_ISR.c **** * Parameters:
 230:Generated_Source\PSoC4/ENC_ISR.c **** *   address: Address of the ISR to set in the interrupt vector table.
 231:Generated_Source\PSoC4/ENC_ISR.c **** *
 232:Generated_Source\PSoC4/ENC_ISR.c **** * Return:
 233:Generated_Source\PSoC4/ENC_ISR.c **** *   None
 234:Generated_Source\PSoC4/ENC_ISR.c **** *
 235:Generated_Source\PSoC4/ENC_ISR.c **** *******************************************************************************/
 236:Generated_Source\PSoC4/ENC_ISR.c **** void ENC_ISR_SetVector(cyisraddress address)
 237:Generated_Source\PSoC4/ENC_ISR.c **** {
 174              		.loc 1 237 0
 175              		.cfi_startproc
 176              		@ args = 0, pretend = 0, frame = 0
 177              		@ frame_needed = 0, uses_anonymous_args = 0
 178              		@ link register save eliminated.
 179              	.LVL17:
 238:Generated_Source\PSoC4/ENC_ISR.c ****     CyRamVectors[CYINT_IRQ_BASE + ENC_ISR__INTC_NUMBER] = address;
 180              		.loc 1 238 0
 181 0000 014B     		ldr	r3, .L16
 182 0002 1864     		str	r0, [r3, #64]
 239:Generated_Source\PSoC4/ENC_ISR.c **** }
 183              		.loc 1 239 0
 184              		@ sp needed
 185 0004 7047     		bx	lr
 186              	.L17:
 187 0006 C046     		.align	2
 188              	.L16:
 189 0008 00000000 		.word	CyRamVectors
 190              		.cfi_endproc
 191              	.LFE5:
 192              		.size	ENC_ISR_SetVector, .-ENC_ISR_SetVector
 193              		.section	.text.ENC_ISR_GetVector,"ax",%progbits
 194              		.align	2
 195              		.global	ENC_ISR_GetVector
 196              		.code	16
 197              		.thumb_func
 198              		.type	ENC_ISR_GetVector, %function
 199              	ENC_ISR_GetVector:
 200              	.LFB6:
 240:Generated_Source\PSoC4/ENC_ISR.c **** 
 241:Generated_Source\PSoC4/ENC_ISR.c **** 
 242:Generated_Source\PSoC4/ENC_ISR.c **** /*******************************************************************************
 243:Generated_Source\PSoC4/ENC_ISR.c **** * Function Name: ENC_ISR_GetVector
 244:Generated_Source\PSoC4/ENC_ISR.c **** ********************************************************************************
 245:Generated_Source\PSoC4/ENC_ISR.c **** *
 246:Generated_Source\PSoC4/ENC_ISR.c **** * Summary:
 247:Generated_Source\PSoC4/ENC_ISR.c **** *   Gets the "address" of the current ISR vector for the Interrupt.
 248:Generated_Source\PSoC4/ENC_ISR.c **** *
ARM GAS  C:\Users\HELLOK~1\AppData\Local\Temp\ccC6GXFo.s 			page 9


 249:Generated_Source\PSoC4/ENC_ISR.c **** * Parameters:
 250:Generated_Source\PSoC4/ENC_ISR.c **** *   None
 251:Generated_Source\PSoC4/ENC_ISR.c **** *
 252:Generated_Source\PSoC4/ENC_ISR.c **** * Return:
 253:Generated_Source\PSoC4/ENC_ISR.c **** *   Address of the ISR in the interrupt vector table.
 254:Generated_Source\PSoC4/ENC_ISR.c **** *
 255:Generated_Source\PSoC4/ENC_ISR.c **** *******************************************************************************/
 256:Generated_Source\PSoC4/ENC_ISR.c **** cyisraddress ENC_ISR_GetVector(void)
 257:Generated_Source\PSoC4/ENC_ISR.c **** {
 201              		.loc 1 257 0
 202              		.cfi_startproc
 203              		@ args = 0, pretend = 0, frame = 0
 204              		@ frame_needed = 0, uses_anonymous_args = 0
 205              		@ link register save eliminated.
 258:Generated_Source\PSoC4/ENC_ISR.c ****     return CyRamVectors[CYINT_IRQ_BASE + ENC_ISR__INTC_NUMBER];
 206              		.loc 1 258 0
 207 0000 014B     		ldr	r3, .L19
 208 0002 186C     		ldr	r0, [r3, #64]
 259:Generated_Source\PSoC4/ENC_ISR.c **** }
 209              		.loc 1 259 0
 210              		@ sp needed
 211 0004 7047     		bx	lr
 212              	.L20:
 213 0006 C046     		.align	2
 214              	.L19:
 215 0008 00000000 		.word	CyRamVectors
 216              		.cfi_endproc
 217              	.LFE6:
 218              		.size	ENC_ISR_GetVector, .-ENC_ISR_GetVector
 219              		.section	.text.ENC_ISR_SetPriority,"ax",%progbits
 220              		.align	2
 221              		.global	ENC_ISR_SetPriority
 222              		.code	16
 223              		.thumb_func
 224              		.type	ENC_ISR_SetPriority, %function
 225              	ENC_ISR_SetPriority:
 226              	.LFB7:
 260:Generated_Source\PSoC4/ENC_ISR.c **** 
 261:Generated_Source\PSoC4/ENC_ISR.c **** 
 262:Generated_Source\PSoC4/ENC_ISR.c **** /*******************************************************************************
 263:Generated_Source\PSoC4/ENC_ISR.c **** * Function Name: ENC_ISR_SetPriority
 264:Generated_Source\PSoC4/ENC_ISR.c **** ********************************************************************************
 265:Generated_Source\PSoC4/ENC_ISR.c **** *
 266:Generated_Source\PSoC4/ENC_ISR.c **** * Summary:
 267:Generated_Source\PSoC4/ENC_ISR.c **** *   Sets the Priority of the Interrupt. 
 268:Generated_Source\PSoC4/ENC_ISR.c **** *
 269:Generated_Source\PSoC4/ENC_ISR.c **** *   Note calling ENC_ISR_Start or ENC_ISR_StartEx will 
 270:Generated_Source\PSoC4/ENC_ISR.c **** *   override any effect this API would have had. This API should only be called
 271:Generated_Source\PSoC4/ENC_ISR.c **** *   after ENC_ISR_Start or ENC_ISR_StartEx has been called. 
 272:Generated_Source\PSoC4/ENC_ISR.c **** *   To set the initial priority for the component, use the Design-Wide Resources
 273:Generated_Source\PSoC4/ENC_ISR.c **** *   Interrupt Editor.
 274:Generated_Source\PSoC4/ENC_ISR.c **** *
 275:Generated_Source\PSoC4/ENC_ISR.c **** *   Note This API has no effect on Non-maskable interrupt NMI).
 276:Generated_Source\PSoC4/ENC_ISR.c **** *
 277:Generated_Source\PSoC4/ENC_ISR.c **** * Parameters:
 278:Generated_Source\PSoC4/ENC_ISR.c **** *   priority: Priority of the interrupt, 0 being the highest priority
 279:Generated_Source\PSoC4/ENC_ISR.c **** *             PSoC 3 and PSoC 5LP: Priority is from 0 to 7.
ARM GAS  C:\Users\HELLOK~1\AppData\Local\Temp\ccC6GXFo.s 			page 10


 280:Generated_Source\PSoC4/ENC_ISR.c **** *             PSoC 4: Priority is from 0 to 3.
 281:Generated_Source\PSoC4/ENC_ISR.c **** *
 282:Generated_Source\PSoC4/ENC_ISR.c **** * Return:
 283:Generated_Source\PSoC4/ENC_ISR.c **** *   None
 284:Generated_Source\PSoC4/ENC_ISR.c **** *
 285:Generated_Source\PSoC4/ENC_ISR.c **** *******************************************************************************/
 286:Generated_Source\PSoC4/ENC_ISR.c **** void ENC_ISR_SetPriority(uint8 priority)
 287:Generated_Source\PSoC4/ENC_ISR.c **** {
 227              		.loc 1 287 0
 228              		.cfi_startproc
 229              		@ args = 0, pretend = 0, frame = 0
 230              		@ frame_needed = 0, uses_anonymous_args = 0
 231              	.LVL18:
 232 0000 10B5     		push	{r4, lr}
 233              		.cfi_def_cfa_offset 8
 234              		.cfi_offset 4, -8
 235              		.cfi_offset 14, -4
 236 0002 0400     		movs	r4, r0
 237              	.LVL19:
 288:Generated_Source\PSoC4/ENC_ISR.c **** 	uint8 interruptState;
 289:Generated_Source\PSoC4/ENC_ISR.c ****     uint32 priorityOffset = ((ENC_ISR__INTC_NUMBER % 4u) * 8u) + 6u;
 290:Generated_Source\PSoC4/ENC_ISR.c ****     
 291:Generated_Source\PSoC4/ENC_ISR.c **** 	interruptState = CyEnterCriticalSection();
 238              		.loc 1 291 0
 239 0004 FFF7FEFF 		bl	CyEnterCriticalSection
 240              	.LVL20:
 292:Generated_Source\PSoC4/ENC_ISR.c ****     *ENC_ISR_INTC_PRIOR = (*ENC_ISR_INTC_PRIOR & (uint32)(~(uint32)ENC_ISR__INTC_PRIOR_MASK)) |
 241              		.loc 1 292 0
 242 0008 044A     		ldr	r2, .L22
 243 000a 1368     		ldr	r3, [r2]
 244 000c C021     		movs	r1, #192
 245 000e 8B43     		bics	r3, r1
 293:Generated_Source\PSoC4/ENC_ISR.c ****                                     ((uint32)priority << priorityOffset);
 246              		.loc 1 293 0
 247 0010 A401     		lsls	r4, r4, #6
 292:Generated_Source\PSoC4/ENC_ISR.c ****     *ENC_ISR_INTC_PRIOR = (*ENC_ISR_INTC_PRIOR & (uint32)(~(uint32)ENC_ISR__INTC_PRIOR_MASK)) |
 248              		.loc 1 292 0
 249 0012 1C43     		orrs	r4, r3
 250 0014 1460     		str	r4, [r2]
 294:Generated_Source\PSoC4/ENC_ISR.c **** 	CyExitCriticalSection(interruptState);
 251              		.loc 1 294 0
 252 0016 FFF7FEFF 		bl	CyExitCriticalSection
 253              	.LVL21:
 295:Generated_Source\PSoC4/ENC_ISR.c **** }
 254              		.loc 1 295 0
 255              		@ sp needed
 256 001a 10BD     		pop	{r4, pc}
 257              	.L23:
 258              		.align	2
 259              	.L22:
 260 001c 00E400E0 		.word	-536812544
 261              		.cfi_endproc
 262              	.LFE7:
 263              		.size	ENC_ISR_SetPriority, .-ENC_ISR_SetPriority
 264              		.section	.text.ENC_ISR_GetPriority,"ax",%progbits
 265              		.align	2
 266              		.global	ENC_ISR_GetPriority
ARM GAS  C:\Users\HELLOK~1\AppData\Local\Temp\ccC6GXFo.s 			page 11


 267              		.code	16
 268              		.thumb_func
 269              		.type	ENC_ISR_GetPriority, %function
 270              	ENC_ISR_GetPriority:
 271              	.LFB8:
 296:Generated_Source\PSoC4/ENC_ISR.c **** 
 297:Generated_Source\PSoC4/ENC_ISR.c **** 
 298:Generated_Source\PSoC4/ENC_ISR.c **** /*******************************************************************************
 299:Generated_Source\PSoC4/ENC_ISR.c **** * Function Name: ENC_ISR_GetPriority
 300:Generated_Source\PSoC4/ENC_ISR.c **** ********************************************************************************
 301:Generated_Source\PSoC4/ENC_ISR.c **** *
 302:Generated_Source\PSoC4/ENC_ISR.c **** * Summary:
 303:Generated_Source\PSoC4/ENC_ISR.c **** *   Gets the Priority of the Interrupt.
 304:Generated_Source\PSoC4/ENC_ISR.c **** *
 305:Generated_Source\PSoC4/ENC_ISR.c **** * Parameters:
 306:Generated_Source\PSoC4/ENC_ISR.c **** *   None
 307:Generated_Source\PSoC4/ENC_ISR.c **** *
 308:Generated_Source\PSoC4/ENC_ISR.c **** * Return:
 309:Generated_Source\PSoC4/ENC_ISR.c **** *   Priority of the interrupt, 0 being the highest priority
 310:Generated_Source\PSoC4/ENC_ISR.c **** *    PSoC 3 and PSoC 5LP: Priority is from 0 to 7.
 311:Generated_Source\PSoC4/ENC_ISR.c **** *    PSoC 4: Priority is from 0 to 3.
 312:Generated_Source\PSoC4/ENC_ISR.c **** *
 313:Generated_Source\PSoC4/ENC_ISR.c **** *******************************************************************************/
 314:Generated_Source\PSoC4/ENC_ISR.c **** uint8 ENC_ISR_GetPriority(void)
 315:Generated_Source\PSoC4/ENC_ISR.c **** {
 272              		.loc 1 315 0
 273              		.cfi_startproc
 274              		@ args = 0, pretend = 0, frame = 0
 275              		@ frame_needed = 0, uses_anonymous_args = 0
 276              		@ link register save eliminated.
 277              	.LVL22:
 316:Generated_Source\PSoC4/ENC_ISR.c ****     uint32 priority;
 317:Generated_Source\PSoC4/ENC_ISR.c **** 	uint32 priorityOffset = ((ENC_ISR__INTC_NUMBER % 4u) * 8u) + 6u;
 318:Generated_Source\PSoC4/ENC_ISR.c **** 
 319:Generated_Source\PSoC4/ENC_ISR.c ****     priority = (*ENC_ISR_INTC_PRIOR & ENC_ISR__INTC_PRIOR_MASK) >> priorityOffset;
 278              		.loc 1 319 0
 279 0000 024B     		ldr	r3, .L25
 280 0002 1868     		ldr	r0, [r3]
 281 0004 8009     		lsrs	r0, r0, #6
 282              	.LVL23:
 320:Generated_Source\PSoC4/ENC_ISR.c **** 
 321:Generated_Source\PSoC4/ENC_ISR.c ****     return (uint8)priority;
 283              		.loc 1 321 0
 284 0006 0323     		movs	r3, #3
 285 0008 1840     		ands	r0, r3
 286              	.LVL24:
 322:Generated_Source\PSoC4/ENC_ISR.c **** }
 287              		.loc 1 322 0
 288              		@ sp needed
 289 000a 7047     		bx	lr
 290              	.L26:
 291              		.align	2
 292              	.L25:
 293 000c 00E400E0 		.word	-536812544
 294              		.cfi_endproc
 295              	.LFE8:
 296              		.size	ENC_ISR_GetPriority, .-ENC_ISR_GetPriority
ARM GAS  C:\Users\HELLOK~1\AppData\Local\Temp\ccC6GXFo.s 			page 12


 297              		.section	.text.ENC_ISR_Enable,"ax",%progbits
 298              		.align	2
 299              		.global	ENC_ISR_Enable
 300              		.code	16
 301              		.thumb_func
 302              		.type	ENC_ISR_Enable, %function
 303              	ENC_ISR_Enable:
 304              	.LFB9:
 323:Generated_Source\PSoC4/ENC_ISR.c **** 
 324:Generated_Source\PSoC4/ENC_ISR.c **** 
 325:Generated_Source\PSoC4/ENC_ISR.c **** /*******************************************************************************
 326:Generated_Source\PSoC4/ENC_ISR.c **** * Function Name: ENC_ISR_Enable
 327:Generated_Source\PSoC4/ENC_ISR.c **** ********************************************************************************
 328:Generated_Source\PSoC4/ENC_ISR.c **** *
 329:Generated_Source\PSoC4/ENC_ISR.c **** * Summary:
 330:Generated_Source\PSoC4/ENC_ISR.c **** *   Enables the interrupt to the interrupt controller. Do not call this function
 331:Generated_Source\PSoC4/ENC_ISR.c **** *   unless ISR_Start() has been called or the functionality of the ISR_Start() 
 332:Generated_Source\PSoC4/ENC_ISR.c **** *   function, which sets the vector and the priority, has been called.
 333:Generated_Source\PSoC4/ENC_ISR.c **** *
 334:Generated_Source\PSoC4/ENC_ISR.c **** * Parameters:
 335:Generated_Source\PSoC4/ENC_ISR.c **** *   None
 336:Generated_Source\PSoC4/ENC_ISR.c **** *
 337:Generated_Source\PSoC4/ENC_ISR.c **** * Return:
 338:Generated_Source\PSoC4/ENC_ISR.c **** *   None
 339:Generated_Source\PSoC4/ENC_ISR.c **** *
 340:Generated_Source\PSoC4/ENC_ISR.c **** *******************************************************************************/
 341:Generated_Source\PSoC4/ENC_ISR.c **** void ENC_ISR_Enable(void)
 342:Generated_Source\PSoC4/ENC_ISR.c **** {
 305              		.loc 1 342 0
 306              		.cfi_startproc
 307              		@ args = 0, pretend = 0, frame = 0
 308              		@ frame_needed = 0, uses_anonymous_args = 0
 309              		@ link register save eliminated.
 343:Generated_Source\PSoC4/ENC_ISR.c ****     /* Enable the general interrupt. */
 344:Generated_Source\PSoC4/ENC_ISR.c ****     *ENC_ISR_INTC_SET_EN = ENC_ISR__INTC_MASK;
 310              		.loc 1 344 0
 311 0000 0122     		movs	r2, #1
 312 0002 014B     		ldr	r3, .L28
 313 0004 1A60     		str	r2, [r3]
 345:Generated_Source\PSoC4/ENC_ISR.c **** }
 314              		.loc 1 345 0
 315              		@ sp needed
 316 0006 7047     		bx	lr
 317              	.L29:
 318              		.align	2
 319              	.L28:
 320 0008 00E100E0 		.word	-536813312
 321              		.cfi_endproc
 322              	.LFE9:
 323              		.size	ENC_ISR_Enable, .-ENC_ISR_Enable
 324              		.section	.text.ENC_ISR_GetState,"ax",%progbits
 325              		.align	2
 326              		.global	ENC_ISR_GetState
 327              		.code	16
 328              		.thumb_func
 329              		.type	ENC_ISR_GetState, %function
 330              	ENC_ISR_GetState:
ARM GAS  C:\Users\HELLOK~1\AppData\Local\Temp\ccC6GXFo.s 			page 13


 331              	.LFB10:
 346:Generated_Source\PSoC4/ENC_ISR.c **** 
 347:Generated_Source\PSoC4/ENC_ISR.c **** 
 348:Generated_Source\PSoC4/ENC_ISR.c **** /*******************************************************************************
 349:Generated_Source\PSoC4/ENC_ISR.c **** * Function Name: ENC_ISR_GetState
 350:Generated_Source\PSoC4/ENC_ISR.c **** ********************************************************************************
 351:Generated_Source\PSoC4/ENC_ISR.c **** *
 352:Generated_Source\PSoC4/ENC_ISR.c **** * Summary:
 353:Generated_Source\PSoC4/ENC_ISR.c **** *   Gets the state (enabled, disabled) of the Interrupt.
 354:Generated_Source\PSoC4/ENC_ISR.c **** *
 355:Generated_Source\PSoC4/ENC_ISR.c **** * Parameters:
 356:Generated_Source\PSoC4/ENC_ISR.c **** *   None
 357:Generated_Source\PSoC4/ENC_ISR.c **** *
 358:Generated_Source\PSoC4/ENC_ISR.c **** * Return:
 359:Generated_Source\PSoC4/ENC_ISR.c **** *   1 if enabled, 0 if disabled.
 360:Generated_Source\PSoC4/ENC_ISR.c **** *
 361:Generated_Source\PSoC4/ENC_ISR.c **** *******************************************************************************/
 362:Generated_Source\PSoC4/ENC_ISR.c **** uint8 ENC_ISR_GetState(void)
 363:Generated_Source\PSoC4/ENC_ISR.c **** {
 332              		.loc 1 363 0
 333              		.cfi_startproc
 334              		@ args = 0, pretend = 0, frame = 0
 335              		@ frame_needed = 0, uses_anonymous_args = 0
 336              		@ link register save eliminated.
 364:Generated_Source\PSoC4/ENC_ISR.c ****     /* Get the state of the general interrupt. */
 365:Generated_Source\PSoC4/ENC_ISR.c ****     return ((*ENC_ISR_INTC_SET_EN & (uint32)ENC_ISR__INTC_MASK) != 0u) ? 1u:0u;
 337              		.loc 1 365 0
 338 0000 024B     		ldr	r3, .L31
 339 0002 1B68     		ldr	r3, [r3]
 340 0004 0120     		movs	r0, #1
 341 0006 1840     		ands	r0, r3
 366:Generated_Source\PSoC4/ENC_ISR.c **** }
 342              		.loc 1 366 0
 343              		@ sp needed
 344 0008 7047     		bx	lr
 345              	.L32:
 346 000a C046     		.align	2
 347              	.L31:
 348 000c 00E100E0 		.word	-536813312
 349              		.cfi_endproc
 350              	.LFE10:
 351              		.size	ENC_ISR_GetState, .-ENC_ISR_GetState
 352              		.section	.text.ENC_ISR_Disable,"ax",%progbits
 353              		.align	2
 354              		.global	ENC_ISR_Disable
 355              		.code	16
 356              		.thumb_func
 357              		.type	ENC_ISR_Disable, %function
 358              	ENC_ISR_Disable:
 359              	.LFB11:
 367:Generated_Source\PSoC4/ENC_ISR.c **** 
 368:Generated_Source\PSoC4/ENC_ISR.c **** 
 369:Generated_Source\PSoC4/ENC_ISR.c **** /*******************************************************************************
 370:Generated_Source\PSoC4/ENC_ISR.c **** * Function Name: ENC_ISR_Disable
 371:Generated_Source\PSoC4/ENC_ISR.c **** ********************************************************************************
 372:Generated_Source\PSoC4/ENC_ISR.c **** *
 373:Generated_Source\PSoC4/ENC_ISR.c **** * Summary:
ARM GAS  C:\Users\HELLOK~1\AppData\Local\Temp\ccC6GXFo.s 			page 14


 374:Generated_Source\PSoC4/ENC_ISR.c **** *   Disables the Interrupt in the interrupt controller.
 375:Generated_Source\PSoC4/ENC_ISR.c **** *
 376:Generated_Source\PSoC4/ENC_ISR.c **** * Parameters:
 377:Generated_Source\PSoC4/ENC_ISR.c **** *   None
 378:Generated_Source\PSoC4/ENC_ISR.c **** *
 379:Generated_Source\PSoC4/ENC_ISR.c **** * Return:
 380:Generated_Source\PSoC4/ENC_ISR.c **** *   None
 381:Generated_Source\PSoC4/ENC_ISR.c **** *
 382:Generated_Source\PSoC4/ENC_ISR.c **** *******************************************************************************/
 383:Generated_Source\PSoC4/ENC_ISR.c **** void ENC_ISR_Disable(void)
 384:Generated_Source\PSoC4/ENC_ISR.c **** {
 360              		.loc 1 384 0
 361              		.cfi_startproc
 362              		@ args = 0, pretend = 0, frame = 0
 363              		@ frame_needed = 0, uses_anonymous_args = 0
 364              		@ link register save eliminated.
 385:Generated_Source\PSoC4/ENC_ISR.c ****     /* Disable the general interrupt. */
 386:Generated_Source\PSoC4/ENC_ISR.c ****     *ENC_ISR_INTC_CLR_EN = ENC_ISR__INTC_MASK;
 365              		.loc 1 386 0
 366 0000 0122     		movs	r2, #1
 367 0002 014B     		ldr	r3, .L34
 368 0004 1A60     		str	r2, [r3]
 387:Generated_Source\PSoC4/ENC_ISR.c **** }
 369              		.loc 1 387 0
 370              		@ sp needed
 371 0006 7047     		bx	lr
 372              	.L35:
 373              		.align	2
 374              	.L34:
 375 0008 80E100E0 		.word	-536813184
 376              		.cfi_endproc
 377              	.LFE11:
 378              		.size	ENC_ISR_Disable, .-ENC_ISR_Disable
 379              		.section	.text.ENC_ISR_Start,"ax",%progbits
 380              		.align	2
 381              		.global	ENC_ISR_Start
 382              		.code	16
 383              		.thumb_func
 384              		.type	ENC_ISR_Start, %function
 385              	ENC_ISR_Start:
 386              	.LFB1:
  59:Generated_Source\PSoC4/ENC_ISR.c ****     /* For all we know the interrupt is active. */
 387              		.loc 1 59 0
 388              		.cfi_startproc
 389              		@ args = 0, pretend = 0, frame = 0
 390              		@ frame_needed = 0, uses_anonymous_args = 0
 391 0000 10B5     		push	{r4, lr}
 392              		.cfi_def_cfa_offset 8
 393              		.cfi_offset 4, -8
 394              		.cfi_offset 14, -4
  61:Generated_Source\PSoC4/ENC_ISR.c **** 
 395              		.loc 1 61 0
 396 0002 FFF7FEFF 		bl	ENC_ISR_Disable
 397              	.LVL25:
  64:Generated_Source\PSoC4/ENC_ISR.c **** 
 398              		.loc 1 64 0
 399 0006 0448     		ldr	r0, .L37
ARM GAS  C:\Users\HELLOK~1\AppData\Local\Temp\ccC6GXFo.s 			page 15


 400 0008 FFF7FEFF 		bl	ENC_ISR_SetVector
 401              	.LVL26:
  67:Generated_Source\PSoC4/ENC_ISR.c **** 
 402              		.loc 1 67 0
 403 000c 0320     		movs	r0, #3
 404 000e FFF7FEFF 		bl	ENC_ISR_SetPriority
 405              	.LVL27:
  70:Generated_Source\PSoC4/ENC_ISR.c **** }
 406              		.loc 1 70 0
 407 0012 FFF7FEFF 		bl	ENC_ISR_Enable
 408              	.LVL28:
  71:Generated_Source\PSoC4/ENC_ISR.c **** 
 409              		.loc 1 71 0
 410              		@ sp needed
 411 0016 10BD     		pop	{r4, pc}
 412              	.L38:
 413              		.align	2
 414              	.L37:
 415 0018 00000000 		.word	ENC_ISR_Interrupt
 416              		.cfi_endproc
 417              	.LFE1:
 418              		.size	ENC_ISR_Start, .-ENC_ISR_Start
 419              		.section	.text.ENC_ISR_StartEx,"ax",%progbits
 420              		.align	2
 421              		.global	ENC_ISR_StartEx
 422              		.code	16
 423              		.thumb_func
 424              		.type	ENC_ISR_StartEx, %function
 425              	ENC_ISR_StartEx:
 426              	.LFB2:
 102:Generated_Source\PSoC4/ENC_ISR.c ****     /* For all we know the interrupt is active. */
 427              		.loc 1 102 0
 428              		.cfi_startproc
 429              		@ args = 0, pretend = 0, frame = 0
 430              		@ frame_needed = 0, uses_anonymous_args = 0
 431              	.LVL29:
 432 0000 10B5     		push	{r4, lr}
 433              		.cfi_def_cfa_offset 8
 434              		.cfi_offset 4, -8
 435              		.cfi_offset 14, -4
 436 0002 0400     		movs	r4, r0
 104:Generated_Source\PSoC4/ENC_ISR.c **** 
 437              		.loc 1 104 0
 438 0004 FFF7FEFF 		bl	ENC_ISR_Disable
 439              	.LVL30:
 107:Generated_Source\PSoC4/ENC_ISR.c **** 
 440              		.loc 1 107 0
 441 0008 2000     		movs	r0, r4
 442 000a FFF7FEFF 		bl	ENC_ISR_SetVector
 443              	.LVL31:
 110:Generated_Source\PSoC4/ENC_ISR.c **** 
 444              		.loc 1 110 0
 445 000e 0320     		movs	r0, #3
 446 0010 FFF7FEFF 		bl	ENC_ISR_SetPriority
 447              	.LVL32:
 113:Generated_Source\PSoC4/ENC_ISR.c **** }
 448              		.loc 1 113 0
ARM GAS  C:\Users\HELLOK~1\AppData\Local\Temp\ccC6GXFo.s 			page 16


 449 0014 FFF7FEFF 		bl	ENC_ISR_Enable
 450              	.LVL33:
 114:Generated_Source\PSoC4/ENC_ISR.c **** 
 451              		.loc 1 114 0
 452              		@ sp needed
 453              	.LVL34:
 454 0018 10BD     		pop	{r4, pc}
 455              		.cfi_endproc
 456              	.LFE2:
 457              		.size	ENC_ISR_StartEx, .-ENC_ISR_StartEx
 458 001a C046     		.section	.text.ENC_ISR_Stop,"ax",%progbits
 459              		.align	2
 460              		.global	ENC_ISR_Stop
 461              		.code	16
 462              		.thumb_func
 463              		.type	ENC_ISR_Stop, %function
 464              	ENC_ISR_Stop:
 465              	.LFB3:
 132:Generated_Source\PSoC4/ENC_ISR.c ****     /* Disable this interrupt. */
 466              		.loc 1 132 0
 467              		.cfi_startproc
 468              		@ args = 0, pretend = 0, frame = 0
 469              		@ frame_needed = 0, uses_anonymous_args = 0
 470 0000 10B5     		push	{r4, lr}
 471              		.cfi_def_cfa_offset 8
 472              		.cfi_offset 4, -8
 473              		.cfi_offset 14, -4
 134:Generated_Source\PSoC4/ENC_ISR.c **** 
 474              		.loc 1 134 0
 475 0002 FFF7FEFF 		bl	ENC_ISR_Disable
 476              	.LVL35:
 137:Generated_Source\PSoC4/ENC_ISR.c **** }
 477              		.loc 1 137 0
 478 0006 0248     		ldr	r0, .L41
 479 0008 FFF7FEFF 		bl	ENC_ISR_SetVector
 480              	.LVL36:
 138:Generated_Source\PSoC4/ENC_ISR.c **** 
 481              		.loc 1 138 0
 482              		@ sp needed
 483 000c 10BD     		pop	{r4, pc}
 484              	.L42:
 485 000e C046     		.align	2
 486              	.L41:
 487 0010 00000000 		.word	IntDefaultHandler
 488              		.cfi_endproc
 489              	.LFE3:
 490              		.size	ENC_ISR_Stop, .-ENC_ISR_Stop
 491              		.section	.text.ENC_ISR_SetPending,"ax",%progbits
 492              		.align	2
 493              		.global	ENC_ISR_SetPending
 494              		.code	16
 495              		.thumb_func
 496              		.type	ENC_ISR_SetPending, %function
 497              	ENC_ISR_SetPending:
 498              	.LFB12:
 388:Generated_Source\PSoC4/ENC_ISR.c **** 
 389:Generated_Source\PSoC4/ENC_ISR.c **** 
ARM GAS  C:\Users\HELLOK~1\AppData\Local\Temp\ccC6GXFo.s 			page 17


 390:Generated_Source\PSoC4/ENC_ISR.c **** /*******************************************************************************
 391:Generated_Source\PSoC4/ENC_ISR.c **** * Function Name: ENC_ISR_SetPending
 392:Generated_Source\PSoC4/ENC_ISR.c **** ********************************************************************************
 393:Generated_Source\PSoC4/ENC_ISR.c **** *
 394:Generated_Source\PSoC4/ENC_ISR.c **** * Summary:
 395:Generated_Source\PSoC4/ENC_ISR.c **** *   Causes the Interrupt to enter the pending state, a software method of
 396:Generated_Source\PSoC4/ENC_ISR.c **** *   generating the interrupt.
 397:Generated_Source\PSoC4/ENC_ISR.c **** *
 398:Generated_Source\PSoC4/ENC_ISR.c **** * Parameters:
 399:Generated_Source\PSoC4/ENC_ISR.c **** *   None
 400:Generated_Source\PSoC4/ENC_ISR.c **** *
 401:Generated_Source\PSoC4/ENC_ISR.c **** * Return:
 402:Generated_Source\PSoC4/ENC_ISR.c **** *   None
 403:Generated_Source\PSoC4/ENC_ISR.c **** *
 404:Generated_Source\PSoC4/ENC_ISR.c **** * Side Effects:
 405:Generated_Source\PSoC4/ENC_ISR.c **** *   If interrupts are enabled and the interrupt is set up properly, the ISR is
 406:Generated_Source\PSoC4/ENC_ISR.c **** *   entered (depending on the priority of this interrupt and other pending 
 407:Generated_Source\PSoC4/ENC_ISR.c **** *   interrupts).
 408:Generated_Source\PSoC4/ENC_ISR.c **** *
 409:Generated_Source\PSoC4/ENC_ISR.c **** *******************************************************************************/
 410:Generated_Source\PSoC4/ENC_ISR.c **** void ENC_ISR_SetPending(void)
 411:Generated_Source\PSoC4/ENC_ISR.c **** {
 499              		.loc 1 411 0
 500              		.cfi_startproc
 501              		@ args = 0, pretend = 0, frame = 0
 502              		@ frame_needed = 0, uses_anonymous_args = 0
 503              		@ link register save eliminated.
 412:Generated_Source\PSoC4/ENC_ISR.c ****     *ENC_ISR_INTC_SET_PD = ENC_ISR__INTC_MASK;
 504              		.loc 1 412 0
 505 0000 0122     		movs	r2, #1
 506 0002 014B     		ldr	r3, .L44
 507 0004 1A60     		str	r2, [r3]
 413:Generated_Source\PSoC4/ENC_ISR.c **** }
 508              		.loc 1 413 0
 509              		@ sp needed
 510 0006 7047     		bx	lr
 511              	.L45:
 512              		.align	2
 513              	.L44:
 514 0008 00E200E0 		.word	-536813056
 515              		.cfi_endproc
 516              	.LFE12:
 517              		.size	ENC_ISR_SetPending, .-ENC_ISR_SetPending
 518              		.section	.text.ENC_ISR_ClearPending,"ax",%progbits
 519              		.align	2
 520              		.global	ENC_ISR_ClearPending
 521              		.code	16
 522              		.thumb_func
 523              		.type	ENC_ISR_ClearPending, %function
 524              	ENC_ISR_ClearPending:
 525              	.LFB13:
 414:Generated_Source\PSoC4/ENC_ISR.c **** 
 415:Generated_Source\PSoC4/ENC_ISR.c **** 
 416:Generated_Source\PSoC4/ENC_ISR.c **** /*******************************************************************************
 417:Generated_Source\PSoC4/ENC_ISR.c **** * Function Name: ENC_ISR_ClearPending
 418:Generated_Source\PSoC4/ENC_ISR.c **** ********************************************************************************
 419:Generated_Source\PSoC4/ENC_ISR.c **** *
ARM GAS  C:\Users\HELLOK~1\AppData\Local\Temp\ccC6GXFo.s 			page 18


 420:Generated_Source\PSoC4/ENC_ISR.c **** * Summary:
 421:Generated_Source\PSoC4/ENC_ISR.c **** *   Clears a pending interrupt in the interrupt controller.
 422:Generated_Source\PSoC4/ENC_ISR.c **** *
 423:Generated_Source\PSoC4/ENC_ISR.c **** *   Note Some interrupt sources are clear-on-read and require the block 
 424:Generated_Source\PSoC4/ENC_ISR.c **** *   interrupt/status register to be read/cleared with the appropriate block API 
 425:Generated_Source\PSoC4/ENC_ISR.c **** *   (GPIO, UART, and so on). Otherwise the ISR will continue to remain in 
 426:Generated_Source\PSoC4/ENC_ISR.c **** *   pending state even though the interrupt itself is cleared using this API.
 427:Generated_Source\PSoC4/ENC_ISR.c **** *
 428:Generated_Source\PSoC4/ENC_ISR.c **** * Parameters:
 429:Generated_Source\PSoC4/ENC_ISR.c **** *   None
 430:Generated_Source\PSoC4/ENC_ISR.c **** *
 431:Generated_Source\PSoC4/ENC_ISR.c **** * Return:
 432:Generated_Source\PSoC4/ENC_ISR.c **** *   None
 433:Generated_Source\PSoC4/ENC_ISR.c **** *
 434:Generated_Source\PSoC4/ENC_ISR.c **** *******************************************************************************/
 435:Generated_Source\PSoC4/ENC_ISR.c **** void ENC_ISR_ClearPending(void)
 436:Generated_Source\PSoC4/ENC_ISR.c **** {
 526              		.loc 1 436 0
 527              		.cfi_startproc
 528              		@ args = 0, pretend = 0, frame = 0
 529              		@ frame_needed = 0, uses_anonymous_args = 0
 530              		@ link register save eliminated.
 437:Generated_Source\PSoC4/ENC_ISR.c ****     *ENC_ISR_INTC_CLR_PD = ENC_ISR__INTC_MASK;
 531              		.loc 1 437 0
 532 0000 0122     		movs	r2, #1
 533 0002 014B     		ldr	r3, .L47
 534 0004 1A60     		str	r2, [r3]
 438:Generated_Source\PSoC4/ENC_ISR.c **** }
 535              		.loc 1 438 0
 536              		@ sp needed
 537 0006 7047     		bx	lr
 538              	.L48:
 539              		.align	2
 540              	.L47:
 541 0008 80E200E0 		.word	-536812928
 542              		.cfi_endproc
 543              	.LFE13:
 544              		.size	ENC_ISR_ClearPending, .-ENC_ISR_ClearPending
 545              		.text
 546              	.Letext0:
 547              		.file 2 "Generated_Source\\PSoC4/cytypes.h"
 548              		.file 3 "Generated_Source\\PSoC4\\ENC.h"
 549              		.file 4 "Generated_Source\\PSoC4/CyLib.h"