ARM GAS  C:\Users\HELLOK~1.1\AppData\Local\Temp\cciBhXYB.s 			page 1


   1              		.syntax unified
   2              		.cpu cortex-m0
   3              		.fpu softvfp
   4              		.eabi_attribute 20, 1
   5              		.eabi_attribute 21, 1
   6              		.eabi_attribute 23, 3
   7              		.eabi_attribute 24, 1
   8              		.eabi_attribute 25, 1
   9              		.eabi_attribute 26, 1
  10              		.eabi_attribute 30, 1
  11              		.eabi_attribute 34, 0
  12              		.eabi_attribute 18, 4
  13              		.thumb
  14              		.syntax unified
  15              		.file	"main.c"
  16              		.text
  17              	.Ltext0:
  18              		.cfi_sections	.debug_frame
  19              		.section	.text.bcdToDec,"ax",%progbits
  20              		.align	2
  21              		.global	bcdToDec
  22              		.code	16
  23              		.thumb_func
  24              		.type	bcdToDec, %function
  25              	bcdToDec:
  26              	.LFB35:
  27              		.file 1 "main.c"
   1:main.c        **** /* ========================================
   2:main.c        ****  *
   3:main.c        ****  * Copyright YOUR COMPANY, THE YEAR
   4:main.c        ****  * All Rights Reserved
   5:main.c        ****  * UNPUBLISHED, LICENSED SOFTWARE.
   6:main.c        ****  *
   7:main.c        ****  * CONFIDENTIAL AND PROPRIETARY INFORMATION
   8:main.c        ****  * WHICH IS THE PROPERTY OF your company.
   9:main.c        ****  *
  10:main.c        ****  * ========================================
  11:main.c        **** */
  12:main.c        **** #include "project.h"
  13:main.c        **** #include <stdio.h>
  14:main.c        **** #include "LiquidCrystal_I2C.h"
  15:main.c        **** 
  16:main.c        **** 
  17:main.c        **** 
  18:main.c        **** struct Time{
  19:main.c        ****     uint8 hour;
  20:main.c        ****     uint8 minute;
  21:main.c        ****     char* AM;
  22:main.c        **** };
  23:main.c        **** 
  24:main.c        **** struct Date{
  25:main.c        ****     uint8 day;
  26:main.c        ****     char* month;
  27:main.c        ****     uint8 year;
  28:main.c        **** };
  29:main.c        **** struct RTC{
  30:main.c        ****     uint8 CtrlStat1;
ARM GAS  C:\Users\HELLOK~1.1\AppData\Local\Temp\cciBhXYB.s 			page 2


  31:main.c        ****     uint8 CtrlStat2;
  32:main.c        ****     uint8 VL_Sec;
  33:main.c        ****     uint8 Minutes;
  34:main.c        ****     uint8 Hours;
  35:main.c        ****     uint8 Days;
  36:main.c        ****     uint8 Weekdays;
  37:main.c        ****     uint8 Century_Months;
  38:main.c        ****     uint8 Years;
  39:main.c        ****     uint8 MinuteAlarm;
  40:main.c        ****     uint8 HourAlarm;
  41:main.c        ****     uint8 DayAlarm;
  42:main.c        ****     uint8 WeekdayAlarm;
  43:main.c        ****     uint8 CLKOUTControl;
  44:main.c        ****     uint8 TimerControl;
  45:main.c        ****     uint8 Timer;
  46:main.c        **** };
  47:main.c        **** 
  48:main.c        **** struct RTC rtc = {
  49:main.c        ****     0x00, //CtrlStat1
  50:main.c        ****     0x01, //CtrlStat2
  51:main.c        ****     0x02, //VL_Sec
  52:main.c        ****     0x03, //Minutes
  53:main.c        ****     0x04, //Hours
  54:main.c        ****     0x05, //Days
  55:main.c        ****     0x06, //Weekdays
  56:main.c        ****     0x07, //Century_Months
  57:main.c        ****     0x08, //Years
  58:main.c        ****     0x09, //MinuteAlarm
  59:main.c        ****     0x0A, //HourAlarm
  60:main.c        ****     0x0B, //DayAlarm
  61:main.c        ****     0x0C, //WeekdayAlarm
  62:main.c        ****     0x0D, //CLKOUTControl
  63:main.c        ****     0x0E, //TimerControl
  64:main.c        ****     0x0F //Timer
  65:main.c        **** };
  66:main.c        **** 
  67:main.c        **** const char* months[12] = {
  68:main.c        ****     "Jan",
  69:main.c        ****     "Feb",
  70:main.c        ****     "Mar",
  71:main.c        ****     "Apr",
  72:main.c        ****     "May",
  73:main.c        ****     "Jun",
  74:main.c        ****     "Jul",
  75:main.c        ****     "Aug",
  76:main.c        ****     "Sep",
  77:main.c        ****     "Oct",
  78:main.c        ****     "Nov",
  79:main.c        ****     "Dec"
  80:main.c        **** };
  81:main.c        **** 
  82:main.c        **** struct Time feedTimes[10] = {
  83:main.c        ****     {4,25,"PM"},
  84:main.c        ****     {4,26,"PM"},
  85:main.c        ****     {5,5,"PM"}
  86:main.c        **** };
  87:main.c        **** 
ARM GAS  C:\Users\HELLOK~1.1\AppData\Local\Temp\cciBhXYB.s 			page 3


  88:main.c        **** char* commands[6] = {
  89:main.c        ****     "Set Global Time     ",
  90:main.c        ****     "Change Feed Times   ",
  91:main.c        ****     "Change Feed Amount  ",
  92:main.c        ****     "Turn on/off LED's   ",
  93:main.c        ****     "Turn on/off Speakers",
  94:main.c        ****     "Exit                "
  95:main.c        **** };
  96:main.c        **** // Feed times
  97:main.c        ****     // Amount of food
  98:main.c        ****     // LED's
  99:main.c        ****     // Speakers
 100:main.c        ****     // Exit
 101:main.c        **** 
 102:main.c        **** const uint32 LCDAddr = 0x27;
 103:main.c        **** const uint32 RTCAddr = 0x51;
 104:main.c        **** uint8 feedCounter = 0;
 105:main.c        **** 
 106:main.c        **** volatile uint8 buttonFlag = 0;
 107:main.c        **** volatile uint8 encFlag = 0;
 108:main.c        **** volatile uint8 encPos = 0;
 109:main.c        **** /*
 110:main.c        **** This function simply reads from any I2C device.
 111:main.c        **** readBuf will be the size of readBytes and any read data will be stored here..
 112:main.c        **** readBytes is the number of bytes that the I2C is reading.
 113:main.c        **** devAddr is the I2C address that the microcontroller is talking to.
 114:main.c        **** memAddr is the memory or register address that is inside the I2C device.
 115:main.c        **** */
 116:main.c        **** uint8 bcdToDec(uint8 value)
 117:main.c        **** {
  28              		.loc 1 117 0
  29              		.cfi_startproc
  30              		@ args = 0, pretend = 0, frame = 0
  31              		@ frame_needed = 0, uses_anonymous_args = 0
  32              		@ link register save eliminated.
  33              	.LVL0:
 118:main.c        ****   return (uint8)((value / 16) * 10 + value % 16);
  34              		.loc 1 118 0
  35 0000 0209     		lsrs	r2, r0, #4
  36 0002 9300     		lsls	r3, r2, #2
  37 0004 D318     		adds	r3, r2, r3
  38 0006 5A00     		lsls	r2, r3, #1
  39 0008 0F23     		movs	r3, #15
  40 000a 1840     		ands	r0, r3
  41              	.LVL1:
  42 000c 1018     		adds	r0, r2, r0
  43 000e C0B2     		uxtb	r0, r0
 119:main.c        **** }
  44              		.loc 1 119 0
  45              		@ sp needed
  46 0010 7047     		bx	lr
  47              		.cfi_endproc
  48              	.LFE35:
  49              		.size	bcdToDec, .-bcdToDec
  50              		.global	__aeabi_uidiv
  51              		.global	__aeabi_uidivmod
  52 0012 C046     		.section	.text.decToBcd,"ax",%progbits
ARM GAS  C:\Users\HELLOK~1.1\AppData\Local\Temp\cciBhXYB.s 			page 4


  53              		.align	2
  54              		.global	decToBcd
  55              		.code	16
  56              		.thumb_func
  57              		.type	decToBcd, %function
  58              	decToBcd:
  59              	.LFB36:
 120:main.c        **** 
 121:main.c        **** uint8 decToBcd(uint8 value){
  60              		.loc 1 121 0
  61              		.cfi_startproc
  62              		@ args = 0, pretend = 0, frame = 0
  63              		@ frame_needed = 0, uses_anonymous_args = 0
  64              	.LVL2:
  65 0000 70B5     		push	{r4, r5, r6, lr}
  66              		.cfi_def_cfa_offset 16
  67              		.cfi_offset 4, -16
  68              		.cfi_offset 5, -12
  69              		.cfi_offset 6, -8
  70              		.cfi_offset 14, -4
  71 0002 0500     		movs	r5, r0
 122:main.c        ****   return (value / 10 * 16 + value % 10);
  72              		.loc 1 122 0
  73 0004 0A21     		movs	r1, #10
  74 0006 FFF7FEFF 		bl	__aeabi_uidiv
  75              	.LVL3:
  76 000a 0401     		lsls	r4, r0, #4
  77 000c 0A21     		movs	r1, #10
  78 000e 2800     		movs	r0, r5
  79 0010 FFF7FEFF 		bl	__aeabi_uidivmod
  80              	.LVL4:
  81 0014 6118     		adds	r1, r4, r1
  82 0016 C8B2     		uxtb	r0, r1
 123:main.c        **** }
  83              		.loc 1 123 0
  84              		@ sp needed
  85 0018 70BD     		pop	{r4, r5, r6, pc}
  86              		.cfi_endproc
  87              	.LFE36:
  88              		.size	decToBcd, .-decToBcd
  89 001a C046     		.section	.text.readFromAddr,"ax",%progbits
  90              		.align	2
  91              		.global	readFromAddr
  92              		.code	16
  93              		.thumb_func
  94              		.type	readFromAddr, %function
  95              	readFromAddr:
  96              	.LFB37:
 124:main.c        **** void readFromAddr(uint8* readBuf, int readBytes, uint32 devAddr, uint32 memAddr){
  97              		.loc 1 124 0
  98              		.cfi_startproc
  99              		@ args = 0, pretend = 0, frame = 8
 100              		@ frame_needed = 0, uses_anonymous_args = 0
 101              	.LVL5:
 102 0000 70B5     		push	{r4, r5, r6, lr}
 103              		.cfi_def_cfa_offset 16
 104              		.cfi_offset 4, -16
ARM GAS  C:\Users\HELLOK~1.1\AppData\Local\Temp\cciBhXYB.s 			page 5


 105              		.cfi_offset 5, -12
 106              		.cfi_offset 6, -8
 107              		.cfi_offset 14, -4
 108 0002 82B0     		sub	sp, sp, #8
 109              		.cfi_def_cfa_offset 24
 110 0004 0500     		movs	r5, r0
 111 0006 0E00     		movs	r6, r1
 112 0008 1400     		movs	r4, r2
 125:main.c        ****     // First write the memory address to the I2C bus.
 126:main.c        ****     uint8 wrBuf[1];
 127:main.c        ****     wrBuf[0] = memAddr;
 113              		.loc 1 127 0
 114 000a 01A9     		add	r1, sp, #4
 115              	.LVL6:
 116 000c 0B70     		strb	r3, [r1]
 128:main.c        ****     I2C_I2CMasterWriteBuf(devAddr, wrBuf, 1, I2C_I2C_MODE_NO_STOP);
 117              		.loc 1 128 0
 118 000e 0223     		movs	r3, #2
 119              	.LVL7:
 120 0010 0122     		movs	r2, #1
 121              	.LVL8:
 122 0012 2000     		movs	r0, r4
 123              	.LVL9:
 124 0014 FFF7FEFF 		bl	I2C_I2CMasterWriteBuf
 125              	.LVL10:
 126              	.L4:
 129:main.c        ****     while(!(I2C_I2CMasterStatus() & I2C_I2C_MSTAT_WR_CMPLT));
 127              		.loc 1 129 0 discriminator 1
 128 0018 FFF7FEFF 		bl	I2C_I2CMasterStatus
 129              	.LVL11:
 130 001c 8307     		lsls	r3, r0, #30
 131 001e FBD5     		bpl	.L4
 130:main.c        ****     I2C_I2CMasterClearStatus();
 132              		.loc 1 130 0
 133 0020 FFF7FEFF 		bl	I2C_I2CMasterClearStatus
 134              	.LVL12:
 131:main.c        **** 
 132:main.c        ****     // Then read the output from the I2C bus from that memory address.
 133:main.c        ****     I2C_I2CMasterReadBuf(devAddr, readBuf, readBytes, I2C_I2C_MODE_REPEAT_START);
 135              		.loc 1 133 0
 136 0024 0123     		movs	r3, #1
 137 0026 3200     		movs	r2, r6
 138 0028 2900     		movs	r1, r5
 139 002a 2000     		movs	r0, r4
 140 002c FFF7FEFF 		bl	I2C_I2CMasterReadBuf
 141              	.LVL13:
 142              	.L5:
 134:main.c        ****     while(!(I2C_I2CMasterStatus() & I2C_I2C_MSTAT_RD_CMPLT));
 143              		.loc 1 134 0 discriminator 1
 144 0030 FFF7FEFF 		bl	I2C_I2CMasterStatus
 145              	.LVL14:
 146 0034 C307     		lsls	r3, r0, #31
 147 0036 FBD5     		bpl	.L5
 135:main.c        ****     I2C_I2CMasterClearStatus();
 148              		.loc 1 135 0
 149 0038 FFF7FEFF 		bl	I2C_I2CMasterClearStatus
 150              	.LVL15:
ARM GAS  C:\Users\HELLOK~1.1\AppData\Local\Temp\cciBhXYB.s 			page 6


 136:main.c        **** }
 151              		.loc 1 136 0
 152 003c 02B0     		add	sp, sp, #8
 153              		@ sp needed
 154              	.LVL16:
 155              	.LVL17:
 156              	.LVL18:
 157 003e 70BD     		pop	{r4, r5, r6, pc}
 158              		.cfi_endproc
 159              	.LFE37:
 160              		.size	readFromAddr, .-readFromAddr
 161              		.section	.text.writeToAddr,"ax",%progbits
 162              		.align	2
 163              		.global	writeToAddr
 164              		.code	16
 165              		.thumb_func
 166              		.type	writeToAddr, %function
 167              	writeToAddr:
 168              	.LFB38:
 137:main.c        **** /*
 138:main.c        **** This function simply writes to any I2C device.
 139:main.c        **** writeBuf will be the size of writeBytes and any data inside here will be written to the I2C bus.
 140:main.c        **** writeBytes is the number of bytes written to the I2C bus.
 141:main.c        ****     NOTE: The first byte of the writeBuf will be overwritten if it is stored, as it is the memory a
 142:main.c        **** devAddr is the I2C address that the microcontroller is talking to.
 143:main.c        **** memAddr is the memory or register address that is inside the I2C device.
 144:main.c        **** */
 145:main.c        **** void writeToAddr(uint8* writeBuf, int writeBytes, uint32 devAddr, uint32 memAddr){
 169              		.loc 1 145 0
 170              		.cfi_startproc
 171              		@ args = 0, pretend = 0, frame = 0
 172              		@ frame_needed = 0, uses_anonymous_args = 0
 173              	.LVL19:
 174 0000 10B5     		push	{r4, lr}
 175              		.cfi_def_cfa_offset 8
 176              		.cfi_offset 4, -8
 177              		.cfi_offset 14, -4
 178 0002 1400     		movs	r4, r2
 146:main.c        ****     // Store the first byte as the memory address we are writing to.
 147:main.c        ****     writeBuf[0] = memAddr;
 179              		.loc 1 147 0
 180 0004 0370     		strb	r3, [r0]
 148:main.c        **** 
 149:main.c        ****     // Write the data to the device.
 150:main.c        ****     I2C_I2CMasterWriteBuf(devAddr, writeBuf, writeBytes, I2C_I2C_MODE_COMPLETE_XFER);
 181              		.loc 1 150 0
 182 0006 0023     		movs	r3, #0
 183              	.LVL20:
 184 0008 0A00     		movs	r2, r1
 185              	.LVL21:
 186 000a 0100     		movs	r1, r0
 187              	.LVL22:
 188 000c 2000     		movs	r0, r4
 189              	.LVL23:
 190 000e FFF7FEFF 		bl	I2C_I2CMasterWriteBuf
 191              	.LVL24:
 192              	.L7:
ARM GAS  C:\Users\HELLOK~1.1\AppData\Local\Temp\cciBhXYB.s 			page 7


 151:main.c        ****     while(!(I2C_I2CMasterStatus() & I2C_I2C_MSTAT_WR_CMPLT));
 193              		.loc 1 151 0 discriminator 1
 194 0012 FFF7FEFF 		bl	I2C_I2CMasterStatus
 195              	.LVL25:
 196 0016 8307     		lsls	r3, r0, #30
 197 0018 FBD5     		bpl	.L7
 152:main.c        ****     I2C_I2CMasterClearStatus();
 198              		.loc 1 152 0
 199 001a FFF7FEFF 		bl	I2C_I2CMasterClearStatus
 200              	.LVL26:
 153:main.c        **** }
 201              		.loc 1 153 0
 202              		@ sp needed
 203              	.LVL27:
 204 001e 10BD     		pop	{r4, pc}
 205              		.cfi_endproc
 206              	.LFE38:
 207              		.size	writeToAddr, .-writeToAddr
 208              		.section	.text.RTCInit,"ax",%progbits
 209              		.align	2
 210              		.global	RTCInit
 211              		.code	16
 212              		.thumb_func
 213              		.type	RTCInit, %function
 214              	RTCInit:
 215              	.LFB39:
 154:main.c        **** 
 155:main.c        **** void RTCInit(){
 216              		.loc 1 155 0
 217              		.cfi_startproc
 218              		@ args = 0, pretend = 0, frame = 8
 219              		@ frame_needed = 0, uses_anonymous_args = 0
 220 0000 30B5     		push	{r4, r5, lr}
 221              		.cfi_def_cfa_offset 12
 222              		.cfi_offset 4, -12
 223              		.cfi_offset 5, -8
 224              		.cfi_offset 14, -4
 225 0002 83B0     		sub	sp, sp, #12
 226              		.cfi_def_cfa_offset 24
 156:main.c        ****     uint8 wrBuf[2];
 157:main.c        ****     wrBuf[1] = 0x00;
 227              		.loc 1 157 0
 228 0004 01AC     		add	r4, sp, #4
 229 0006 0023     		movs	r3, #0
 230 0008 6370     		strb	r3, [r4, #1]
 158:main.c        ****     writeToAddr(wrBuf,2,RTCAddr,rtc.VL_Sec);
 231              		.loc 1 158 0
 232 000a 1C4D     		ldr	r5, .L9
 233 000c AB78     		ldrb	r3, [r5, #2]
 234 000e 5122     		movs	r2, #81
 235 0010 0221     		movs	r1, #2
 236 0012 2000     		movs	r0, r4
 237 0014 FFF7FEFF 		bl	writeToAddr
 238              	.LVL28:
 159:main.c        ****     wrBuf[1] = 0x44;
 239              		.loc 1 159 0
 240 0018 4423     		movs	r3, #68
ARM GAS  C:\Users\HELLOK~1.1\AppData\Local\Temp\cciBhXYB.s 			page 8


 241 001a 6370     		strb	r3, [r4, #1]
 160:main.c        ****     writeToAddr(wrBuf,2,RTCAddr,rtc.Minutes);
 242              		.loc 1 160 0
 243 001c EB78     		ldrb	r3, [r5, #3]
 244 001e 5122     		movs	r2, #81
 245 0020 0221     		movs	r1, #2
 246 0022 2000     		movs	r0, r4
 247 0024 FFF7FEFF 		bl	writeToAddr
 248              	.LVL29:
 161:main.c        ****     wrBuf[1] = 0x10;
 249              		.loc 1 161 0
 250 0028 1023     		movs	r3, #16
 251 002a 6370     		strb	r3, [r4, #1]
 162:main.c        ****     writeToAddr(wrBuf,2,RTCAddr,rtc.Hours);
 252              		.loc 1 162 0
 253 002c 2B79     		ldrb	r3, [r5, #4]
 254 002e 5122     		movs	r2, #81
 255 0030 0221     		movs	r1, #2
 256 0032 2000     		movs	r0, r4
 257 0034 FFF7FEFF 		bl	writeToAddr
 258              	.LVL30:
 163:main.c        ****     wrBuf[1] = 0x16;
 259              		.loc 1 163 0
 260 0038 1623     		movs	r3, #22
 261 003a 6370     		strb	r3, [r4, #1]
 164:main.c        ****     writeToAddr(wrBuf,2,RTCAddr,rtc.Days);
 262              		.loc 1 164 0
 263 003c 6B79     		ldrb	r3, [r5, #5]
 264 003e 5122     		movs	r2, #81
 265 0040 0221     		movs	r1, #2
 266 0042 2000     		movs	r0, r4
 267 0044 FFF7FEFF 		bl	writeToAddr
 268              	.LVL31:
 165:main.c        ****     wrBuf[1] = 0x06;
 269              		.loc 1 165 0
 270 0048 0623     		movs	r3, #6
 271 004a 6370     		strb	r3, [r4, #1]
 166:main.c        ****     writeToAddr(wrBuf,2,RTCAddr,rtc.Weekdays);
 272              		.loc 1 166 0
 273 004c AB79     		ldrb	r3, [r5, #6]
 274 004e 5122     		movs	r2, #81
 275 0050 0221     		movs	r1, #2
 276 0052 2000     		movs	r0, r4
 277 0054 FFF7FEFF 		bl	writeToAddr
 278              	.LVL32:
 167:main.c        ****     wrBuf[1] = 0x04;
 279              		.loc 1 167 0
 280 0058 0423     		movs	r3, #4
 281 005a 6370     		strb	r3, [r4, #1]
 168:main.c        ****     writeToAddr(wrBuf,2,RTCAddr,rtc.Century_Months);
 282              		.loc 1 168 0
 283 005c EB79     		ldrb	r3, [r5, #7]
 284 005e 5122     		movs	r2, #81
 285 0060 0221     		movs	r1, #2
 286 0062 2000     		movs	r0, r4
 287 0064 FFF7FEFF 		bl	writeToAddr
 288              	.LVL33:
ARM GAS  C:\Users\HELLOK~1.1\AppData\Local\Temp\cciBhXYB.s 			page 9


 169:main.c        ****     wrBuf[1] = 0x23;
 289              		.loc 1 169 0
 290 0068 2323     		movs	r3, #35
 291 006a 6370     		strb	r3, [r4, #1]
 170:main.c        ****     writeToAddr(wrBuf,2,RTCAddr,rtc.Years);
 292              		.loc 1 170 0
 293 006c 2B7A     		ldrb	r3, [r5, #8]
 294 006e 5122     		movs	r2, #81
 295 0070 0221     		movs	r1, #2
 296 0072 2000     		movs	r0, r4
 297 0074 FFF7FEFF 		bl	writeToAddr
 298              	.LVL34:
 171:main.c        **** }
 299              		.loc 1 171 0
 300 0078 03B0     		add	sp, sp, #12
 301              		@ sp needed
 302 007a 30BD     		pop	{r4, r5, pc}
 303              	.L10:
 304              		.align	2
 305              	.L9:
 306 007c 00000000 		.word	.LANCHOR0
 307              		.cfi_endproc
 308              	.LFE39:
 309              		.size	RTCInit, .-RTCInit
 310              		.section	.text.LCDInit,"ax",%progbits
 311              		.align	2
 312              		.global	LCDInit
 313              		.code	16
 314              		.thumb_func
 315              		.type	LCDInit, %function
 316              	LCDInit:
 317              	.LFB40:
 172:main.c        **** 
 173:main.c        **** void LCDInit(struct Time currTime, struct Time nextTime, struct Date currDate, struct Date nextDate
 318              		.loc 1 173 0
 319              		.cfi_startproc
 320              		@ args = 24, pretend = 0, frame = 40
 321              		@ frame_needed = 0, uses_anonymous_args = 0
 322 0000 F0B5     		push	{r4, r5, r6, r7, lr}
 323              		.cfi_def_cfa_offset 20
 324              		.cfi_offset 4, -20
 325              		.cfi_offset 5, -16
 326              		.cfi_offset 6, -12
 327              		.cfi_offset 7, -8
 328              		.cfi_offset 14, -4
 329 0002 4746     		mov	r7, r8
 330 0004 80B4     		push	{r7}
 331              		.cfi_def_cfa_offset 24
 332              		.cfi_offset 8, -24
 333 0006 90B0     		sub	sp, sp, #64
 334              		.cfi_def_cfa_offset 88
 335 0008 08AE     		add	r6, sp, #32
 336 000a 0890     		str	r0, [sp, #32]
 337 000c 0991     		str	r1, [sp, #36]
 338 000e 06AD     		add	r5, sp, #24
 339 0010 0692     		str	r2, [sp, #24]
 340 0012 0793     		str	r3, [sp, #28]
ARM GAS  C:\Users\HELLOK~1.1\AppData\Local\Temp\cciBhXYB.s 			page 10


 174:main.c        ****     // First line time
 175:main.c        ****     setCursor(0,0);
 341              		.loc 1 175 0
 342 0014 0021     		movs	r1, #0
 343 0016 0020     		movs	r0, #0
 344 0018 FFF7FEFF 		bl	setCursor
 345              	.LVL35:
 176:main.c        ****     char printString[21];
 177:main.c        ****     snprintf(printString, 21, "%d:%.2d%s %s %d, 20%d ",currTime.hour, currTime.minute,currTime.AM, 
 346              		.loc 1 177 0
 347 001c 3378     		ldrb	r3, [r6]
 348 001e 7278     		ldrb	r2, [r6, #1]
 349 0020 16A9     		add	r1, sp, #88
 350 0022 0978     		ldrb	r1, [r1]
 351 0024 16A8     		add	r0, sp, #88
 352 0026 007A     		ldrb	r0, [r0, #8]
 353 0028 1F4F     		ldr	r7, .L12
 354 002a 0AAC     		add	r4, sp, #40
 355 002c 0490     		str	r0, [sp, #16]
 356 002e 0391     		str	r1, [sp, #12]
 357 0030 1799     		ldr	r1, [sp, #92]
 358 0032 0291     		str	r1, [sp, #8]
 359 0034 7168     		ldr	r1, [r6, #4]
 360 0036 0191     		str	r1, [sp, #4]
 361 0038 0092     		str	r2, [sp]
 362 003a 3A00     		movs	r2, r7
 363 003c 1521     		movs	r1, #21
 364 003e 2000     		movs	r0, r4
 365 0040 FFF7FEFF 		bl	snprintf
 366              	.LVL36:
 178:main.c        ****     printString[20] = '\0';
 367              		.loc 1 178 0
 368 0044 0026     		movs	r6, #0
 369 0046 2675     		strb	r6, [r4, #20]
 179:main.c        ****     LCD_print(printString);
 370              		.loc 1 179 0
 371 0048 2000     		movs	r0, r4
 372 004a FFF7FEFF 		bl	LCD_print
 373              	.LVL37:
 180:main.c        ****     setCursor(0,1);
 374              		.loc 1 180 0
 375 004e 0121     		movs	r1, #1
 376 0050 0020     		movs	r0, #0
 377 0052 FFF7FEFF 		bl	setCursor
 378              	.LVL38:
 181:main.c        ****     LCD_print("--------------------");
 379              		.loc 1 181 0
 380 0056 1548     		ldr	r0, .L12+4
 381 0058 FFF7FEFF 		bl	LCD_print
 382              	.LVL39:
 182:main.c        ****     setCursor(0,2);
 383              		.loc 1 182 0
 384 005c 0221     		movs	r1, #2
 385 005e 0020     		movs	r0, #0
 386 0060 FFF7FEFF 		bl	setCursor
 387              	.LVL40:
 183:main.c        ****     LCD_print("Time of Next Feed:");
ARM GAS  C:\Users\HELLOK~1.1\AppData\Local\Temp\cciBhXYB.s 			page 11


 388              		.loc 1 183 0
 389 0064 1248     		ldr	r0, .L12+8
 390 0066 FFF7FEFF 		bl	LCD_print
 391              	.LVL41:
 184:main.c        ****     setCursor(0,3);
 392              		.loc 1 184 0
 393 006a 0321     		movs	r1, #3
 394 006c 0020     		movs	r0, #0
 395 006e FFF7FEFF 		bl	setCursor
 396              	.LVL42:
 185:main.c        ****     snprintf(printString, 21, "%d:%.2d%s %s %d, 20%d ",nextTime.hour, nextTime.minute,nextTime.AM, 
 397              		.loc 1 185 0
 398 0072 2B78     		ldrb	r3, [r5]
 399 0074 6A78     		ldrb	r2, [r5, #1]
 400 0076 9046     		mov	r8, r2
 401 0078 19AA     		add	r2, sp, #100
 402 007a 1078     		ldrb	r0, [r2]
 403 007c 117A     		ldrb	r1, [r2, #8]
 404 007e 0491     		str	r1, [sp, #16]
 405 0080 0390     		str	r0, [sp, #12]
 406 0082 1A9A     		ldr	r2, [sp, #104]
 407 0084 0292     		str	r2, [sp, #8]
 408 0086 6A68     		ldr	r2, [r5, #4]
 409 0088 0192     		str	r2, [sp, #4]
 410 008a 4246     		mov	r2, r8
 411 008c 0092     		str	r2, [sp]
 412 008e 3A00     		movs	r2, r7
 413 0090 1521     		movs	r1, #21
 414 0092 2000     		movs	r0, r4
 415 0094 FFF7FEFF 		bl	snprintf
 416              	.LVL43:
 186:main.c        ****     printString[20] = '\0';
 417              		.loc 1 186 0
 418 0098 2675     		strb	r6, [r4, #20]
 187:main.c        ****     LCD_print(printString);
 419              		.loc 1 187 0
 420 009a 2000     		movs	r0, r4
 421 009c FFF7FEFF 		bl	LCD_print
 422              	.LVL44:
 188:main.c        **** }
 423              		.loc 1 188 0
 424 00a0 10B0     		add	sp, sp, #64
 425              		@ sp needed
 426 00a2 04BC     		pop	{r2}
 427 00a4 9046     		mov	r8, r2
 428 00a6 F0BD     		pop	{r4, r5, r6, r7, pc}
 429              	.L13:
 430              		.align	2
 431              	.L12:
 432 00a8 00000000 		.word	.LC9
 433 00ac 18000000 		.word	.LC11
 434 00b0 30000000 		.word	.LC13
 435              		.cfi_endproc
 436              	.LFE40:
 437              		.size	LCDInit, .-LCDInit
 438              		.section	.text.updateNextFeed,"ax",%progbits
 439              		.align	2
ARM GAS  C:\Users\HELLOK~1.1\AppData\Local\Temp\cciBhXYB.s 			page 12


 440              		.global	updateNextFeed
 441              		.code	16
 442              		.thumb_func
 443              		.type	updateNextFeed, %function
 444              	updateNextFeed:
 445              	.LFB41:
 189:main.c        **** 
 190:main.c        **** void updateNextFeed(struct Time nextTime, struct Date nextDate){
 446              		.loc 1 190 0
 447              		.cfi_startproc
 448              		@ args = 12, pretend = 8, frame = 32
 449              		@ frame_needed = 0, uses_anonymous_args = 0
 450 0000 82B0     		sub	sp, sp, #8
 451              		.cfi_def_cfa_offset 8
 452 0002 30B5     		push	{r4, r5, lr}
 453              		.cfi_def_cfa_offset 20
 454              		.cfi_offset 4, -20
 455              		.cfi_offset 5, -16
 456              		.cfi_offset 14, -12
 457 0004 8FB0     		sub	sp, sp, #60
 458              		.cfi_def_cfa_offset 80
 459 0006 06AC     		add	r4, sp, #24
 460 0008 0690     		str	r0, [sp, #24]
 461 000a 0791     		str	r1, [sp, #28]
 462 000c 1292     		str	r2, [sp, #72]
 463 000e 1393     		str	r3, [sp, #76]
 191:main.c        ****     char printString[21];
 192:main.c        ****     setCursor(0,2);
 464              		.loc 1 192 0
 465 0010 0221     		movs	r1, #2
 466 0012 0020     		movs	r0, #0
 467 0014 FFF7FEFF 		bl	setCursor
 468              	.LVL45:
 193:main.c        ****     LCD_print("Time of Next Feed:");
 469              		.loc 1 193 0
 470 0018 1148     		ldr	r0, .L15
 471 001a FFF7FEFF 		bl	LCD_print
 472              	.LVL46:
 194:main.c        ****     setCursor(0,3);
 473              		.loc 1 194 0
 474 001e 0321     		movs	r1, #3
 475 0020 0020     		movs	r0, #0
 476 0022 FFF7FEFF 		bl	setCursor
 477              	.LVL47:
 195:main.c        ****     snprintf(printString, 21, "%d:%.2d%s %s %d, 20%d ",nextTime.hour, nextTime.minute,nextTime.AM, 
 478              		.loc 1 195 0
 479 0026 2378     		ldrb	r3, [r4]
 480 0028 6278     		ldrb	r2, [r4, #1]
 481 002a 12A9     		add	r1, sp, #72
 482 002c 0978     		ldrb	r1, [r1]
 483 002e 12A8     		add	r0, sp, #72
 484 0030 007A     		ldrb	r0, [r0, #8]
 485 0032 08AD     		add	r5, sp, #32
 486 0034 0490     		str	r0, [sp, #16]
 487 0036 0391     		str	r1, [sp, #12]
 488 0038 1399     		ldr	r1, [sp, #76]
 489 003a 0291     		str	r1, [sp, #8]
ARM GAS  C:\Users\HELLOK~1.1\AppData\Local\Temp\cciBhXYB.s 			page 13


 490 003c 6168     		ldr	r1, [r4, #4]
 491 003e 0191     		str	r1, [sp, #4]
 492 0040 0092     		str	r2, [sp]
 493 0042 084A     		ldr	r2, .L15+4
 494 0044 1521     		movs	r1, #21
 495 0046 2800     		movs	r0, r5
 496 0048 FFF7FEFF 		bl	snprintf
 497              	.LVL48:
 196:main.c        ****     printString[20] = '\0';
 498              		.loc 1 196 0
 499 004c 0023     		movs	r3, #0
 500 004e 2B75     		strb	r3, [r5, #20]
 197:main.c        ****     LCD_print(printString);
 501              		.loc 1 197 0
 502 0050 2800     		movs	r0, r5
 503 0052 FFF7FEFF 		bl	LCD_print
 504              	.LVL49:
 198:main.c        **** }
 505              		.loc 1 198 0
 506 0056 0FB0     		add	sp, sp, #60
 507              		@ sp needed
 508 0058 30BC     		pop	{r4, r5}
 509 005a 08BC     		pop	{r3}
 510 005c 02B0     		add	sp, sp, #8
 511 005e 1847     		bx	r3
 512              	.L16:
 513              		.align	2
 514              	.L15:
 515 0060 30000000 		.word	.LC13
 516 0064 00000000 		.word	.LC9
 517              		.cfi_endproc
 518              	.LFE41:
 519              		.size	updateNextFeed, .-updateNextFeed
 520              		.section	.text.updateCurrTime,"ax",%progbits
 521              		.align	2
 522              		.global	updateCurrTime
 523              		.code	16
 524              		.thumb_func
 525              		.type	updateCurrTime, %function
 526              	updateCurrTime:
 527              	.LFB42:
 199:main.c        **** 
 200:main.c        **** void updateCurrTime(struct Time currTime, struct Date currDate){
 528              		.loc 1 200 0
 529              		.cfi_startproc
 530              		@ args = 12, pretend = 8, frame = 32
 531              		@ frame_needed = 0, uses_anonymous_args = 0
 532 0000 82B0     		sub	sp, sp, #8
 533              		.cfi_def_cfa_offset 8
 534 0002 30B5     		push	{r4, r5, lr}
 535              		.cfi_def_cfa_offset 20
 536              		.cfi_offset 4, -20
 537              		.cfi_offset 5, -16
 538              		.cfi_offset 14, -12
 539 0004 8FB0     		sub	sp, sp, #60
 540              		.cfi_def_cfa_offset 80
 541 0006 06AC     		add	r4, sp, #24
ARM GAS  C:\Users\HELLOK~1.1\AppData\Local\Temp\cciBhXYB.s 			page 14


 542 0008 0690     		str	r0, [sp, #24]
 543 000a 0791     		str	r1, [sp, #28]
 544 000c 1292     		str	r2, [sp, #72]
 545 000e 1393     		str	r3, [sp, #76]
 201:main.c        ****     setCursor(0,0);
 546              		.loc 1 201 0
 547 0010 0021     		movs	r1, #0
 548 0012 0020     		movs	r0, #0
 549 0014 FFF7FEFF 		bl	setCursor
 550              	.LVL50:
 202:main.c        ****     char printString[21];
 203:main.c        ****     snprintf(printString, 21, "%d:%.2d%s %s %d, 20%d ",currTime.hour, currTime.minute,currTime.AM, 
 551              		.loc 1 203 0
 552 0018 2378     		ldrb	r3, [r4]
 553 001a 6278     		ldrb	r2, [r4, #1]
 554 001c 12A9     		add	r1, sp, #72
 555 001e 0978     		ldrb	r1, [r1]
 556 0020 12A8     		add	r0, sp, #72
 557 0022 007A     		ldrb	r0, [r0, #8]
 558 0024 08AD     		add	r5, sp, #32
 559 0026 0490     		str	r0, [sp, #16]
 560 0028 0391     		str	r1, [sp, #12]
 561 002a 1399     		ldr	r1, [sp, #76]
 562 002c 0291     		str	r1, [sp, #8]
 563 002e 6168     		ldr	r1, [r4, #4]
 564 0030 0191     		str	r1, [sp, #4]
 565 0032 0092     		str	r2, [sp]
 566 0034 094A     		ldr	r2, .L18
 567 0036 1521     		movs	r1, #21
 568 0038 2800     		movs	r0, r5
 569 003a FFF7FEFF 		bl	snprintf
 570              	.LVL51:
 204:main.c        ****     printString[20] = '\0';
 571              		.loc 1 204 0
 572 003e 0023     		movs	r3, #0
 573 0040 2B75     		strb	r3, [r5, #20]
 205:main.c        ****     LCD_print(printString);
 574              		.loc 1 205 0
 575 0042 2800     		movs	r0, r5
 576 0044 FFF7FEFF 		bl	LCD_print
 577              	.LVL52:
 206:main.c        ****     setCursor(0,1);
 578              		.loc 1 206 0
 579 0048 0121     		movs	r1, #1
 580 004a 0020     		movs	r0, #0
 581 004c FFF7FEFF 		bl	setCursor
 582              	.LVL53:
 207:main.c        **** }
 583              		.loc 1 207 0
 584 0050 0FB0     		add	sp, sp, #60
 585              		@ sp needed
 586 0052 30BC     		pop	{r4, r5}
 587 0054 08BC     		pop	{r3}
 588 0056 02B0     		add	sp, sp, #8
 589 0058 1847     		bx	r3
 590              	.L19:
 591 005a C046     		.align	2
ARM GAS  C:\Users\HELLOK~1.1\AppData\Local\Temp\cciBhXYB.s 			page 15


 592              	.L18:
 593 005c 00000000 		.word	.LC9
 594              		.cfi_endproc
 595              	.LFE42:
 596              		.size	updateCurrTime, .-updateCurrTime
 597              		.section	.text.exitLCD,"ax",%progbits
 598              		.align	2
 599              		.global	exitLCD
 600              		.code	16
 601              		.thumb_func
 602              		.type	exitLCD, %function
 603              	exitLCD:
 604              	.LFB43:
 208:main.c        **** void exitLCD(){
 605              		.loc 1 208 0
 606              		.cfi_startproc
 607              		@ args = 0, pretend = 0, frame = 48
 608              		@ frame_needed = 0, uses_anonymous_args = 0
 609 0000 F0B5     		push	{r4, r5, r6, r7, lr}
 610              		.cfi_def_cfa_offset 20
 611              		.cfi_offset 4, -20
 612              		.cfi_offset 5, -16
 613              		.cfi_offset 6, -12
 614              		.cfi_offset 7, -8
 615              		.cfi_offset 14, -4
 616 0002 4746     		mov	r7, r8
 617 0004 80B4     		push	{r7}
 618              		.cfi_def_cfa_offset 24
 619              		.cfi_offset 8, -24
 620 0006 92B0     		sub	sp, sp, #72
 621              		.cfi_def_cfa_offset 96
 209:main.c        ****     char printString[21];
 210:main.c        ****     struct Time nextTime = feedTimes[feedCounter];
 622              		.loc 1 210 0
 623 0008 2D4B     		ldr	r3, .L21
 624 000a 1B78     		ldrb	r3, [r3]
 625 000c 0AAC     		add	r4, sp, #40
 626 000e 2D4D     		ldr	r5, .L21+4
 627 0010 DB00     		lsls	r3, r3, #3
 628 0012 EB18     		adds	r3, r5, r3
 629 0014 1033     		adds	r3, r3, #16
 630 0016 2200     		movs	r2, r4
 631 0018 03CB     		ldmia	r3!, {r0, r1}
 632 001a 03C2     		stmia	r2!, {r0, r1}
 211:main.c        ****     uint8 day[1];
 212:main.c        ****     readFromAddr(day,1,RTCAddr,rtc.Days);
 633              		.loc 1 212 0
 634 001c 6B79     		ldrb	r3, [r5, #5]
 635 001e 09AE     		add	r6, sp, #36
 636 0020 5122     		movs	r2, #81
 637 0022 0121     		movs	r1, #1
 638 0024 3000     		movs	r0, r6
 639 0026 FFF7FEFF 		bl	readFromAddr
 640              	.LVL54:
 213:main.c        ****     uint8 month[1];
 214:main.c        ****     readFromAddr(month,1,RTCAddr,rtc.Century_Months);
 641              		.loc 1 214 0
ARM GAS  C:\Users\HELLOK~1.1\AppData\Local\Temp\cciBhXYB.s 			page 16


 642 002a EB79     		ldrb	r3, [r5, #7]
 643 002c 08AA     		add	r2, sp, #32
 644 002e 9046     		mov	r8, r2
 645 0030 5122     		movs	r2, #81
 646 0032 0121     		movs	r1, #1
 647 0034 4046     		mov	r0, r8
 648 0036 FFF7FEFF 		bl	readFromAddr
 649              	.LVL55:
 215:main.c        ****     uint8 year[1];
 216:main.c        ****     readFromAddr(year,1,RTCAddr,rtc.Years);
 650              		.loc 1 216 0
 651 003a 2B7A     		ldrb	r3, [r5, #8]
 652 003c 07AF     		add	r7, sp, #28
 653 003e 5122     		movs	r2, #81
 654 0040 0121     		movs	r1, #1
 655 0042 3800     		movs	r0, r7
 656 0044 FFF7FEFF 		bl	readFromAddr
 657              	.LVL56:
 217:main.c        ****     struct Date nextDate = {bcdToDec(day[0]),months[bcdToDec(month[0])-1],bcdToDec(year[0])};
 658              		.loc 1 217 0
 659 0048 3078     		ldrb	r0, [r6]
 660 004a FFF7FEFF 		bl	bcdToDec
 661              	.LVL57:
 662 004e 0600     		movs	r6, r0
 663 0050 4346     		mov	r3, r8
 664 0052 1878     		ldrb	r0, [r3]
 665 0054 FFF7FEFF 		bl	bcdToDec
 666              	.LVL58:
 667 0058 0138     		subs	r0, r0, #1
 668 005a 8000     		lsls	r0, r0, #2
 669 005c 2818     		adds	r0, r5, r0
 670 005e 036E     		ldr	r3, [r0, #96]
 671 0060 9846     		mov	r8, r3
 672 0062 3878     		ldrb	r0, [r7]
 673 0064 FFF7FEFF 		bl	bcdToDec
 674              	.LVL59:
 675 0068 0700     		movs	r7, r0
 218:main.c        ****     setCursor(0,1);
 676              		.loc 1 218 0
 677 006a 0121     		movs	r1, #1
 678 006c 0020     		movs	r0, #0
 679 006e FFF7FEFF 		bl	setCursor
 680              	.LVL60:
 219:main.c        ****     LCD_print("--------------------");
 681              		.loc 1 219 0
 682 0072 1548     		ldr	r0, .L21+8
 683 0074 FFF7FEFF 		bl	LCD_print
 684              	.LVL61:
 220:main.c        ****     setCursor(0,2);
 685              		.loc 1 220 0
 686 0078 0221     		movs	r1, #2
 687 007a 0020     		movs	r0, #0
 688 007c FFF7FEFF 		bl	setCursor
 689              	.LVL62:
 221:main.c        ****     LCD_print("Time of Next Feed:  ");
 690              		.loc 1 221 0
 691 0080 1248     		ldr	r0, .L21+12
ARM GAS  C:\Users\HELLOK~1.1\AppData\Local\Temp\cciBhXYB.s 			page 17


 692 0082 FFF7FEFF 		bl	LCD_print
 693              	.LVL63:
 222:main.c        ****     setCursor(0,3);
 694              		.loc 1 222 0
 695 0086 0321     		movs	r1, #3
 696 0088 0020     		movs	r0, #0
 697 008a FFF7FEFF 		bl	setCursor
 698              	.LVL64:
 223:main.c        ****     snprintf(printString, 21, "%d:%.2d%s %s %d, 20%d ",nextTime.hour, nextTime.minute,nextTime.AM, 
 699              		.loc 1 223 0
 700 008e 2378     		ldrb	r3, [r4]
 701 0090 6278     		ldrb	r2, [r4, #1]
 702 0092 0CAD     		add	r5, sp, #48
 703 0094 0497     		str	r7, [sp, #16]
 704 0096 0396     		str	r6, [sp, #12]
 705 0098 4146     		mov	r1, r8
 706 009a 0291     		str	r1, [sp, #8]
 707 009c 6168     		ldr	r1, [r4, #4]
 708 009e 0191     		str	r1, [sp, #4]
 709 00a0 0092     		str	r2, [sp]
 710 00a2 0B4A     		ldr	r2, .L21+16
 711 00a4 1521     		movs	r1, #21
 712 00a6 2800     		movs	r0, r5
 713 00a8 FFF7FEFF 		bl	snprintf
 714              	.LVL65:
 224:main.c        ****     printString[20] = '\0';
 715              		.loc 1 224 0
 716 00ac 0023     		movs	r3, #0
 717 00ae 2B75     		strb	r3, [r5, #20]
 225:main.c        ****     LCD_print(printString);
 718              		.loc 1 225 0
 719 00b0 2800     		movs	r0, r5
 720 00b2 FFF7FEFF 		bl	LCD_print
 721              	.LVL66:
 226:main.c        **** }
 722              		.loc 1 226 0
 723 00b6 12B0     		add	sp, sp, #72
 724              		@ sp needed
 725 00b8 04BC     		pop	{r2}
 726 00ba 9046     		mov	r8, r2
 727 00bc F0BD     		pop	{r4, r5, r6, r7, pc}
 728              	.L22:
 729 00be C046     		.align	2
 730              	.L21:
 731 00c0 00000000 		.word	.LANCHOR1
 732 00c4 00000000 		.word	.LANCHOR0
 733 00c8 18000000 		.word	.LC11
 734 00cc 44000000 		.word	.LC21
 735 00d0 00000000 		.word	.LC9
 736              		.cfi_endproc
 737              	.LFE43:
 738              		.size	exitLCD, .-exitLCD
 739              		.section	.text.FEEEEED,"ax",%progbits
 740              		.align	2
 741              		.global	FEEEEED
 742              		.code	16
 743              		.thumb_func
ARM GAS  C:\Users\HELLOK~1.1\AppData\Local\Temp\cciBhXYB.s 			page 18


 744              		.type	FEEEEED, %function
 745              	FEEEEED:
 746              	.LFB44:
 227:main.c        **** void FEEEEED(){
 747              		.loc 1 227 0
 748              		.cfi_startproc
 749              		@ args = 0, pretend = 0, frame = 0
 750              		@ frame_needed = 0, uses_anonymous_args = 0
 751              		@ link register save eliminated.
 228:main.c        ****     // Turn on motor
 229:main.c        ****     // Set LED's
 230:main.c        ****     // Set speakers
 231:main.c        **** }
 752              		.loc 1 231 0
 753              		@ sp needed
 754 0000 7047     		bx	lr
 755              		.cfi_endproc
 756              	.LFE44:
 757              		.size	FEEEEED, .-FEEEEED
 758 0002 C046     		.section	.text.setGlobalTime,"ax",%progbits
 759              		.align	2
 760              		.global	setGlobalTime
 761              		.code	16
 762              		.thumb_func
 763              		.type	setGlobalTime, %function
 764              	setGlobalTime:
 765              	.LFB45:
 232:main.c        **** void setGlobalTime(){
 766              		.loc 1 232 0
 767              		.cfi_startproc
 768              		@ args = 0, pretend = 0, frame = 112
 769              		@ frame_needed = 0, uses_anonymous_args = 0
 770 0000 F0B5     		push	{r4, r5, r6, r7, lr}
 771              		.cfi_def_cfa_offset 20
 772              		.cfi_offset 4, -20
 773              		.cfi_offset 5, -16
 774              		.cfi_offset 6, -12
 775              		.cfi_offset 7, -8
 776              		.cfi_offset 14, -4
 777 0002 4F46     		mov	r7, r9
 778 0004 80B4     		push	{r7}
 779              		.cfi_def_cfa_offset 24
 780              		.cfi_offset 9, -24
 781 0006 9EB0     		sub	sp, sp, #120
 782              		.cfi_def_cfa_offset 144
 233:main.c        ****     clear();
 783              		.loc 1 233 0
 784 0008 FFF7FEFF 		bl	clear
 785              	.LVL67:
 234:main.c        ****     setCursor(0,0);
 786              		.loc 1 234 0
 787 000c 0021     		movs	r1, #0
 788 000e 0020     		movs	r0, #0
 789 0010 FFF7FEFF 		bl	setCursor
 790              	.LVL68:
 235:main.c        ****     LCD_print("Set Month");
 791              		.loc 1 235 0
ARM GAS  C:\Users\HELLOK~1.1\AppData\Local\Temp\cciBhXYB.s 			page 19


 792 0014 D048     		ldr	r0, .L70
 793 0016 FFF7FEFF 		bl	LCD_print
 794              	.LVL69:
 236:main.c        ****     char printMessage[21];
 237:main.c        ****     struct Time nextTime = feedTimes[feedCounter];
 238:main.c        ****     uint8 day[1];
 239:main.c        ****     readFromAddr(day,1,RTCAddr,rtc.Days);
 795              		.loc 1 239 0
 796 001a D04D     		ldr	r5, .L70+4
 797 001c 6B79     		ldrb	r3, [r5, #5]
 798 001e 13AF     		add	r7, sp, #76
 799 0020 5122     		movs	r2, #81
 800 0022 0121     		movs	r1, #1
 801 0024 3800     		movs	r0, r7
 802 0026 FFF7FEFF 		bl	readFromAddr
 803              	.LVL70:
 240:main.c        ****     uint8 month[1];
 241:main.c        ****     readFromAddr(month,1,RTCAddr,rtc.Century_Months);
 804              		.loc 1 241 0
 805 002a EB79     		ldrb	r3, [r5, #7]
 806 002c 12AC     		add	r4, sp, #72
 807 002e 5122     		movs	r2, #81
 808 0030 0121     		movs	r1, #1
 809 0032 2000     		movs	r0, r4
 810 0034 FFF7FEFF 		bl	readFromAddr
 811              	.LVL71:
 242:main.c        ****     uint8 year[1];
 243:main.c        ****     readFromAddr(year,1,RTCAddr,rtc.Years);
 812              		.loc 1 243 0
 813 0038 2B7A     		ldrb	r3, [r5, #8]
 814 003a 11AE     		add	r6, sp, #68
 815 003c 5122     		movs	r2, #81
 816 003e 0121     		movs	r1, #1
 817 0040 3000     		movs	r0, r6
 818 0042 FFF7FEFF 		bl	readFromAddr
 819              	.LVL72:
 244:main.c        ****     struct Date currDate = {bcdToDec(day[0]),months[bcdToDec(month[0])-1],bcdToDec(year[0])};
 820              		.loc 1 244 0
 821 0046 3878     		ldrb	r0, [r7]
 822 0048 FFF7FEFF 		bl	bcdToDec
 823              	.LVL73:
 824 004c 0700     		movs	r7, r0
 825 004e 2078     		ldrb	r0, [r4]
 826 0050 FFF7FEFF 		bl	bcdToDec
 827              	.LVL74:
 828 0054 441E     		subs	r4, r0, #1
 829 0056 A300     		lsls	r3, r4, #2
 830 0058 ED18     		adds	r5, r5, r3
 831 005a 2B6E     		ldr	r3, [r5, #96]
 832 005c 9946     		mov	r9, r3
 833 005e 3078     		ldrb	r0, [r6]
 834 0060 FFF7FEFF 		bl	bcdToDec
 835              	.LVL75:
 836 0064 0500     		movs	r5, r0
 837              	.LVL76:
 245:main.c        ****     struct Date setDate;
 246:main.c        ****     int currentIndex = bcdToDec(month[0])-1;
ARM GAS  C:\Users\HELLOK~1.1\AppData\Local\Temp\cciBhXYB.s 			page 20


 247:main.c        ****     setCursor(0,2);
 838              		.loc 1 247 0
 839 0066 0221     		movs	r1, #2
 840 0068 0020     		movs	r0, #0
 841 006a FFF7FEFF 		bl	setCursor
 842              	.LVL77:
 248:main.c        ****     snprintf(printMessage,21,"%s %d, 20%d",currDate.month,currDate.day,currDate.year);
 843              		.loc 1 248 0
 844 006e 3E00     		movs	r6, r7
 845 0070 0195     		str	r5, [sp, #4]
 846 0072 0097     		str	r7, [sp]
 847 0074 4B46     		mov	r3, r9
 848 0076 BA4A     		ldr	r2, .L70+8
 849 0078 1521     		movs	r1, #21
 850 007a 14A8     		add	r0, sp, #80
 851 007c FFF7FEFF 		bl	snprintf
 852              	.LVL78:
 249:main.c        ****     LCD_print(printMessage);
 853              		.loc 1 249 0
 854 0080 14A8     		add	r0, sp, #80
 855 0082 FFF7FEFF 		bl	LCD_print
 856              	.LVL79:
 250:main.c        ****     while(buttonFlag == 0){
 857              		.loc 1 250 0
 858 0086 23E0     		b	.L26
 859              	.L29:
 251:main.c        ****         if(encFlag == 1){
 860              		.loc 1 251 0
 861 0088 B64B     		ldr	r3, .L70+12
 862 008a 5B78     		ldrb	r3, [r3, #1]
 863 008c 012B     		cmp	r3, #1
 864 008e 1FD1     		bne	.L26
 252:main.c        ****             encFlag = 0;
 865              		.loc 1 252 0
 866 0090 B44B     		ldr	r3, .L70+12
 867 0092 0022     		movs	r2, #0
 868 0094 5A70     		strb	r2, [r3, #1]
 253:main.c        ****             if(encPos == 1){
 869              		.loc 1 253 0
 870 0096 9B78     		ldrb	r3, [r3, #2]
 871 0098 012B     		cmp	r3, #1
 872 009a 03D1     		bne	.L27
 254:main.c        ****                 if(currentIndex == 12){
 873              		.loc 1 254 0
 874 009c 0C2C     		cmp	r4, #12
 875 009e 09D0     		beq	.L59
 255:main.c        ****                     currentIndex = 1;
 256:main.c        ****                 }
 257:main.c        ****                 else{
 258:main.c        ****                     currentIndex++;
 876              		.loc 1 258 0
 877 00a0 0134     		adds	r4, r4, #1
 878              	.LVL80:
 879 00a2 0AE0     		b	.L28
 880              	.L27:
 259:main.c        ****                 }
 260:main.c        ****             }
ARM GAS  C:\Users\HELLOK~1.1\AppData\Local\Temp\cciBhXYB.s 			page 21


 261:main.c        ****             else if(encPos == 2){
 881              		.loc 1 261 0
 882 00a4 AF4B     		ldr	r3, .L70+12
 883 00a6 9B78     		ldrb	r3, [r3, #2]
 884 00a8 022B     		cmp	r3, #2
 885 00aa 06D1     		bne	.L28
 262:main.c        ****                 if(currentIndex == 1){
 886              		.loc 1 262 0
 887 00ac 012C     		cmp	r4, #1
 888 00ae 03D0     		beq	.L60
 263:main.c        ****                     currentIndex = 12;
 264:main.c        ****                 }
 265:main.c        ****                 else{
 266:main.c        ****                     currentIndex--;
 889              		.loc 1 266 0
 890 00b0 013C     		subs	r4, r4, #1
 891              	.LVL81:
 892 00b2 02E0     		b	.L28
 893              	.L59:
 255:main.c        ****                 }
 894              		.loc 1 255 0
 895 00b4 0124     		movs	r4, #1
 896              	.LVL82:
 897 00b6 00E0     		b	.L28
 898              	.LVL83:
 899              	.L60:
 263:main.c        ****                     currentIndex = 12;
 900              		.loc 1 263 0
 901 00b8 0C24     		movs	r4, #12
 902              	.LVL84:
 903              	.L28:
 267:main.c        ****                 }
 268:main.c        ****             }
 269:main.c        ****             setCursor(0,2);
 904              		.loc 1 269 0
 905 00ba 0221     		movs	r1, #2
 906 00bc 0020     		movs	r0, #0
 907 00be FFF7FEFF 		bl	setCursor
 908              	.LVL85:
 270:main.c        ****             LCD_print(months[currentIndex-1]);
 909              		.loc 1 270 0
 910 00c2 631E     		subs	r3, r4, #1
 911 00c4 9B00     		lsls	r3, r3, #2
 912 00c6 A54A     		ldr	r2, .L70+4
 913 00c8 D318     		adds	r3, r2, r3
 914 00ca 186E     		ldr	r0, [r3, #96]
 915 00cc FFF7FEFF 		bl	LCD_print
 916              	.LVL86:
 917              	.L26:
 250:main.c        ****         if(encFlag == 1){
 918              		.loc 1 250 0
 919 00d0 A44B     		ldr	r3, .L70+12
 920 00d2 DB78     		ldrb	r3, [r3, #3]
 921 00d4 002B     		cmp	r3, #0
 922 00d6 D7D0     		beq	.L29
 271:main.c        ****         }
 272:main.c        ****     }
ARM GAS  C:\Users\HELLOK~1.1\AppData\Local\Temp\cciBhXYB.s 			page 22


 273:main.c        ****     uint8 numberMonth = currentIndex;
 923              		.loc 1 273 0
 924 00d8 E4B2     		uxtb	r4, r4
 925              	.LVL87:
 274:main.c        ****     setDate.month = months[currentIndex-1];
 275:main.c        ****     buttonFlag = 0;
 926              		.loc 1 275 0
 927 00da 0022     		movs	r2, #0
 928 00dc A14B     		ldr	r3, .L70+12
 929 00de DA70     		strb	r2, [r3, #3]
 276:main.c        ****     setCursor(0,0);
 930              		.loc 1 276 0
 931 00e0 0021     		movs	r1, #0
 932 00e2 0020     		movs	r0, #0
 933 00e4 FFF7FEFF 		bl	setCursor
 934              	.LVL88:
 277:main.c        ****     LCD_print("Set Day  ");
 935              		.loc 1 277 0
 936 00e8 9F48     		ldr	r0, .L70+16
 937 00ea FFF7FEFF 		bl	LCD_print
 938              	.LVL89:
 278:main.c        ****     currentIndex = currDate.day;
 279:main.c        ****     while(buttonFlag == 0){
 939              		.loc 1 279 0
 940 00ee 25E0     		b	.L31
 941              	.LVL90:
 942              	.L34:
 280:main.c        ****         if(encFlag == 1){
 943              		.loc 1 280 0
 944 00f0 9C4B     		ldr	r3, .L70+12
 945 00f2 5B78     		ldrb	r3, [r3, #1]
 946 00f4 012B     		cmp	r3, #1
 947 00f6 21D1     		bne	.L31
 948              	.LBB2:
 281:main.c        ****             encFlag = 0;
 949              		.loc 1 281 0
 950 00f8 9A4B     		ldr	r3, .L70+12
 951 00fa 0022     		movs	r2, #0
 952 00fc 5A70     		strb	r2, [r3, #1]
 282:main.c        ****             if(encPos == 1){
 953              		.loc 1 282 0
 954 00fe 9B78     		ldrb	r3, [r3, #2]
 955 0100 012B     		cmp	r3, #1
 956 0102 03D1     		bne	.L32
 283:main.c        ****                 if(currentIndex == 31){
 957              		.loc 1 283 0
 958 0104 1F2E     		cmp	r6, #31
 959 0106 09D0     		beq	.L61
 284:main.c        ****                     currentIndex = 1;
 285:main.c        ****                 }
 286:main.c        ****                 else{
 287:main.c        ****                     currentIndex++;
 960              		.loc 1 287 0
 961 0108 0136     		adds	r6, r6, #1
 962              	.LVL91:
 963 010a 0AE0     		b	.L33
 964              	.L32:
ARM GAS  C:\Users\HELLOK~1.1\AppData\Local\Temp\cciBhXYB.s 			page 23


 288:main.c        ****                 }
 289:main.c        ****             }
 290:main.c        ****             else if(encPos == 2){
 965              		.loc 1 290 0
 966 010c 954B     		ldr	r3, .L70+12
 967 010e 9B78     		ldrb	r3, [r3, #2]
 968 0110 022B     		cmp	r3, #2
 969 0112 06D1     		bne	.L33
 291:main.c        ****                 if(currentIndex == 1){
 970              		.loc 1 291 0
 971 0114 012E     		cmp	r6, #1
 972 0116 03D0     		beq	.L62
 292:main.c        ****                     currentIndex = 31;
 293:main.c        ****                 }
 294:main.c        ****                 else{
 295:main.c        ****                     currentIndex--;
 973              		.loc 1 295 0
 974 0118 013E     		subs	r6, r6, #1
 975              	.LVL92:
 976 011a 02E0     		b	.L33
 977              	.L61:
 284:main.c        ****                 }
 978              		.loc 1 284 0
 979 011c 0126     		movs	r6, #1
 980              	.LVL93:
 981 011e 00E0     		b	.L33
 982              	.LVL94:
 983              	.L62:
 292:main.c        ****                     currentIndex = 31;
 984              		.loc 1 292 0
 985 0120 1F26     		movs	r6, #31
 986              	.LVL95:
 987              	.L33:
 296:main.c        ****                 }
 297:main.c        ****             }
 298:main.c        ****             setCursor(4,2);
 988              		.loc 1 298 0 discriminator 1
 989 0122 0221     		movs	r1, #2
 990 0124 0420     		movs	r0, #4
 991 0126 FFF7FEFF 		bl	setCursor
 992              	.LVL96:
 299:main.c        ****             char printDay[3];
 300:main.c        ****             snprintf(printDay,3,"%02d",currentIndex);
 993              		.loc 1 300 0 discriminator 1
 994 012a 3300     		movs	r3, r6
 995 012c 8F4A     		ldr	r2, .L70+20
 996 012e 0321     		movs	r1, #3
 997 0130 05A8     		add	r0, sp, #20
 998 0132 FFF7FEFF 		bl	snprintf
 999              	.LVL97:
 301:main.c        ****             LCD_print(printDay);
 1000              		.loc 1 301 0 discriminator 1
 1001 0136 05A8     		add	r0, sp, #20
 1002 0138 FFF7FEFF 		bl	LCD_print
 1003              	.LVL98:
 1004              	.L31:
 1005              	.LBE2:
ARM GAS  C:\Users\HELLOK~1.1\AppData\Local\Temp\cciBhXYB.s 			page 24


 279:main.c        ****         if(encFlag == 1){
 1006              		.loc 1 279 0
 1007 013c 894B     		ldr	r3, .L70+12
 1008 013e DB78     		ldrb	r3, [r3, #3]
 1009 0140 002B     		cmp	r3, #0
 1010 0142 D5D0     		beq	.L34
 302:main.c        ****         }
 303:main.c        ****     }
 304:main.c        ****     buttonFlag = 0;
 1011              		.loc 1 304 0
 1012 0144 874B     		ldr	r3, .L70+12
 1013 0146 0022     		movs	r2, #0
 1014 0148 DA70     		strb	r2, [r3, #3]
 305:main.c        ****     
 306:main.c        ****     setDate.day = currentIndex;
 1015              		.loc 1 306 0
 1016 014a 0EA9     		add	r1, sp, #56
 1017 014c 0E70     		strb	r6, [r1]
 307:main.c        ****     buttonFlag = 0;
 1018              		.loc 1 307 0
 1019 014e DA70     		strb	r2, [r3, #3]
 308:main.c        ****     setCursor(0,0);
 1020              		.loc 1 308 0
 1021 0150 0021     		movs	r1, #0
 1022 0152 0020     		movs	r0, #0
 1023 0154 FFF7FEFF 		bl	setCursor
 1024              	.LVL99:
 309:main.c        ****     LCD_print("Set Year");
 1025              		.loc 1 309 0
 1026 0158 8548     		ldr	r0, .L70+24
 1027 015a FFF7FEFF 		bl	LCD_print
 1028              	.LVL100:
 310:main.c        ****     currentIndex = currDate.year;
 311:main.c        ****     while(buttonFlag == 0){
 1029              		.loc 1 311 0
 1030 015e 25E0     		b	.L36
 1031              	.LVL101:
 1032              	.L39:
 312:main.c        ****         if(encFlag == 1){
 1033              		.loc 1 312 0
 1034 0160 804B     		ldr	r3, .L70+12
 1035 0162 5B78     		ldrb	r3, [r3, #1]
 1036 0164 012B     		cmp	r3, #1
 1037 0166 21D1     		bne	.L36
 1038              	.LBB3:
 313:main.c        ****             encFlag = 0;
 1039              		.loc 1 313 0
 1040 0168 7E4B     		ldr	r3, .L70+12
 1041 016a 0022     		movs	r2, #0
 1042 016c 5A70     		strb	r2, [r3, #1]
 314:main.c        ****             if(encPos == 1){
 1043              		.loc 1 314 0
 1044 016e 9B78     		ldrb	r3, [r3, #2]
 1045 0170 012B     		cmp	r3, #1
 1046 0172 03D1     		bne	.L37
 315:main.c        ****                 if(currentIndex == 99){
 1047              		.loc 1 315 0
ARM GAS  C:\Users\HELLOK~1.1\AppData\Local\Temp\cciBhXYB.s 			page 25


 1048 0174 632D     		cmp	r5, #99
 1049 0176 09D0     		beq	.L63
 316:main.c        ****                     currentIndex = 0;
 317:main.c        ****                 }
 318:main.c        ****                 else{
 319:main.c        ****                     currentIndex++;
 1050              		.loc 1 319 0
 1051 0178 0135     		adds	r5, r5, #1
 1052              	.LVL102:
 1053 017a 0AE0     		b	.L38
 1054              	.L37:
 320:main.c        ****                 }
 321:main.c        ****             }
 322:main.c        ****             else if(encPos == 2){
 1055              		.loc 1 322 0
 1056 017c 794B     		ldr	r3, .L70+12
 1057 017e 9B78     		ldrb	r3, [r3, #2]
 1058 0180 022B     		cmp	r3, #2
 1059 0182 06D1     		bne	.L38
 323:main.c        ****                 if(currentIndex == 0){
 1060              		.loc 1 323 0
 1061 0184 002D     		cmp	r5, #0
 1062 0186 03D0     		beq	.L64
 324:main.c        ****                     currentIndex = 99;
 325:main.c        ****                 }
 326:main.c        ****                 else{
 327:main.c        ****                     currentIndex--;
 1063              		.loc 1 327 0
 1064 0188 013D     		subs	r5, r5, #1
 1065              	.LVL103:
 1066 018a 02E0     		b	.L38
 1067              	.L63:
 316:main.c        ****                 }
 1068              		.loc 1 316 0
 1069 018c 0025     		movs	r5, #0
 1070              	.LVL104:
 1071 018e 00E0     		b	.L38
 1072              	.LVL105:
 1073              	.L64:
 324:main.c        ****                     currentIndex = 99;
 1074              		.loc 1 324 0
 1075 0190 6325     		movs	r5, #99
 1076              	.LVL106:
 1077              	.L38:
 328:main.c        ****                 }
 329:main.c        ****             }
 330:main.c        ****             setCursor(8,2);
 1078              		.loc 1 330 0 discriminator 2
 1079 0192 0221     		movs	r1, #2
 1080 0194 0820     		movs	r0, #8
 1081 0196 FFF7FEFF 		bl	setCursor
 1082              	.LVL107:
 331:main.c        ****             char printYear[5];
 332:main.c        ****             snprintf(printYear,5,"20%02d",currentIndex);
 1083              		.loc 1 332 0 discriminator 2
 1084 019a 2B00     		movs	r3, r5
 1085 019c 754A     		ldr	r2, .L70+28
ARM GAS  C:\Users\HELLOK~1.1\AppData\Local\Temp\cciBhXYB.s 			page 26


 1086 019e 0521     		movs	r1, #5
 1087 01a0 05A8     		add	r0, sp, #20
 1088 01a2 FFF7FEFF 		bl	snprintf
 1089              	.LVL108:
 333:main.c        ****             LCD_print(printYear);
 1090              		.loc 1 333 0 discriminator 2
 1091 01a6 05A8     		add	r0, sp, #20
 1092 01a8 FFF7FEFF 		bl	LCD_print
 1093              	.LVL109:
 1094              	.L36:
 1095              	.LBE3:
 311:main.c        ****         if(encFlag == 1){
 1096              		.loc 1 311 0
 1097 01ac 6D4B     		ldr	r3, .L70+12
 1098 01ae DB78     		ldrb	r3, [r3, #3]
 1099 01b0 002B     		cmp	r3, #0
 1100 01b2 D5D0     		beq	.L39
 334:main.c        ****         }
 335:main.c        ****     }
 336:main.c        ****     buttonFlag = 0;
 1101              		.loc 1 336 0
 1102 01b4 0022     		movs	r2, #0
 1103 01b6 6B4B     		ldr	r3, .L70+12
 1104 01b8 DA70     		strb	r2, [r3, #3]
 337:main.c        ****     setDate.year = currentIndex;
 1105              		.loc 1 337 0
 1106 01ba 0EAB     		add	r3, sp, #56
 1107 01bc 1D72     		strb	r5, [r3, #8]
 338:main.c        ****     
 339:main.c        ****     uint8 min[1];
 340:main.c        ****     readFromAddr(min,1,RTCAddr,rtc.Minutes);
 1108              		.loc 1 340 0
 1109 01be 674D     		ldr	r5, .L70+4
 1110              	.LVL110:
 1111 01c0 EB78     		ldrb	r3, [r5, #3]
 1112 01c2 5132     		adds	r2, r2, #81
 1113 01c4 0121     		movs	r1, #1
 1114 01c6 0DA8     		add	r0, sp, #52
 1115 01c8 FFF7FEFF 		bl	readFromAddr
 1116              	.LVL111:
 341:main.c        ****     uint8 hour[1];
 342:main.c        ****     readFromAddr(hour,1,RTCAddr,rtc.Hours);
 1117              		.loc 1 342 0
 1118 01cc 2B79     		ldrb	r3, [r5, #4]
 1119 01ce 0CAD     		add	r5, sp, #48
 1120 01d0 5122     		movs	r2, #81
 1121 01d2 0121     		movs	r1, #1
 1122 01d4 2800     		movs	r0, r5
 1123 01d6 FFF7FEFF 		bl	readFromAddr
 1124              	.LVL112:
 343:main.c        ****     struct Time updateTime;
 344:main.c        ****     struct Time setTime;
 345:main.c        ****     if(hour[0] > 0x12){
 1125              		.loc 1 345 0
 1126 01da 2878     		ldrb	r0, [r5]
 1127 01dc 1228     		cmp	r0, #18
 1128 01de 13D9     		bls	.L40
ARM GAS  C:\Users\HELLOK~1.1\AppData\Local\Temp\cciBhXYB.s 			page 27


 1129              	.LBB4:
 346:main.c        ****             volatile struct Time currTime = {bcdToDec(hour[0])-12,bcdToDec(min[0]),"PM"};
 1130              		.loc 1 346 0
 1131 01e0 FFF7FEFF 		bl	bcdToDec
 1132              	.LVL113:
 1133 01e4 1AAD     		add	r5, sp, #104
 1134 01e6 0C38     		subs	r0, r0, #12
 1135 01e8 2870     		strb	r0, [r5]
 1136 01ea 0DAB     		add	r3, sp, #52
 1137 01ec 1878     		ldrb	r0, [r3]
 1138 01ee FFF7FEFF 		bl	bcdToDec
 1139              	.LVL114:
 1140 01f2 6870     		strb	r0, [r5, #1]
 1141 01f4 604B     		ldr	r3, .L70+32
 1142 01f6 6B60     		str	r3, [r5, #4]
 1143 01f8 03AB     		add	r3, sp, #12
 1144 01fa 1A00     		movs	r2, r3
 1145 01fc 03CD     		ldmia	r5!, {r0, r1}
 1146 01fe 03C2     		stmia	r2!, {r0, r1}
 347:main.c        ****             updateTime = currTime;
 1147              		.loc 1 347 0
 1148 0200 0AAA     		add	r2, sp, #40
 1149 0202 03CB     		ldmia	r3!, {r0, r1}
 1150 0204 03C2     		stmia	r2!, {r0, r1}
 1151              	.LBE4:
 1152 0206 11E0     		b	.L41
 1153              	.L40:
 1154              	.LBB5:
 348:main.c        ****         }
 349:main.c        ****         else{
 350:main.c        ****             volatile struct Time currTime = {bcdToDec(hour[0]),bcdToDec(min[0]),"AM"};
 1155              		.loc 1 350 0
 1156 0208 FFF7FEFF 		bl	bcdToDec
 1157              	.LVL115:
 1158 020c 1CAD     		add	r5, sp, #112
 1159 020e 2870     		strb	r0, [r5]
 1160 0210 0DAB     		add	r3, sp, #52
 1161 0212 1878     		ldrb	r0, [r3]
 1162 0214 FFF7FEFF 		bl	bcdToDec
 1163              	.LVL116:
 1164 0218 6870     		strb	r0, [r5, #1]
 1165 021a 584B     		ldr	r3, .L70+36
 1166 021c 6B60     		str	r3, [r5, #4]
 1167 021e 05AB     		add	r3, sp, #20
 1168 0220 1A00     		movs	r2, r3
 1169 0222 03CD     		ldmia	r5!, {r0, r1}
 1170 0224 03C2     		stmia	r2!, {r0, r1}
 351:main.c        ****             updateTime = currTime;
 1171              		.loc 1 351 0
 1172 0226 0AAA     		add	r2, sp, #40
 1173 0228 03CB     		ldmia	r3!, {r0, r1}
 1174 022a 03C2     		stmia	r2!, {r0, r1}
 1175              	.L41:
 1176              	.LBE5:
 352:main.c        ****     }
 353:main.c        ****     setCursor(0,0);
 1177              		.loc 1 353 0
ARM GAS  C:\Users\HELLOK~1.1\AppData\Local\Temp\cciBhXYB.s 			page 28


 1178 022c 0021     		movs	r1, #0
 1179 022e 0020     		movs	r0, #0
 1180 0230 FFF7FEFF 		bl	setCursor
 1181              	.LVL117:
 354:main.c        ****     LCD_print("Set Hour");
 1182              		.loc 1 354 0
 1183 0234 5248     		ldr	r0, .L70+40
 1184 0236 FFF7FEFF 		bl	LCD_print
 1185              	.LVL118:
 355:main.c        ****     setCursor(0,2);
 1186              		.loc 1 355 0
 1187 023a 0221     		movs	r1, #2
 1188 023c 0020     		movs	r0, #0
 1189 023e FFF7FEFF 		bl	setCursor
 1190              	.LVL119:
 356:main.c        ****     snprintf(printMessage,21,"%d:%.2d%s        ",updateTime.hour,updateTime.minute,updateTime.AM);
 1191              		.loc 1 356 0
 1192 0242 0AAB     		add	r3, sp, #40
 1193 0244 1D78     		ldrb	r5, [r3]
 1194 0246 5E78     		ldrb	r6, [r3, #1]
 1195 0248 0B9B     		ldr	r3, [sp, #44]
 1196 024a 0193     		str	r3, [sp, #4]
 1197 024c 0096     		str	r6, [sp]
 1198 024e 2B00     		movs	r3, r5
 1199 0250 4C4A     		ldr	r2, .L70+44
 1200 0252 1521     		movs	r1, #21
 1201 0254 14A8     		add	r0, sp, #80
 1202 0256 FFF7FEFF 		bl	snprintf
 1203              	.LVL120:
 357:main.c        ****     LCD_print(printMessage);
 1204              		.loc 1 357 0
 1205 025a 14A8     		add	r0, sp, #80
 1206 025c FFF7FEFF 		bl	LCD_print
 1207              	.LVL121:
 358:main.c        ****     currentIndex = updateTime.hour;
 359:main.c        ****     while(buttonFlag == 0){
 1208              		.loc 1 359 0
 1209 0260 25E0     		b	.L43
 1210              	.L46:
 360:main.c        ****         if(encFlag == 1){
 1211              		.loc 1 360 0
 1212 0262 404B     		ldr	r3, .L70+12
 1213 0264 5B78     		ldrb	r3, [r3, #1]
 1214 0266 012B     		cmp	r3, #1
 1215 0268 21D1     		bne	.L43
 1216              	.LBB6:
 361:main.c        ****             encFlag = 0;
 1217              		.loc 1 361 0
 1218 026a 3E4B     		ldr	r3, .L70+12
 1219 026c 0022     		movs	r2, #0
 1220 026e 5A70     		strb	r2, [r3, #1]
 362:main.c        ****             if(encPos == 1){
 1221              		.loc 1 362 0
 1222 0270 9B78     		ldrb	r3, [r3, #2]
 1223 0272 012B     		cmp	r3, #1
 1224 0274 03D1     		bne	.L44
 363:main.c        ****                 if(currentIndex == 12){
ARM GAS  C:\Users\HELLOK~1.1\AppData\Local\Temp\cciBhXYB.s 			page 29


 1225              		.loc 1 363 0
 1226 0276 0C2D     		cmp	r5, #12
 1227 0278 09D0     		beq	.L65
 364:main.c        ****                     currentIndex = 1;
 365:main.c        ****                 }
 366:main.c        ****                 else{
 367:main.c        ****                     currentIndex++;
 1228              		.loc 1 367 0
 1229 027a 0135     		adds	r5, r5, #1
 1230              	.LVL122:
 1231 027c 0AE0     		b	.L45
 1232              	.L44:
 368:main.c        ****                 }
 369:main.c        ****             }
 370:main.c        ****             else if(encPos == 2){
 1233              		.loc 1 370 0
 1234 027e 394B     		ldr	r3, .L70+12
 1235 0280 9B78     		ldrb	r3, [r3, #2]
 1236 0282 022B     		cmp	r3, #2
 1237 0284 06D1     		bne	.L45
 371:main.c        ****                 if(currentIndex == 1){
 1238              		.loc 1 371 0
 1239 0286 012D     		cmp	r5, #1
 1240 0288 03D0     		beq	.L66
 372:main.c        ****                     currentIndex = 12;
 373:main.c        ****                 }
 374:main.c        ****                 else{
 375:main.c        ****                     currentIndex--;
 1241              		.loc 1 375 0
 1242 028a 013D     		subs	r5, r5, #1
 1243              	.LVL123:
 1244 028c 02E0     		b	.L45
 1245              	.L65:
 364:main.c        ****                 }
 1246              		.loc 1 364 0
 1247 028e 0125     		movs	r5, #1
 1248              	.LVL124:
 1249 0290 00E0     		b	.L45
 1250              	.LVL125:
 1251              	.L66:
 372:main.c        ****                     currentIndex = 12;
 1252              		.loc 1 372 0
 1253 0292 0C25     		movs	r5, #12
 1254              	.LVL126:
 1255              	.L45:
 376:main.c        ****                 }
 377:main.c        ****             }
 378:main.c        ****             setCursor(0,2);
 1256              		.loc 1 378 0 discriminator 3
 1257 0294 0221     		movs	r1, #2
 1258 0296 0020     		movs	r0, #0
 1259 0298 FFF7FEFF 		bl	setCursor
 1260              	.LVL127:
 379:main.c        ****             char printHour[3];
 380:main.c        ****             snprintf(printHour,3,"%02d",currentIndex);
 1261              		.loc 1 380 0 discriminator 3
 1262 029c 2B00     		movs	r3, r5
ARM GAS  C:\Users\HELLOK~1.1\AppData\Local\Temp\cciBhXYB.s 			page 30


 1263 029e 334A     		ldr	r2, .L70+20
 1264 02a0 0321     		movs	r1, #3
 1265 02a2 02A8     		add	r0, sp, #8
 1266 02a4 FFF7FEFF 		bl	snprintf
 1267              	.LVL128:
 381:main.c        ****             LCD_print(printHour);
 1268              		.loc 1 381 0 discriminator 3
 1269 02a8 02A8     		add	r0, sp, #8
 1270 02aa FFF7FEFF 		bl	LCD_print
 1271              	.LVL129:
 1272              	.L43:
 1273              	.LBE6:
 359:main.c        ****         if(encFlag == 1){
 1274              		.loc 1 359 0
 1275 02ae 2D4B     		ldr	r3, .L70+12
 1276 02b0 DB78     		ldrb	r3, [r3, #3]
 1277 02b2 002B     		cmp	r3, #0
 1278 02b4 D5D0     		beq	.L46
 382:main.c        ****             
 383:main.c        ****         }
 384:main.c        ****     }
 385:main.c        ****     
 386:main.c        ****     setTime.hour = currentIndex;
 1279              		.loc 1 386 0
 1280 02b6 EDB2     		uxtb	r5, r5
 1281              	.LVL130:
 1282 02b8 08AB     		add	r3, sp, #32
 1283 02ba 1D70     		strb	r5, [r3]
 387:main.c        ****     buttonFlag = 0;
 1284              		.loc 1 387 0
 1285 02bc 0022     		movs	r2, #0
 1286 02be 294B     		ldr	r3, .L70+12
 1287 02c0 DA70     		strb	r2, [r3, #3]
 388:main.c        ****     setCursor(0,0);
 1288              		.loc 1 388 0
 1289 02c2 0021     		movs	r1, #0
 1290 02c4 0020     		movs	r0, #0
 1291 02c6 FFF7FEFF 		bl	setCursor
 1292              	.LVL131:
 389:main.c        ****     LCD_print("Set Minute");
 1293              		.loc 1 389 0
 1294 02ca 2F48     		ldr	r0, .L70+48
 1295 02cc FFF7FEFF 		bl	LCD_print
 1296              	.LVL132:
 390:main.c        ****     currentIndex = updateTime.minute;
 391:main.c        ****     while(buttonFlag == 0){
 1297              		.loc 1 391 0
 1298 02d0 25E0     		b	.L48
 1299              	.L51:
 392:main.c        ****         if(encFlag == 1){
 1300              		.loc 1 392 0
 1301 02d2 244B     		ldr	r3, .L70+12
 1302 02d4 5B78     		ldrb	r3, [r3, #1]
 1303 02d6 012B     		cmp	r3, #1
 1304 02d8 21D1     		bne	.L48
 1305              	.LBB7:
 393:main.c        ****             encFlag = 0;
ARM GAS  C:\Users\HELLOK~1.1\AppData\Local\Temp\cciBhXYB.s 			page 31


 1306              		.loc 1 393 0
 1307 02da 224B     		ldr	r3, .L70+12
 1308 02dc 0022     		movs	r2, #0
 1309 02de 5A70     		strb	r2, [r3, #1]
 394:main.c        ****             if(encPos == 1){
 1310              		.loc 1 394 0
 1311 02e0 9B78     		ldrb	r3, [r3, #2]
 1312 02e2 012B     		cmp	r3, #1
 1313 02e4 03D1     		bne	.L49
 395:main.c        ****                 if(currentIndex == 59){
 1314              		.loc 1 395 0
 1315 02e6 3B2E     		cmp	r6, #59
 1316 02e8 09D0     		beq	.L67
 396:main.c        ****                     currentIndex = 0;
 397:main.c        ****                 }
 398:main.c        ****                 else{
 399:main.c        ****                     currentIndex++;
 1317              		.loc 1 399 0
 1318 02ea 0136     		adds	r6, r6, #1
 1319              	.LVL133:
 1320 02ec 0AE0     		b	.L50
 1321              	.L49:
 400:main.c        ****                 }
 401:main.c        ****             }
 402:main.c        ****             else if(encPos == 2){
 1322              		.loc 1 402 0
 1323 02ee 1D4B     		ldr	r3, .L70+12
 1324 02f0 9B78     		ldrb	r3, [r3, #2]
 1325 02f2 022B     		cmp	r3, #2
 1326 02f4 06D1     		bne	.L50
 403:main.c        ****                 if(currentIndex == 0){
 1327              		.loc 1 403 0
 1328 02f6 002E     		cmp	r6, #0
 1329 02f8 03D0     		beq	.L68
 404:main.c        ****                     currentIndex = 59;
 405:main.c        ****                 }
 406:main.c        ****                 else{
 407:main.c        ****                     currentIndex--;
 1330              		.loc 1 407 0
 1331 02fa 013E     		subs	r6, r6, #1
 1332              	.LVL134:
 1333 02fc 02E0     		b	.L50
 1334              	.L67:
 396:main.c        ****                 }
 1335              		.loc 1 396 0
 1336 02fe 0026     		movs	r6, #0
 1337              	.LVL135:
 1338 0300 00E0     		b	.L50
 1339              	.LVL136:
 1340              	.L68:
 404:main.c        ****                     currentIndex = 59;
 1341              		.loc 1 404 0
 1342 0302 3B26     		movs	r6, #59
 1343              	.LVL137:
 1344              	.L50:
 408:main.c        ****                 }
 409:main.c        ****             }
ARM GAS  C:\Users\HELLOK~1.1\AppData\Local\Temp\cciBhXYB.s 			page 32


 410:main.c        ****             setCursor(3,2);
 1345              		.loc 1 410 0 discriminator 4
 1346 0304 0221     		movs	r1, #2
 1347 0306 0320     		movs	r0, #3
 1348 0308 FFF7FEFF 		bl	setCursor
 1349              	.LVL138:
 411:main.c        ****             char printMinute[3];
 412:main.c        ****             snprintf(printMinute,5,"%02d",currentIndex);
 1350              		.loc 1 412 0 discriminator 4
 1351 030c 3300     		movs	r3, r6
 1352 030e 174A     		ldr	r2, .L70+20
 1353 0310 0521     		movs	r1, #5
 1354 0312 02A8     		add	r0, sp, #8
 1355 0314 FFF7FEFF 		bl	snprintf
 1356              	.LVL139:
 413:main.c        ****             LCD_print(printMinute);
 1357              		.loc 1 413 0 discriminator 4
 1358 0318 02A8     		add	r0, sp, #8
 1359 031a FFF7FEFF 		bl	LCD_print
 1360              	.LVL140:
 1361              	.L48:
 1362              	.LBE7:
 391:main.c        ****         if(encFlag == 1){
 1363              		.loc 1 391 0
 1364 031e 114B     		ldr	r3, .L70+12
 1365 0320 DB78     		ldrb	r3, [r3, #3]
 1366 0322 002B     		cmp	r3, #0
 1367 0324 D5D0     		beq	.L51
 414:main.c        ****         }
 415:main.c        ****     }
 416:main.c        ****     
 417:main.c        ****     setTime.minute = currentIndex;
 1368              		.loc 1 417 0
 1369 0326 F6B2     		uxtb	r6, r6
 1370              	.LVL141:
 418:main.c        ****     buttonFlag = 0;
 1371              		.loc 1 418 0
 1372 0328 0022     		movs	r2, #0
 1373 032a 0E4B     		ldr	r3, .L70+12
 1374 032c DA70     		strb	r2, [r3, #3]
 419:main.c        ****     setCursor(0,0);
 1375              		.loc 1 419 0
 1376 032e 0021     		movs	r1, #0
 1377 0330 0020     		movs	r0, #0
 1378 0332 FFF7FEFF 		bl	setCursor
 1379              	.LVL142:
 420:main.c        ****     LCD_print("Set AM/PM    ");
 1380              		.loc 1 420 0
 1381 0336 1548     		ldr	r0, .L70+52
 1382 0338 FFF7FEFF 		bl	LCD_print
 1383              	.LVL143:
 421:main.c        ****     currentIndex = 0;
 1384              		.loc 1 421 0
 1385 033c 0027     		movs	r7, #0
 422:main.c        ****     while(buttonFlag == 0){
 1386              		.loc 1 422 0
 1387 033e 35E0     		b	.L53
ARM GAS  C:\Users\HELLOK~1.1\AppData\Local\Temp\cciBhXYB.s 			page 33


 1388              	.LVL144:
 1389              	.L57:
 423:main.c        ****         if(encFlag == 1){
 1390              		.loc 1 423 0
 1391 0340 084B     		ldr	r3, .L70+12
 1392 0342 5B78     		ldrb	r3, [r3, #1]
 1393 0344 012B     		cmp	r3, #1
 1394 0346 31D1     		bne	.L53
 424:main.c        ****             encFlag = 0;
 1395              		.loc 1 424 0
 1396 0348 0022     		movs	r2, #0
 1397 034a 064B     		ldr	r3, .L70+12
 1398 034c 5A70     		strb	r2, [r3, #1]
 425:main.c        ****             if(currentIndex == 0){
 1399              		.loc 1 425 0
 1400 034e 002F     		cmp	r7, #0
 1401 0350 1ED1     		bne	.L69
 426:main.c        ****                 currentIndex = 1;
 1402              		.loc 1 426 0
 1403 0352 0137     		adds	r7, r7, #1
 1404              	.LVL145:
 1405 0354 1DE0     		b	.L54
 1406              	.L71:
 1407 0356 C046     		.align	2
 1408              	.L70:
 1409 0358 5C000000 		.word	.LC24
 1410 035c 00000000 		.word	.LANCHOR0
 1411 0360 68000000 		.word	.LC27
 1412 0364 00000000 		.word	.LANCHOR1
 1413 0368 74000000 		.word	.LC30
 1414 036c 80000000 		.word	.LC32
 1415 0370 88000000 		.word	.LC34
 1416 0374 94000000 		.word	.LC36
 1417 0378 9C000000 		.word	.LC4
 1418 037c A0000000 		.word	.LC0
 1419 0380 A4000000 		.word	.LC40
 1420 0384 B0000000 		.word	.LC42
 1421 0388 C4000000 		.word	.LC44
 1422 038c D0000000 		.word	.LC46
 1423              	.LVL146:
 1424              	.L69:
 427:main.c        ****             }
 428:main.c        ****             else{
 429:main.c        ****                 currentIndex = 0;
 1425              		.loc 1 429 0
 1426 0390 0027     		movs	r7, #0
 1427              	.LVL147:
 1428              	.L54:
 430:main.c        ****             }
 431:main.c        ****             setCursor(5,2);
 1429              		.loc 1 431 0
 1430 0392 0221     		movs	r1, #2
 1431 0394 0520     		movs	r0, #5
 1432 0396 FFF7FEFF 		bl	setCursor
 1433              	.LVL148:
 432:main.c        ****             if(currentIndex == 0){
 1434              		.loc 1 432 0
ARM GAS  C:\Users\HELLOK~1.1\AppData\Local\Temp\cciBhXYB.s 			page 34


 1435 039a 002F     		cmp	r7, #0
 1436 039c 03D1     		bne	.L55
 433:main.c        ****                 LCD_print("AM");
 1437              		.loc 1 433 0
 1438 039e 2F48     		ldr	r0, .L72
 1439 03a0 FFF7FEFF 		bl	LCD_print
 1440              	.LVL149:
 1441 03a4 02E0     		b	.L53
 1442              	.L55:
 434:main.c        ****             }
 435:main.c        ****             else{
 436:main.c        ****                 LCD_print("PM");
 1443              		.loc 1 436 0
 1444 03a6 2E48     		ldr	r0, .L72+4
 1445 03a8 FFF7FEFF 		bl	LCD_print
 1446              	.LVL150:
 1447              	.L53:
 422:main.c        ****         if(encFlag == 1){
 1448              		.loc 1 422 0
 1449 03ac 2D4B     		ldr	r3, .L72+8
 1450 03ae DB78     		ldrb	r3, [r3, #3]
 1451 03b0 002B     		cmp	r3, #0
 1452 03b2 C5D0     		beq	.L57
 437:main.c        ****             }
 438:main.c        ****         }
 439:main.c        ****     }
 440:main.c        ****     buttonFlag = 0;
 1453              		.loc 1 440 0
 1454 03b4 0022     		movs	r2, #0
 1455 03b6 2B4B     		ldr	r3, .L72+8
 1456 03b8 DA70     		strb	r2, [r3, #3]
 441:main.c        ****     if(currentIndex == 0){
 1457              		.loc 1 441 0
 1458 03ba 002F     		cmp	r7, #0
 1459 03bc 02D0     		beq	.L58
 442:main.c        ****         
 443:main.c        ****     }
 444:main.c        ****     else{
 445:main.c        ****         setTime.hour = setTime.hour + 12;
 1460              		.loc 1 445 0
 1461 03be 0C35     		adds	r5, r5, #12
 1462 03c0 08AB     		add	r3, sp, #32
 1463 03c2 1D70     		strb	r5, [r3]
 1464              	.L58:
 446:main.c        ****     }
 447:main.c        ****     
 448:main.c        ****     uint8 wrBuf[2];
 449:main.c        ****     wrBuf[1] = 0x00;
 1465              		.loc 1 449 0
 1466 03c4 07AD     		add	r5, sp, #28
 1467 03c6 0023     		movs	r3, #0
 1468 03c8 6B70     		strb	r3, [r5, #1]
 450:main.c        ****     writeToAddr(wrBuf,2,RTCAddr,rtc.VL_Sec);
 1469              		.loc 1 450 0
 1470 03ca 274F     		ldr	r7, .L72+12
 1471              	.LVL151:
 1472 03cc BB78     		ldrb	r3, [r7, #2]
ARM GAS  C:\Users\HELLOK~1.1\AppData\Local\Temp\cciBhXYB.s 			page 35


 1473 03ce 5122     		movs	r2, #81
 1474 03d0 0221     		movs	r1, #2
 1475 03d2 2800     		movs	r0, r5
 1476 03d4 FFF7FEFF 		bl	writeToAddr
 1477              	.LVL152:
 451:main.c        ****     wrBuf[1] = decToBcd(setTime.minute);
 1478              		.loc 1 451 0
 1479 03d8 3000     		movs	r0, r6
 1480 03da FFF7FEFF 		bl	decToBcd
 1481              	.LVL153:
 1482 03de 6870     		strb	r0, [r5, #1]
 452:main.c        ****     writeToAddr(wrBuf,2,RTCAddr,rtc.Minutes);
 1483              		.loc 1 452 0
 1484 03e0 FB78     		ldrb	r3, [r7, #3]
 1485 03e2 5122     		movs	r2, #81
 1486 03e4 0221     		movs	r1, #2
 1487 03e6 2800     		movs	r0, r5
 1488 03e8 FFF7FEFF 		bl	writeToAddr
 1489              	.LVL154:
 453:main.c        ****     wrBuf[1] = decToBcd(setTime.hour);
 1490              		.loc 1 453 0
 1491 03ec 08AB     		add	r3, sp, #32
 1492 03ee 1878     		ldrb	r0, [r3]
 1493 03f0 FFF7FEFF 		bl	decToBcd
 1494              	.LVL155:
 1495 03f4 6870     		strb	r0, [r5, #1]
 454:main.c        ****     writeToAddr(wrBuf,2,RTCAddr,rtc.Hours);
 1496              		.loc 1 454 0
 1497 03f6 3B79     		ldrb	r3, [r7, #4]
 1498 03f8 5122     		movs	r2, #81
 1499 03fa 0221     		movs	r1, #2
 1500 03fc 2800     		movs	r0, r5
 1501 03fe FFF7FEFF 		bl	writeToAddr
 1502              	.LVL156:
 455:main.c        ****     wrBuf[1] = decToBcd(setDate.day);
 1503              		.loc 1 455 0
 1504 0402 0EAE     		add	r6, sp, #56
 1505 0404 3078     		ldrb	r0, [r6]
 1506 0406 FFF7FEFF 		bl	decToBcd
 1507              	.LVL157:
 1508 040a 6870     		strb	r0, [r5, #1]
 456:main.c        ****     writeToAddr(wrBuf,2,RTCAddr,rtc.Days);
 1509              		.loc 1 456 0
 1510 040c 7B79     		ldrb	r3, [r7, #5]
 1511 040e 5122     		movs	r2, #81
 1512 0410 0221     		movs	r1, #2
 1513 0412 2800     		movs	r0, r5
 1514 0414 FFF7FEFF 		bl	writeToAddr
 1515              	.LVL158:
 457:main.c        ****     wrBuf[1] = 0x06;
 1516              		.loc 1 457 0
 1517 0418 0623     		movs	r3, #6
 1518 041a 6B70     		strb	r3, [r5, #1]
 458:main.c        ****     writeToAddr(wrBuf,2,RTCAddr,rtc.Weekdays);
 1519              		.loc 1 458 0
 1520 041c BB79     		ldrb	r3, [r7, #6]
 1521 041e 5122     		movs	r2, #81
ARM GAS  C:\Users\HELLOK~1.1\AppData\Local\Temp\cciBhXYB.s 			page 36


 1522 0420 0221     		movs	r1, #2
 1523 0422 2800     		movs	r0, r5
 1524 0424 FFF7FEFF 		bl	writeToAddr
 1525              	.LVL159:
 459:main.c        ****     wrBuf[1] = decToBcd(numberMonth);
 1526              		.loc 1 459 0
 1527 0428 2000     		movs	r0, r4
 1528 042a FFF7FEFF 		bl	decToBcd
 1529              	.LVL160:
 1530 042e 6870     		strb	r0, [r5, #1]
 460:main.c        ****     writeToAddr(wrBuf,2,RTCAddr,rtc.Century_Months);
 1531              		.loc 1 460 0
 1532 0430 FB79     		ldrb	r3, [r7, #7]
 1533 0432 5122     		movs	r2, #81
 1534 0434 0221     		movs	r1, #2
 1535 0436 2800     		movs	r0, r5
 1536 0438 FFF7FEFF 		bl	writeToAddr
 1537              	.LVL161:
 461:main.c        ****     wrBuf[1] = decToBcd(setDate.year);
 1538              		.loc 1 461 0
 1539 043c 307A     		ldrb	r0, [r6, #8]
 1540 043e FFF7FEFF 		bl	decToBcd
 1541              	.LVL162:
 1542 0442 6870     		strb	r0, [r5, #1]
 462:main.c        ****     writeToAddr(wrBuf,2,RTCAddr,rtc.Years);
 1543              		.loc 1 462 0
 1544 0444 3B7A     		ldrb	r3, [r7, #8]
 1545 0446 5122     		movs	r2, #81
 1546 0448 0221     		movs	r1, #2
 1547 044a 2800     		movs	r0, r5
 1548 044c FFF7FEFF 		bl	writeToAddr
 1549              	.LVL163:
 463:main.c        ****     exitLCD();
 1550              		.loc 1 463 0
 1551 0450 FFF7FEFF 		bl	exitLCD
 1552              	.LVL164:
 464:main.c        ****     
 465:main.c        **** }
 1553              		.loc 1 465 0
 1554 0454 1EB0     		add	sp, sp, #120
 1555              		@ sp needed
 1556              	.LVL165:
 1557 0456 04BC     		pop	{r2}
 1558 0458 9146     		mov	r9, r2
 1559 045a F0BD     		pop	{r4, r5, r6, r7, pc}
 1560              	.L73:
 1561              		.align	2
 1562              	.L72:
 1563 045c A0000000 		.word	.LC0
 1564 0460 9C000000 		.word	.LC4
 1565 0464 00000000 		.word	.LANCHOR1
 1566 0468 00000000 		.word	.LANCHOR0
 1567              		.cfi_endproc
 1568              	.LFE45:
 1569              		.size	setGlobalTime, .-setGlobalTime
 1570              		.section	.text.setFeedTimes,"ax",%progbits
 1571              		.align	2
ARM GAS  C:\Users\HELLOK~1.1\AppData\Local\Temp\cciBhXYB.s 			page 37


 1572              		.global	setFeedTimes
 1573              		.code	16
 1574              		.thumb_func
 1575              		.type	setFeedTimes, %function
 1576              	setFeedTimes:
 1577              	.LFB46:
 466:main.c        **** void setFeedTimes(){
 1578              		.loc 1 466 0
 1579              		.cfi_startproc
 1580              		@ args = 0, pretend = 0, frame = 0
 1581              		@ frame_needed = 0, uses_anonymous_args = 0
 1582              		@ link register save eliminated.
 467:main.c        ****     
 468:main.c        **** }
 1583              		.loc 1 468 0
 1584              		@ sp needed
 1585 0000 7047     		bx	lr
 1586              		.cfi_endproc
 1587              	.LFE46:
 1588              		.size	setFeedTimes, .-setFeedTimes
 1589 0002 C046     		.section	.text.setAmountOfFood,"ax",%progbits
 1590              		.align	2
 1591              		.global	setAmountOfFood
 1592              		.code	16
 1593              		.thumb_func
 1594              		.type	setAmountOfFood, %function
 1595              	setAmountOfFood:
 1596              	.LFB47:
 469:main.c        **** void setAmountOfFood(){
 1597              		.loc 1 469 0
 1598              		.cfi_startproc
 1599              		@ args = 0, pretend = 0, frame = 0
 1600              		@ frame_needed = 0, uses_anonymous_args = 0
 1601              		@ link register save eliminated.
 470:main.c        ****     
 471:main.c        **** }
 1602              		.loc 1 471 0
 1603              		@ sp needed
 1604 0000 7047     		bx	lr
 1605              		.cfi_endproc
 1606              	.LFE47:
 1607              		.size	setAmountOfFood, .-setAmountOfFood
 1608 0002 C046     		.section	.text.toggleLEDs,"ax",%progbits
 1609              		.align	2
 1610              		.global	toggleLEDs
 1611              		.code	16
 1612              		.thumb_func
 1613              		.type	toggleLEDs, %function
 1614              	toggleLEDs:
 1615              	.LFB48:
 472:main.c        **** void toggleLEDs(){
 1616              		.loc 1 472 0
 1617              		.cfi_startproc
 1618              		@ args = 0, pretend = 0, frame = 0
 1619              		@ frame_needed = 0, uses_anonymous_args = 0
 1620              		@ link register save eliminated.
 473:main.c        ****     
ARM GAS  C:\Users\HELLOK~1.1\AppData\Local\Temp\cciBhXYB.s 			page 38


 474:main.c        **** }
 1621              		.loc 1 474 0
 1622              		@ sp needed
 1623 0000 7047     		bx	lr
 1624              		.cfi_endproc
 1625              	.LFE48:
 1626              		.size	toggleLEDs, .-toggleLEDs
 1627 0002 C046     		.section	.text.toggleSpeakers,"ax",%progbits
 1628              		.align	2
 1629              		.global	toggleSpeakers
 1630              		.code	16
 1631              		.thumb_func
 1632              		.type	toggleSpeakers, %function
 1633              	toggleSpeakers:
 1634              	.LFB49:
 475:main.c        **** void toggleSpeakers(){
 1635              		.loc 1 475 0
 1636              		.cfi_startproc
 1637              		@ args = 0, pretend = 0, frame = 0
 1638              		@ frame_needed = 0, uses_anonymous_args = 0
 1639              		@ link register save eliminated.
 476:main.c        ****     
 477:main.c        **** }
 1640              		.loc 1 477 0
 1641              		@ sp needed
 1642 0000 7047     		bx	lr
 1643              		.cfi_endproc
 1644              	.LFE49:
 1645              		.size	toggleSpeakers, .-toggleSpeakers
 1646 0002 C046     		.section	.text.startSettings,"ax",%progbits
 1647              		.align	2
 1648              		.global	startSettings
 1649              		.code	16
 1650              		.thumb_func
 1651              		.type	startSettings, %function
 1652              	startSettings:
 1653              	.LFB50:
 478:main.c        **** 
 479:main.c        **** 
 480:main.c        **** void startSettings(){
 1654              		.loc 1 480 0
 1655              		.cfi_startproc
 1656              		@ args = 0, pretend = 0, frame = 0
 1657              		@ frame_needed = 0, uses_anonymous_args = 0
 1658 0000 10B5     		push	{r4, lr}
 1659              		.cfi_def_cfa_offset 8
 1660              		.cfi_offset 4, -8
 1661              		.cfi_offset 14, -4
 481:main.c        ****     clear();
 1662              		.loc 1 481 0
 1663 0002 FFF7FEFF 		bl	clear
 1664              	.LVL166:
 482:main.c        ****     uint8 choice = 0;
 483:main.c        ****     setCursor(0,0);
 1665              		.loc 1 483 0
 1666 0006 0021     		movs	r1, #0
 1667 0008 0020     		movs	r0, #0
ARM GAS  C:\Users\HELLOK~1.1\AppData\Local\Temp\cciBhXYB.s 			page 39


 1668 000a FFF7FEFF 		bl	setCursor
 1669              	.LVL167:
 484:main.c        ****     LCD_print("Button = Select");
 1670              		.loc 1 484 0
 1671 000e 2A48     		ldr	r0, .L88
 1672 0010 FFF7FEFF 		bl	LCD_print
 1673              	.LVL168:
 485:main.c        ****     setCursor(0,1);
 1674              		.loc 1 485 0
 1675 0014 0121     		movs	r1, #1
 1676 0016 0020     		movs	r0, #0
 1677 0018 FFF7FEFF 		bl	setCursor
 1678              	.LVL169:
 486:main.c        ****     LCD_print("Knob = Choice");
 1679              		.loc 1 486 0
 1680 001c 2748     		ldr	r0, .L88+4
 1681 001e FFF7FEFF 		bl	LCD_print
 1682              	.LVL170:
 487:main.c        ****     setCursor(0,2);
 1683              		.loc 1 487 0
 1684 0022 0221     		movs	r1, #2
 1685 0024 0020     		movs	r0, #0
 1686 0026 FFF7FEFF 		bl	setCursor
 1687              	.LVL171:
 488:main.c        ****     LCD_print("--------------------");
 1688              		.loc 1 488 0
 1689 002a 2548     		ldr	r0, .L88+8
 1690 002c FFF7FEFF 		bl	LCD_print
 1691              	.LVL172:
 489:main.c        ****     // Clock Time
 490:main.c        ****     setCursor(0,3);
 1692              		.loc 1 490 0
 1693 0030 0321     		movs	r1, #3
 1694 0032 0020     		movs	r0, #0
 1695 0034 FFF7FEFF 		bl	setCursor
 1696              	.LVL173:
 491:main.c        ****     LCD_print("Set Global Time");
 1697              		.loc 1 491 0
 1698 0038 2248     		ldr	r0, .L88+12
 1699 003a FFF7FEFF 		bl	LCD_print
 1700              	.LVL174:
 492:main.c        ****     CyDelay(1000);
 1701              		.loc 1 492 0
 1702 003e FA20     		movs	r0, #250
 1703 0040 8000     		lsls	r0, r0, #2
 1704 0042 FFF7FEFF 		bl	CyDelay
 1705              	.LVL175:
 482:main.c        ****     setCursor(0,0);
 1706              		.loc 1 482 0
 1707 0046 0024     		movs	r4, #0
 493:main.c        ****     while(buttonFlag == 0){
 1708              		.loc 1 493 0
 1709 0048 24E0     		b	.L79
 1710              	.LVL176:
 1711              	.L82:
 494:main.c        ****         if(encFlag == 1){
 1712              		.loc 1 494 0
ARM GAS  C:\Users\HELLOK~1.1\AppData\Local\Temp\cciBhXYB.s 			page 40


 1713 004a 1F4B     		ldr	r3, .L88+16
 1714 004c 5B78     		ldrb	r3, [r3, #1]
 1715 004e 012B     		cmp	r3, #1
 1716 0050 16D1     		bne	.L80
 495:main.c        ****             encFlag = 0;
 1717              		.loc 1 495 0
 1718 0052 1D4B     		ldr	r3, .L88+16
 1719 0054 0022     		movs	r2, #0
 1720 0056 5A70     		strb	r2, [r3, #1]
 496:main.c        ****             if(encPos == 1){
 1721              		.loc 1 496 0
 1722 0058 9B78     		ldrb	r3, [r3, #2]
 1723 005a 012B     		cmp	r3, #1
 1724 005c 04D1     		bne	.L81
 497:main.c        ****                 if(choice == 5){
 1725              		.loc 1 497 0
 1726 005e 052C     		cmp	r4, #5
 1727 0060 0BD0     		beq	.L86
 498:main.c        ****                     choice = 0;
 499:main.c        ****                 }
 500:main.c        ****                 else{
 501:main.c        ****                     choice++;
 1728              		.loc 1 501 0
 1729 0062 0134     		adds	r4, r4, #1
 1730              	.LVL177:
 1731 0064 E4B2     		uxtb	r4, r4
 1732              	.LVL178:
 1733 0066 0BE0     		b	.L80
 1734              	.L81:
 502:main.c        ****                 }
 503:main.c        ****             }
 504:main.c        ****             else if(encPos == 2){
 1735              		.loc 1 504 0
 1736 0068 174B     		ldr	r3, .L88+16
 1737 006a 9B78     		ldrb	r3, [r3, #2]
 1738 006c 022B     		cmp	r3, #2
 1739 006e 07D1     		bne	.L80
 505:main.c        ****                 if(choice == 0){
 1740              		.loc 1 505 0
 1741 0070 002C     		cmp	r4, #0
 1742 0072 04D0     		beq	.L87
 506:main.c        ****                     choice = 5;
 507:main.c        ****                 }
 508:main.c        ****                 else{
 509:main.c        ****                     choice--;
 1743              		.loc 1 509 0
 1744 0074 013C     		subs	r4, r4, #1
 1745              	.LVL179:
 1746 0076 E4B2     		uxtb	r4, r4
 1747              	.LVL180:
 1748 0078 02E0     		b	.L80
 1749              	.L86:
 498:main.c        ****                 }
 1750              		.loc 1 498 0
 1751 007a 0024     		movs	r4, #0
 1752              	.LVL181:
 1753 007c 00E0     		b	.L80
ARM GAS  C:\Users\HELLOK~1.1\AppData\Local\Temp\cciBhXYB.s 			page 41


 1754              	.LVL182:
 1755              	.L87:
 506:main.c        ****                     choice = 5;
 1756              		.loc 1 506 0
 1757 007e 0524     		movs	r4, #5
 1758              	.LVL183:
 1759              	.L80:
 510:main.c        ****                 }
 511:main.c        ****             }
 512:main.c        ****         }
 513:main.c        ****         setCursor(0,3);
 1760              		.loc 1 513 0
 1761 0080 0321     		movs	r1, #3
 1762 0082 0020     		movs	r0, #0
 1763 0084 FFF7FEFF 		bl	setCursor
 1764              	.LVL184:
 514:main.c        ****         LCD_print(commands[choice]);
 1765              		.loc 1 514 0
 1766 0088 A300     		lsls	r3, r4, #2
 1767 008a 104A     		ldr	r2, .L88+20
 1768 008c D318     		adds	r3, r2, r3
 1769 008e 1869     		ldr	r0, [r3, #16]
 1770 0090 FFF7FEFF 		bl	LCD_print
 1771              	.LVL185:
 1772              	.L79:
 493:main.c        ****         if(encFlag == 1){
 1773              		.loc 1 493 0
 1774 0094 0C4B     		ldr	r3, .L88+16
 1775 0096 DB78     		ldrb	r3, [r3, #3]
 1776 0098 002B     		cmp	r3, #0
 1777 009a D6D0     		beq	.L82
 515:main.c        ****     }
 516:main.c        ****     buttonFlag = 0;
 1778              		.loc 1 516 0
 1779 009c 0022     		movs	r2, #0
 1780 009e 0A4B     		ldr	r3, .L88+16
 1781 00a0 DA70     		strb	r2, [r3, #3]
 517:main.c        ****     switch(choice){
 1782              		.loc 1 517 0
 1783 00a2 002C     		cmp	r4, #0
 1784 00a4 02D0     		beq	.L84
 1785 00a6 052C     		cmp	r4, #5
 1786 00a8 03D0     		beq	.L85
 1787 00aa 04E0     		b	.L78
 1788              	.L84:
 518:main.c        ****         case 0:
 519:main.c        ****             setGlobalTime();
 1789              		.loc 1 519 0
 1790 00ac FFF7FEFF 		bl	setGlobalTime
 1791              	.LVL186:
 520:main.c        ****             break;
 1792              		.loc 1 520 0
 1793 00b0 01E0     		b	.L78
 1794              	.L85:
 521:main.c        ****         case 1:
 522:main.c        ****             setFeedTimes();
 523:main.c        ****             break;
ARM GAS  C:\Users\HELLOK~1.1\AppData\Local\Temp\cciBhXYB.s 			page 42


 524:main.c        ****         case 2:
 525:main.c        ****             setAmountOfFood();
 526:main.c        ****             break;
 527:main.c        ****         case 3:
 528:main.c        ****             toggleLEDs();
 529:main.c        ****             break;
 530:main.c        ****         case 4:
 531:main.c        ****             toggleSpeakers();
 532:main.c        ****             break;
 533:main.c        ****         case 5:
 534:main.c        ****             // Done
 535:main.c        ****             exitLCD();
 1795              		.loc 1 535 0
 1796 00b2 FFF7FEFF 		bl	exitLCD
 1797              	.LVL187:
 1798              	.L78:
 536:main.c        ****             break;
 537:main.c        ****         default:
 538:main.c        ****             choice = 0;
 539:main.c        ****             break;
 540:main.c        ****     }
 541:main.c        ****     // Feed times
 542:main.c        ****     // Amount of food
 543:main.c        ****     // LED's
 544:main.c        ****     // Speakers
 545:main.c        ****     // Exit
 546:main.c        **** }
 1799              		.loc 1 546 0
 1800              		@ sp needed
 1801              	.LVL188:
 1802 00b6 10BD     		pop	{r4, pc}
 1803              	.L89:
 1804              		.align	2
 1805              	.L88:
 1806 00b8 E0000000 		.word	.LC48
 1807 00bc F0000000 		.word	.LC50
 1808 00c0 18000000 		.word	.LC11
 1809 00c4 00010000 		.word	.LC53
 1810 00c8 00000000 		.word	.LANCHOR1
 1811 00cc 80000000 		.word	.LANCHOR2
 1812              		.cfi_endproc
 1813              	.LFE50:
 1814              		.size	startSettings, .-startSettings
 1815              		.section	.text.main,"ax",%progbits
 1816              		.align	2
 1817              		.global	main
 1818              		.code	16
 1819              		.thumb_func
 1820              		.type	main, %function
 1821              	main:
 1822              	.LFB51:
 547:main.c        **** 
 548:main.c        **** 
 549:main.c        **** 
 550:main.c        **** int main(void)
 551:main.c        **** {
 1823              		.loc 1 551 0
ARM GAS  C:\Users\HELLOK~1.1\AppData\Local\Temp\cciBhXYB.s 			page 43


 1824              		.cfi_startproc
 1825              		@ args = 0, pretend = 0, frame = 136
 1826              		@ frame_needed = 0, uses_anonymous_args = 0
 1827 0000 F0B5     		push	{r4, r5, r6, r7, lr}
 1828              		.cfi_def_cfa_offset 20
 1829              		.cfi_offset 4, -20
 1830              		.cfi_offset 5, -16
 1831              		.cfi_offset 6, -12
 1832              		.cfi_offset 7, -8
 1833              		.cfi_offset 14, -4
 1834 0002 A9B0     		sub	sp, sp, #164
 1835              		.cfi_def_cfa_offset 184
 552:main.c        ****     BTN_ISR_Start();
 1836              		.loc 1 552 0
 1837 0004 FFF7FEFF 		bl	BTN_ISR_Start
 1838              	.LVL189:
 553:main.c        ****     ENC_ISR_Start();
 1839              		.loc 1 553 0
 1840 0008 FFF7FEFF 		bl	ENC_ISR_Start
 1841              	.LVL190:
 554:main.c        ****     CyGlobalIntEnable; /* Enable global interrupts. */
 1842              		.loc 1 554 0
 1843              		.syntax divided
 1844              	@ 554 "main.c" 1
 1845 000c 62B6     		CPSIE   i
 1846              	@ 0 "" 2
 555:main.c        ****     I2C_Start();
 1847              		.loc 1 555 0
 1848              		.thumb
 1849              		.syntax unified
 1850 000e FFF7FEFF 		bl	I2C_Start
 1851              	.LVL191:
 556:main.c        ****     LiquidCrystal_I2C_init(LCDAddr, 20,4,0);
 1852              		.loc 1 556 0
 1853 0012 0023     		movs	r3, #0
 1854 0014 0422     		movs	r2, #4
 1855 0016 1421     		movs	r1, #20
 1856 0018 2720     		movs	r0, #39
 1857 001a FFF7FEFF 		bl	LiquidCrystal_I2C_init
 1858              	.LVL192:
 557:main.c        ****     LCDBegin();
 1859              		.loc 1 557 0
 1860 001e FFF7FEFF 		bl	LCDBegin
 1861              	.LVL193:
 558:main.c        ****     struct Time time = {12,45, "AM"};
 1862              		.loc 1 558 0
 1863 0022 22AB     		add	r3, sp, #136
 1864 0024 7749     		ldr	r1, .L98
 1865 0026 0A00     		movs	r2, r1
 1866 0028 11CA     		ldmia	r2!, {r0, r4}
 1867 002a 11C3     		stmia	r3!, {r0, r4}
 559:main.c        ****     struct Date date = {31, "Mar",23};
 1868              		.loc 1 559 0
 1869 002c 1FAB     		add	r3, sp, #124
 1870 002e 9C46     		mov	ip, r3
 1871 0030 1800     		movs	r0, r3
 1872 0032 70CA     		ldmia	r2!, {r4, r5, r6}
ARM GAS  C:\Users\HELLOK~1.1\AppData\Local\Temp\cciBhXYB.s 			page 44


 1873 0034 70C0     		stmia	r0!, {r4, r5, r6}
 560:main.c        ****     struct Time nextTime = {6,00, "PM"};
 1874              		.loc 1 560 0
 1875 0036 1DAC     		add	r4, sp, #116
 1876 0038 0A00     		movs	r2, r1
 1877 003a 1432     		adds	r2, r2, #20
 1878 003c 2000     		movs	r0, r4
 1879 003e 60CA     		ldmia	r2!, {r5, r6}
 1880 0040 60C0     		stmia	r0!, {r5, r6}
 561:main.c        ****     struct Date nextDate = {1, "Apr", 23};
 1881              		.loc 1 561 0
 1882 0042 1AAA     		add	r2, sp, #104
 1883 0044 0800     		movs	r0, r1
 1884 0046 1C30     		adds	r0, r0, #28
 1885 0048 1500     		movs	r5, r2
 1886 004a C8C8     		ldmia	r0!, {r3, r6, r7}
 1887 004c C8C5     		stmia	r5!, {r3, r6, r7}
 562:main.c        ****     LCDInit(time, nextTime, date, nextDate);
 1888              		.loc 1 562 0
 1889 004e 03A8     		add	r0, sp, #12
 1890 0050 68CA     		ldmia	r2!, {r3, r5, r6}
 1891 0052 68C0     		stmia	r0!, {r3, r5, r6}
 1892 0054 6A46     		mov	r2, sp
 1893 0056 6346     		mov	r3, ip
 1894 0058 61CB     		ldmia	r3!, {r0, r5, r6}
 1895 005a 61C2     		stmia	r2!, {r0, r5, r6}
 1896 005c 1D9A     		ldr	r2, [sp, #116]
 1897 005e 1E9B     		ldr	r3, [sp, #120]
 1898 0060 2298     		ldr	r0, [sp, #136]
 1899 0062 4968     		ldr	r1, [r1, #4]
 1900 0064 FFF7FEFF 		bl	LCDInit
 1901              	.LVL194:
 563:main.c        ****     uint8 wrBuf[2];
 564:main.c        ****     wrBuf[1] = 0b0000000;
 1902              		.loc 1 564 0
 1903 0068 19AC     		add	r4, sp, #100
 1904 006a 0026     		movs	r6, #0
 1905 006c 6670     		strb	r6, [r4, #1]
 565:main.c        ****     writeToAddr(wrBuf,2,RTCAddr,rtc.CtrlStat1);
 1906              		.loc 1 565 0
 1907 006e 664D     		ldr	r5, .L98+4
 1908 0070 2B78     		ldrb	r3, [r5]
 1909 0072 5122     		movs	r2, #81
 1910 0074 0221     		movs	r1, #2
 1911 0076 2000     		movs	r0, r4
 1912 0078 FFF7FEFF 		bl	writeToAddr
 1913              	.LVL195:
 566:main.c        ****     wrBuf[1] = 0b0000000;
 1914              		.loc 1 566 0
 1915 007c 6670     		strb	r6, [r4, #1]
 567:main.c        ****     writeToAddr(wrBuf,2,RTCAddr,rtc.CtrlStat2);
 1916              		.loc 1 567 0
 1917 007e 6B78     		ldrb	r3, [r5, #1]
 1918 0080 5122     		movs	r2, #81
 1919 0082 0221     		movs	r1, #2
 1920 0084 2000     		movs	r0, r4
 1921 0086 FFF7FEFF 		bl	writeToAddr
ARM GAS  C:\Users\HELLOK~1.1\AppData\Local\Temp\cciBhXYB.s 			page 45


 1922              	.LVL196:
 1923              	.L97:
 1924              	.LBB8:
 568:main.c        ****     //RTCInit();
 569:main.c        **** 
 570:main.c        ****     /* Place your initialization/startup code here (e.g. MyInst_Start()) */
 571:main.c        **** 
 572:main.c        ****     for(;;)
 573:main.c        ****     {
 574:main.c        ****         struct Time updateTime;
 575:main.c        ****         
 576:main.c        ****         uint8 sec[1];
 577:main.c        ****         readFromAddr(sec,1,RTCAddr,rtc.VL_Sec);
 1925              		.loc 1 577 0
 1926 008a 5F4C     		ldr	r4, .L98+4
 1927 008c A378     		ldrb	r3, [r4, #2]
 1928 008e 5122     		movs	r2, #81
 1929 0090 0121     		movs	r1, #1
 1930 0092 09A8     		add	r0, sp, #36
 1931 0094 FFF7FEFF 		bl	readFromAddr
 1932              	.LVL197:
 578:main.c        ****         uint8 min[1];
 579:main.c        ****         readFromAddr(min,1,RTCAddr,rtc.Minutes);
 1933              		.loc 1 579 0
 1934 0098 E378     		ldrb	r3, [r4, #3]
 1935 009a 5122     		movs	r2, #81
 1936 009c 0121     		movs	r1, #1
 1937 009e 0AA8     		add	r0, sp, #40
 1938 00a0 FFF7FEFF 		bl	readFromAddr
 1939              	.LVL198:
 580:main.c        ****         uint8 hour[1];
 581:main.c        ****         readFromAddr(hour,1,RTCAddr,rtc.Hours);
 1940              		.loc 1 581 0
 1941 00a4 2379     		ldrb	r3, [r4, #4]
 1942 00a6 0BAD     		add	r5, sp, #44
 1943 00a8 5122     		movs	r2, #81
 1944 00aa 0121     		movs	r1, #1
 1945 00ac 2800     		movs	r0, r5
 1946 00ae FFF7FEFF 		bl	readFromAddr
 1947              	.LVL199:
 582:main.c        ****         uint8 day[1];
 583:main.c        ****         readFromAddr(day,1,RTCAddr,rtc.Days);
 1948              		.loc 1 583 0
 1949 00b2 6379     		ldrb	r3, [r4, #5]
 1950 00b4 5122     		movs	r2, #81
 1951 00b6 0121     		movs	r1, #1
 1952 00b8 0CA8     		add	r0, sp, #48
 1953 00ba FFF7FEFF 		bl	readFromAddr
 1954              	.LVL200:
 584:main.c        ****         uint8 month[1];
 585:main.c        ****         readFromAddr(month,1,RTCAddr,rtc.Century_Months);
 1955              		.loc 1 585 0
 1956 00be E379     		ldrb	r3, [r4, #7]
 1957 00c0 5122     		movs	r2, #81
 1958 00c2 0121     		movs	r1, #1
 1959 00c4 0DA8     		add	r0, sp, #52
 1960 00c6 FFF7FEFF 		bl	readFromAddr
ARM GAS  C:\Users\HELLOK~1.1\AppData\Local\Temp\cciBhXYB.s 			page 46


 1961              	.LVL201:
 586:main.c        ****         uint8 year[1];
 587:main.c        ****         readFromAddr(year,1,RTCAddr,rtc.Years);
 1962              		.loc 1 587 0
 1963 00ca 237A     		ldrb	r3, [r4, #8]
 1964 00cc 5122     		movs	r2, #81
 1965 00ce 0121     		movs	r1, #1
 1966 00d0 0EA8     		add	r0, sp, #56
 1967 00d2 FFF7FEFF 		bl	readFromAddr
 1968              	.LVL202:
 588:main.c        ****         if(hour[0] > 0x12){
 1969              		.loc 1 588 0
 1970 00d6 2878     		ldrb	r0, [r5]
 1971 00d8 1228     		cmp	r0, #18
 1972 00da 16D9     		bls	.L91
 1973              	.LBB9:
 589:main.c        ****             volatile struct Time currTime = {bcdToDec(hour[0])-12,bcdToDec(min[0]),"PM"};
 1974              		.loc 1 589 0
 1975 00dc FFF7FEFF 		bl	bcdToDec
 1976              	.LVL203:
 1977 00e0 24AC     		add	r4, sp, #144
 1978 00e2 0C38     		subs	r0, r0, #12
 1979 00e4 2070     		strb	r0, [r4]
 1980 00e6 0AAB     		add	r3, sp, #40
 1981 00e8 1878     		ldrb	r0, [r3]
 1982 00ea FFF7FEFF 		bl	bcdToDec
 1983              	.LVL204:
 1984 00ee 6070     		strb	r0, [r4, #1]
 1985 00f0 464B     		ldr	r3, .L98+8
 1986 00f2 6360     		str	r3, [r4, #4]
 1987 00f4 0822     		movs	r2, #8
 1988 00f6 2100     		movs	r1, r4
 1989 00f8 12A8     		add	r0, sp, #72
 1990 00fa FFF7FEFF 		bl	memcpy
 1991              	.LVL205:
 590:main.c        ****             updateTime = currTime;
 1992              		.loc 1 590 0
 1993 00fe 0822     		movs	r2, #8
 1994 0100 12A9     		add	r1, sp, #72
 1995 0102 10A8     		add	r0, sp, #64
 1996 0104 FFF7FEFF 		bl	memcpy
 1997              	.LVL206:
 1998              	.LBE9:
 1999 0108 14E0     		b	.L92
 2000              	.L91:
 2001              	.LBB10:
 591:main.c        ****         }
 592:main.c        ****         else{
 593:main.c        ****             volatile struct Time currTime = {bcdToDec(hour[0]),bcdToDec(min[0]),"AM"};
 2002              		.loc 1 593 0
 2003 010a FFF7FEFF 		bl	bcdToDec
 2004              	.LVL207:
 2005 010e 26AC     		add	r4, sp, #152
 2006 0110 2070     		strb	r0, [r4]
 2007 0112 0AAB     		add	r3, sp, #40
 2008 0114 1878     		ldrb	r0, [r3]
 2009 0116 FFF7FEFF 		bl	bcdToDec
ARM GAS  C:\Users\HELLOK~1.1\AppData\Local\Temp\cciBhXYB.s 			page 47


 2010              	.LVL208:
 2011 011a 6070     		strb	r0, [r4, #1]
 2012 011c 3C4B     		ldr	r3, .L98+12
 2013 011e 6360     		str	r3, [r4, #4]
 2014 0120 0822     		movs	r2, #8
 2015 0122 2100     		movs	r1, r4
 2016 0124 14A8     		add	r0, sp, #80
 2017 0126 FFF7FEFF 		bl	memcpy
 2018              	.LVL209:
 594:main.c        ****             updateTime = currTime;
 2019              		.loc 1 594 0
 2020 012a 0822     		movs	r2, #8
 2021 012c 14A9     		add	r1, sp, #80
 2022 012e 10A8     		add	r0, sp, #64
 2023 0130 FFF7FEFF 		bl	memcpy
 2024              	.LVL210:
 2025              	.L92:
 2026              	.LBE10:
 595:main.c        ****         }
 596:main.c        ****         
 597:main.c        ****         struct Date updateDate = {bcdToDec(day[0]),months[bcdToDec(month[0])-1],bcdToDec(year[0])};
 2027              		.loc 1 597 0
 2028 0134 0CAB     		add	r3, sp, #48
 2029 0136 1878     		ldrb	r0, [r3]
 2030 0138 FFF7FEFF 		bl	bcdToDec
 2031              	.LVL211:
 2032 013c 16AC     		add	r4, sp, #88
 2033 013e 2070     		strb	r0, [r4]
 2034 0140 0DAB     		add	r3, sp, #52
 2035 0142 1878     		ldrb	r0, [r3]
 2036 0144 FFF7FEFF 		bl	bcdToDec
 2037              	.LVL212:
 2038 0148 0138     		subs	r0, r0, #1
 2039 014a 2F4D     		ldr	r5, .L98+4
 2040 014c 8000     		lsls	r0, r0, #2
 2041 014e 2818     		adds	r0, r5, r0
 2042 0150 076E     		ldr	r7, [r0, #96]
 2043 0152 6760     		str	r7, [r4, #4]
 2044 0154 0EAB     		add	r3, sp, #56
 2045 0156 1878     		ldrb	r0, [r3]
 2046 0158 FFF7FEFF 		bl	bcdToDec
 2047              	.LVL213:
 2048 015c 2072     		strb	r0, [r4, #8]
 598:main.c        ****         updateCurrTime(updateTime, updateDate);
 2049              		.loc 1 598 0
 2050 015e 10AE     		add	r6, sp, #64
 2051 0160 A368     		ldr	r3, [r4, #8]
 2052 0162 0093     		str	r3, [sp]
 2053 0164 169A     		ldr	r2, [sp, #88]
 2054 0166 3B00     		movs	r3, r7
 2055 0168 1098     		ldr	r0, [sp, #64]
 2056 016a 1199     		ldr	r1, [sp, #68]
 2057 016c FFF7FEFF 		bl	updateCurrTime
 2058              	.LVL214:
 599:main.c        ****         if(updateTime.hour == feedTimes[feedCounter].hour && updateTime.minute == feedTimes[feedCou
 2059              		.loc 1 599 0
 2060 0170 3278     		ldrb	r2, [r6]
ARM GAS  C:\Users\HELLOK~1.1\AppData\Local\Temp\cciBhXYB.s 			page 48


 2061 0172 284B     		ldr	r3, .L98+16
 2062 0174 1C78     		ldrb	r4, [r3]
 2063 0176 E300     		lsls	r3, r4, #3
 2064 0178 EB18     		adds	r3, r5, r3
 2065 017a 1B7C     		ldrb	r3, [r3, #16]
 2066 017c 9A42     		cmp	r2, r3
 2067 017e 2DD1     		bne	.L93
 2068              		.loc 1 599 0 is_stmt 0 discriminator 1
 2069 0180 10AB     		add	r3, sp, #64
 2070 0182 5A78     		ldrb	r2, [r3, #1]
 2071 0184 E300     		lsls	r3, r4, #3
 2072 0186 2049     		ldr	r1, .L98+4
 2073 0188 CB18     		adds	r3, r1, r3
 2074 018a 5B7C     		ldrb	r3, [r3, #17]
 2075 018c 9A42     		cmp	r2, r3
 2076 018e 25D1     		bne	.L93
 2077              		.loc 1 599 0 discriminator 2
 2078 0190 E300     		lsls	r3, r4, #3
 2079 0192 CB18     		adds	r3, r1, r3
 2080 0194 5B69     		ldr	r3, [r3, #20]
 2081 0196 119A     		ldr	r2, [sp, #68]
 2082 0198 9A42     		cmp	r2, r3
 2083 019a 1FD1     		bne	.L93
 600:main.c        ****             if(feedCounter == 2 || strncmp(feedTimes[feedCounter+1].AM,"AM",2) != 0 || strncmp(feed
 2084              		.loc 1 600 0 is_stmt 1
 2085 019c 022C     		cmp	r4, #2
 2086 019e 0AD0     		beq	.L94
 2087              		.loc 1 600 0 is_stmt 0 discriminator 1
 2088 01a0 631C     		adds	r3, r4, #1
 2089 01a2 DB00     		lsls	r3, r3, #3
 2090 01a4 CB18     		adds	r3, r1, r3
 2091 01a6 5869     		ldr	r0, [r3, #20]
 2092 01a8 0222     		movs	r2, #2
 2093 01aa 1949     		ldr	r1, .L98+12
 2094 01ac FFF7FEFF 		bl	strncmp
 2095              	.LVL215:
 2096 01b0 0028     		cmp	r0, #0
 2097 01b2 00D1     		bne	.L94
 2098              		.loc 1 600 0 discriminator 2
 2099 01b4 17D0     		beq	.L95
 2100              	.L94:
 2101              	.LBB11:
 601:main.c        ****                 feedCounter++;
 2102              		.loc 1 601 0 is_stmt 1
 2103 01b6 0134     		adds	r4, r4, #1
 2104 01b8 E1B2     		uxtb	r1, r4
 2105 01ba 164B     		ldr	r3, .L98+16
 2106 01bc 1970     		strb	r1, [r3]
 602:main.c        ****                 updateNextFeed(feedTimes[feedCounter],updateDate);
 2107              		.loc 1 602 0
 2108 01be C900     		lsls	r1, r1, #3
 2109 01c0 114B     		ldr	r3, .L98+4
 2110 01c2 5918     		adds	r1, r3, r1
 2111 01c4 189B     		ldr	r3, [sp, #96]
 2112 01c6 0793     		str	r3, [sp, #28]
 2113 01c8 0093     		str	r3, [sp]
 2114 01ca 169A     		ldr	r2, [sp, #88]
ARM GAS  C:\Users\HELLOK~1.1\AppData\Local\Temp\cciBhXYB.s 			page 49


 2115 01cc 179B     		ldr	r3, [sp, #92]
 2116 01ce 0869     		ldr	r0, [r1, #16]
 2117 01d0 4969     		ldr	r1, [r1, #20]
 2118 01d2 FFF7FEFF 		bl	updateNextFeed
 2119              	.LVL216:
 603:main.c        ****                 FEEEEED();
 604:main.c        ****                 volatile int a = 0;
 2120              		.loc 1 604 0
 2121 01d6 0023     		movs	r3, #0
 2122 01d8 0F93     		str	r3, [sp, #60]
 2123 01da 04E0     		b	.L95
 2124              	.L93:
 2125              	.LBE11:
 605:main.c        ****             }
 606:main.c        ****         }
 607:main.c        ****         else if(feedCounter == 2){
 2126              		.loc 1 607 0
 2127 01dc 022C     		cmp	r4, #2
 2128 01de 02D1     		bne	.L95
 608:main.c        ****             feedCounter = 0;
 2129              		.loc 1 608 0
 2130 01e0 0022     		movs	r2, #0
 2131 01e2 0C4B     		ldr	r3, .L98+16
 2132 01e4 1A70     		strb	r2, [r3]
 2133              	.L95:
 609:main.c        ****         }
 610:main.c        ****         if(buttonFlag == 1){
 2134              		.loc 1 610 0
 2135 01e6 0B4B     		ldr	r3, .L98+16
 2136 01e8 DB78     		ldrb	r3, [r3, #3]
 2137 01ea 012B     		cmp	r3, #1
 2138 01ec 04D1     		bne	.L96
 611:main.c        ****             buttonFlag = 0;
 2139              		.loc 1 611 0
 2140 01ee 0022     		movs	r2, #0
 2141 01f0 084B     		ldr	r3, .L98+16
 2142 01f2 DA70     		strb	r2, [r3, #3]
 612:main.c        ****             startSettings();
 2143              		.loc 1 612 0
 2144 01f4 FFF7FEFF 		bl	startSettings
 2145              	.LVL217:
 2146              	.L96:
 613:main.c        ****         }
 614:main.c        ****         CyDelay(1000);
 2147              		.loc 1 614 0
 2148 01f8 FA20     		movs	r0, #250
 2149 01fa 8000     		lsls	r0, r0, #2
 2150 01fc FFF7FEFF 		bl	CyDelay
 2151              	.LVL218:
 2152              	.LBE8:
 615:main.c        ****         
 616:main.c        ****         //CySysPmDeepSleep();
 617:main.c        ****         /* Place your application code here. */
 618:main.c        ****     }
 2153              		.loc 1 618 0
 2154 0200 43E7     		b	.L97
 2155              	.L99:
ARM GAS  C:\Users\HELLOK~1.1\AppData\Local\Temp\cciBhXYB.s 			page 50


 2156 0202 C046     		.align	2
 2157              	.L98:
 2158 0204 00000000 		.word	.LANCHOR3
 2159 0208 00000000 		.word	.LANCHOR0
 2160 020c 9C000000 		.word	.LC4
 2161 0210 A0000000 		.word	.LC0
 2162 0214 00000000 		.word	.LANCHOR1
 2163              		.cfi_endproc
 2164              	.LFE51:
 2165              		.size	main, .-main
 2166              		.global	encPos
 2167              		.global	encFlag
 2168              		.global	buttonFlag
 2169              		.global	feedCounter
 2170              		.global	RTCAddr
 2171              		.global	LCDAddr
 2172              		.global	commands
 2173              		.global	feedTimes
 2174              		.global	months
 2175              		.global	rtc
 2176              		.section	.rodata
 2177              		.align	2
 2178              		.set	.LANCHOR3,. + 0
 2179              	.LC57:
 2180 0000 0C       		.byte	12
 2181 0001 2D       		.byte	45
 2182 0002 0000     		.space	2
 2183 0004 A0000000 		.word	.LC0
 2184              	.LC59:
 2185 0008 1F       		.byte	31
 2186 0009 000000   		.space	3
 2187 000c 14010000 		.word	.LC2
 2188 0010 17       		.byte	23
 2189 0011 000000   		.space	3
 2190              	.LC60:
 2191 0014 06       		.byte	6
 2192 0015 00       		.byte	0
 2193 0016 0000     		.space	2
 2194 0018 9C000000 		.word	.LC4
 2195              	.LC61:
 2196 001c 01       		.byte	1
 2197 001d 000000   		.space	3
 2198 0020 10010000 		.word	.LC6
 2199 0024 17       		.byte	23
 2200 0025 000000   		.space	3
 2201              		.type	RTCAddr, %object
 2202              		.size	RTCAddr, 4
 2203              	RTCAddr:
 2204 0028 51000000 		.word	81
 2205              		.type	LCDAddr, %object
 2206              		.size	LCDAddr, 4
 2207              	LCDAddr:
 2208 002c 27000000 		.word	39
 2209              		.data
 2210              		.align	2
 2211              		.set	.LANCHOR0,. + 0
 2212              		.set	.LANCHOR2,. + 128
ARM GAS  C:\Users\HELLOK~1.1\AppData\Local\Temp\cciBhXYB.s 			page 51


 2213              		.type	rtc, %object
 2214              		.size	rtc, 16
 2215              	rtc:
 2216 0000 00       		.byte	0
 2217 0001 01       		.byte	1
 2218 0002 02       		.byte	2
 2219 0003 03       		.byte	3
 2220 0004 04       		.byte	4
 2221 0005 05       		.byte	5
 2222 0006 06       		.byte	6
 2223 0007 07       		.byte	7
 2224 0008 08       		.byte	8
 2225 0009 09       		.byte	9
 2226 000a 0A       		.byte	10
 2227 000b 0B       		.byte	11
 2228 000c 0C       		.byte	12
 2229 000d 0D       		.byte	13
 2230 000e 0E       		.byte	14
 2231 000f 0F       		.byte	15
 2232              		.type	feedTimes, %object
 2233              		.size	feedTimes, 80
 2234              	feedTimes:
 2235 0010 04       		.byte	4
 2236 0011 19       		.byte	25
 2237 0012 0000     		.space	2
 2238 0014 9C000000 		.word	.LC4
 2239 0018 04       		.byte	4
 2240 0019 1A       		.byte	26
 2241 001a 0000     		.space	2
 2242 001c 9C000000 		.word	.LC4
 2243 0020 05       		.byte	5
 2244 0021 05       		.byte	5
 2245 0022 0000     		.space	2
 2246 0024 9C000000 		.word	.LC4
 2247 0028 00000000 		.space	56
 2247      00000000 
 2247      00000000 
 2247      00000000 
 2247      00000000 
 2248              		.type	months, %object
 2249              		.size	months, 48
 2250              	months:
 2251 0060 A8010000 		.word	.LC72
 2252 0064 AC010000 		.word	.LC73
 2253 0068 14010000 		.word	.LC2
 2254 006c 10010000 		.word	.LC6
 2255 0070 B0010000 		.word	.LC74
 2256 0074 B4010000 		.word	.LC75
 2257 0078 B8010000 		.word	.LC76
 2258 007c BC010000 		.word	.LC77
 2259 0080 C0010000 		.word	.LC78
 2260 0084 C4010000 		.word	.LC79
 2261 0088 C8010000 		.word	.LC80
 2262 008c CC010000 		.word	.LC81
 2263              		.type	commands, %object
 2264              		.size	commands, 24
 2265              	commands:
ARM GAS  C:\Users\HELLOK~1.1\AppData\Local\Temp\cciBhXYB.s 			page 52


 2266 0090 18010000 		.word	.LC66
 2267 0094 30010000 		.word	.LC67
 2268 0098 48010000 		.word	.LC68
 2269 009c 60010000 		.word	.LC69
 2270 00a0 78010000 		.word	.LC70
 2271 00a4 90010000 		.word	.LC71
 2272              		.section	.rodata.str1.4,"aMS",%progbits,1
 2273              		.align	2
 2274              	.LC9:
 2275 0000 25643A25 		.ascii	"%d:%.2d%s %s %d, 20%d \000"
 2275      2E326425 
 2275      73202573 
 2275      2025642C 
 2275      20323025 
 2276 0017 00       		.space	1
 2277              	.LC11:
 2278 0018 2D2D2D2D 		.ascii	"--------------------\000"
 2278      2D2D2D2D 
 2278      2D2D2D2D 
 2278      2D2D2D2D 
 2278      2D2D2D2D 
 2279 002d 000000   		.space	3
 2280              	.LC13:
 2281 0030 54696D65 		.ascii	"Time of Next Feed:\000"
 2281      206F6620 
 2281      4E657874 
 2281      20466565 
 2281      643A00
 2282 0043 00       		.space	1
 2283              	.LC21:
 2284 0044 54696D65 		.ascii	"Time of Next Feed:  \000"
 2284      206F6620 
 2284      4E657874 
 2284      20466565 
 2284      643A2020 
 2285 0059 000000   		.space	3
 2286              	.LC24:
 2287 005c 53657420 		.ascii	"Set Month\000"
 2287      4D6F6E74 
 2287      6800
 2288 0066 0000     		.space	2
 2289              	.LC27:
 2290 0068 25732025 		.ascii	"%s %d, 20%d\000"
 2290      642C2032 
 2290      30256400 
 2291              	.LC30:
 2292 0074 53657420 		.ascii	"Set Day  \000"
 2292      44617920 
 2292      2000
 2293 007e 0000     		.space	2
 2294              	.LC32:
 2295 0080 25303264 		.ascii	"%02d\000"
 2295      00
 2296 0085 000000   		.space	3
 2297              	.LC34:
 2298 0088 53657420 		.ascii	"Set Year\000"
 2298      59656172 
ARM GAS  C:\Users\HELLOK~1.1\AppData\Local\Temp\cciBhXYB.s 			page 53


 2298      00
 2299 0091 000000   		.space	3
 2300              	.LC36:
 2301 0094 32302530 		.ascii	"20%02d\000"
 2301      326400
 2302 009b 00       		.space	1
 2303              	.LC4:
 2304 009c 504D00   		.ascii	"PM\000"
 2305 009f 00       		.space	1
 2306              	.LC0:
 2307 00a0 414D00   		.ascii	"AM\000"
 2308 00a3 00       		.space	1
 2309              	.LC40:
 2310 00a4 53657420 		.ascii	"Set Hour\000"
 2310      486F7572 
 2310      00
 2311 00ad 000000   		.space	3
 2312              	.LC42:
 2313 00b0 25643A25 		.ascii	"%d:%.2d%s        \000"
 2313      2E326425 
 2313      73202020 
 2313      20202020 
 2313      2000
 2314 00c2 0000     		.space	2
 2315              	.LC44:
 2316 00c4 53657420 		.ascii	"Set Minute\000"
 2316      4D696E75 
 2316      746500
 2317 00cf 00       		.space	1
 2318              	.LC46:
 2319 00d0 53657420 		.ascii	"Set AM/PM    \000"
 2319      414D2F50 
 2319      4D202020 
 2319      2000
 2320 00de 0000     		.space	2
 2321              	.LC48:
 2322 00e0 42757474 		.ascii	"Button = Select\000"
 2322      6F6E203D 
 2322      2053656C 
 2322      65637400 
 2323              	.LC50:
 2324 00f0 4B6E6F62 		.ascii	"Knob = Choice\000"
 2324      203D2043 
 2324      686F6963 
 2324      6500
 2325 00fe 0000     		.space	2
 2326              	.LC53:
 2327 0100 53657420 		.ascii	"Set Global Time\000"
 2327      476C6F62 
 2327      616C2054 
 2327      696D6500 
 2328              	.LC6:
 2329 0110 41707200 		.ascii	"Apr\000"
 2330              	.LC2:
 2331 0114 4D617200 		.ascii	"Mar\000"
 2332              	.LC66:
 2333 0118 53657420 		.ascii	"Set Global Time     \000"
ARM GAS  C:\Users\HELLOK~1.1\AppData\Local\Temp\cciBhXYB.s 			page 54


 2333      476C6F62 
 2333      616C2054 
 2333      696D6520 
 2333      20202020 
 2334 012d 000000   		.space	3
 2335              	.LC67:
 2336 0130 4368616E 		.ascii	"Change Feed Times   \000"
 2336      67652046 
 2336      65656420 
 2336      54696D65 
 2336      73202020 
 2337 0145 000000   		.space	3
 2338              	.LC68:
 2339 0148 4368616E 		.ascii	"Change Feed Amount  \000"
 2339      67652046 
 2339      65656420 
 2339      416D6F75 
 2339      6E742020 
 2340 015d 000000   		.space	3
 2341              	.LC69:
 2342 0160 5475726E 		.ascii	"Turn on/off LED's   \000"
 2342      206F6E2F 
 2342      6F666620 
 2342      4C454427 
 2342      73202020 
 2343 0175 000000   		.space	3
 2344              	.LC70:
 2345 0178 5475726E 		.ascii	"Turn on/off Speakers\000"
 2345      206F6E2F 
 2345      6F666620 
 2345      53706561 
 2345      6B657273 
 2346 018d 000000   		.space	3
 2347              	.LC71:
 2348 0190 45786974 		.ascii	"Exit                \000"
 2348      20202020 
 2348      20202020 
 2348      20202020 
 2348      20202020 
 2349 01a5 000000   		.space	3
 2350              	.LC72:
 2351 01a8 4A616E00 		.ascii	"Jan\000"
 2352              	.LC73:
 2353 01ac 46656200 		.ascii	"Feb\000"
 2354              	.LC74:
 2355 01b0 4D617900 		.ascii	"May\000"
 2356              	.LC75:
 2357 01b4 4A756E00 		.ascii	"Jun\000"
 2358              	.LC76:
 2359 01b8 4A756C00 		.ascii	"Jul\000"
 2360              	.LC77:
 2361 01bc 41756700 		.ascii	"Aug\000"
 2362              	.LC78:
 2363 01c0 53657000 		.ascii	"Sep\000"
 2364              	.LC79:
 2365 01c4 4F637400 		.ascii	"Oct\000"
 2366              	.LC80:
ARM GAS  C:\Users\HELLOK~1.1\AppData\Local\Temp\cciBhXYB.s 			page 55


 2367 01c8 4E6F7600 		.ascii	"Nov\000"
 2368              	.LC81:
 2369 01cc 44656300 		.ascii	"Dec\000"
 2370              		.bss
 2371              		.set	.LANCHOR1,. + 0
 2372              		.type	feedCounter, %object
 2373              		.size	feedCounter, 1
 2374              	feedCounter:
 2375 0000 00       		.space	1
 2376              		.type	encFlag, %object
 2377              		.size	encFlag, 1
 2378              	encFlag:
 2379 0001 00       		.space	1
 2380              		.type	encPos, %object
 2381              		.size	encPos, 1
 2382              	encPos:
 2383 0002 00       		.space	1
 2384              		.type	buttonFlag, %object
 2385              		.size	buttonFlag, 1
 2386              	buttonFlag:
 2387 0003 00       		.space	1
 2388              		.text
 2389              	.Letext0:
 2390              		.file 2 "Generated_Source\\PSoC4/cytypes.h"
 2391              		.file 3 "Generated_Source\\PSoC4/I2C_I2C.h"
 2392              		.file 4 "LiquidCrystal_I2C.h"
 2393              		.file 5 "c:\\program files (x86)\\cypress\\psoc creator\\4.4\\psoc creator\\import\\gnu\\arm\\5.4.
 2394              		.file 6 "Generated_Source\\PSoC4/CyLib.h"
 2395              		.file 7 "c:\\program files (x86)\\cypress\\psoc creator\\4.4\\psoc creator\\import\\gnu\\arm\\5.4.
 2396              		.file 8 "Generated_Source\\PSoC4/BTN_ISR.h"
 2397              		.file 9 "Generated_Source\\PSoC4/ENC_ISR.h"
 2398              		.file 10 "Generated_Source\\PSoC4/I2C.h"
 2399              		.section	.debug_info,"",%progbits
 2400              	.Ldebug_info0:
 2401 0000 F6170000 		.4byte	0x17f6
 2402 0004 0400     		.2byte	0x4
 2403 0006 00000000 		.4byte	.Ldebug_abbrev0
 2404 000a 04       		.byte	0x4
 2405 000b 01       		.uleb128 0x1
 2406 000c FD000000 		.4byte	.LASF106
 2407 0010 0C       		.byte	0xc
 2408 0011 51040000 		.4byte	.LASF107
 2409 0015 95020000 		.4byte	.LASF108
 2410 0019 00000000 		.4byte	.Ldebug_ranges0+0
 2411 001d 00000000 		.4byte	0
 2412 0021 00000000 		.4byte	.Ldebug_line0
 2413 0025 02       		.uleb128 0x2
 2414 0026 01       		.byte	0x1
 2415 0027 06       		.byte	0x6
 2416 0028 3B030000 		.4byte	.LASF0
 2417 002c 02       		.uleb128 0x2
 2418 002d 01       		.byte	0x1
 2419 002e 08       		.byte	0x8
 2420 002f 10030000 		.4byte	.LASF1
 2421 0033 02       		.uleb128 0x2
 2422 0034 02       		.byte	0x2
 2423 0035 05       		.byte	0x5
ARM GAS  C:\Users\HELLOK~1.1\AppData\Local\Temp\cciBhXYB.s 			page 56


 2424 0036 45000000 		.4byte	.LASF2
 2425 003a 02       		.uleb128 0x2
 2426 003b 02       		.byte	0x2
 2427 003c 07       		.byte	0x7
 2428 003d 01040000 		.4byte	.LASF3
 2429 0041 02       		.uleb128 0x2
 2430 0042 04       		.byte	0x4
 2431 0043 05       		.byte	0x5
 2432 0044 EE030000 		.4byte	.LASF4
 2433 0048 02       		.uleb128 0x2
 2434 0049 04       		.byte	0x4
 2435 004a 07       		.byte	0x7
 2436 004b 33020000 		.4byte	.LASF5
 2437 004f 02       		.uleb128 0x2
 2438 0050 08       		.byte	0x8
 2439 0051 05       		.byte	0x5
 2440 0052 DE010000 		.4byte	.LASF6
 2441 0056 02       		.uleb128 0x2
 2442 0057 08       		.byte	0x8
 2443 0058 07       		.byte	0x7
 2444 0059 47030000 		.4byte	.LASF7
 2445 005d 03       		.uleb128 0x3
 2446 005e 04       		.byte	0x4
 2447 005f 05       		.byte	0x5
 2448 0060 696E7400 		.ascii	"int\000"
 2449 0064 02       		.uleb128 0x2
 2450 0065 04       		.byte	0x4
 2451 0066 07       		.byte	0x7
 2452 0067 76030000 		.4byte	.LASF8
 2453 006b 04       		.uleb128 0x4
 2454 006c 05050000 		.4byte	.LASF9
 2455 0070 02       		.byte	0x2
 2456 0071 FC01     		.2byte	0x1fc
 2457 0073 2C000000 		.4byte	0x2c
 2458 0077 04       		.uleb128 0x4
 2459 0078 30040000 		.4byte	.LASF10
 2460 007c 02       		.byte	0x2
 2461 007d FD01     		.2byte	0x1fd
 2462 007f 3A000000 		.4byte	0x3a
 2463 0083 04       		.uleb128 0x4
 2464 0084 77040000 		.4byte	.LASF11
 2465 0088 02       		.byte	0x2
 2466 0089 FE01     		.2byte	0x1fe
 2467 008b 48000000 		.4byte	0x48
 2468 008f 02       		.uleb128 0x2
 2469 0090 04       		.byte	0x4
 2470 0091 04       		.byte	0x4
 2471 0092 C1010000 		.4byte	.LASF12
 2472 0096 02       		.uleb128 0x2
 2473 0097 08       		.byte	0x8
 2474 0098 04       		.byte	0x4
 2475 0099 0B050000 		.4byte	.LASF13
 2476 009d 02       		.uleb128 0x2
 2477 009e 01       		.byte	0x1
 2478 009f 08       		.byte	0x8
 2479 00a0 F4010000 		.4byte	.LASF14
 2480 00a4 05       		.uleb128 0x5
ARM GAS  C:\Users\HELLOK~1.1\AppData\Local\Temp\cciBhXYB.s 			page 57


 2481 00a5 6B000000 		.4byte	0x6b
 2482 00a9 02       		.uleb128 0x2
 2483 00aa 08       		.byte	0x8
 2484 00ab 04       		.byte	0x4
 2485 00ac 89020000 		.4byte	.LASF15
 2486 00b0 02       		.uleb128 0x2
 2487 00b1 04       		.byte	0x4
 2488 00b2 07       		.byte	0x7
 2489 00b3 76000000 		.4byte	.LASF16
 2490 00b7 06       		.uleb128 0x6
 2491 00b8 04       		.byte	0x4
 2492 00b9 9D000000 		.4byte	0x9d
 2493 00bd 06       		.uleb128 0x6
 2494 00be 04       		.byte	0x4
 2495 00bf C3000000 		.4byte	0xc3
 2496 00c3 07       		.uleb128 0x7
 2497 00c4 9D000000 		.4byte	0x9d
 2498 00c8 06       		.uleb128 0x6
 2499 00c9 04       		.byte	0x4
 2500 00ca 6B000000 		.4byte	0x6b
 2501 00ce 08       		.uleb128 0x8
 2502 00cf 95040000 		.4byte	.LASF19
 2503 00d3 08       		.byte	0x8
 2504 00d4 01       		.byte	0x1
 2505 00d5 12       		.byte	0x12
 2506 00d6 FE000000 		.4byte	0xfe
 2507 00da 09       		.uleb128 0x9
 2508 00db 84020000 		.4byte	.LASF17
 2509 00df 01       		.byte	0x1
 2510 00e0 13       		.byte	0x13
 2511 00e1 6B000000 		.4byte	0x6b
 2512 00e5 00       		.byte	0
 2513 00e6 09       		.uleb128 0x9
 2514 00e7 3C040000 		.4byte	.LASF18
 2515 00eb 01       		.byte	0x1
 2516 00ec 14       		.byte	0x14
 2517 00ed 6B000000 		.4byte	0x6b
 2518 00f1 01       		.byte	0x1
 2519 00f2 0A       		.uleb128 0xa
 2520 00f3 414D00   		.ascii	"AM\000"
 2521 00f6 01       		.byte	0x1
 2522 00f7 15       		.byte	0x15
 2523 00f8 B7000000 		.4byte	0xb7
 2524 00fc 04       		.byte	0x4
 2525 00fd 00       		.byte	0
 2526 00fe 08       		.uleb128 0x8
 2527 00ff CE030000 		.4byte	.LASF20
 2528 0103 0C       		.byte	0xc
 2529 0104 01       		.byte	0x1
 2530 0105 18       		.byte	0x18
 2531 0106 2F010000 		.4byte	0x12f
 2532 010a 0A       		.uleb128 0xa
 2533 010b 64617900 		.ascii	"day\000"
 2534 010f 01       		.byte	0x1
 2535 0110 19       		.byte	0x19
 2536 0111 6B000000 		.4byte	0x6b
 2537 0115 00       		.byte	0
ARM GAS  C:\Users\HELLOK~1.1\AppData\Local\Temp\cciBhXYB.s 			page 58


 2538 0116 09       		.uleb128 0x9
 2539 0117 14040000 		.4byte	.LASF21
 2540 011b 01       		.byte	0x1
 2541 011c 1A       		.byte	0x1a
 2542 011d B7000000 		.4byte	0xb7
 2543 0121 04       		.byte	0x4
 2544 0122 09       		.uleb128 0x9
 2545 0123 D3000000 		.4byte	.LASF22
 2546 0127 01       		.byte	0x1
 2547 0128 1B       		.byte	0x1b
 2548 0129 6B000000 		.4byte	0x6b
 2549 012d 08       		.byte	0x8
 2550 012e 00       		.byte	0
 2551 012f 0B       		.uleb128 0xb
 2552 0130 52544300 		.ascii	"RTC\000"
 2553 0134 10       		.byte	0x10
 2554 0135 01       		.byte	0x1
 2555 0136 1D       		.byte	0x1d
 2556 0137 FC010000 		.4byte	0x1fc
 2557 013b 09       		.uleb128 0x9
 2558 013c 57000000 		.4byte	.LASF23
 2559 0140 01       		.byte	0x1
 2560 0141 1E       		.byte	0x1e
 2561 0142 6B000000 		.4byte	0x6b
 2562 0146 00       		.byte	0
 2563 0147 09       		.uleb128 0x9
 2564 0148 F7030000 		.4byte	.LASF24
 2565 014c 01       		.byte	0x1
 2566 014d 1F       		.byte	0x1f
 2567 014e 6B000000 		.4byte	0x6b
 2568 0152 01       		.byte	0x1
 2569 0153 09       		.uleb128 0x9
 2570 0154 67040000 		.4byte	.LASF25
 2571 0158 01       		.byte	0x1
 2572 0159 20       		.byte	0x20
 2573 015a 6B000000 		.4byte	0x6b
 2574 015e 02       		.byte	0x2
 2575 015f 09       		.uleb128 0x9
 2576 0160 D8000000 		.4byte	.LASF26
 2577 0164 01       		.byte	0x1
 2578 0165 21       		.byte	0x21
 2579 0166 6B000000 		.4byte	0x6b
 2580 016a 03       		.byte	0x3
 2581 016b 09       		.uleb128 0x9
 2582 016c 00000000 		.4byte	.LASF27
 2583 0170 01       		.byte	0x1
 2584 0171 22       		.byte	0x22
 2585 0172 6B000000 		.4byte	0x6b
 2586 0176 04       		.byte	0x4
 2587 0177 09       		.uleb128 0x9
 2588 0178 C5040000 		.4byte	.LASF28
 2589 017c 01       		.byte	0x1
 2590 017d 23       		.byte	0x23
 2591 017e 6B000000 		.4byte	0x6b
 2592 0182 05       		.byte	0x5
 2593 0183 09       		.uleb128 0x9
 2594 0184 A6000000 		.4byte	.LASF29
ARM GAS  C:\Users\HELLOK~1.1\AppData\Local\Temp\cciBhXYB.s 			page 59


 2595 0188 01       		.byte	0x1
 2596 0189 24       		.byte	0x24
 2597 018a 6B000000 		.4byte	0x6b
 2598 018e 06       		.byte	0x6
 2599 018f 09       		.uleb128 0x9
 2600 0190 58040000 		.4byte	.LASF30
 2601 0194 01       		.byte	0x1
 2602 0195 25       		.byte	0x25
 2603 0196 6B000000 		.4byte	0x6b
 2604 019a 07       		.byte	0x7
 2605 019b 09       		.uleb128 0x9
 2606 019c 3F000000 		.4byte	.LASF31
 2607 01a0 01       		.byte	0x1
 2608 01a1 26       		.byte	0x26
 2609 01a2 6B000000 		.4byte	0x6b
 2610 01a6 08       		.byte	0x8
 2611 01a7 09       		.uleb128 0x9
 2612 01a8 5E030000 		.4byte	.LASF32
 2613 01ac 01       		.byte	0x1
 2614 01ad 27       		.byte	0x27
 2615 01ae 6B000000 		.4byte	0x6b
 2616 01b2 09       		.byte	0x9
 2617 01b3 09       		.uleb128 0x9
 2618 01b4 9A040000 		.4byte	.LASF33
 2619 01b8 01       		.byte	0x1
 2620 01b9 28       		.byte	0x28
 2621 01ba 6B000000 		.4byte	0x6b
 2622 01be 0A       		.byte	0xa
 2623 01bf 09       		.uleb128 0x9
 2624 01c0 A4010000 		.4byte	.LASF34
 2625 01c4 01       		.byte	0x1
 2626 01c5 29       		.byte	0x29
 2627 01c6 6B000000 		.4byte	0x6b
 2628 01ca 0B       		.byte	0xb
 2629 01cb 09       		.uleb128 0x9
 2630 01cc 06000000 		.4byte	.LASF35
 2631 01d0 01       		.byte	0x1
 2632 01d1 2A       		.byte	0x2a
 2633 01d2 6B000000 		.4byte	0x6b
 2634 01d6 0C       		.byte	0xc
 2635 01d7 09       		.uleb128 0x9
 2636 01d8 D8040000 		.4byte	.LASF36
 2637 01dc 01       		.byte	0x1
 2638 01dd 2B       		.byte	0x2b
 2639 01de 6B000000 		.4byte	0x6b
 2640 01e2 0D       		.byte	0xd
 2641 01e3 09       		.uleb128 0x9
 2642 01e4 E6000000 		.4byte	.LASF37
 2643 01e8 01       		.byte	0x1
 2644 01e9 2C       		.byte	0x2c
 2645 01ea 6B000000 		.4byte	0x6b
 2646 01ee 0E       		.byte	0xe
 2647 01ef 09       		.uleb128 0x9
 2648 01f0 35030000 		.4byte	.LASF38
 2649 01f4 01       		.byte	0x1
 2650 01f5 2D       		.byte	0x2d
 2651 01f6 6B000000 		.4byte	0x6b
ARM GAS  C:\Users\HELLOK~1.1\AppData\Local\Temp\cciBhXYB.s 			page 60


 2652 01fa 0F       		.byte	0xf
 2653 01fb 00       		.byte	0
 2654 01fc 0C       		.uleb128 0xc
 2655 01fd AB030000 		.4byte	.LASF39
 2656 0201 01       		.byte	0x1
 2657 0202 74       		.byte	0x74
 2658 0203 6B000000 		.4byte	0x6b
 2659 0207 00000000 		.4byte	.LFB35
 2660 020b 12000000 		.4byte	.LFE35-.LFB35
 2661 020f 01       		.uleb128 0x1
 2662 0210 9C       		.byte	0x9c
 2663 0211 25020000 		.4byte	0x225
 2664 0215 0D       		.uleb128 0xd
 2665 0216 E0000000 		.4byte	.LASF41
 2666 021a 01       		.byte	0x1
 2667 021b 74       		.byte	0x74
 2668 021c 6B000000 		.4byte	0x6b
 2669 0220 00000000 		.4byte	.LLST0
 2670 0224 00       		.byte	0
 2671 0225 0E       		.uleb128 0xe
 2672 0226 8F030000 		.4byte	.LASF40
 2673 022a 01       		.byte	0x1
 2674 022b 79       		.byte	0x79
 2675 022c 6B000000 		.4byte	0x6b
 2676 0230 00000000 		.4byte	.LFB36
 2677 0234 1A000000 		.4byte	.LFE36-.LFB36
 2678 0238 01       		.uleb128 0x1
 2679 0239 9C       		.byte	0x9c
 2680 023a 4E020000 		.4byte	0x24e
 2681 023e 0D       		.uleb128 0xd
 2682 023f E0000000 		.4byte	.LASF41
 2683 0243 01       		.byte	0x1
 2684 0244 79       		.byte	0x79
 2685 0245 6B000000 		.4byte	0x6b
 2686 0249 21000000 		.4byte	.LLST1
 2687 024d 00       		.byte	0
 2688 024e 0F       		.uleb128 0xf
 2689 024f 7E040000 		.4byte	.LASF46
 2690 0253 01       		.byte	0x1
 2691 0254 7C       		.byte	0x7c
 2692 0255 00000000 		.4byte	.LFB37
 2693 0259 40000000 		.4byte	.LFE37-.LFB37
 2694 025d 01       		.uleb128 0x1
 2695 025e 9C       		.byte	0x9c
 2696 025f 1B030000 		.4byte	0x31b
 2697 0263 0D       		.uleb128 0xd
 2698 0264 4F000000 		.4byte	.LASF42
 2699 0268 01       		.byte	0x1
 2700 0269 7C       		.byte	0x7c
 2701 026a C8000000 		.4byte	0xc8
 2702 026e 42000000 		.4byte	.LLST2
 2703 0272 0D       		.uleb128 0xd
 2704 0273 C7010000 		.4byte	.LASF43
 2705 0277 01       		.byte	0x1
 2706 0278 7C       		.byte	0x7c
 2707 0279 5D000000 		.4byte	0x5d
 2708 027d 6E000000 		.4byte	.LLST3
ARM GAS  C:\Users\HELLOK~1.1\AppData\Local\Temp\cciBhXYB.s 			page 61


 2709 0281 0D       		.uleb128 0xd
 2710 0282 E6040000 		.4byte	.LASF44
 2711 0286 01       		.byte	0x1
 2712 0287 7C       		.byte	0x7c
 2713 0288 83000000 		.4byte	0x83
 2714 028c 9A000000 		.4byte	.LLST4
 2715 0290 0D       		.uleb128 0xd
 2716 0291 B4030000 		.4byte	.LASF45
 2717 0295 01       		.byte	0x1
 2718 0296 7C       		.byte	0x7c
 2719 0297 83000000 		.4byte	0x83
 2720 029b C6000000 		.4byte	.LLST5
 2721 029f 10       		.uleb128 0x10
 2722 02a0 B3040000 		.4byte	.LASF50
 2723 02a4 01       		.byte	0x1
 2724 02a5 7E       		.byte	0x7e
 2725 02a6 1B030000 		.4byte	0x31b
 2726 02aa 02       		.uleb128 0x2
 2727 02ab 91       		.byte	0x91
 2728 02ac 6C       		.sleb128 -20
 2729 02ad 11       		.uleb128 0x11
 2730 02ae 18000000 		.4byte	.LVL10
 2731 02b2 47170000 		.4byte	0x1747
 2732 02b6 D1020000 		.4byte	0x2d1
 2733 02ba 12       		.uleb128 0x12
 2734 02bb 01       		.uleb128 0x1
 2735 02bc 50       		.byte	0x50
 2736 02bd 02       		.uleb128 0x2
 2737 02be 74       		.byte	0x74
 2738 02bf 00       		.sleb128 0
 2739 02c0 12       		.uleb128 0x12
 2740 02c1 01       		.uleb128 0x1
 2741 02c2 51       		.byte	0x51
 2742 02c3 02       		.uleb128 0x2
 2743 02c4 91       		.byte	0x91
 2744 02c5 6C       		.sleb128 -20
 2745 02c6 12       		.uleb128 0x12
 2746 02c7 01       		.uleb128 0x1
 2747 02c8 52       		.byte	0x52
 2748 02c9 01       		.uleb128 0x1
 2749 02ca 31       		.byte	0x31
 2750 02cb 12       		.uleb128 0x12
 2751 02cc 01       		.uleb128 0x1
 2752 02cd 53       		.byte	0x53
 2753 02ce 01       		.uleb128 0x1
 2754 02cf 32       		.byte	0x32
 2755 02d0 00       		.byte	0
 2756 02d1 13       		.uleb128 0x13
 2757 02d2 1C000000 		.4byte	.LVL11
 2758 02d6 53170000 		.4byte	0x1753
 2759 02da 13       		.uleb128 0x13
 2760 02db 24000000 		.4byte	.LVL12
 2761 02df 5F170000 		.4byte	0x175f
 2762 02e3 11       		.uleb128 0x11
 2763 02e4 30000000 		.4byte	.LVL13
 2764 02e8 6B170000 		.4byte	0x176b
 2765 02ec 08030000 		.4byte	0x308
ARM GAS  C:\Users\HELLOK~1.1\AppData\Local\Temp\cciBhXYB.s 			page 62


 2766 02f0 12       		.uleb128 0x12
 2767 02f1 01       		.uleb128 0x1
 2768 02f2 50       		.byte	0x50
 2769 02f3 02       		.uleb128 0x2
 2770 02f4 74       		.byte	0x74
 2771 02f5 00       		.sleb128 0
 2772 02f6 12       		.uleb128 0x12
 2773 02f7 01       		.uleb128 0x1
 2774 02f8 51       		.byte	0x51
 2775 02f9 02       		.uleb128 0x2
 2776 02fa 75       		.byte	0x75
 2777 02fb 00       		.sleb128 0
 2778 02fc 12       		.uleb128 0x12
 2779 02fd 01       		.uleb128 0x1
 2780 02fe 52       		.byte	0x52
 2781 02ff 02       		.uleb128 0x2
 2782 0300 76       		.byte	0x76
 2783 0301 00       		.sleb128 0
 2784 0302 12       		.uleb128 0x12
 2785 0303 01       		.uleb128 0x1
 2786 0304 53       		.byte	0x53
 2787 0305 01       		.uleb128 0x1
 2788 0306 31       		.byte	0x31
 2789 0307 00       		.byte	0
 2790 0308 13       		.uleb128 0x13
 2791 0309 34000000 		.4byte	.LVL14
 2792 030d 53170000 		.4byte	0x1753
 2793 0311 13       		.uleb128 0x13
 2794 0312 3C000000 		.4byte	.LVL15
 2795 0316 5F170000 		.4byte	0x175f
 2796 031a 00       		.byte	0
 2797 031b 14       		.uleb128 0x14
 2798 031c 6B000000 		.4byte	0x6b
 2799 0320 2B030000 		.4byte	0x32b
 2800 0324 15       		.uleb128 0x15
 2801 0325 B0000000 		.4byte	0xb0
 2802 0329 00       		.byte	0
 2803 032a 00       		.byte	0
 2804 032b 0F       		.uleb128 0xf
 2805 032c 83030000 		.4byte	.LASF47
 2806 0330 01       		.byte	0x1
 2807 0331 91       		.byte	0x91
 2808 0332 00000000 		.4byte	.LFB38
 2809 0336 20000000 		.4byte	.LFE38-.LFB38
 2810 033a 01       		.uleb128 0x1
 2811 033b 9C       		.byte	0x9c
 2812 033c B6030000 		.4byte	0x3b6
 2813 0340 0D       		.uleb128 0xd
 2814 0341 F9010000 		.4byte	.LASF48
 2815 0345 01       		.byte	0x1
 2816 0346 91       		.byte	0x91
 2817 0347 C8000000 		.4byte	0xc8
 2818 034b E7000000 		.4byte	.LLST6
 2819 034f 0D       		.uleb128 0xd
 2820 0350 70020000 		.4byte	.LASF49
 2821 0354 01       		.byte	0x1
 2822 0355 91       		.byte	0x91
ARM GAS  C:\Users\HELLOK~1.1\AppData\Local\Temp\cciBhXYB.s 			page 63


 2823 0356 5D000000 		.4byte	0x5d
 2824 035a 13010000 		.4byte	.LLST7
 2825 035e 0D       		.uleb128 0xd
 2826 035f E6040000 		.4byte	.LASF44
 2827 0363 01       		.byte	0x1
 2828 0364 91       		.byte	0x91
 2829 0365 83000000 		.4byte	0x83
 2830 0369 3F010000 		.4byte	.LLST8
 2831 036d 0D       		.uleb128 0xd
 2832 036e B4030000 		.4byte	.LASF45
 2833 0372 01       		.byte	0x1
 2834 0373 91       		.byte	0x91
 2835 0374 83000000 		.4byte	0x83
 2836 0378 6B010000 		.4byte	.LLST9
 2837 037c 11       		.uleb128 0x11
 2838 037d 12000000 		.4byte	.LVL24
 2839 0381 47170000 		.4byte	0x1747
 2840 0385 A3030000 		.4byte	0x3a3
 2841 0389 12       		.uleb128 0x12
 2842 038a 01       		.uleb128 0x1
 2843 038b 50       		.byte	0x50
 2844 038c 02       		.uleb128 0x2
 2845 038d 74       		.byte	0x74
 2846 038e 00       		.sleb128 0
 2847 038f 12       		.uleb128 0x12
 2848 0390 01       		.uleb128 0x1
 2849 0391 51       		.byte	0x51
 2850 0392 03       		.uleb128 0x3
 2851 0393 F3       		.byte	0xf3
 2852 0394 01       		.uleb128 0x1
 2853 0395 50       		.byte	0x50
 2854 0396 12       		.uleb128 0x12
 2855 0397 01       		.uleb128 0x1
 2856 0398 52       		.byte	0x52
 2857 0399 03       		.uleb128 0x3
 2858 039a F3       		.byte	0xf3
 2859 039b 01       		.uleb128 0x1
 2860 039c 51       		.byte	0x51
 2861 039d 12       		.uleb128 0x12
 2862 039e 01       		.uleb128 0x1
 2863 039f 53       		.byte	0x53
 2864 03a0 01       		.uleb128 0x1
 2865 03a1 30       		.byte	0x30
 2866 03a2 00       		.byte	0
 2867 03a3 13       		.uleb128 0x13
 2868 03a4 16000000 		.4byte	.LVL25
 2869 03a8 53170000 		.4byte	0x1753
 2870 03ac 13       		.uleb128 0x13
 2871 03ad 1E000000 		.4byte	.LVL26
 2872 03b1 5F170000 		.4byte	0x175f
 2873 03b5 00       		.byte	0
 2874 03b6 16       		.uleb128 0x16
 2875 03b7 BC030000 		.4byte	.LASF59
 2876 03bb 01       		.byte	0x1
 2877 03bc 9B       		.byte	0x9b
 2878 03bd 00000000 		.4byte	.LFB39
 2879 03c1 80000000 		.4byte	.LFE39-.LFB39
ARM GAS  C:\Users\HELLOK~1.1\AppData\Local\Temp\cciBhXYB.s 			page 64


 2880 03c5 01       		.uleb128 0x1
 2881 03c6 9C       		.byte	0x9c
 2882 03c7 AF040000 		.4byte	0x4af
 2883 03cb 10       		.uleb128 0x10
 2884 03cc B3040000 		.4byte	.LASF50
 2885 03d0 01       		.byte	0x1
 2886 03d1 9C       		.byte	0x9c
 2887 03d2 AF040000 		.4byte	0x4af
 2888 03d6 02       		.uleb128 0x2
 2889 03d7 91       		.byte	0x91
 2890 03d8 6C       		.sleb128 -20
 2891 03d9 11       		.uleb128 0x11
 2892 03da 18000000 		.4byte	.LVL28
 2893 03de 2B030000 		.4byte	0x32b
 2894 03e2 F8030000 		.4byte	0x3f8
 2895 03e6 12       		.uleb128 0x12
 2896 03e7 01       		.uleb128 0x1
 2897 03e8 50       		.byte	0x50
 2898 03e9 02       		.uleb128 0x2
 2899 03ea 74       		.byte	0x74
 2900 03eb 00       		.sleb128 0
 2901 03ec 12       		.uleb128 0x12
 2902 03ed 01       		.uleb128 0x1
 2903 03ee 51       		.byte	0x51
 2904 03ef 01       		.uleb128 0x1
 2905 03f0 32       		.byte	0x32
 2906 03f1 12       		.uleb128 0x12
 2907 03f2 01       		.uleb128 0x1
 2908 03f3 52       		.byte	0x52
 2909 03f4 02       		.uleb128 0x2
 2910 03f5 08       		.byte	0x8
 2911 03f6 51       		.byte	0x51
 2912 03f7 00       		.byte	0
 2913 03f8 11       		.uleb128 0x11
 2914 03f9 28000000 		.4byte	.LVL29
 2915 03fd 2B030000 		.4byte	0x32b
 2916 0401 17040000 		.4byte	0x417
 2917 0405 12       		.uleb128 0x12
 2918 0406 01       		.uleb128 0x1
 2919 0407 50       		.byte	0x50
 2920 0408 02       		.uleb128 0x2
 2921 0409 74       		.byte	0x74
 2922 040a 00       		.sleb128 0
 2923 040b 12       		.uleb128 0x12
 2924 040c 01       		.uleb128 0x1
 2925 040d 51       		.byte	0x51
 2926 040e 01       		.uleb128 0x1
 2927 040f 32       		.byte	0x32
 2928 0410 12       		.uleb128 0x12
 2929 0411 01       		.uleb128 0x1
 2930 0412 52       		.byte	0x52
 2931 0413 02       		.uleb128 0x2
 2932 0414 08       		.byte	0x8
 2933 0415 51       		.byte	0x51
 2934 0416 00       		.byte	0
 2935 0417 11       		.uleb128 0x11
 2936 0418 38000000 		.4byte	.LVL30
ARM GAS  C:\Users\HELLOK~1.1\AppData\Local\Temp\cciBhXYB.s 			page 65


 2937 041c 2B030000 		.4byte	0x32b
 2938 0420 36040000 		.4byte	0x436
 2939 0424 12       		.uleb128 0x12
 2940 0425 01       		.uleb128 0x1
 2941 0426 50       		.byte	0x50
 2942 0427 02       		.uleb128 0x2
 2943 0428 74       		.byte	0x74
 2944 0429 00       		.sleb128 0
 2945 042a 12       		.uleb128 0x12
 2946 042b 01       		.uleb128 0x1
 2947 042c 51       		.byte	0x51
 2948 042d 01       		.uleb128 0x1
 2949 042e 32       		.byte	0x32
 2950 042f 12       		.uleb128 0x12
 2951 0430 01       		.uleb128 0x1
 2952 0431 52       		.byte	0x52
 2953 0432 02       		.uleb128 0x2
 2954 0433 08       		.byte	0x8
 2955 0434 51       		.byte	0x51
 2956 0435 00       		.byte	0
 2957 0436 11       		.uleb128 0x11
 2958 0437 48000000 		.4byte	.LVL31
 2959 043b 2B030000 		.4byte	0x32b
 2960 043f 55040000 		.4byte	0x455
 2961 0443 12       		.uleb128 0x12
 2962 0444 01       		.uleb128 0x1
 2963 0445 50       		.byte	0x50
 2964 0446 02       		.uleb128 0x2
 2965 0447 74       		.byte	0x74
 2966 0448 00       		.sleb128 0
 2967 0449 12       		.uleb128 0x12
 2968 044a 01       		.uleb128 0x1
 2969 044b 51       		.byte	0x51
 2970 044c 01       		.uleb128 0x1
 2971 044d 32       		.byte	0x32
 2972 044e 12       		.uleb128 0x12
 2973 044f 01       		.uleb128 0x1
 2974 0450 52       		.byte	0x52
 2975 0451 02       		.uleb128 0x2
 2976 0452 08       		.byte	0x8
 2977 0453 51       		.byte	0x51
 2978 0454 00       		.byte	0
 2979 0455 11       		.uleb128 0x11
 2980 0456 58000000 		.4byte	.LVL32
 2981 045a 2B030000 		.4byte	0x32b
 2982 045e 74040000 		.4byte	0x474
 2983 0462 12       		.uleb128 0x12
 2984 0463 01       		.uleb128 0x1
 2985 0464 50       		.byte	0x50
 2986 0465 02       		.uleb128 0x2
 2987 0466 74       		.byte	0x74
 2988 0467 00       		.sleb128 0
 2989 0468 12       		.uleb128 0x12
 2990 0469 01       		.uleb128 0x1
 2991 046a 51       		.byte	0x51
 2992 046b 01       		.uleb128 0x1
 2993 046c 32       		.byte	0x32
ARM GAS  C:\Users\HELLOK~1.1\AppData\Local\Temp\cciBhXYB.s 			page 66


 2994 046d 12       		.uleb128 0x12
 2995 046e 01       		.uleb128 0x1
 2996 046f 52       		.byte	0x52
 2997 0470 02       		.uleb128 0x2
 2998 0471 08       		.byte	0x8
 2999 0472 51       		.byte	0x51
 3000 0473 00       		.byte	0
 3001 0474 11       		.uleb128 0x11
 3002 0475 68000000 		.4byte	.LVL33
 3003 0479 2B030000 		.4byte	0x32b
 3004 047d 93040000 		.4byte	0x493
 3005 0481 12       		.uleb128 0x12
 3006 0482 01       		.uleb128 0x1
 3007 0483 50       		.byte	0x50
 3008 0484 02       		.uleb128 0x2
 3009 0485 74       		.byte	0x74
 3010 0486 00       		.sleb128 0
 3011 0487 12       		.uleb128 0x12
 3012 0488 01       		.uleb128 0x1
 3013 0489 51       		.byte	0x51
 3014 048a 01       		.uleb128 0x1
 3015 048b 32       		.byte	0x32
 3016 048c 12       		.uleb128 0x12
 3017 048d 01       		.uleb128 0x1
 3018 048e 52       		.byte	0x52
 3019 048f 02       		.uleb128 0x2
 3020 0490 08       		.byte	0x8
 3021 0491 51       		.byte	0x51
 3022 0492 00       		.byte	0
 3023 0493 17       		.uleb128 0x17
 3024 0494 78000000 		.4byte	.LVL34
 3025 0498 2B030000 		.4byte	0x32b
 3026 049c 12       		.uleb128 0x12
 3027 049d 01       		.uleb128 0x1
 3028 049e 50       		.byte	0x50
 3029 049f 02       		.uleb128 0x2
 3030 04a0 74       		.byte	0x74
 3031 04a1 00       		.sleb128 0
 3032 04a2 12       		.uleb128 0x12
 3033 04a3 01       		.uleb128 0x1
 3034 04a4 51       		.byte	0x51
 3035 04a5 01       		.uleb128 0x1
 3036 04a6 32       		.byte	0x32
 3037 04a7 12       		.uleb128 0x12
 3038 04a8 01       		.uleb128 0x1
 3039 04a9 52       		.byte	0x52
 3040 04aa 02       		.uleb128 0x2
 3041 04ab 08       		.byte	0x8
 3042 04ac 51       		.byte	0x51
 3043 04ad 00       		.byte	0
 3044 04ae 00       		.byte	0
 3045 04af 14       		.uleb128 0x14
 3046 04b0 6B000000 		.4byte	0x6b
 3047 04b4 BF040000 		.4byte	0x4bf
 3048 04b8 15       		.uleb128 0x15
 3049 04b9 B0000000 		.4byte	0xb0
 3050 04bd 01       		.byte	0x1
ARM GAS  C:\Users\HELLOK~1.1\AppData\Local\Temp\cciBhXYB.s 			page 67


 3051 04be 00       		.byte	0
 3052 04bf 0F       		.uleb128 0xf
 3053 04c0 9E000000 		.4byte	.LASF51
 3054 04c4 01       		.byte	0x1
 3055 04c5 AD       		.byte	0xad
 3056 04c6 00000000 		.4byte	.LFB40
 3057 04ca B4000000 		.4byte	.LFE40-.LFB40
 3058 04ce 01       		.uleb128 0x1
 3059 04cf 9C       		.byte	0x9c
 3060 04d0 63060000 		.4byte	0x663
 3061 04d4 18       		.uleb128 0x18
 3062 04d5 1E030000 		.4byte	.LASF52
 3063 04d9 01       		.byte	0x1
 3064 04da AD       		.byte	0xad
 3065 04db CE000000 		.4byte	0xce
 3066 04df 02       		.uleb128 0x2
 3067 04e0 91       		.byte	0x91
 3068 04e1 48       		.sleb128 -56
 3069 04e2 18       		.uleb128 0x18
 3070 04e3 6E040000 		.4byte	.LASF53
 3071 04e7 01       		.byte	0x1
 3072 04e8 AD       		.byte	0xad
 3073 04e9 CE000000 		.4byte	0xce
 3074 04ed 02       		.uleb128 0x2
 3075 04ee 91       		.byte	0x91
 3076 04ef 40       		.sleb128 -64
 3077 04f0 18       		.uleb128 0x18
 3078 04f1 95000000 		.4byte	.LASF54
 3079 04f5 01       		.byte	0x1
 3080 04f6 AD       		.byte	0xad
 3081 04f7 FE000000 		.4byte	0xfe
 3082 04fb 02       		.uleb128 0x2
 3083 04fc 91       		.byte	0x91
 3084 04fd 00       		.sleb128 0
 3085 04fe 18       		.uleb128 0x18
 3086 04ff 4B020000 		.4byte	.LASF55
 3087 0503 01       		.byte	0x1
 3088 0504 AD       		.byte	0xad
 3089 0505 FE000000 		.4byte	0xfe
 3090 0509 02       		.uleb128 0x2
 3091 050a 91       		.byte	0x91
 3092 050b 0C       		.sleb128 12
 3093 050c 10       		.uleb128 0x10
 3094 050d 22000000 		.4byte	.LASF56
 3095 0511 01       		.byte	0x1
 3096 0512 B0       		.byte	0xb0
 3097 0513 63060000 		.4byte	0x663
 3098 0517 02       		.uleb128 0x2
 3099 0518 91       		.byte	0x91
 3100 0519 50       		.sleb128 -48
 3101 051a 11       		.uleb128 0x11
 3102 051b 1C000000 		.4byte	.LVL35
 3103 051f 77170000 		.4byte	0x1777
 3104 0523 32050000 		.4byte	0x532
 3105 0527 12       		.uleb128 0x12
 3106 0528 01       		.uleb128 0x1
 3107 0529 50       		.byte	0x50
ARM GAS  C:\Users\HELLOK~1.1\AppData\Local\Temp\cciBhXYB.s 			page 68


 3108 052a 01       		.uleb128 0x1
 3109 052b 30       		.byte	0x30
 3110 052c 12       		.uleb128 0x12
 3111 052d 01       		.uleb128 0x1
 3112 052e 51       		.byte	0x51
 3113 052f 01       		.uleb128 0x1
 3114 0530 30       		.byte	0x30
 3115 0531 00       		.byte	0
 3116 0532 11       		.uleb128 0x11
 3117 0533 44000000 		.4byte	.LVL36
 3118 0537 82170000 		.4byte	0x1782
 3119 053b 78050000 		.4byte	0x578
 3120 053f 12       		.uleb128 0x12
 3121 0540 01       		.uleb128 0x1
 3122 0541 50       		.byte	0x50
 3123 0542 02       		.uleb128 0x2
 3124 0543 74       		.byte	0x74
 3125 0544 00       		.sleb128 0
 3126 0545 12       		.uleb128 0x12
 3127 0546 01       		.uleb128 0x1
 3128 0547 51       		.byte	0x51
 3129 0548 01       		.uleb128 0x1
 3130 0549 45       		.byte	0x45
 3131 054a 12       		.uleb128 0x12
 3132 054b 01       		.uleb128 0x1
 3133 054c 52       		.byte	0x52
 3134 054d 02       		.uleb128 0x2
 3135 054e 77       		.byte	0x77
 3136 054f 00       		.sleb128 0
 3137 0550 12       		.uleb128 0x12
 3138 0551 01       		.uleb128 0x1
 3139 0552 53       		.byte	0x53
 3140 0553 07       		.uleb128 0x7
 3141 0554 76       		.byte	0x76
 3142 0555 00       		.sleb128 0
 3143 0556 94       		.byte	0x94
 3144 0557 01       		.byte	0x1
 3145 0558 08       		.byte	0x8
 3146 0559 FF       		.byte	0xff
 3147 055a 1A       		.byte	0x1a
 3148 055b 12       		.uleb128 0x12
 3149 055c 02       		.uleb128 0x2
 3150 055d 7D       		.byte	0x7d
 3151 055e 04       		.sleb128 4
 3152 055f 03       		.uleb128 0x3
 3153 0560 76       		.byte	0x76
 3154 0561 04       		.sleb128 4
 3155 0562 06       		.byte	0x6
 3156 0563 12       		.uleb128 0x12
 3157 0564 02       		.uleb128 0x2
 3158 0565 7D       		.byte	0x7d
 3159 0566 08       		.sleb128 8
 3160 0567 03       		.uleb128 0x3
 3161 0568 91       		.byte	0x91
 3162 0569 04       		.sleb128 4
 3163 056a 06       		.byte	0x6
 3164 056b 12       		.uleb128 0x12
ARM GAS  C:\Users\HELLOK~1.1\AppData\Local\Temp\cciBhXYB.s 			page 69


 3165 056c 02       		.uleb128 0x2
 3166 056d 7D       		.byte	0x7d
 3167 056e 0C       		.sleb128 12
 3168 056f 07       		.uleb128 0x7
 3169 0570 91       		.byte	0x91
 3170 0571 00       		.sleb128 0
 3171 0572 94       		.byte	0x94
 3172 0573 01       		.byte	0x1
 3173 0574 08       		.byte	0x8
 3174 0575 FF       		.byte	0xff
 3175 0576 1A       		.byte	0x1a
 3176 0577 00       		.byte	0
 3177 0578 11       		.uleb128 0x11
 3178 0579 4E000000 		.4byte	.LVL37
 3179 057d 8D170000 		.4byte	0x178d
 3180 0581 8C050000 		.4byte	0x58c
 3181 0585 12       		.uleb128 0x12
 3182 0586 01       		.uleb128 0x1
 3183 0587 50       		.byte	0x50
 3184 0588 02       		.uleb128 0x2
 3185 0589 74       		.byte	0x74
 3186 058a 00       		.sleb128 0
 3187 058b 00       		.byte	0
 3188 058c 11       		.uleb128 0x11
 3189 058d 56000000 		.4byte	.LVL38
 3190 0591 77170000 		.4byte	0x1777
 3191 0595 A5050000 		.4byte	0x5a5
 3192 0599 12       		.uleb128 0x12
 3193 059a 01       		.uleb128 0x1
 3194 059b 50       		.byte	0x50
 3195 059c 02       		.uleb128 0x2
 3196 059d 76       		.byte	0x76
 3197 059e 00       		.sleb128 0
 3198 059f 12       		.uleb128 0x12
 3199 05a0 01       		.uleb128 0x1
 3200 05a1 51       		.byte	0x51
 3201 05a2 01       		.uleb128 0x1
 3202 05a3 31       		.byte	0x31
 3203 05a4 00       		.byte	0
 3204 05a5 11       		.uleb128 0x11
 3205 05a6 5C000000 		.4byte	.LVL39
 3206 05aa 8D170000 		.4byte	0x178d
 3207 05ae BC050000 		.4byte	0x5bc
 3208 05b2 12       		.uleb128 0x12
 3209 05b3 01       		.uleb128 0x1
 3210 05b4 50       		.byte	0x50
 3211 05b5 05       		.uleb128 0x5
 3212 05b6 03       		.byte	0x3
 3213 05b7 18000000 		.4byte	.LC11
 3214 05bb 00       		.byte	0
 3215 05bc 11       		.uleb128 0x11
 3216 05bd 64000000 		.4byte	.LVL40
 3217 05c1 77170000 		.4byte	0x1777
 3218 05c5 D5050000 		.4byte	0x5d5
 3219 05c9 12       		.uleb128 0x12
 3220 05ca 01       		.uleb128 0x1
 3221 05cb 50       		.byte	0x50
ARM GAS  C:\Users\HELLOK~1.1\AppData\Local\Temp\cciBhXYB.s 			page 70


 3222 05cc 02       		.uleb128 0x2
 3223 05cd 76       		.byte	0x76
 3224 05ce 00       		.sleb128 0
 3225 05cf 12       		.uleb128 0x12
 3226 05d0 01       		.uleb128 0x1
 3227 05d1 51       		.byte	0x51
 3228 05d2 01       		.uleb128 0x1
 3229 05d3 32       		.byte	0x32
 3230 05d4 00       		.byte	0
 3231 05d5 11       		.uleb128 0x11
 3232 05d6 6A000000 		.4byte	.LVL41
 3233 05da 8D170000 		.4byte	0x178d
 3234 05de EC050000 		.4byte	0x5ec
 3235 05e2 12       		.uleb128 0x12
 3236 05e3 01       		.uleb128 0x1
 3237 05e4 50       		.byte	0x50
 3238 05e5 05       		.uleb128 0x5
 3239 05e6 03       		.byte	0x3
 3240 05e7 30000000 		.4byte	.LC13
 3241 05eb 00       		.byte	0
 3242 05ec 11       		.uleb128 0x11
 3243 05ed 72000000 		.4byte	.LVL42
 3244 05f1 77170000 		.4byte	0x1777
 3245 05f5 05060000 		.4byte	0x605
 3246 05f9 12       		.uleb128 0x12
 3247 05fa 01       		.uleb128 0x1
 3248 05fb 50       		.byte	0x50
 3249 05fc 02       		.uleb128 0x2
 3250 05fd 76       		.byte	0x76
 3251 05fe 00       		.sleb128 0
 3252 05ff 12       		.uleb128 0x12
 3253 0600 01       		.uleb128 0x1
 3254 0601 51       		.byte	0x51
 3255 0602 01       		.uleb128 0x1
 3256 0603 33       		.byte	0x33
 3257 0604 00       		.byte	0
 3258 0605 11       		.uleb128 0x11
 3259 0606 98000000 		.4byte	.LVL43
 3260 060a 82170000 		.4byte	0x1782
 3261 060e 52060000 		.4byte	0x652
 3262 0612 12       		.uleb128 0x12
 3263 0613 01       		.uleb128 0x1
 3264 0614 50       		.byte	0x50
 3265 0615 02       		.uleb128 0x2
 3266 0616 74       		.byte	0x74
 3267 0617 00       		.sleb128 0
 3268 0618 12       		.uleb128 0x12
 3269 0619 01       		.uleb128 0x1
 3270 061a 51       		.byte	0x51
 3271 061b 01       		.uleb128 0x1
 3272 061c 45       		.byte	0x45
 3273 061d 12       		.uleb128 0x12
 3274 061e 01       		.uleb128 0x1
 3275 061f 52       		.byte	0x52
 3276 0620 02       		.uleb128 0x2
 3277 0621 77       		.byte	0x77
 3278 0622 00       		.sleb128 0
ARM GAS  C:\Users\HELLOK~1.1\AppData\Local\Temp\cciBhXYB.s 			page 71


 3279 0623 12       		.uleb128 0x12
 3280 0624 01       		.uleb128 0x1
 3281 0625 53       		.byte	0x53
 3282 0626 07       		.uleb128 0x7
 3283 0627 75       		.byte	0x75
 3284 0628 00       		.sleb128 0
 3285 0629 94       		.byte	0x94
 3286 062a 01       		.byte	0x1
 3287 062b 08       		.byte	0x8
 3288 062c FF       		.byte	0xff
 3289 062d 1A       		.byte	0x1a
 3290 062e 12       		.uleb128 0x12
 3291 062f 02       		.uleb128 0x2
 3292 0630 7D       		.byte	0x7d
 3293 0631 00       		.sleb128 0
 3294 0632 02       		.uleb128 0x2
 3295 0633 78       		.byte	0x78
 3296 0634 00       		.sleb128 0
 3297 0635 12       		.uleb128 0x12
 3298 0636 02       		.uleb128 0x2
 3299 0637 7D       		.byte	0x7d
 3300 0638 04       		.sleb128 4
 3301 0639 03       		.uleb128 0x3
 3302 063a 75       		.byte	0x75
 3303 063b 04       		.sleb128 4
 3304 063c 06       		.byte	0x6
 3305 063d 12       		.uleb128 0x12
 3306 063e 02       		.uleb128 0x2
 3307 063f 7D       		.byte	0x7d
 3308 0640 08       		.sleb128 8
 3309 0641 03       		.uleb128 0x3
 3310 0642 91       		.byte	0x91
 3311 0643 10       		.sleb128 16
 3312 0644 06       		.byte	0x6
 3313 0645 12       		.uleb128 0x12
 3314 0646 02       		.uleb128 0x2
 3315 0647 7D       		.byte	0x7d
 3316 0648 0C       		.sleb128 12
 3317 0649 07       		.uleb128 0x7
 3318 064a 91       		.byte	0x91
 3319 064b 0C       		.sleb128 12
 3320 064c 94       		.byte	0x94
 3321 064d 01       		.byte	0x1
 3322 064e 08       		.byte	0x8
 3323 064f FF       		.byte	0xff
 3324 0650 1A       		.byte	0x1a
 3325 0651 00       		.byte	0
 3326 0652 17       		.uleb128 0x17
 3327 0653 A0000000 		.4byte	.LVL44
 3328 0657 8D170000 		.4byte	0x178d
 3329 065b 12       		.uleb128 0x12
 3330 065c 01       		.uleb128 0x1
 3331 065d 50       		.byte	0x50
 3332 065e 02       		.uleb128 0x2
 3333 065f 74       		.byte	0x74
 3334 0660 00       		.sleb128 0
 3335 0661 00       		.byte	0
ARM GAS  C:\Users\HELLOK~1.1\AppData\Local\Temp\cciBhXYB.s 			page 72


 3336 0662 00       		.byte	0
 3337 0663 14       		.uleb128 0x14
 3338 0664 9D000000 		.4byte	0x9d
 3339 0668 73060000 		.4byte	0x673
 3340 066c 15       		.uleb128 0x15
 3341 066d B0000000 		.4byte	0xb0
 3342 0671 14       		.byte	0x14
 3343 0672 00       		.byte	0
 3344 0673 0F       		.uleb128 0xf
 3345 0674 21040000 		.4byte	.LASF57
 3346 0678 01       		.byte	0x1
 3347 0679 BE       		.byte	0xbe
 3348 067a 00000000 		.4byte	.LFB41
 3349 067e 68000000 		.4byte	.LFE41-.LFB41
 3350 0682 01       		.uleb128 0x1
 3351 0683 9C       		.byte	0x9c
 3352 0684 53070000 		.4byte	0x753
 3353 0688 18       		.uleb128 0x18
 3354 0689 6E040000 		.4byte	.LASF53
 3355 068d 01       		.byte	0x1
 3356 068e BE       		.byte	0xbe
 3357 068f CE000000 		.4byte	0xce
 3358 0693 02       		.uleb128 0x2
 3359 0694 91       		.byte	0x91
 3360 0695 48       		.sleb128 -56
 3361 0696 18       		.uleb128 0x18
 3362 0697 4B020000 		.4byte	.LASF55
 3363 069b 01       		.byte	0x1
 3364 069c BE       		.byte	0xbe
 3365 069d FE000000 		.4byte	0xfe
 3366 06a1 02       		.uleb128 0x2
 3367 06a2 91       		.byte	0x91
 3368 06a3 78       		.sleb128 -8
 3369 06a4 10       		.uleb128 0x10
 3370 06a5 22000000 		.4byte	.LASF56
 3371 06a9 01       		.byte	0x1
 3372 06aa BF       		.byte	0xbf
 3373 06ab 63060000 		.4byte	0x663
 3374 06af 02       		.uleb128 0x2
 3375 06b0 91       		.byte	0x91
 3376 06b1 50       		.sleb128 -48
 3377 06b2 11       		.uleb128 0x11
 3378 06b3 18000000 		.4byte	.LVL45
 3379 06b7 77170000 		.4byte	0x1777
 3380 06bb CA060000 		.4byte	0x6ca
 3381 06bf 12       		.uleb128 0x12
 3382 06c0 01       		.uleb128 0x1
 3383 06c1 50       		.byte	0x50
 3384 06c2 01       		.uleb128 0x1
 3385 06c3 30       		.byte	0x30
 3386 06c4 12       		.uleb128 0x12
 3387 06c5 01       		.uleb128 0x1
 3388 06c6 51       		.byte	0x51
 3389 06c7 01       		.uleb128 0x1
 3390 06c8 32       		.byte	0x32
 3391 06c9 00       		.byte	0
 3392 06ca 11       		.uleb128 0x11
ARM GAS  C:\Users\HELLOK~1.1\AppData\Local\Temp\cciBhXYB.s 			page 73


 3393 06cb 1E000000 		.4byte	.LVL46
 3394 06cf 8D170000 		.4byte	0x178d
 3395 06d3 E1060000 		.4byte	0x6e1
 3396 06d7 12       		.uleb128 0x12
 3397 06d8 01       		.uleb128 0x1
 3398 06d9 50       		.byte	0x50
 3399 06da 05       		.uleb128 0x5
 3400 06db 03       		.byte	0x3
 3401 06dc 30000000 		.4byte	.LC13
 3402 06e0 00       		.byte	0
 3403 06e1 11       		.uleb128 0x11
 3404 06e2 26000000 		.4byte	.LVL47
 3405 06e6 77170000 		.4byte	0x1777
 3406 06ea F9060000 		.4byte	0x6f9
 3407 06ee 12       		.uleb128 0x12
 3408 06ef 01       		.uleb128 0x1
 3409 06f0 50       		.byte	0x50
 3410 06f1 01       		.uleb128 0x1
 3411 06f2 30       		.byte	0x30
 3412 06f3 12       		.uleb128 0x12
 3413 06f4 01       		.uleb128 0x1
 3414 06f5 51       		.byte	0x51
 3415 06f6 01       		.uleb128 0x1
 3416 06f7 33       		.byte	0x33
 3417 06f8 00       		.byte	0
 3418 06f9 11       		.uleb128 0x11
 3419 06fa 4C000000 		.4byte	.LVL48
 3420 06fe 82170000 		.4byte	0x1782
 3421 0702 42070000 		.4byte	0x742
 3422 0706 12       		.uleb128 0x12
 3423 0707 01       		.uleb128 0x1
 3424 0708 50       		.byte	0x50
 3425 0709 02       		.uleb128 0x2
 3426 070a 75       		.byte	0x75
 3427 070b 00       		.sleb128 0
 3428 070c 12       		.uleb128 0x12
 3429 070d 01       		.uleb128 0x1
 3430 070e 51       		.byte	0x51
 3431 070f 01       		.uleb128 0x1
 3432 0710 45       		.byte	0x45
 3433 0711 12       		.uleb128 0x12
 3434 0712 01       		.uleb128 0x1
 3435 0713 52       		.byte	0x52
 3436 0714 05       		.uleb128 0x5
 3437 0715 03       		.byte	0x3
 3438 0716 00000000 		.4byte	.LC9
 3439 071a 12       		.uleb128 0x12
 3440 071b 01       		.uleb128 0x1
 3441 071c 53       		.byte	0x53
 3442 071d 07       		.uleb128 0x7
 3443 071e 74       		.byte	0x74
 3444 071f 00       		.sleb128 0
 3445 0720 94       		.byte	0x94
 3446 0721 01       		.byte	0x1
 3447 0722 08       		.byte	0x8
 3448 0723 FF       		.byte	0xff
 3449 0724 1A       		.byte	0x1a
ARM GAS  C:\Users\HELLOK~1.1\AppData\Local\Temp\cciBhXYB.s 			page 74


 3450 0725 12       		.uleb128 0x12
 3451 0726 02       		.uleb128 0x2
 3452 0727 7D       		.byte	0x7d
 3453 0728 04       		.sleb128 4
 3454 0729 03       		.uleb128 0x3
 3455 072a 74       		.byte	0x74
 3456 072b 04       		.sleb128 4
 3457 072c 06       		.byte	0x6
 3458 072d 12       		.uleb128 0x12
 3459 072e 02       		.uleb128 0x2
 3460 072f 7D       		.byte	0x7d
 3461 0730 08       		.sleb128 8
 3462 0731 03       		.uleb128 0x3
 3463 0732 91       		.byte	0x91
 3464 0733 6C       		.sleb128 -20
 3465 0734 06       		.byte	0x6
 3466 0735 12       		.uleb128 0x12
 3467 0736 02       		.uleb128 0x2
 3468 0737 7D       		.byte	0x7d
 3469 0738 0C       		.sleb128 12
 3470 0739 07       		.uleb128 0x7
 3471 073a 91       		.byte	0x91
 3472 073b 68       		.sleb128 -24
 3473 073c 94       		.byte	0x94
 3474 073d 01       		.byte	0x1
 3475 073e 08       		.byte	0x8
 3476 073f FF       		.byte	0xff
 3477 0740 1A       		.byte	0x1a
 3478 0741 00       		.byte	0
 3479 0742 17       		.uleb128 0x17
 3480 0743 56000000 		.4byte	.LVL49
 3481 0747 8D170000 		.4byte	0x178d
 3482 074b 12       		.uleb128 0x12
 3483 074c 01       		.uleb128 0x1
 3484 074d 50       		.byte	0x50
 3485 074e 02       		.uleb128 0x2
 3486 074f 75       		.byte	0x75
 3487 0750 00       		.sleb128 0
 3488 0751 00       		.byte	0
 3489 0752 00       		.byte	0
 3490 0753 0F       		.uleb128 0xf
 3491 0754 13000000 		.4byte	.LASF58
 3492 0758 01       		.byte	0x1
 3493 0759 C8       		.byte	0xc8
 3494 075a 00000000 		.4byte	.LFB42
 3495 075e 60000000 		.4byte	.LFE42-.LFB42
 3496 0762 01       		.uleb128 0x1
 3497 0763 9C       		.byte	0x9c
 3498 0764 1C080000 		.4byte	0x81c
 3499 0768 18       		.uleb128 0x18
 3500 0769 1E030000 		.4byte	.LASF52
 3501 076d 01       		.byte	0x1
 3502 076e C8       		.byte	0xc8
 3503 076f CE000000 		.4byte	0xce
 3504 0773 02       		.uleb128 0x2
 3505 0774 91       		.byte	0x91
 3506 0775 48       		.sleb128 -56
ARM GAS  C:\Users\HELLOK~1.1\AppData\Local\Temp\cciBhXYB.s 			page 75


 3507 0776 18       		.uleb128 0x18
 3508 0777 95000000 		.4byte	.LASF54
 3509 077b 01       		.byte	0x1
 3510 077c C8       		.byte	0xc8
 3511 077d FE000000 		.4byte	0xfe
 3512 0781 02       		.uleb128 0x2
 3513 0782 91       		.byte	0x91
 3514 0783 78       		.sleb128 -8
 3515 0784 10       		.uleb128 0x10
 3516 0785 22000000 		.4byte	.LASF56
 3517 0789 01       		.byte	0x1
 3518 078a CA       		.byte	0xca
 3519 078b 63060000 		.4byte	0x663
 3520 078f 02       		.uleb128 0x2
 3521 0790 91       		.byte	0x91
 3522 0791 50       		.sleb128 -48
 3523 0792 11       		.uleb128 0x11
 3524 0793 18000000 		.4byte	.LVL50
 3525 0797 77170000 		.4byte	0x1777
 3526 079b AA070000 		.4byte	0x7aa
 3527 079f 12       		.uleb128 0x12
 3528 07a0 01       		.uleb128 0x1
 3529 07a1 50       		.byte	0x50
 3530 07a2 01       		.uleb128 0x1
 3531 07a3 30       		.byte	0x30
 3532 07a4 12       		.uleb128 0x12
 3533 07a5 01       		.uleb128 0x1
 3534 07a6 51       		.byte	0x51
 3535 07a7 01       		.uleb128 0x1
 3536 07a8 30       		.byte	0x30
 3537 07a9 00       		.byte	0
 3538 07aa 11       		.uleb128 0x11
 3539 07ab 3E000000 		.4byte	.LVL51
 3540 07af 82170000 		.4byte	0x1782
 3541 07b3 F3070000 		.4byte	0x7f3
 3542 07b7 12       		.uleb128 0x12
 3543 07b8 01       		.uleb128 0x1
 3544 07b9 50       		.byte	0x50
 3545 07ba 02       		.uleb128 0x2
 3546 07bb 75       		.byte	0x75
 3547 07bc 00       		.sleb128 0
 3548 07bd 12       		.uleb128 0x12
 3549 07be 01       		.uleb128 0x1
 3550 07bf 51       		.byte	0x51
 3551 07c0 01       		.uleb128 0x1
 3552 07c1 45       		.byte	0x45
 3553 07c2 12       		.uleb128 0x12
 3554 07c3 01       		.uleb128 0x1
 3555 07c4 52       		.byte	0x52
 3556 07c5 05       		.uleb128 0x5
 3557 07c6 03       		.byte	0x3
 3558 07c7 00000000 		.4byte	.LC9
 3559 07cb 12       		.uleb128 0x12
 3560 07cc 01       		.uleb128 0x1
 3561 07cd 53       		.byte	0x53
 3562 07ce 07       		.uleb128 0x7
 3563 07cf 74       		.byte	0x74
ARM GAS  C:\Users\HELLOK~1.1\AppData\Local\Temp\cciBhXYB.s 			page 76


 3564 07d0 00       		.sleb128 0
 3565 07d1 94       		.byte	0x94
 3566 07d2 01       		.byte	0x1
 3567 07d3 08       		.byte	0x8
 3568 07d4 FF       		.byte	0xff
 3569 07d5 1A       		.byte	0x1a
 3570 07d6 12       		.uleb128 0x12
 3571 07d7 02       		.uleb128 0x2
 3572 07d8 7D       		.byte	0x7d
 3573 07d9 04       		.sleb128 4
 3574 07da 03       		.uleb128 0x3
 3575 07db 74       		.byte	0x74
 3576 07dc 04       		.sleb128 4
 3577 07dd 06       		.byte	0x6
 3578 07de 12       		.uleb128 0x12
 3579 07df 02       		.uleb128 0x2
 3580 07e0 7D       		.byte	0x7d
 3581 07e1 08       		.sleb128 8
 3582 07e2 03       		.uleb128 0x3
 3583 07e3 91       		.byte	0x91
 3584 07e4 6C       		.sleb128 -20
 3585 07e5 06       		.byte	0x6
 3586 07e6 12       		.uleb128 0x12
 3587 07e7 02       		.uleb128 0x2
 3588 07e8 7D       		.byte	0x7d
 3589 07e9 0C       		.sleb128 12
 3590 07ea 07       		.uleb128 0x7
 3591 07eb 91       		.byte	0x91
 3592 07ec 68       		.sleb128 -24
 3593 07ed 94       		.byte	0x94
 3594 07ee 01       		.byte	0x1
 3595 07ef 08       		.byte	0x8
 3596 07f0 FF       		.byte	0xff
 3597 07f1 1A       		.byte	0x1a
 3598 07f2 00       		.byte	0
 3599 07f3 11       		.uleb128 0x11
 3600 07f4 48000000 		.4byte	.LVL52
 3601 07f8 8D170000 		.4byte	0x178d
 3602 07fc 07080000 		.4byte	0x807
 3603 0800 12       		.uleb128 0x12
 3604 0801 01       		.uleb128 0x1
 3605 0802 50       		.byte	0x50
 3606 0803 02       		.uleb128 0x2
 3607 0804 75       		.byte	0x75
 3608 0805 00       		.sleb128 0
 3609 0806 00       		.byte	0
 3610 0807 17       		.uleb128 0x17
 3611 0808 50000000 		.4byte	.LVL53
 3612 080c 77170000 		.4byte	0x1777
 3613 0810 12       		.uleb128 0x12
 3614 0811 01       		.uleb128 0x1
 3615 0812 50       		.byte	0x50
 3616 0813 01       		.uleb128 0x1
 3617 0814 30       		.byte	0x30
 3618 0815 12       		.uleb128 0x12
 3619 0816 01       		.uleb128 0x1
 3620 0817 51       		.byte	0x51
ARM GAS  C:\Users\HELLOK~1.1\AppData\Local\Temp\cciBhXYB.s 			page 77


 3621 0818 01       		.uleb128 0x1
 3622 0819 31       		.byte	0x31
 3623 081a 00       		.byte	0
 3624 081b 00       		.byte	0
 3625 081c 16       		.uleb128 0x16
 3626 081d 8B010000 		.4byte	.LASF60
 3627 0821 01       		.byte	0x1
 3628 0822 D0       		.byte	0xd0
 3629 0823 00000000 		.4byte	.LFB43
 3630 0827 D4000000 		.4byte	.LFE43-.LFB43
 3631 082b 01       		.uleb128 0x1
 3632 082c 9C       		.byte	0x9c
 3633 082d CC090000 		.4byte	0x9cc
 3634 0831 10       		.uleb128 0x10
 3635 0832 22000000 		.4byte	.LASF56
 3636 0836 01       		.byte	0x1
 3637 0837 D1       		.byte	0xd1
 3638 0838 63060000 		.4byte	0x663
 3639 083c 02       		.uleb128 0x2
 3640 083d 91       		.byte	0x91
 3641 083e 50       		.sleb128 -48
 3642 083f 10       		.uleb128 0x10
 3643 0840 6E040000 		.4byte	.LASF53
 3644 0844 01       		.byte	0x1
 3645 0845 D2       		.byte	0xd2
 3646 0846 CE000000 		.4byte	0xce
 3647 084a 02       		.uleb128 0x2
 3648 084b 91       		.byte	0x91
 3649 084c 48       		.sleb128 -56
 3650 084d 19       		.uleb128 0x19
 3651 084e 64617900 		.ascii	"day\000"
 3652 0852 01       		.byte	0x1
 3653 0853 D3       		.byte	0xd3
 3654 0854 1B030000 		.4byte	0x31b
 3655 0858 02       		.uleb128 0x2
 3656 0859 91       		.byte	0x91
 3657 085a 44       		.sleb128 -60
 3658 085b 10       		.uleb128 0x10
 3659 085c 14040000 		.4byte	.LASF21
 3660 0860 01       		.byte	0x1
 3661 0861 D5       		.byte	0xd5
 3662 0862 1B030000 		.4byte	0x31b
 3663 0866 02       		.uleb128 0x2
 3664 0867 91       		.byte	0x91
 3665 0868 40       		.sleb128 -64
 3666 0869 10       		.uleb128 0x10
 3667 086a D3000000 		.4byte	.LASF22
 3668 086e 01       		.byte	0x1
 3669 086f D7       		.byte	0xd7
 3670 0870 1B030000 		.4byte	0x31b
 3671 0874 03       		.uleb128 0x3
 3672 0875 91       		.byte	0x91
 3673 0876 BC7F     		.sleb128 -68
 3674 0878 1A       		.uleb128 0x1a
 3675 0879 4B020000 		.4byte	.LASF55
 3676 087d 01       		.byte	0x1
 3677 087e D9       		.byte	0xd9
ARM GAS  C:\Users\HELLOK~1.1\AppData\Local\Temp\cciBhXYB.s 			page 78


 3678 087f FE000000 		.4byte	0xfe
 3679 0883 11       		.uleb128 0x11
 3680 0884 2A000000 		.4byte	.LVL54
 3681 0888 4E020000 		.4byte	0x24e
 3682 088c A2080000 		.4byte	0x8a2
 3683 0890 12       		.uleb128 0x12
 3684 0891 01       		.uleb128 0x1
 3685 0892 50       		.byte	0x50
 3686 0893 02       		.uleb128 0x2
 3687 0894 76       		.byte	0x76
 3688 0895 00       		.sleb128 0
 3689 0896 12       		.uleb128 0x12
 3690 0897 01       		.uleb128 0x1
 3691 0898 51       		.byte	0x51
 3692 0899 01       		.uleb128 0x1
 3693 089a 31       		.byte	0x31
 3694 089b 12       		.uleb128 0x12
 3695 089c 01       		.uleb128 0x1
 3696 089d 52       		.byte	0x52
 3697 089e 02       		.uleb128 0x2
 3698 089f 08       		.byte	0x8
 3699 08a0 51       		.byte	0x51
 3700 08a1 00       		.byte	0
 3701 08a2 11       		.uleb128 0x11
 3702 08a3 3A000000 		.4byte	.LVL55
 3703 08a7 4E020000 		.4byte	0x24e
 3704 08ab C1080000 		.4byte	0x8c1
 3705 08af 12       		.uleb128 0x12
 3706 08b0 01       		.uleb128 0x1
 3707 08b1 50       		.byte	0x50
 3708 08b2 02       		.uleb128 0x2
 3709 08b3 78       		.byte	0x78
 3710 08b4 00       		.sleb128 0
 3711 08b5 12       		.uleb128 0x12
 3712 08b6 01       		.uleb128 0x1
 3713 08b7 51       		.byte	0x51
 3714 08b8 01       		.uleb128 0x1
 3715 08b9 31       		.byte	0x31
 3716 08ba 12       		.uleb128 0x12
 3717 08bb 01       		.uleb128 0x1
 3718 08bc 52       		.byte	0x52
 3719 08bd 02       		.uleb128 0x2
 3720 08be 08       		.byte	0x8
 3721 08bf 51       		.byte	0x51
 3722 08c0 00       		.byte	0
 3723 08c1 11       		.uleb128 0x11
 3724 08c2 48000000 		.4byte	.LVL56
 3725 08c6 4E020000 		.4byte	0x24e
 3726 08ca E0080000 		.4byte	0x8e0
 3727 08ce 12       		.uleb128 0x12
 3728 08cf 01       		.uleb128 0x1
 3729 08d0 50       		.byte	0x50
 3730 08d1 02       		.uleb128 0x2
 3731 08d2 77       		.byte	0x77
 3732 08d3 00       		.sleb128 0
 3733 08d4 12       		.uleb128 0x12
 3734 08d5 01       		.uleb128 0x1
ARM GAS  C:\Users\HELLOK~1.1\AppData\Local\Temp\cciBhXYB.s 			page 79


 3735 08d6 51       		.byte	0x51
 3736 08d7 01       		.uleb128 0x1
 3737 08d8 31       		.byte	0x31
 3738 08d9 12       		.uleb128 0x12
 3739 08da 01       		.uleb128 0x1
 3740 08db 52       		.byte	0x52
 3741 08dc 02       		.uleb128 0x2
 3742 08dd 08       		.byte	0x8
 3743 08de 51       		.byte	0x51
 3744 08df 00       		.byte	0
 3745 08e0 13       		.uleb128 0x13
 3746 08e1 4E000000 		.4byte	.LVL57
 3747 08e5 FC010000 		.4byte	0x1fc
 3748 08e9 13       		.uleb128 0x13
 3749 08ea 58000000 		.4byte	.LVL58
 3750 08ee FC010000 		.4byte	0x1fc
 3751 08f2 13       		.uleb128 0x13
 3752 08f3 68000000 		.4byte	.LVL59
 3753 08f7 FC010000 		.4byte	0x1fc
 3754 08fb 11       		.uleb128 0x11
 3755 08fc 72000000 		.4byte	.LVL60
 3756 0900 77170000 		.4byte	0x1777
 3757 0904 13090000 		.4byte	0x913
 3758 0908 12       		.uleb128 0x12
 3759 0909 01       		.uleb128 0x1
 3760 090a 50       		.byte	0x50
 3761 090b 01       		.uleb128 0x1
 3762 090c 30       		.byte	0x30
 3763 090d 12       		.uleb128 0x12
 3764 090e 01       		.uleb128 0x1
 3765 090f 51       		.byte	0x51
 3766 0910 01       		.uleb128 0x1
 3767 0911 31       		.byte	0x31
 3768 0912 00       		.byte	0
 3769 0913 11       		.uleb128 0x11
 3770 0914 78000000 		.4byte	.LVL61
 3771 0918 8D170000 		.4byte	0x178d
 3772 091c 2A090000 		.4byte	0x92a
 3773 0920 12       		.uleb128 0x12
 3774 0921 01       		.uleb128 0x1
 3775 0922 50       		.byte	0x50
 3776 0923 05       		.uleb128 0x5
 3777 0924 03       		.byte	0x3
 3778 0925 18000000 		.4byte	.LC11
 3779 0929 00       		.byte	0
 3780 092a 11       		.uleb128 0x11
 3781 092b 80000000 		.4byte	.LVL62
 3782 092f 77170000 		.4byte	0x1777
 3783 0933 42090000 		.4byte	0x942
 3784 0937 12       		.uleb128 0x12
 3785 0938 01       		.uleb128 0x1
 3786 0939 50       		.byte	0x50
 3787 093a 01       		.uleb128 0x1
 3788 093b 30       		.byte	0x30
 3789 093c 12       		.uleb128 0x12
 3790 093d 01       		.uleb128 0x1
 3791 093e 51       		.byte	0x51
ARM GAS  C:\Users\HELLOK~1.1\AppData\Local\Temp\cciBhXYB.s 			page 80


 3792 093f 01       		.uleb128 0x1
 3793 0940 32       		.byte	0x32
 3794 0941 00       		.byte	0
 3795 0942 11       		.uleb128 0x11
 3796 0943 86000000 		.4byte	.LVL63
 3797 0947 8D170000 		.4byte	0x178d
 3798 094b 59090000 		.4byte	0x959
 3799 094f 12       		.uleb128 0x12
 3800 0950 01       		.uleb128 0x1
 3801 0951 50       		.byte	0x50
 3802 0952 05       		.uleb128 0x5
 3803 0953 03       		.byte	0x3
 3804 0954 44000000 		.4byte	.LC21
 3805 0958 00       		.byte	0
 3806 0959 11       		.uleb128 0x11
 3807 095a 8E000000 		.4byte	.LVL64
 3808 095e 77170000 		.4byte	0x1777
 3809 0962 71090000 		.4byte	0x971
 3810 0966 12       		.uleb128 0x12
 3811 0967 01       		.uleb128 0x1
 3812 0968 50       		.byte	0x50
 3813 0969 01       		.uleb128 0x1
 3814 096a 30       		.byte	0x30
 3815 096b 12       		.uleb128 0x12
 3816 096c 01       		.uleb128 0x1
 3817 096d 51       		.byte	0x51
 3818 096e 01       		.uleb128 0x1
 3819 096f 33       		.byte	0x33
 3820 0970 00       		.byte	0
 3821 0971 11       		.uleb128 0x11
 3822 0972 AC000000 		.4byte	.LVL65
 3823 0976 82170000 		.4byte	0x1782
 3824 097a BB090000 		.4byte	0x9bb
 3825 097e 12       		.uleb128 0x12
 3826 097f 01       		.uleb128 0x1
 3827 0980 50       		.byte	0x50
 3828 0981 02       		.uleb128 0x2
 3829 0982 75       		.byte	0x75
 3830 0983 00       		.sleb128 0
 3831 0984 12       		.uleb128 0x12
 3832 0985 01       		.uleb128 0x1
 3833 0986 51       		.byte	0x51
 3834 0987 01       		.uleb128 0x1
 3835 0988 45       		.byte	0x45
 3836 0989 12       		.uleb128 0x12
 3837 098a 01       		.uleb128 0x1
 3838 098b 52       		.byte	0x52
 3839 098c 05       		.uleb128 0x5
 3840 098d 03       		.byte	0x3
 3841 098e 00000000 		.4byte	.LC9
 3842 0992 12       		.uleb128 0x12
 3843 0993 01       		.uleb128 0x1
 3844 0994 53       		.byte	0x53
 3845 0995 07       		.uleb128 0x7
 3846 0996 74       		.byte	0x74
 3847 0997 00       		.sleb128 0
 3848 0998 94       		.byte	0x94
ARM GAS  C:\Users\HELLOK~1.1\AppData\Local\Temp\cciBhXYB.s 			page 81


 3849 0999 01       		.byte	0x1
 3850 099a 08       		.byte	0x8
 3851 099b FF       		.byte	0xff
 3852 099c 1A       		.byte	0x1a
 3853 099d 12       		.uleb128 0x12
 3854 099e 02       		.uleb128 0x2
 3855 099f 7D       		.byte	0x7d
 3856 09a0 04       		.sleb128 4
 3857 09a1 03       		.uleb128 0x3
 3858 09a2 74       		.byte	0x74
 3859 09a3 04       		.sleb128 4
 3860 09a4 06       		.byte	0x6
 3861 09a5 12       		.uleb128 0x12
 3862 09a6 02       		.uleb128 0x2
 3863 09a7 7D       		.byte	0x7d
 3864 09a8 08       		.sleb128 8
 3865 09a9 02       		.uleb128 0x2
 3866 09aa 78       		.byte	0x78
 3867 09ab 00       		.sleb128 0
 3868 09ac 12       		.uleb128 0x12
 3869 09ad 02       		.uleb128 0x2
 3870 09ae 7D       		.byte	0x7d
 3871 09af 0C       		.sleb128 12
 3872 09b0 02       		.uleb128 0x2
 3873 09b1 76       		.byte	0x76
 3874 09b2 00       		.sleb128 0
 3875 09b3 12       		.uleb128 0x12
 3876 09b4 02       		.uleb128 0x2
 3877 09b5 7D       		.byte	0x7d
 3878 09b6 10       		.sleb128 16
 3879 09b7 02       		.uleb128 0x2
 3880 09b8 77       		.byte	0x77
 3881 09b9 00       		.sleb128 0
 3882 09ba 00       		.byte	0
 3883 09bb 17       		.uleb128 0x17
 3884 09bc B6000000 		.4byte	.LVL66
 3885 09c0 8D170000 		.4byte	0x178d
 3886 09c4 12       		.uleb128 0x12
 3887 09c5 01       		.uleb128 0x1
 3888 09c6 50       		.byte	0x50
 3889 09c7 02       		.uleb128 0x2
 3890 09c8 75       		.byte	0x75
 3891 09c9 00       		.sleb128 0
 3892 09ca 00       		.byte	0
 3893 09cb 00       		.byte	0
 3894 09cc 1B       		.uleb128 0x1b
 3895 09cd AB040000 		.4byte	.LASF72
 3896 09d1 01       		.byte	0x1
 3897 09d2 E3       		.byte	0xe3
 3898 09d3 00000000 		.4byte	.LFB44
 3899 09d7 02000000 		.4byte	.LFE44-.LFB44
 3900 09db 01       		.uleb128 0x1
 3901 09dc 9C       		.byte	0x9c
 3902 09dd 16       		.uleb128 0x16
 3903 09de CA040000 		.4byte	.LASF61
 3904 09e2 01       		.byte	0x1
 3905 09e3 E8       		.byte	0xe8
ARM GAS  C:\Users\HELLOK~1.1\AppData\Local\Temp\cciBhXYB.s 			page 82


 3906 09e4 00000000 		.4byte	.LFB45
 3907 09e8 6C040000 		.4byte	.LFE45-.LFB45
 3908 09ec 01       		.uleb128 0x1
 3909 09ed 9C       		.byte	0x9c
 3910 09ee 29110000 		.4byte	0x1129
 3911 09f2 10       		.uleb128 0x10
 3912 09f3 33050000 		.4byte	.LASF62
 3913 09f7 01       		.byte	0x1
 3914 09f8 EC       		.byte	0xec
 3915 09f9 63060000 		.4byte	0x663
 3916 09fd 02       		.uleb128 0x2
 3917 09fe 91       		.byte	0x91
 3918 09ff 40       		.sleb128 -64
 3919 0a00 1A       		.uleb128 0x1a
 3920 0a01 6E040000 		.4byte	.LASF53
 3921 0a05 01       		.byte	0x1
 3922 0a06 ED       		.byte	0xed
 3923 0a07 CE000000 		.4byte	0xce
 3924 0a0b 19       		.uleb128 0x19
 3925 0a0c 64617900 		.ascii	"day\000"
 3926 0a10 01       		.byte	0x1
 3927 0a11 EE       		.byte	0xee
 3928 0a12 1B030000 		.4byte	0x31b
 3929 0a16 03       		.uleb128 0x3
 3930 0a17 91       		.byte	0x91
 3931 0a18 BC7F     		.sleb128 -68
 3932 0a1a 10       		.uleb128 0x10
 3933 0a1b 14040000 		.4byte	.LASF21
 3934 0a1f 01       		.byte	0x1
 3935 0a20 F0       		.byte	0xf0
 3936 0a21 1B030000 		.4byte	0x31b
 3937 0a25 03       		.uleb128 0x3
 3938 0a26 91       		.byte	0x91
 3939 0a27 B87F     		.sleb128 -72
 3940 0a29 10       		.uleb128 0x10
 3941 0a2a D3000000 		.4byte	.LASF22
 3942 0a2e 01       		.byte	0x1
 3943 0a2f F2       		.byte	0xf2
 3944 0a30 1B030000 		.4byte	0x31b
 3945 0a34 03       		.uleb128 0x3
 3946 0a35 91       		.byte	0x91
 3947 0a36 B47F     		.sleb128 -76
 3948 0a38 1A       		.uleb128 0x1a
 3949 0a39 95000000 		.4byte	.LASF54
 3950 0a3d 01       		.byte	0x1
 3951 0a3e F4       		.byte	0xf4
 3952 0a3f FE000000 		.4byte	0xfe
 3953 0a43 10       		.uleb128 0x10
 3954 0a44 BB000000 		.4byte	.LASF63
 3955 0a48 01       		.byte	0x1
 3956 0a49 F5       		.byte	0xf5
 3957 0a4a FE000000 		.4byte	0xfe
 3958 0a4e 03       		.uleb128 0x3
 3959 0a4f 91       		.byte	0x91
 3960 0a50 A87F     		.sleb128 -88
 3961 0a52 1C       		.uleb128 0x1c
 3962 0a53 D1010000 		.4byte	.LASF64
ARM GAS  C:\Users\HELLOK~1.1\AppData\Local\Temp\cciBhXYB.s 			page 83


 3963 0a57 01       		.byte	0x1
 3964 0a58 F6       		.byte	0xf6
 3965 0a59 5D000000 		.4byte	0x5d
 3966 0a5d 8C010000 		.4byte	.LLST10
 3967 0a61 1D       		.uleb128 0x1d
 3968 0a62 6A030000 		.4byte	.LASF65
 3969 0a66 01       		.byte	0x1
 3970 0a67 1101     		.2byte	0x111
 3971 0a69 6B000000 		.4byte	0x6b
 3972 0a6d 31020000 		.4byte	.LLST11
 3973 0a71 1E       		.uleb128 0x1e
 3974 0a72 6D696E00 		.ascii	"min\000"
 3975 0a76 01       		.byte	0x1
 3976 0a77 5301     		.2byte	0x153
 3977 0a79 1B030000 		.4byte	0x31b
 3978 0a7d 03       		.uleb128 0x3
 3979 0a7e 91       		.byte	0x91
 3980 0a7f A47F     		.sleb128 -92
 3981 0a81 1F       		.uleb128 0x1f
 3982 0a82 84020000 		.4byte	.LASF17
 3983 0a86 01       		.byte	0x1
 3984 0a87 5501     		.2byte	0x155
 3985 0a89 1B030000 		.4byte	0x31b
 3986 0a8d 03       		.uleb128 0x3
 3987 0a8e 91       		.byte	0x91
 3988 0a8f A07F     		.sleb128 -96
 3989 0a91 1F       		.uleb128 0x1f
 3990 0a92 48050000 		.4byte	.LASF66
 3991 0a96 01       		.byte	0x1
 3992 0a97 5701     		.2byte	0x157
 3993 0a99 CE000000 		.4byte	0xce
 3994 0a9d 03       		.uleb128 0x3
 3995 0a9e 91       		.byte	0x91
 3996 0a9f 987F     		.sleb128 -104
 3997 0aa1 1F       		.uleb128 0x1f
 3998 0aa2 40050000 		.4byte	.LASF67
 3999 0aa6 01       		.byte	0x1
 4000 0aa7 5801     		.2byte	0x158
 4001 0aa9 CE000000 		.4byte	0xce
 4002 0aad 03       		.uleb128 0x3
 4003 0aae 91       		.byte	0x91
 4004 0aaf 907F     		.sleb128 -112
 4005 0ab1 1F       		.uleb128 0x1f
 4006 0ab2 B3040000 		.4byte	.LASF50
 4007 0ab6 01       		.byte	0x1
 4008 0ab7 C001     		.2byte	0x1c0
 4009 0ab9 AF040000 		.4byte	0x4af
 4010 0abd 03       		.uleb128 0x3
 4011 0abe 91       		.byte	0x91
 4012 0abf 8C7F     		.sleb128 -116
 4013 0ac1 20       		.uleb128 0x20
 4014 0ac2 F8000000 		.4byte	.LBB2
 4015 0ac6 44000000 		.4byte	.LBE2-.LBB2
 4016 0aca 310B0000 		.4byte	0xb31
 4017 0ace 1F       		.uleb128 0x1f
 4018 0acf 54020000 		.4byte	.LASF68
 4019 0ad3 01       		.byte	0x1
ARM GAS  C:\Users\HELLOK~1.1\AppData\Local\Temp\cciBhXYB.s 			page 84


 4020 0ad4 2B01     		.2byte	0x12b
 4021 0ad6 29110000 		.4byte	0x1129
 4022 0ada 03       		.uleb128 0x3
 4023 0adb 91       		.byte	0x91
 4024 0adc 847F     		.sleb128 -124
 4025 0ade 11       		.uleb128 0x11
 4026 0adf 2A010000 		.4byte	.LVL96
 4027 0ae3 77170000 		.4byte	0x1777
 4028 0ae7 F60A0000 		.4byte	0xaf6
 4029 0aeb 12       		.uleb128 0x12
 4030 0aec 01       		.uleb128 0x1
 4031 0aed 50       		.byte	0x50
 4032 0aee 01       		.uleb128 0x1
 4033 0aef 34       		.byte	0x34
 4034 0af0 12       		.uleb128 0x12
 4035 0af1 01       		.uleb128 0x1
 4036 0af2 51       		.byte	0x51
 4037 0af3 01       		.uleb128 0x1
 4038 0af4 32       		.byte	0x32
 4039 0af5 00       		.byte	0
 4040 0af6 11       		.uleb128 0x11
 4041 0af7 36010000 		.4byte	.LVL97
 4042 0afb 82170000 		.4byte	0x1782
 4043 0aff 1F0B0000 		.4byte	0xb1f
 4044 0b03 12       		.uleb128 0x12
 4045 0b04 01       		.uleb128 0x1
 4046 0b05 50       		.byte	0x50
 4047 0b06 03       		.uleb128 0x3
 4048 0b07 91       		.byte	0x91
 4049 0b08 847F     		.sleb128 -124
 4050 0b0a 12       		.uleb128 0x12
 4051 0b0b 01       		.uleb128 0x1
 4052 0b0c 51       		.byte	0x51
 4053 0b0d 01       		.uleb128 0x1
 4054 0b0e 33       		.byte	0x33
 4055 0b0f 12       		.uleb128 0x12
 4056 0b10 01       		.uleb128 0x1
 4057 0b11 52       		.byte	0x52
 4058 0b12 05       		.uleb128 0x5
 4059 0b13 03       		.byte	0x3
 4060 0b14 80000000 		.4byte	.LC32
 4061 0b18 12       		.uleb128 0x12
 4062 0b19 01       		.uleb128 0x1
 4063 0b1a 53       		.byte	0x53
 4064 0b1b 02       		.uleb128 0x2
 4065 0b1c 76       		.byte	0x76
 4066 0b1d 00       		.sleb128 0
 4067 0b1e 00       		.byte	0
 4068 0b1f 17       		.uleb128 0x17
 4069 0b20 3C010000 		.4byte	.LVL98
 4070 0b24 8D170000 		.4byte	0x178d
 4071 0b28 12       		.uleb128 0x12
 4072 0b29 01       		.uleb128 0x1
 4073 0b2a 50       		.byte	0x50
 4074 0b2b 03       		.uleb128 0x3
 4075 0b2c 91       		.byte	0x91
 4076 0b2d 847F     		.sleb128 -124
ARM GAS  C:\Users\HELLOK~1.1\AppData\Local\Temp\cciBhXYB.s 			page 85


 4077 0b2f 00       		.byte	0
 4078 0b30 00       		.byte	0
 4079 0b31 20       		.uleb128 0x20
 4080 0b32 68010000 		.4byte	.LBB3
 4081 0b36 44000000 		.4byte	.LBE3-.LBB3
 4082 0b3a A10B0000 		.4byte	0xba1
 4083 0b3e 1F       		.uleb128 0x1f
 4084 0b3f 5D020000 		.4byte	.LASF69
 4085 0b43 01       		.byte	0x1
 4086 0b44 4B01     		.2byte	0x14b
 4087 0b46 39110000 		.4byte	0x1139
 4088 0b4a 03       		.uleb128 0x3
 4089 0b4b 91       		.byte	0x91
 4090 0b4c 847F     		.sleb128 -124
 4091 0b4e 11       		.uleb128 0x11
 4092 0b4f 9A010000 		.4byte	.LVL107
 4093 0b53 77170000 		.4byte	0x1777
 4094 0b57 660B0000 		.4byte	0xb66
 4095 0b5b 12       		.uleb128 0x12
 4096 0b5c 01       		.uleb128 0x1
 4097 0b5d 50       		.byte	0x50
 4098 0b5e 01       		.uleb128 0x1
 4099 0b5f 38       		.byte	0x38
 4100 0b60 12       		.uleb128 0x12
 4101 0b61 01       		.uleb128 0x1
 4102 0b62 51       		.byte	0x51
 4103 0b63 01       		.uleb128 0x1
 4104 0b64 32       		.byte	0x32
 4105 0b65 00       		.byte	0
 4106 0b66 11       		.uleb128 0x11
 4107 0b67 A6010000 		.4byte	.LVL108
 4108 0b6b 82170000 		.4byte	0x1782
 4109 0b6f 8F0B0000 		.4byte	0xb8f
 4110 0b73 12       		.uleb128 0x12
 4111 0b74 01       		.uleb128 0x1
 4112 0b75 50       		.byte	0x50
 4113 0b76 03       		.uleb128 0x3
 4114 0b77 91       		.byte	0x91
 4115 0b78 847F     		.sleb128 -124
 4116 0b7a 12       		.uleb128 0x12
 4117 0b7b 01       		.uleb128 0x1
 4118 0b7c 51       		.byte	0x51
 4119 0b7d 01       		.uleb128 0x1
 4120 0b7e 35       		.byte	0x35
 4121 0b7f 12       		.uleb128 0x12
 4122 0b80 01       		.uleb128 0x1
 4123 0b81 52       		.byte	0x52
 4124 0b82 05       		.uleb128 0x5
 4125 0b83 03       		.byte	0x3
 4126 0b84 94000000 		.4byte	.LC36
 4127 0b88 12       		.uleb128 0x12
 4128 0b89 01       		.uleb128 0x1
 4129 0b8a 53       		.byte	0x53
 4130 0b8b 02       		.uleb128 0x2
 4131 0b8c 75       		.byte	0x75
 4132 0b8d 00       		.sleb128 0
 4133 0b8e 00       		.byte	0
ARM GAS  C:\Users\HELLOK~1.1\AppData\Local\Temp\cciBhXYB.s 			page 86


 4134 0b8f 17       		.uleb128 0x17
 4135 0b90 AC010000 		.4byte	.LVL109
 4136 0b94 8D170000 		.4byte	0x178d
 4137 0b98 12       		.uleb128 0x12
 4138 0b99 01       		.uleb128 0x1
 4139 0b9a 50       		.byte	0x50
 4140 0b9b 03       		.uleb128 0x3
 4141 0b9c 91       		.byte	0x91
 4142 0b9d 847F     		.sleb128 -124
 4143 0b9f 00       		.byte	0
 4144 0ba0 00       		.byte	0
 4145 0ba1 20       		.uleb128 0x20
 4146 0ba2 E0010000 		.4byte	.LBB4
 4147 0ba6 26000000 		.4byte	.LBE4-.LBB4
 4148 0baa D10B0000 		.4byte	0xbd1
 4149 0bae 1F       		.uleb128 0x1f
 4150 0baf 1E030000 		.4byte	.LASF52
 4151 0bb3 01       		.byte	0x1
 4152 0bb4 5A01     		.2byte	0x15a
 4153 0bb6 49110000 		.4byte	0x1149
 4154 0bba 03       		.uleb128 0x3
 4155 0bbb 91       		.byte	0x91
 4156 0bbc FC7E     		.sleb128 -132
 4157 0bbe 13       		.uleb128 0x13
 4158 0bbf E4010000 		.4byte	.LVL113
 4159 0bc3 FC010000 		.4byte	0x1fc
 4160 0bc7 13       		.uleb128 0x13
 4161 0bc8 F2010000 		.4byte	.LVL114
 4162 0bcc FC010000 		.4byte	0x1fc
 4163 0bd0 00       		.byte	0
 4164 0bd1 20       		.uleb128 0x20
 4165 0bd2 08020000 		.4byte	.LBB5
 4166 0bd6 24000000 		.4byte	.LBE5-.LBB5
 4167 0bda 010C0000 		.4byte	0xc01
 4168 0bde 1F       		.uleb128 0x1f
 4169 0bdf 1E030000 		.4byte	.LASF52
 4170 0be3 01       		.byte	0x1
 4171 0be4 5E01     		.2byte	0x15e
 4172 0be6 49110000 		.4byte	0x1149
 4173 0bea 03       		.uleb128 0x3
 4174 0beb 91       		.byte	0x91
 4175 0bec 847F     		.sleb128 -124
 4176 0bee 13       		.uleb128 0x13
 4177 0bef 0C020000 		.4byte	.LVL115
 4178 0bf3 FC010000 		.4byte	0x1fc
 4179 0bf7 13       		.uleb128 0x13
 4180 0bf8 18020000 		.4byte	.LVL116
 4181 0bfc FC010000 		.4byte	0x1fc
 4182 0c00 00       		.byte	0
 4183 0c01 20       		.uleb128 0x20
 4184 0c02 6A020000 		.4byte	.LBB6
 4185 0c06 44000000 		.4byte	.LBE6-.LBB6
 4186 0c0a 710C0000 		.4byte	0xc71
 4187 0c0e 1F       		.uleb128 0x1f
 4188 0c0f F3000000 		.4byte	.LASF70
 4189 0c13 01       		.byte	0x1
 4190 0c14 7B01     		.2byte	0x17b
ARM GAS  C:\Users\HELLOK~1.1\AppData\Local\Temp\cciBhXYB.s 			page 87


 4191 0c16 29110000 		.4byte	0x1129
 4192 0c1a 03       		.uleb128 0x3
 4193 0c1b 91       		.byte	0x91
 4194 0c1c F87E     		.sleb128 -136
 4195 0c1e 11       		.uleb128 0x11
 4196 0c1f 9C020000 		.4byte	.LVL127
 4197 0c23 77170000 		.4byte	0x1777
 4198 0c27 360C0000 		.4byte	0xc36
 4199 0c2b 12       		.uleb128 0x12
 4200 0c2c 01       		.uleb128 0x1
 4201 0c2d 50       		.byte	0x50
 4202 0c2e 01       		.uleb128 0x1
 4203 0c2f 30       		.byte	0x30
 4204 0c30 12       		.uleb128 0x12
 4205 0c31 01       		.uleb128 0x1
 4206 0c32 51       		.byte	0x51
 4207 0c33 01       		.uleb128 0x1
 4208 0c34 32       		.byte	0x32
 4209 0c35 00       		.byte	0
 4210 0c36 11       		.uleb128 0x11
 4211 0c37 A8020000 		.4byte	.LVL128
 4212 0c3b 82170000 		.4byte	0x1782
 4213 0c3f 5F0C0000 		.4byte	0xc5f
 4214 0c43 12       		.uleb128 0x12
 4215 0c44 01       		.uleb128 0x1
 4216 0c45 50       		.byte	0x50
 4217 0c46 03       		.uleb128 0x3
 4218 0c47 91       		.byte	0x91
 4219 0c48 F87E     		.sleb128 -136
 4220 0c4a 12       		.uleb128 0x12
 4221 0c4b 01       		.uleb128 0x1
 4222 0c4c 51       		.byte	0x51
 4223 0c4d 01       		.uleb128 0x1
 4224 0c4e 33       		.byte	0x33
 4225 0c4f 12       		.uleb128 0x12
 4226 0c50 01       		.uleb128 0x1
 4227 0c51 52       		.byte	0x52
 4228 0c52 05       		.uleb128 0x5
 4229 0c53 03       		.byte	0x3
 4230 0c54 80000000 		.4byte	.LC32
 4231 0c58 12       		.uleb128 0x12
 4232 0c59 01       		.uleb128 0x1
 4233 0c5a 53       		.byte	0x53
 4234 0c5b 02       		.uleb128 0x2
 4235 0c5c 75       		.byte	0x75
 4236 0c5d 00       		.sleb128 0
 4237 0c5e 00       		.byte	0
 4238 0c5f 17       		.uleb128 0x17
 4239 0c60 AE020000 		.4byte	.LVL129
 4240 0c64 8D170000 		.4byte	0x178d
 4241 0c68 12       		.uleb128 0x12
 4242 0c69 01       		.uleb128 0x1
 4243 0c6a 50       		.byte	0x50
 4244 0c6b 03       		.uleb128 0x3
 4245 0c6c 91       		.byte	0x91
 4246 0c6d F87E     		.sleb128 -136
 4247 0c6f 00       		.byte	0
ARM GAS  C:\Users\HELLOK~1.1\AppData\Local\Temp\cciBhXYB.s 			page 88


 4248 0c70 00       		.byte	0
 4249 0c71 20       		.uleb128 0x20
 4250 0c72 DA020000 		.4byte	.LBB7
 4251 0c76 44000000 		.4byte	.LBE7-.LBB7
 4252 0c7a E10C0000 		.4byte	0xce1
 4253 0c7e 1F       		.uleb128 0x1f
 4254 0c7f B9040000 		.4byte	.LASF71
 4255 0c83 01       		.byte	0x1
 4256 0c84 9B01     		.2byte	0x19b
 4257 0c86 29110000 		.4byte	0x1129
 4258 0c8a 03       		.uleb128 0x3
 4259 0c8b 91       		.byte	0x91
 4260 0c8c F87E     		.sleb128 -136
 4261 0c8e 11       		.uleb128 0x11
 4262 0c8f 0C030000 		.4byte	.LVL138
 4263 0c93 77170000 		.4byte	0x1777
 4264 0c97 A60C0000 		.4byte	0xca6
 4265 0c9b 12       		.uleb128 0x12
 4266 0c9c 01       		.uleb128 0x1
 4267 0c9d 50       		.byte	0x50
 4268 0c9e 01       		.uleb128 0x1
 4269 0c9f 33       		.byte	0x33
 4270 0ca0 12       		.uleb128 0x12
 4271 0ca1 01       		.uleb128 0x1
 4272 0ca2 51       		.byte	0x51
 4273 0ca3 01       		.uleb128 0x1
 4274 0ca4 32       		.byte	0x32
 4275 0ca5 00       		.byte	0
 4276 0ca6 11       		.uleb128 0x11
 4277 0ca7 18030000 		.4byte	.LVL139
 4278 0cab 82170000 		.4byte	0x1782
 4279 0caf CF0C0000 		.4byte	0xccf
 4280 0cb3 12       		.uleb128 0x12
 4281 0cb4 01       		.uleb128 0x1
 4282 0cb5 50       		.byte	0x50
 4283 0cb6 03       		.uleb128 0x3
 4284 0cb7 91       		.byte	0x91
 4285 0cb8 F87E     		.sleb128 -136
 4286 0cba 12       		.uleb128 0x12
 4287 0cbb 01       		.uleb128 0x1
 4288 0cbc 51       		.byte	0x51
 4289 0cbd 01       		.uleb128 0x1
 4290 0cbe 35       		.byte	0x35
 4291 0cbf 12       		.uleb128 0x12
 4292 0cc0 01       		.uleb128 0x1
 4293 0cc1 52       		.byte	0x52
 4294 0cc2 05       		.uleb128 0x5
 4295 0cc3 03       		.byte	0x3
 4296 0cc4 80000000 		.4byte	.LC32
 4297 0cc8 12       		.uleb128 0x12
 4298 0cc9 01       		.uleb128 0x1
 4299 0cca 53       		.byte	0x53
 4300 0ccb 02       		.uleb128 0x2
 4301 0ccc 76       		.byte	0x76
 4302 0ccd 00       		.sleb128 0
 4303 0cce 00       		.byte	0
 4304 0ccf 17       		.uleb128 0x17
ARM GAS  C:\Users\HELLOK~1.1\AppData\Local\Temp\cciBhXYB.s 			page 89


 4305 0cd0 1E030000 		.4byte	.LVL140
 4306 0cd4 8D170000 		.4byte	0x178d
 4307 0cd8 12       		.uleb128 0x12
 4308 0cd9 01       		.uleb128 0x1
 4309 0cda 50       		.byte	0x50
 4310 0cdb 03       		.uleb128 0x3
 4311 0cdc 91       		.byte	0x91
 4312 0cdd F87E     		.sleb128 -136
 4313 0cdf 00       		.byte	0
 4314 0ce0 00       		.byte	0
 4315 0ce1 13       		.uleb128 0x13
 4316 0ce2 0C000000 		.4byte	.LVL67
 4317 0ce6 98170000 		.4byte	0x1798
 4318 0cea 11       		.uleb128 0x11
 4319 0ceb 14000000 		.4byte	.LVL68
 4320 0cef 77170000 		.4byte	0x1777
 4321 0cf3 020D0000 		.4byte	0xd02
 4322 0cf7 12       		.uleb128 0x12
 4323 0cf8 01       		.uleb128 0x1
 4324 0cf9 50       		.byte	0x50
 4325 0cfa 01       		.uleb128 0x1
 4326 0cfb 30       		.byte	0x30
 4327 0cfc 12       		.uleb128 0x12
 4328 0cfd 01       		.uleb128 0x1
 4329 0cfe 51       		.byte	0x51
 4330 0cff 01       		.uleb128 0x1
 4331 0d00 30       		.byte	0x30
 4332 0d01 00       		.byte	0
 4333 0d02 11       		.uleb128 0x11
 4334 0d03 1A000000 		.4byte	.LVL69
 4335 0d07 8D170000 		.4byte	0x178d
 4336 0d0b 190D0000 		.4byte	0xd19
 4337 0d0f 12       		.uleb128 0x12
 4338 0d10 01       		.uleb128 0x1
 4339 0d11 50       		.byte	0x50
 4340 0d12 05       		.uleb128 0x5
 4341 0d13 03       		.byte	0x3
 4342 0d14 5C000000 		.4byte	.LC24
 4343 0d18 00       		.byte	0
 4344 0d19 11       		.uleb128 0x11
 4345 0d1a 2A000000 		.4byte	.LVL70
 4346 0d1e 4E020000 		.4byte	0x24e
 4347 0d22 380D0000 		.4byte	0xd38
 4348 0d26 12       		.uleb128 0x12
 4349 0d27 01       		.uleb128 0x1
 4350 0d28 50       		.byte	0x50
 4351 0d29 02       		.uleb128 0x2
 4352 0d2a 77       		.byte	0x77
 4353 0d2b 00       		.sleb128 0
 4354 0d2c 12       		.uleb128 0x12
 4355 0d2d 01       		.uleb128 0x1
 4356 0d2e 51       		.byte	0x51
 4357 0d2f 01       		.uleb128 0x1
 4358 0d30 31       		.byte	0x31
 4359 0d31 12       		.uleb128 0x12
 4360 0d32 01       		.uleb128 0x1
 4361 0d33 52       		.byte	0x52
ARM GAS  C:\Users\HELLOK~1.1\AppData\Local\Temp\cciBhXYB.s 			page 90


 4362 0d34 02       		.uleb128 0x2
 4363 0d35 08       		.byte	0x8
 4364 0d36 51       		.byte	0x51
 4365 0d37 00       		.byte	0
 4366 0d38 11       		.uleb128 0x11
 4367 0d39 38000000 		.4byte	.LVL71
 4368 0d3d 4E020000 		.4byte	0x24e
 4369 0d41 570D0000 		.4byte	0xd57
 4370 0d45 12       		.uleb128 0x12
 4371 0d46 01       		.uleb128 0x1
 4372 0d47 50       		.byte	0x50
 4373 0d48 02       		.uleb128 0x2
 4374 0d49 74       		.byte	0x74
 4375 0d4a 00       		.sleb128 0
 4376 0d4b 12       		.uleb128 0x12
 4377 0d4c 01       		.uleb128 0x1
 4378 0d4d 51       		.byte	0x51
 4379 0d4e 01       		.uleb128 0x1
 4380 0d4f 31       		.byte	0x31
 4381 0d50 12       		.uleb128 0x12
 4382 0d51 01       		.uleb128 0x1
 4383 0d52 52       		.byte	0x52
 4384 0d53 02       		.uleb128 0x2
 4385 0d54 08       		.byte	0x8
 4386 0d55 51       		.byte	0x51
 4387 0d56 00       		.byte	0
 4388 0d57 11       		.uleb128 0x11
 4389 0d58 46000000 		.4byte	.LVL72
 4390 0d5c 4E020000 		.4byte	0x24e
 4391 0d60 760D0000 		.4byte	0xd76
 4392 0d64 12       		.uleb128 0x12
 4393 0d65 01       		.uleb128 0x1
 4394 0d66 50       		.byte	0x50
 4395 0d67 02       		.uleb128 0x2
 4396 0d68 76       		.byte	0x76
 4397 0d69 00       		.sleb128 0
 4398 0d6a 12       		.uleb128 0x12
 4399 0d6b 01       		.uleb128 0x1
 4400 0d6c 51       		.byte	0x51
 4401 0d6d 01       		.uleb128 0x1
 4402 0d6e 31       		.byte	0x31
 4403 0d6f 12       		.uleb128 0x12
 4404 0d70 01       		.uleb128 0x1
 4405 0d71 52       		.byte	0x52
 4406 0d72 02       		.uleb128 0x2
 4407 0d73 08       		.byte	0x8
 4408 0d74 51       		.byte	0x51
 4409 0d75 00       		.byte	0
 4410 0d76 13       		.uleb128 0x13
 4411 0d77 4C000000 		.4byte	.LVL73
 4412 0d7b FC010000 		.4byte	0x1fc
 4413 0d7f 13       		.uleb128 0x13
 4414 0d80 54000000 		.4byte	.LVL74
 4415 0d84 FC010000 		.4byte	0x1fc
 4416 0d88 13       		.uleb128 0x13
 4417 0d89 64000000 		.4byte	.LVL75
 4418 0d8d FC010000 		.4byte	0x1fc
ARM GAS  C:\Users\HELLOK~1.1\AppData\Local\Temp\cciBhXYB.s 			page 91


 4419 0d91 11       		.uleb128 0x11
 4420 0d92 6E000000 		.4byte	.LVL77
 4421 0d96 77170000 		.4byte	0x1777
 4422 0d9a A90D0000 		.4byte	0xda9
 4423 0d9e 12       		.uleb128 0x12
 4424 0d9f 01       		.uleb128 0x1
 4425 0da0 50       		.byte	0x50
 4426 0da1 01       		.uleb128 0x1
 4427 0da2 30       		.byte	0x30
 4428 0da3 12       		.uleb128 0x12
 4429 0da4 01       		.uleb128 0x1
 4430 0da5 51       		.byte	0x51
 4431 0da6 01       		.uleb128 0x1
 4432 0da7 32       		.byte	0x32
 4433 0da8 00       		.byte	0
 4434 0da9 11       		.uleb128 0x11
 4435 0daa 80000000 		.4byte	.LVL78
 4436 0dae 82170000 		.4byte	0x1782
 4437 0db2 DF0D0000 		.4byte	0xddf
 4438 0db6 12       		.uleb128 0x12
 4439 0db7 01       		.uleb128 0x1
 4440 0db8 50       		.byte	0x50
 4441 0db9 02       		.uleb128 0x2
 4442 0dba 91       		.byte	0x91
 4443 0dbb 40       		.sleb128 -64
 4444 0dbc 12       		.uleb128 0x12
 4445 0dbd 01       		.uleb128 0x1
 4446 0dbe 51       		.byte	0x51
 4447 0dbf 01       		.uleb128 0x1
 4448 0dc0 45       		.byte	0x45
 4449 0dc1 12       		.uleb128 0x12
 4450 0dc2 01       		.uleb128 0x1
 4451 0dc3 52       		.byte	0x52
 4452 0dc4 05       		.uleb128 0x5
 4453 0dc5 03       		.byte	0x3
 4454 0dc6 68000000 		.4byte	.LC27
 4455 0dca 12       		.uleb128 0x12
 4456 0dcb 01       		.uleb128 0x1
 4457 0dcc 53       		.byte	0x53
 4458 0dcd 02       		.uleb128 0x2
 4459 0dce 79       		.byte	0x79
 4460 0dcf 00       		.sleb128 0
 4461 0dd0 12       		.uleb128 0x12
 4462 0dd1 02       		.uleb128 0x2
 4463 0dd2 7D       		.byte	0x7d
 4464 0dd3 00       		.sleb128 0
 4465 0dd4 02       		.uleb128 0x2
 4466 0dd5 76       		.byte	0x76
 4467 0dd6 00       		.sleb128 0
 4468 0dd7 12       		.uleb128 0x12
 4469 0dd8 02       		.uleb128 0x2
 4470 0dd9 7D       		.byte	0x7d
 4471 0dda 04       		.sleb128 4
 4472 0ddb 02       		.uleb128 0x2
 4473 0ddc 75       		.byte	0x75
 4474 0ddd 00       		.sleb128 0
 4475 0dde 00       		.byte	0
ARM GAS  C:\Users\HELLOK~1.1\AppData\Local\Temp\cciBhXYB.s 			page 92


 4476 0ddf 11       		.uleb128 0x11
 4477 0de0 86000000 		.4byte	.LVL79
 4478 0de4 8D170000 		.4byte	0x178d
 4479 0de8 F30D0000 		.4byte	0xdf3
 4480 0dec 12       		.uleb128 0x12
 4481 0ded 01       		.uleb128 0x1
 4482 0dee 50       		.byte	0x50
 4483 0def 02       		.uleb128 0x2
 4484 0df0 91       		.byte	0x91
 4485 0df1 40       		.sleb128 -64
 4486 0df2 00       		.byte	0
 4487 0df3 11       		.uleb128 0x11
 4488 0df4 C2000000 		.4byte	.LVL85
 4489 0df8 77170000 		.4byte	0x1777
 4490 0dfc 0B0E0000 		.4byte	0xe0b
 4491 0e00 12       		.uleb128 0x12
 4492 0e01 01       		.uleb128 0x1
 4493 0e02 50       		.byte	0x50
 4494 0e03 01       		.uleb128 0x1
 4495 0e04 30       		.byte	0x30
 4496 0e05 12       		.uleb128 0x12
 4497 0e06 01       		.uleb128 0x1
 4498 0e07 51       		.byte	0x51
 4499 0e08 01       		.uleb128 0x1
 4500 0e09 32       		.byte	0x32
 4501 0e0a 00       		.byte	0
 4502 0e0b 13       		.uleb128 0x13
 4503 0e0c D0000000 		.4byte	.LVL86
 4504 0e10 8D170000 		.4byte	0x178d
 4505 0e14 11       		.uleb128 0x11
 4506 0e15 E8000000 		.4byte	.LVL88
 4507 0e19 77170000 		.4byte	0x1777
 4508 0e1d 2C0E0000 		.4byte	0xe2c
 4509 0e21 12       		.uleb128 0x12
 4510 0e22 01       		.uleb128 0x1
 4511 0e23 50       		.byte	0x50
 4512 0e24 01       		.uleb128 0x1
 4513 0e25 30       		.byte	0x30
 4514 0e26 12       		.uleb128 0x12
 4515 0e27 01       		.uleb128 0x1
 4516 0e28 51       		.byte	0x51
 4517 0e29 01       		.uleb128 0x1
 4518 0e2a 30       		.byte	0x30
 4519 0e2b 00       		.byte	0
 4520 0e2c 11       		.uleb128 0x11
 4521 0e2d EE000000 		.4byte	.LVL89
 4522 0e31 8D170000 		.4byte	0x178d
 4523 0e35 430E0000 		.4byte	0xe43
 4524 0e39 12       		.uleb128 0x12
 4525 0e3a 01       		.uleb128 0x1
 4526 0e3b 50       		.byte	0x50
 4527 0e3c 05       		.uleb128 0x5
 4528 0e3d 03       		.byte	0x3
 4529 0e3e 74000000 		.4byte	.LC30
 4530 0e42 00       		.byte	0
 4531 0e43 11       		.uleb128 0x11
 4532 0e44 58010000 		.4byte	.LVL99
ARM GAS  C:\Users\HELLOK~1.1\AppData\Local\Temp\cciBhXYB.s 			page 93


 4533 0e48 77170000 		.4byte	0x1777
 4534 0e4c 5B0E0000 		.4byte	0xe5b
 4535 0e50 12       		.uleb128 0x12
 4536 0e51 01       		.uleb128 0x1
 4537 0e52 50       		.byte	0x50
 4538 0e53 01       		.uleb128 0x1
 4539 0e54 30       		.byte	0x30
 4540 0e55 12       		.uleb128 0x12
 4541 0e56 01       		.uleb128 0x1
 4542 0e57 51       		.byte	0x51
 4543 0e58 01       		.uleb128 0x1
 4544 0e59 30       		.byte	0x30
 4545 0e5a 00       		.byte	0
 4546 0e5b 11       		.uleb128 0x11
 4547 0e5c 5E010000 		.4byte	.LVL100
 4548 0e60 8D170000 		.4byte	0x178d
 4549 0e64 720E0000 		.4byte	0xe72
 4550 0e68 12       		.uleb128 0x12
 4551 0e69 01       		.uleb128 0x1
 4552 0e6a 50       		.byte	0x50
 4553 0e6b 05       		.uleb128 0x5
 4554 0e6c 03       		.byte	0x3
 4555 0e6d 88000000 		.4byte	.LC34
 4556 0e71 00       		.byte	0
 4557 0e72 11       		.uleb128 0x11
 4558 0e73 CC010000 		.4byte	.LVL111
 4559 0e77 4E020000 		.4byte	0x24e
 4560 0e7b 920E0000 		.4byte	0xe92
 4561 0e7f 12       		.uleb128 0x12
 4562 0e80 01       		.uleb128 0x1
 4563 0e81 50       		.byte	0x50
 4564 0e82 03       		.uleb128 0x3
 4565 0e83 91       		.byte	0x91
 4566 0e84 A47F     		.sleb128 -92
 4567 0e86 12       		.uleb128 0x12
 4568 0e87 01       		.uleb128 0x1
 4569 0e88 51       		.byte	0x51
 4570 0e89 01       		.uleb128 0x1
 4571 0e8a 31       		.byte	0x31
 4572 0e8b 12       		.uleb128 0x12
 4573 0e8c 01       		.uleb128 0x1
 4574 0e8d 52       		.byte	0x52
 4575 0e8e 02       		.uleb128 0x2
 4576 0e8f 08       		.byte	0x8
 4577 0e90 51       		.byte	0x51
 4578 0e91 00       		.byte	0
 4579 0e92 11       		.uleb128 0x11
 4580 0e93 DA010000 		.4byte	.LVL112
 4581 0e97 4E020000 		.4byte	0x24e
 4582 0e9b B10E0000 		.4byte	0xeb1
 4583 0e9f 12       		.uleb128 0x12
 4584 0ea0 01       		.uleb128 0x1
 4585 0ea1 50       		.byte	0x50
 4586 0ea2 02       		.uleb128 0x2
 4587 0ea3 75       		.byte	0x75
 4588 0ea4 00       		.sleb128 0
 4589 0ea5 12       		.uleb128 0x12
ARM GAS  C:\Users\HELLOK~1.1\AppData\Local\Temp\cciBhXYB.s 			page 94


 4590 0ea6 01       		.uleb128 0x1
 4591 0ea7 51       		.byte	0x51
 4592 0ea8 01       		.uleb128 0x1
 4593 0ea9 31       		.byte	0x31
 4594 0eaa 12       		.uleb128 0x12
 4595 0eab 01       		.uleb128 0x1
 4596 0eac 52       		.byte	0x52
 4597 0ead 02       		.uleb128 0x2
 4598 0eae 08       		.byte	0x8
 4599 0eaf 51       		.byte	0x51
 4600 0eb0 00       		.byte	0
 4601 0eb1 11       		.uleb128 0x11
 4602 0eb2 34020000 		.4byte	.LVL117
 4603 0eb6 77170000 		.4byte	0x1777
 4604 0eba C90E0000 		.4byte	0xec9
 4605 0ebe 12       		.uleb128 0x12
 4606 0ebf 01       		.uleb128 0x1
 4607 0ec0 50       		.byte	0x50
 4608 0ec1 01       		.uleb128 0x1
 4609 0ec2 30       		.byte	0x30
 4610 0ec3 12       		.uleb128 0x12
 4611 0ec4 01       		.uleb128 0x1
 4612 0ec5 51       		.byte	0x51
 4613 0ec6 01       		.uleb128 0x1
 4614 0ec7 30       		.byte	0x30
 4615 0ec8 00       		.byte	0
 4616 0ec9 11       		.uleb128 0x11
 4617 0eca 3A020000 		.4byte	.LVL118
 4618 0ece 8D170000 		.4byte	0x178d
 4619 0ed2 E00E0000 		.4byte	0xee0
 4620 0ed6 12       		.uleb128 0x12
 4621 0ed7 01       		.uleb128 0x1
 4622 0ed8 50       		.byte	0x50
 4623 0ed9 05       		.uleb128 0x5
 4624 0eda 03       		.byte	0x3
 4625 0edb A4000000 		.4byte	.LC40
 4626 0edf 00       		.byte	0
 4627 0ee0 11       		.uleb128 0x11
 4628 0ee1 42020000 		.4byte	.LVL119
 4629 0ee5 77170000 		.4byte	0x1777
 4630 0ee9 F80E0000 		.4byte	0xef8
 4631 0eed 12       		.uleb128 0x12
 4632 0eee 01       		.uleb128 0x1
 4633 0eef 50       		.byte	0x50
 4634 0ef0 01       		.uleb128 0x1
 4635 0ef1 30       		.byte	0x30
 4636 0ef2 12       		.uleb128 0x12
 4637 0ef3 01       		.uleb128 0x1
 4638 0ef4 51       		.byte	0x51
 4639 0ef5 01       		.uleb128 0x1
 4640 0ef6 32       		.byte	0x32
 4641 0ef7 00       		.byte	0
 4642 0ef8 11       		.uleb128 0x11
 4643 0ef9 5A020000 		.4byte	.LVL120
 4644 0efd 82170000 		.4byte	0x1782
 4645 0f01 300F0000 		.4byte	0xf30
 4646 0f05 12       		.uleb128 0x12
ARM GAS  C:\Users\HELLOK~1.1\AppData\Local\Temp\cciBhXYB.s 			page 95


 4647 0f06 01       		.uleb128 0x1
 4648 0f07 50       		.byte	0x50
 4649 0f08 02       		.uleb128 0x2
 4650 0f09 91       		.byte	0x91
 4651 0f0a 40       		.sleb128 -64
 4652 0f0b 12       		.uleb128 0x12
 4653 0f0c 01       		.uleb128 0x1
 4654 0f0d 51       		.byte	0x51
 4655 0f0e 01       		.uleb128 0x1
 4656 0f0f 45       		.byte	0x45
 4657 0f10 12       		.uleb128 0x12
 4658 0f11 01       		.uleb128 0x1
 4659 0f12 52       		.byte	0x52
 4660 0f13 05       		.uleb128 0x5
 4661 0f14 03       		.byte	0x3
 4662 0f15 B0000000 		.4byte	.LC42
 4663 0f19 12       		.uleb128 0x12
 4664 0f1a 01       		.uleb128 0x1
 4665 0f1b 53       		.byte	0x53
 4666 0f1c 02       		.uleb128 0x2
 4667 0f1d 75       		.byte	0x75
 4668 0f1e 00       		.sleb128 0
 4669 0f1f 12       		.uleb128 0x12
 4670 0f20 02       		.uleb128 0x2
 4671 0f21 7D       		.byte	0x7d
 4672 0f22 00       		.sleb128 0
 4673 0f23 02       		.uleb128 0x2
 4674 0f24 76       		.byte	0x76
 4675 0f25 00       		.sleb128 0
 4676 0f26 12       		.uleb128 0x12
 4677 0f27 02       		.uleb128 0x2
 4678 0f28 7D       		.byte	0x7d
 4679 0f29 04       		.sleb128 4
 4680 0f2a 04       		.uleb128 0x4
 4681 0f2b 91       		.byte	0x91
 4682 0f2c 9C7F     		.sleb128 -100
 4683 0f2e 06       		.byte	0x6
 4684 0f2f 00       		.byte	0
 4685 0f30 11       		.uleb128 0x11
 4686 0f31 60020000 		.4byte	.LVL121
 4687 0f35 8D170000 		.4byte	0x178d
 4688 0f39 440F0000 		.4byte	0xf44
 4689 0f3d 12       		.uleb128 0x12
 4690 0f3e 01       		.uleb128 0x1
 4691 0f3f 50       		.byte	0x50
 4692 0f40 02       		.uleb128 0x2
 4693 0f41 91       		.byte	0x91
 4694 0f42 40       		.sleb128 -64
 4695 0f43 00       		.byte	0
 4696 0f44 11       		.uleb128 0x11
 4697 0f45 CA020000 		.4byte	.LVL131
 4698 0f49 77170000 		.4byte	0x1777
 4699 0f4d 5C0F0000 		.4byte	0xf5c
 4700 0f51 12       		.uleb128 0x12
 4701 0f52 01       		.uleb128 0x1
 4702 0f53 50       		.byte	0x50
 4703 0f54 01       		.uleb128 0x1
ARM GAS  C:\Users\HELLOK~1.1\AppData\Local\Temp\cciBhXYB.s 			page 96


 4704 0f55 30       		.byte	0x30
 4705 0f56 12       		.uleb128 0x12
 4706 0f57 01       		.uleb128 0x1
 4707 0f58 51       		.byte	0x51
 4708 0f59 01       		.uleb128 0x1
 4709 0f5a 30       		.byte	0x30
 4710 0f5b 00       		.byte	0
 4711 0f5c 11       		.uleb128 0x11
 4712 0f5d D0020000 		.4byte	.LVL132
 4713 0f61 8D170000 		.4byte	0x178d
 4714 0f65 730F0000 		.4byte	0xf73
 4715 0f69 12       		.uleb128 0x12
 4716 0f6a 01       		.uleb128 0x1
 4717 0f6b 50       		.byte	0x50
 4718 0f6c 05       		.uleb128 0x5
 4719 0f6d 03       		.byte	0x3
 4720 0f6e C4000000 		.4byte	.LC44
 4721 0f72 00       		.byte	0
 4722 0f73 11       		.uleb128 0x11
 4723 0f74 36030000 		.4byte	.LVL142
 4724 0f78 77170000 		.4byte	0x1777
 4725 0f7c 8B0F0000 		.4byte	0xf8b
 4726 0f80 12       		.uleb128 0x12
 4727 0f81 01       		.uleb128 0x1
 4728 0f82 50       		.byte	0x50
 4729 0f83 01       		.uleb128 0x1
 4730 0f84 30       		.byte	0x30
 4731 0f85 12       		.uleb128 0x12
 4732 0f86 01       		.uleb128 0x1
 4733 0f87 51       		.byte	0x51
 4734 0f88 01       		.uleb128 0x1
 4735 0f89 30       		.byte	0x30
 4736 0f8a 00       		.byte	0
 4737 0f8b 11       		.uleb128 0x11
 4738 0f8c 3C030000 		.4byte	.LVL143
 4739 0f90 8D170000 		.4byte	0x178d
 4740 0f94 A20F0000 		.4byte	0xfa2
 4741 0f98 12       		.uleb128 0x12
 4742 0f99 01       		.uleb128 0x1
 4743 0f9a 50       		.byte	0x50
 4744 0f9b 05       		.uleb128 0x5
 4745 0f9c 03       		.byte	0x3
 4746 0f9d D0000000 		.4byte	.LC46
 4747 0fa1 00       		.byte	0
 4748 0fa2 11       		.uleb128 0x11
 4749 0fa3 9A030000 		.4byte	.LVL148
 4750 0fa7 77170000 		.4byte	0x1777
 4751 0fab BA0F0000 		.4byte	0xfba
 4752 0faf 12       		.uleb128 0x12
 4753 0fb0 01       		.uleb128 0x1
 4754 0fb1 50       		.byte	0x50
 4755 0fb2 01       		.uleb128 0x1
 4756 0fb3 35       		.byte	0x35
 4757 0fb4 12       		.uleb128 0x12
 4758 0fb5 01       		.uleb128 0x1
 4759 0fb6 51       		.byte	0x51
 4760 0fb7 01       		.uleb128 0x1
ARM GAS  C:\Users\HELLOK~1.1\AppData\Local\Temp\cciBhXYB.s 			page 97


 4761 0fb8 32       		.byte	0x32
 4762 0fb9 00       		.byte	0
 4763 0fba 11       		.uleb128 0x11
 4764 0fbb A4030000 		.4byte	.LVL149
 4765 0fbf 8D170000 		.4byte	0x178d
 4766 0fc3 D10F0000 		.4byte	0xfd1
 4767 0fc7 12       		.uleb128 0x12
 4768 0fc8 01       		.uleb128 0x1
 4769 0fc9 50       		.byte	0x50
 4770 0fca 05       		.uleb128 0x5
 4771 0fcb 03       		.byte	0x3
 4772 0fcc A0000000 		.4byte	.LC0
 4773 0fd0 00       		.byte	0
 4774 0fd1 11       		.uleb128 0x11
 4775 0fd2 AC030000 		.4byte	.LVL150
 4776 0fd6 8D170000 		.4byte	0x178d
 4777 0fda E80F0000 		.4byte	0xfe8
 4778 0fde 12       		.uleb128 0x12
 4779 0fdf 01       		.uleb128 0x1
 4780 0fe0 50       		.byte	0x50
 4781 0fe1 05       		.uleb128 0x5
 4782 0fe2 03       		.byte	0x3
 4783 0fe3 9C000000 		.4byte	.LC4
 4784 0fe7 00       		.byte	0
 4785 0fe8 11       		.uleb128 0x11
 4786 0fe9 D8030000 		.4byte	.LVL152
 4787 0fed 2B030000 		.4byte	0x32b
 4788 0ff1 07100000 		.4byte	0x1007
 4789 0ff5 12       		.uleb128 0x12
 4790 0ff6 01       		.uleb128 0x1
 4791 0ff7 50       		.byte	0x50
 4792 0ff8 02       		.uleb128 0x2
 4793 0ff9 75       		.byte	0x75
 4794 0ffa 00       		.sleb128 0
 4795 0ffb 12       		.uleb128 0x12
 4796 0ffc 01       		.uleb128 0x1
 4797 0ffd 51       		.byte	0x51
 4798 0ffe 01       		.uleb128 0x1
 4799 0fff 32       		.byte	0x32
 4800 1000 12       		.uleb128 0x12
 4801 1001 01       		.uleb128 0x1
 4802 1002 52       		.byte	0x52
 4803 1003 02       		.uleb128 0x2
 4804 1004 08       		.byte	0x8
 4805 1005 51       		.byte	0x51
 4806 1006 00       		.byte	0
 4807 1007 11       		.uleb128 0x11
 4808 1008 DE030000 		.4byte	.LVL153
 4809 100c 25020000 		.4byte	0x225
 4810 1010 1B100000 		.4byte	0x101b
 4811 1014 12       		.uleb128 0x12
 4812 1015 01       		.uleb128 0x1
 4813 1016 50       		.byte	0x50
 4814 1017 02       		.uleb128 0x2
 4815 1018 76       		.byte	0x76
 4816 1019 00       		.sleb128 0
 4817 101a 00       		.byte	0
ARM GAS  C:\Users\HELLOK~1.1\AppData\Local\Temp\cciBhXYB.s 			page 98


 4818 101b 11       		.uleb128 0x11
 4819 101c EC030000 		.4byte	.LVL154
 4820 1020 2B030000 		.4byte	0x32b
 4821 1024 3A100000 		.4byte	0x103a
 4822 1028 12       		.uleb128 0x12
 4823 1029 01       		.uleb128 0x1
 4824 102a 50       		.byte	0x50
 4825 102b 02       		.uleb128 0x2
 4826 102c 75       		.byte	0x75
 4827 102d 00       		.sleb128 0
 4828 102e 12       		.uleb128 0x12
 4829 102f 01       		.uleb128 0x1
 4830 1030 51       		.byte	0x51
 4831 1031 01       		.uleb128 0x1
 4832 1032 32       		.byte	0x32
 4833 1033 12       		.uleb128 0x12
 4834 1034 01       		.uleb128 0x1
 4835 1035 52       		.byte	0x52
 4836 1036 02       		.uleb128 0x2
 4837 1037 08       		.byte	0x8
 4838 1038 51       		.byte	0x51
 4839 1039 00       		.byte	0
 4840 103a 11       		.uleb128 0x11
 4841 103b F4030000 		.4byte	.LVL155
 4842 103f 25020000 		.4byte	0x225
 4843 1043 51100000 		.4byte	0x1051
 4844 1047 12       		.uleb128 0x12
 4845 1048 01       		.uleb128 0x1
 4846 1049 50       		.byte	0x50
 4847 104a 05       		.uleb128 0x5
 4848 104b 91       		.byte	0x91
 4849 104c 907F     		.sleb128 -112
 4850 104e 94       		.byte	0x94
 4851 104f 01       		.byte	0x1
 4852 1050 00       		.byte	0
 4853 1051 11       		.uleb128 0x11
 4854 1052 02040000 		.4byte	.LVL156
 4855 1056 2B030000 		.4byte	0x32b
 4856 105a 70100000 		.4byte	0x1070
 4857 105e 12       		.uleb128 0x12
 4858 105f 01       		.uleb128 0x1
 4859 1060 50       		.byte	0x50
 4860 1061 02       		.uleb128 0x2
 4861 1062 75       		.byte	0x75
 4862 1063 00       		.sleb128 0
 4863 1064 12       		.uleb128 0x12
 4864 1065 01       		.uleb128 0x1
 4865 1066 51       		.byte	0x51
 4866 1067 01       		.uleb128 0x1
 4867 1068 32       		.byte	0x32
 4868 1069 12       		.uleb128 0x12
 4869 106a 01       		.uleb128 0x1
 4870 106b 52       		.byte	0x52
 4871 106c 02       		.uleb128 0x2
 4872 106d 08       		.byte	0x8
 4873 106e 51       		.byte	0x51
 4874 106f 00       		.byte	0
ARM GAS  C:\Users\HELLOK~1.1\AppData\Local\Temp\cciBhXYB.s 			page 99


 4875 1070 11       		.uleb128 0x11
 4876 1071 0A040000 		.4byte	.LVL157
 4877 1075 25020000 		.4byte	0x225
 4878 1079 86100000 		.4byte	0x1086
 4879 107d 12       		.uleb128 0x12
 4880 107e 01       		.uleb128 0x1
 4881 107f 50       		.byte	0x50
 4882 1080 04       		.uleb128 0x4
 4883 1081 76       		.byte	0x76
 4884 1082 00       		.sleb128 0
 4885 1083 94       		.byte	0x94
 4886 1084 01       		.byte	0x1
 4887 1085 00       		.byte	0
 4888 1086 11       		.uleb128 0x11
 4889 1087 18040000 		.4byte	.LVL158
 4890 108b 2B030000 		.4byte	0x32b
 4891 108f A5100000 		.4byte	0x10a5
 4892 1093 12       		.uleb128 0x12
 4893 1094 01       		.uleb128 0x1
 4894 1095 50       		.byte	0x50
 4895 1096 02       		.uleb128 0x2
 4896 1097 75       		.byte	0x75
 4897 1098 00       		.sleb128 0
 4898 1099 12       		.uleb128 0x12
 4899 109a 01       		.uleb128 0x1
 4900 109b 51       		.byte	0x51
 4901 109c 01       		.uleb128 0x1
 4902 109d 32       		.byte	0x32
 4903 109e 12       		.uleb128 0x12
 4904 109f 01       		.uleb128 0x1
 4905 10a0 52       		.byte	0x52
 4906 10a1 02       		.uleb128 0x2
 4907 10a2 08       		.byte	0x8
 4908 10a3 51       		.byte	0x51
 4909 10a4 00       		.byte	0
 4910 10a5 11       		.uleb128 0x11
 4911 10a6 28040000 		.4byte	.LVL159
 4912 10aa 2B030000 		.4byte	0x32b
 4913 10ae C4100000 		.4byte	0x10c4
 4914 10b2 12       		.uleb128 0x12
 4915 10b3 01       		.uleb128 0x1
 4916 10b4 50       		.byte	0x50
 4917 10b5 02       		.uleb128 0x2
 4918 10b6 75       		.byte	0x75
 4919 10b7 00       		.sleb128 0
 4920 10b8 12       		.uleb128 0x12
 4921 10b9 01       		.uleb128 0x1
 4922 10ba 51       		.byte	0x51
 4923 10bb 01       		.uleb128 0x1
 4924 10bc 32       		.byte	0x32
 4925 10bd 12       		.uleb128 0x12
 4926 10be 01       		.uleb128 0x1
 4927 10bf 52       		.byte	0x52
 4928 10c0 02       		.uleb128 0x2
 4929 10c1 08       		.byte	0x8
 4930 10c2 51       		.byte	0x51
 4931 10c3 00       		.byte	0
ARM GAS  C:\Users\HELLOK~1.1\AppData\Local\Temp\cciBhXYB.s 			page 100


 4932 10c4 11       		.uleb128 0x11
 4933 10c5 2E040000 		.4byte	.LVL160
 4934 10c9 25020000 		.4byte	0x225
 4935 10cd D8100000 		.4byte	0x10d8
 4936 10d1 12       		.uleb128 0x12
 4937 10d2 01       		.uleb128 0x1
 4938 10d3 50       		.byte	0x50
 4939 10d4 02       		.uleb128 0x2
 4940 10d5 74       		.byte	0x74
 4941 10d6 00       		.sleb128 0
 4942 10d7 00       		.byte	0
 4943 10d8 11       		.uleb128 0x11
 4944 10d9 3C040000 		.4byte	.LVL161
 4945 10dd 2B030000 		.4byte	0x32b
 4946 10e1 F7100000 		.4byte	0x10f7
 4947 10e5 12       		.uleb128 0x12
 4948 10e6 01       		.uleb128 0x1
 4949 10e7 50       		.byte	0x50
 4950 10e8 02       		.uleb128 0x2
 4951 10e9 75       		.byte	0x75
 4952 10ea 00       		.sleb128 0
 4953 10eb 12       		.uleb128 0x12
 4954 10ec 01       		.uleb128 0x1
 4955 10ed 51       		.byte	0x51
 4956 10ee 01       		.uleb128 0x1
 4957 10ef 32       		.byte	0x32
 4958 10f0 12       		.uleb128 0x12
 4959 10f1 01       		.uleb128 0x1
 4960 10f2 52       		.byte	0x52
 4961 10f3 02       		.uleb128 0x2
 4962 10f4 08       		.byte	0x8
 4963 10f5 51       		.byte	0x51
 4964 10f6 00       		.byte	0
 4965 10f7 13       		.uleb128 0x13
 4966 10f8 42040000 		.4byte	.LVL162
 4967 10fc 25020000 		.4byte	0x225
 4968 1100 11       		.uleb128 0x11
 4969 1101 50040000 		.4byte	.LVL163
 4970 1105 2B030000 		.4byte	0x32b
 4971 1109 1F110000 		.4byte	0x111f
 4972 110d 12       		.uleb128 0x12
 4973 110e 01       		.uleb128 0x1
 4974 110f 50       		.byte	0x50
 4975 1110 02       		.uleb128 0x2
 4976 1111 75       		.byte	0x75
 4977 1112 00       		.sleb128 0
 4978 1113 12       		.uleb128 0x12
 4979 1114 01       		.uleb128 0x1
 4980 1115 51       		.byte	0x51
 4981 1116 01       		.uleb128 0x1
 4982 1117 32       		.byte	0x32
 4983 1118 12       		.uleb128 0x12
 4984 1119 01       		.uleb128 0x1
 4985 111a 52       		.byte	0x52
 4986 111b 02       		.uleb128 0x2
 4987 111c 08       		.byte	0x8
 4988 111d 51       		.byte	0x51
ARM GAS  C:\Users\HELLOK~1.1\AppData\Local\Temp\cciBhXYB.s 			page 101


 4989 111e 00       		.byte	0
 4990 111f 13       		.uleb128 0x13
 4991 1120 54040000 		.4byte	.LVL164
 4992 1124 1C080000 		.4byte	0x81c
 4993 1128 00       		.byte	0
 4994 1129 14       		.uleb128 0x14
 4995 112a 9D000000 		.4byte	0x9d
 4996 112e 39110000 		.4byte	0x1139
 4997 1132 15       		.uleb128 0x15
 4998 1133 B0000000 		.4byte	0xb0
 4999 1137 02       		.byte	0x2
 5000 1138 00       		.byte	0
 5001 1139 14       		.uleb128 0x14
 5002 113a 9D000000 		.4byte	0x9d
 5003 113e 49110000 		.4byte	0x1149
 5004 1142 15       		.uleb128 0x15
 5005 1143 B0000000 		.4byte	0xb0
 5006 1147 04       		.byte	0x4
 5007 1148 00       		.byte	0
 5008 1149 05       		.uleb128 0x5
 5009 114a CE000000 		.4byte	0xce
 5010 114e 21       		.uleb128 0x21
 5011 114f 02020000 		.4byte	.LASF73
 5012 1153 01       		.byte	0x1
 5013 1154 D201     		.2byte	0x1d2
 5014 1156 00000000 		.4byte	.LFB46
 5015 115a 02000000 		.4byte	.LFE46-.LFB46
 5016 115e 01       		.uleb128 0x1
 5017 115f 9C       		.byte	0x9c
 5018 1160 21       		.uleb128 0x21
 5019 1161 D3030000 		.4byte	.LASF74
 5020 1165 01       		.byte	0x1
 5021 1166 D501     		.2byte	0x1d5
 5022 1168 00000000 		.4byte	.LFB47
 5023 116c 02000000 		.4byte	.LFE47-.LFB47
 5024 1170 01       		.uleb128 0x1
 5025 1171 9C       		.byte	0x9c
 5026 1172 21       		.uleb128 0x21
 5027 1173 05030000 		.4byte	.LASF75
 5028 1177 01       		.byte	0x1
 5029 1178 D801     		.2byte	0x1d8
 5030 117a 00000000 		.4byte	.LFB48
 5031 117e 02000000 		.4byte	.LFE48-.LFB48
 5032 1182 01       		.uleb128 0x1
 5033 1183 9C       		.byte	0x9c
 5034 1184 21       		.uleb128 0x21
 5035 1185 12050000 		.4byte	.LASF76
 5036 1189 01       		.byte	0x1
 5037 118a DB01     		.2byte	0x1db
 5038 118c 00000000 		.4byte	.LFB49
 5039 1190 02000000 		.4byte	.LFE49-.LFB49
 5040 1194 01       		.uleb128 0x1
 5041 1195 9C       		.byte	0x9c
 5042 1196 22       		.uleb128 0x22
 5043 1197 27030000 		.4byte	.LASF77
 5044 119b 01       		.byte	0x1
 5045 119c E001     		.2byte	0x1e0
ARM GAS  C:\Users\HELLOK~1.1\AppData\Local\Temp\cciBhXYB.s 			page 102


 5046 119e 00000000 		.4byte	.LFB50
 5047 11a2 D0000000 		.4byte	.LFE50-.LFB50
 5048 11a6 01       		.uleb128 0x1
 5049 11a7 9C       		.byte	0x9c
 5050 11a8 CA120000 		.4byte	0x12ca
 5051 11ac 1D       		.uleb128 0x1d
 5052 11ad 2E000000 		.4byte	.LASF78
 5053 11b1 01       		.byte	0x1
 5054 11b2 E201     		.2byte	0x1e2
 5055 11b4 6B000000 		.4byte	0x6b
 5056 11b8 44020000 		.4byte	.LLST12
 5057 11bc 13       		.uleb128 0x13
 5058 11bd 06000000 		.4byte	.LVL166
 5059 11c1 98170000 		.4byte	0x1798
 5060 11c5 11       		.uleb128 0x11
 5061 11c6 0E000000 		.4byte	.LVL167
 5062 11ca 77170000 		.4byte	0x1777
 5063 11ce DD110000 		.4byte	0x11dd
 5064 11d2 12       		.uleb128 0x12
 5065 11d3 01       		.uleb128 0x1
 5066 11d4 50       		.byte	0x50
 5067 11d5 01       		.uleb128 0x1
 5068 11d6 30       		.byte	0x30
 5069 11d7 12       		.uleb128 0x12
 5070 11d8 01       		.uleb128 0x1
 5071 11d9 51       		.byte	0x51
 5072 11da 01       		.uleb128 0x1
 5073 11db 30       		.byte	0x30
 5074 11dc 00       		.byte	0
 5075 11dd 11       		.uleb128 0x11
 5076 11de 14000000 		.4byte	.LVL168
 5077 11e2 8D170000 		.4byte	0x178d
 5078 11e6 F4110000 		.4byte	0x11f4
 5079 11ea 12       		.uleb128 0x12
 5080 11eb 01       		.uleb128 0x1
 5081 11ec 50       		.byte	0x50
 5082 11ed 05       		.uleb128 0x5
 5083 11ee 03       		.byte	0x3
 5084 11ef E0000000 		.4byte	.LC48
 5085 11f3 00       		.byte	0
 5086 11f4 11       		.uleb128 0x11
 5087 11f5 1C000000 		.4byte	.LVL169
 5088 11f9 77170000 		.4byte	0x1777
 5089 11fd 0C120000 		.4byte	0x120c
 5090 1201 12       		.uleb128 0x12
 5091 1202 01       		.uleb128 0x1
 5092 1203 50       		.byte	0x50
 5093 1204 01       		.uleb128 0x1
 5094 1205 30       		.byte	0x30
 5095 1206 12       		.uleb128 0x12
 5096 1207 01       		.uleb128 0x1
 5097 1208 51       		.byte	0x51
 5098 1209 01       		.uleb128 0x1
 5099 120a 31       		.byte	0x31
 5100 120b 00       		.byte	0
 5101 120c 11       		.uleb128 0x11
 5102 120d 22000000 		.4byte	.LVL170
ARM GAS  C:\Users\HELLOK~1.1\AppData\Local\Temp\cciBhXYB.s 			page 103


 5103 1211 8D170000 		.4byte	0x178d
 5104 1215 23120000 		.4byte	0x1223
 5105 1219 12       		.uleb128 0x12
 5106 121a 01       		.uleb128 0x1
 5107 121b 50       		.byte	0x50
 5108 121c 05       		.uleb128 0x5
 5109 121d 03       		.byte	0x3
 5110 121e F0000000 		.4byte	.LC50
 5111 1222 00       		.byte	0
 5112 1223 11       		.uleb128 0x11
 5113 1224 2A000000 		.4byte	.LVL171
 5114 1228 77170000 		.4byte	0x1777
 5115 122c 3B120000 		.4byte	0x123b
 5116 1230 12       		.uleb128 0x12
 5117 1231 01       		.uleb128 0x1
 5118 1232 50       		.byte	0x50
 5119 1233 01       		.uleb128 0x1
 5120 1234 30       		.byte	0x30
 5121 1235 12       		.uleb128 0x12
 5122 1236 01       		.uleb128 0x1
 5123 1237 51       		.byte	0x51
 5124 1238 01       		.uleb128 0x1
 5125 1239 32       		.byte	0x32
 5126 123a 00       		.byte	0
 5127 123b 11       		.uleb128 0x11
 5128 123c 30000000 		.4byte	.LVL172
 5129 1240 8D170000 		.4byte	0x178d
 5130 1244 52120000 		.4byte	0x1252
 5131 1248 12       		.uleb128 0x12
 5132 1249 01       		.uleb128 0x1
 5133 124a 50       		.byte	0x50
 5134 124b 05       		.uleb128 0x5
 5135 124c 03       		.byte	0x3
 5136 124d 18000000 		.4byte	.LC11
 5137 1251 00       		.byte	0
 5138 1252 11       		.uleb128 0x11
 5139 1253 38000000 		.4byte	.LVL173
 5140 1257 77170000 		.4byte	0x1777
 5141 125b 6A120000 		.4byte	0x126a
 5142 125f 12       		.uleb128 0x12
 5143 1260 01       		.uleb128 0x1
 5144 1261 50       		.byte	0x50
 5145 1262 01       		.uleb128 0x1
 5146 1263 30       		.byte	0x30
 5147 1264 12       		.uleb128 0x12
 5148 1265 01       		.uleb128 0x1
 5149 1266 51       		.byte	0x51
 5150 1267 01       		.uleb128 0x1
 5151 1268 33       		.byte	0x33
 5152 1269 00       		.byte	0
 5153 126a 11       		.uleb128 0x11
 5154 126b 3E000000 		.4byte	.LVL174
 5155 126f 8D170000 		.4byte	0x178d
 5156 1273 81120000 		.4byte	0x1281
 5157 1277 12       		.uleb128 0x12
 5158 1278 01       		.uleb128 0x1
 5159 1279 50       		.byte	0x50
ARM GAS  C:\Users\HELLOK~1.1\AppData\Local\Temp\cciBhXYB.s 			page 104


 5160 127a 05       		.uleb128 0x5
 5161 127b 03       		.byte	0x3
 5162 127c 00010000 		.4byte	.LC53
 5163 1280 00       		.byte	0
 5164 1281 11       		.uleb128 0x11
 5165 1282 46000000 		.4byte	.LVL175
 5166 1286 A3170000 		.4byte	0x17a3
 5167 128a 96120000 		.4byte	0x1296
 5168 128e 12       		.uleb128 0x12
 5169 128f 01       		.uleb128 0x1
 5170 1290 50       		.byte	0x50
 5171 1291 03       		.uleb128 0x3
 5172 1292 0A       		.byte	0xa
 5173 1293 E803     		.2byte	0x3e8
 5174 1295 00       		.byte	0
 5175 1296 11       		.uleb128 0x11
 5176 1297 88000000 		.4byte	.LVL184
 5177 129b 77170000 		.4byte	0x1777
 5178 129f AE120000 		.4byte	0x12ae
 5179 12a3 12       		.uleb128 0x12
 5180 12a4 01       		.uleb128 0x1
 5181 12a5 50       		.byte	0x50
 5182 12a6 01       		.uleb128 0x1
 5183 12a7 30       		.byte	0x30
 5184 12a8 12       		.uleb128 0x12
 5185 12a9 01       		.uleb128 0x1
 5186 12aa 51       		.byte	0x51
 5187 12ab 01       		.uleb128 0x1
 5188 12ac 33       		.byte	0x33
 5189 12ad 00       		.byte	0
 5190 12ae 13       		.uleb128 0x13
 5191 12af 94000000 		.4byte	.LVL185
 5192 12b3 8D170000 		.4byte	0x178d
 5193 12b7 13       		.uleb128 0x13
 5194 12b8 B0000000 		.4byte	.LVL186
 5195 12bc DD090000 		.4byte	0x9dd
 5196 12c0 13       		.uleb128 0x13
 5197 12c1 B6000000 		.4byte	.LVL187
 5198 12c5 1C080000 		.4byte	0x81c
 5199 12c9 00       		.byte	0
 5200 12ca 23       		.uleb128 0x23
 5201 12cb AF000000 		.4byte	.LASF109
 5202 12cf 01       		.byte	0x1
 5203 12d0 2602     		.2byte	0x226
 5204 12d2 5D000000 		.4byte	0x5d
 5205 12d6 00000000 		.4byte	.LFB51
 5206 12da 18020000 		.4byte	.LFE51-.LFB51
 5207 12de 01       		.uleb128 0x1
 5208 12df 9C       		.byte	0x9c
 5209 12e0 63160000 		.4byte	0x1663
 5210 12e4 1F       		.uleb128 0x1f
 5211 12e5 A6030000 		.4byte	.LASF79
 5212 12e9 01       		.byte	0x1
 5213 12ea 2E02     		.2byte	0x22e
 5214 12ec CE000000 		.4byte	0xce
 5215 12f0 02       		.uleb128 0x2
 5216 12f1 91       		.byte	0x91
ARM GAS  C:\Users\HELLOK~1.1\AppData\Local\Temp\cciBhXYB.s 			page 105


 5217 12f2 50       		.sleb128 -48
 5218 12f3 1F       		.uleb128 0x1f
 5219 12f4 37040000 		.4byte	.LASF80
 5220 12f8 01       		.byte	0x1
 5221 12f9 2F02     		.2byte	0x22f
 5222 12fb FE000000 		.4byte	0xfe
 5223 12ff 02       		.uleb128 0x2
 5224 1300 91       		.byte	0x91
 5225 1301 44       		.sleb128 -60
 5226 1302 1F       		.uleb128 0x1f
 5227 1303 6E040000 		.4byte	.LASF53
 5228 1307 01       		.byte	0x1
 5229 1308 3002     		.2byte	0x230
 5230 130a CE000000 		.4byte	0xce
 5231 130e 03       		.uleb128 0x3
 5232 130f 91       		.byte	0x91
 5233 1310 BC7F     		.sleb128 -68
 5234 1312 1F       		.uleb128 0x1f
 5235 1313 4B020000 		.4byte	.LASF55
 5236 1317 01       		.byte	0x1
 5237 1318 3102     		.2byte	0x231
 5238 131a FE000000 		.4byte	0xfe
 5239 131e 03       		.uleb128 0x3
 5240 131f 91       		.byte	0x91
 5241 1320 B07F     		.sleb128 -80
 5242 1322 1F       		.uleb128 0x1f
 5243 1323 B3040000 		.4byte	.LASF50
 5244 1327 01       		.byte	0x1
 5245 1328 3302     		.2byte	0x233
 5246 132a AF040000 		.4byte	0x4af
 5247 132e 03       		.uleb128 0x3
 5248 132f 91       		.byte	0x91
 5249 1330 AC7F     		.sleb128 -84
 5250 1332 20       		.uleb128 0x20
 5251 1333 8A000000 		.4byte	.LBB8
 5252 1337 76010000 		.4byte	.LBE8-.LBB8
 5253 133b D8150000 		.4byte	0x15d8
 5254 133f 1F       		.uleb128 0x1f
 5255 1340 48050000 		.4byte	.LASF66
 5256 1344 01       		.byte	0x1
 5257 1345 3E02     		.2byte	0x23e
 5258 1347 CE000000 		.4byte	0xce
 5259 134b 03       		.uleb128 0x3
 5260 134c 91       		.byte	0x91
 5261 134d 887F     		.sleb128 -120
 5262 134f 1E       		.uleb128 0x1e
 5263 1350 73656300 		.ascii	"sec\000"
 5264 1354 01       		.byte	0x1
 5265 1355 4002     		.2byte	0x240
 5266 1357 1B030000 		.4byte	0x31b
 5267 135b 03       		.uleb128 0x3
 5268 135c 91       		.byte	0x91
 5269 135d EC7E     		.sleb128 -148
 5270 135f 1E       		.uleb128 0x1e
 5271 1360 6D696E00 		.ascii	"min\000"
 5272 1364 01       		.byte	0x1
 5273 1365 4202     		.2byte	0x242
ARM GAS  C:\Users\HELLOK~1.1\AppData\Local\Temp\cciBhXYB.s 			page 106


 5274 1367 1B030000 		.4byte	0x31b
 5275 136b 03       		.uleb128 0x3
 5276 136c 91       		.byte	0x91
 5277 136d F07E     		.sleb128 -144
 5278 136f 1F       		.uleb128 0x1f
 5279 1370 84020000 		.4byte	.LASF17
 5280 1374 01       		.byte	0x1
 5281 1375 4402     		.2byte	0x244
 5282 1377 1B030000 		.4byte	0x31b
 5283 137b 03       		.uleb128 0x3
 5284 137c 91       		.byte	0x91
 5285 137d F47E     		.sleb128 -140
 5286 137f 1E       		.uleb128 0x1e
 5287 1380 64617900 		.ascii	"day\000"
 5288 1384 01       		.byte	0x1
 5289 1385 4602     		.2byte	0x246
 5290 1387 1B030000 		.4byte	0x31b
 5291 138b 03       		.uleb128 0x3
 5292 138c 91       		.byte	0x91
 5293 138d F87E     		.sleb128 -136
 5294 138f 1F       		.uleb128 0x1f
 5295 1390 14040000 		.4byte	.LASF21
 5296 1394 01       		.byte	0x1
 5297 1395 4802     		.2byte	0x248
 5298 1397 1B030000 		.4byte	0x31b
 5299 139b 03       		.uleb128 0x3
 5300 139c 91       		.byte	0x91
 5301 139d FC7E     		.sleb128 -132
 5302 139f 1F       		.uleb128 0x1f
 5303 13a0 D3000000 		.4byte	.LASF22
 5304 13a4 01       		.byte	0x1
 5305 13a5 4A02     		.2byte	0x24a
 5306 13a7 1B030000 		.4byte	0x31b
 5307 13ab 03       		.uleb128 0x3
 5308 13ac 91       		.byte	0x91
 5309 13ad 807F     		.sleb128 -128
 5310 13af 1F       		.uleb128 0x1f
 5311 13b0 E3030000 		.4byte	.LASF81
 5312 13b4 01       		.byte	0x1
 5313 13b5 5502     		.2byte	0x255
 5314 13b7 FE000000 		.4byte	0xfe
 5315 13bb 03       		.uleb128 0x3
 5316 13bc 91       		.byte	0x91
 5317 13bd A07F     		.sleb128 -96
 5318 13bf 20       		.uleb128 0x20
 5319 13c0 DC000000 		.4byte	.LBB9
 5320 13c4 2C000000 		.4byte	.LBE9-.LBB9
 5321 13c8 2C140000 		.4byte	0x142c
 5322 13cc 1F       		.uleb128 0x1f
 5323 13cd 1E030000 		.4byte	.LASF52
 5324 13d1 01       		.byte	0x1
 5325 13d2 4D02     		.2byte	0x24d
 5326 13d4 49110000 		.4byte	0x1149
 5327 13d8 03       		.uleb128 0x3
 5328 13d9 91       		.byte	0x91
 5329 13da 907F     		.sleb128 -112
 5330 13dc 13       		.uleb128 0x13
ARM GAS  C:\Users\HELLOK~1.1\AppData\Local\Temp\cciBhXYB.s 			page 107


 5331 13dd E0000000 		.4byte	.LVL203
 5332 13e1 FC010000 		.4byte	0x1fc
 5333 13e5 13       		.uleb128 0x13
 5334 13e6 EE000000 		.4byte	.LVL204
 5335 13ea FC010000 		.4byte	0x1fc
 5336 13ee 11       		.uleb128 0x11
 5337 13ef FE000000 		.4byte	.LVL205
 5338 13f3 AE170000 		.4byte	0x17ae
 5339 13f7 0E140000 		.4byte	0x140e
 5340 13fb 12       		.uleb128 0x12
 5341 13fc 01       		.uleb128 0x1
 5342 13fd 50       		.byte	0x50
 5343 13fe 03       		.uleb128 0x3
 5344 13ff 91       		.byte	0x91
 5345 1400 907F     		.sleb128 -112
 5346 1402 12       		.uleb128 0x12
 5347 1403 01       		.uleb128 0x1
 5348 1404 51       		.byte	0x51
 5349 1405 02       		.uleb128 0x2
 5350 1406 74       		.byte	0x74
 5351 1407 00       		.sleb128 0
 5352 1408 12       		.uleb128 0x12
 5353 1409 01       		.uleb128 0x1
 5354 140a 52       		.byte	0x52
 5355 140b 01       		.uleb128 0x1
 5356 140c 38       		.byte	0x38
 5357 140d 00       		.byte	0
 5358 140e 17       		.uleb128 0x17
 5359 140f 08010000 		.4byte	.LVL206
 5360 1413 AE170000 		.4byte	0x17ae
 5361 1417 12       		.uleb128 0x12
 5362 1418 01       		.uleb128 0x1
 5363 1419 50       		.byte	0x50
 5364 141a 03       		.uleb128 0x3
 5365 141b 91       		.byte	0x91
 5366 141c 887F     		.sleb128 -120
 5367 141e 12       		.uleb128 0x12
 5368 141f 01       		.uleb128 0x1
 5369 1420 51       		.byte	0x51
 5370 1421 03       		.uleb128 0x3
 5371 1422 91       		.byte	0x91
 5372 1423 907F     		.sleb128 -112
 5373 1425 12       		.uleb128 0x12
 5374 1426 01       		.uleb128 0x1
 5375 1427 52       		.byte	0x52
 5376 1428 01       		.uleb128 0x1
 5377 1429 38       		.byte	0x38
 5378 142a 00       		.byte	0
 5379 142b 00       		.byte	0
 5380 142c 20       		.uleb128 0x20
 5381 142d 0A010000 		.4byte	.LBB10
 5382 1431 2A000000 		.4byte	.LBE10-.LBB10
 5383 1435 99140000 		.4byte	0x1499
 5384 1439 1F       		.uleb128 0x1f
 5385 143a 1E030000 		.4byte	.LASF52
 5386 143e 01       		.byte	0x1
 5387 143f 5102     		.2byte	0x251
ARM GAS  C:\Users\HELLOK~1.1\AppData\Local\Temp\cciBhXYB.s 			page 108


 5388 1441 49110000 		.4byte	0x1149
 5389 1445 03       		.uleb128 0x3
 5390 1446 91       		.byte	0x91
 5391 1447 987F     		.sleb128 -104
 5392 1449 13       		.uleb128 0x13
 5393 144a 0E010000 		.4byte	.LVL207
 5394 144e FC010000 		.4byte	0x1fc
 5395 1452 13       		.uleb128 0x13
 5396 1453 1A010000 		.4byte	.LVL208
 5397 1457 FC010000 		.4byte	0x1fc
 5398 145b 11       		.uleb128 0x11
 5399 145c 2A010000 		.4byte	.LVL209
 5400 1460 AE170000 		.4byte	0x17ae
 5401 1464 7B140000 		.4byte	0x147b
 5402 1468 12       		.uleb128 0x12
 5403 1469 01       		.uleb128 0x1
 5404 146a 50       		.byte	0x50
 5405 146b 03       		.uleb128 0x3
 5406 146c 91       		.byte	0x91
 5407 146d 987F     		.sleb128 -104
 5408 146f 12       		.uleb128 0x12
 5409 1470 01       		.uleb128 0x1
 5410 1471 51       		.byte	0x51
 5411 1472 02       		.uleb128 0x2
 5412 1473 74       		.byte	0x74
 5413 1474 00       		.sleb128 0
 5414 1475 12       		.uleb128 0x12
 5415 1476 01       		.uleb128 0x1
 5416 1477 52       		.byte	0x52
 5417 1478 01       		.uleb128 0x1
 5418 1479 38       		.byte	0x38
 5419 147a 00       		.byte	0
 5420 147b 17       		.uleb128 0x17
 5421 147c 34010000 		.4byte	.LVL210
 5422 1480 AE170000 		.4byte	0x17ae
 5423 1484 12       		.uleb128 0x12
 5424 1485 01       		.uleb128 0x1
 5425 1486 50       		.byte	0x50
 5426 1487 03       		.uleb128 0x3
 5427 1488 91       		.byte	0x91
 5428 1489 887F     		.sleb128 -120
 5429 148b 12       		.uleb128 0x12
 5430 148c 01       		.uleb128 0x1
 5431 148d 51       		.byte	0x51
 5432 148e 03       		.uleb128 0x3
 5433 148f 91       		.byte	0x91
 5434 1490 987F     		.sleb128 -104
 5435 1492 12       		.uleb128 0x12
 5436 1493 01       		.uleb128 0x1
 5437 1494 52       		.byte	0x52
 5438 1495 01       		.uleb128 0x1
 5439 1496 38       		.byte	0x38
 5440 1497 00       		.byte	0
 5441 1498 00       		.byte	0
 5442 1499 20       		.uleb128 0x20
 5443 149a B6010000 		.4byte	.LBB11
 5444 149e 26000000 		.4byte	.LBE11-.LBB11
ARM GAS  C:\Users\HELLOK~1.1\AppData\Local\Temp\cciBhXYB.s 			page 109


 5445 14a2 BE140000 		.4byte	0x14be
 5446 14a6 1E       		.uleb128 0x1e
 5447 14a7 6100     		.ascii	"a\000"
 5448 14a9 01       		.byte	0x1
 5449 14aa 5C02     		.2byte	0x25c
 5450 14ac 63160000 		.4byte	0x1663
 5451 14b0 03       		.uleb128 0x3
 5452 14b1 91       		.byte	0x91
 5453 14b2 847F     		.sleb128 -124
 5454 14b4 13       		.uleb128 0x13
 5455 14b5 D6010000 		.4byte	.LVL216
 5456 14b9 73060000 		.4byte	0x673
 5457 14bd 00       		.byte	0
 5458 14be 11       		.uleb128 0x11
 5459 14bf 98000000 		.4byte	.LVL197
 5460 14c3 4E020000 		.4byte	0x24e
 5461 14c7 DE140000 		.4byte	0x14de
 5462 14cb 12       		.uleb128 0x12
 5463 14cc 01       		.uleb128 0x1
 5464 14cd 50       		.byte	0x50
 5465 14ce 03       		.uleb128 0x3
 5466 14cf 91       		.byte	0x91
 5467 14d0 EC7E     		.sleb128 -148
 5468 14d2 12       		.uleb128 0x12
 5469 14d3 01       		.uleb128 0x1
 5470 14d4 51       		.byte	0x51
 5471 14d5 01       		.uleb128 0x1
 5472 14d6 31       		.byte	0x31
 5473 14d7 12       		.uleb128 0x12
 5474 14d8 01       		.uleb128 0x1
 5475 14d9 52       		.byte	0x52
 5476 14da 02       		.uleb128 0x2
 5477 14db 08       		.byte	0x8
 5478 14dc 51       		.byte	0x51
 5479 14dd 00       		.byte	0
 5480 14de 11       		.uleb128 0x11
 5481 14df A4000000 		.4byte	.LVL198
 5482 14e3 4E020000 		.4byte	0x24e
 5483 14e7 FE140000 		.4byte	0x14fe
 5484 14eb 12       		.uleb128 0x12
 5485 14ec 01       		.uleb128 0x1
 5486 14ed 50       		.byte	0x50
 5487 14ee 03       		.uleb128 0x3
 5488 14ef 91       		.byte	0x91
 5489 14f0 F07E     		.sleb128 -144
 5490 14f2 12       		.uleb128 0x12
 5491 14f3 01       		.uleb128 0x1
 5492 14f4 51       		.byte	0x51
 5493 14f5 01       		.uleb128 0x1
 5494 14f6 31       		.byte	0x31
 5495 14f7 12       		.uleb128 0x12
 5496 14f8 01       		.uleb128 0x1
 5497 14f9 52       		.byte	0x52
 5498 14fa 02       		.uleb128 0x2
 5499 14fb 08       		.byte	0x8
 5500 14fc 51       		.byte	0x51
 5501 14fd 00       		.byte	0
ARM GAS  C:\Users\HELLOK~1.1\AppData\Local\Temp\cciBhXYB.s 			page 110


 5502 14fe 11       		.uleb128 0x11
 5503 14ff B2000000 		.4byte	.LVL199
 5504 1503 4E020000 		.4byte	0x24e
 5505 1507 1D150000 		.4byte	0x151d
 5506 150b 12       		.uleb128 0x12
 5507 150c 01       		.uleb128 0x1
 5508 150d 50       		.byte	0x50
 5509 150e 02       		.uleb128 0x2
 5510 150f 75       		.byte	0x75
 5511 1510 00       		.sleb128 0
 5512 1511 12       		.uleb128 0x12
 5513 1512 01       		.uleb128 0x1
 5514 1513 51       		.byte	0x51
 5515 1514 01       		.uleb128 0x1
 5516 1515 31       		.byte	0x31
 5517 1516 12       		.uleb128 0x12
 5518 1517 01       		.uleb128 0x1
 5519 1518 52       		.byte	0x52
 5520 1519 02       		.uleb128 0x2
 5521 151a 08       		.byte	0x8
 5522 151b 51       		.byte	0x51
 5523 151c 00       		.byte	0
 5524 151d 11       		.uleb128 0x11
 5525 151e BE000000 		.4byte	.LVL200
 5526 1522 4E020000 		.4byte	0x24e
 5527 1526 3D150000 		.4byte	0x153d
 5528 152a 12       		.uleb128 0x12
 5529 152b 01       		.uleb128 0x1
 5530 152c 50       		.byte	0x50
 5531 152d 03       		.uleb128 0x3
 5532 152e 91       		.byte	0x91
 5533 152f F87E     		.sleb128 -136
 5534 1531 12       		.uleb128 0x12
 5535 1532 01       		.uleb128 0x1
 5536 1533 51       		.byte	0x51
 5537 1534 01       		.uleb128 0x1
 5538 1535 31       		.byte	0x31
 5539 1536 12       		.uleb128 0x12
 5540 1537 01       		.uleb128 0x1
 5541 1538 52       		.byte	0x52
 5542 1539 02       		.uleb128 0x2
 5543 153a 08       		.byte	0x8
 5544 153b 51       		.byte	0x51
 5545 153c 00       		.byte	0
 5546 153d 11       		.uleb128 0x11
 5547 153e CA000000 		.4byte	.LVL201
 5548 1542 4E020000 		.4byte	0x24e
 5549 1546 5D150000 		.4byte	0x155d
 5550 154a 12       		.uleb128 0x12
 5551 154b 01       		.uleb128 0x1
 5552 154c 50       		.byte	0x50
 5553 154d 03       		.uleb128 0x3
 5554 154e 91       		.byte	0x91
 5555 154f FC7E     		.sleb128 -132
 5556 1551 12       		.uleb128 0x12
 5557 1552 01       		.uleb128 0x1
 5558 1553 51       		.byte	0x51
ARM GAS  C:\Users\HELLOK~1.1\AppData\Local\Temp\cciBhXYB.s 			page 111


 5559 1554 01       		.uleb128 0x1
 5560 1555 31       		.byte	0x31
 5561 1556 12       		.uleb128 0x12
 5562 1557 01       		.uleb128 0x1
 5563 1558 52       		.byte	0x52
 5564 1559 02       		.uleb128 0x2
 5565 155a 08       		.byte	0x8
 5566 155b 51       		.byte	0x51
 5567 155c 00       		.byte	0
 5568 155d 11       		.uleb128 0x11
 5569 155e D6000000 		.4byte	.LVL202
 5570 1562 4E020000 		.4byte	0x24e
 5571 1566 7D150000 		.4byte	0x157d
 5572 156a 12       		.uleb128 0x12
 5573 156b 01       		.uleb128 0x1
 5574 156c 50       		.byte	0x50
 5575 156d 03       		.uleb128 0x3
 5576 156e 91       		.byte	0x91
 5577 156f 807F     		.sleb128 -128
 5578 1571 12       		.uleb128 0x12
 5579 1572 01       		.uleb128 0x1
 5580 1573 51       		.byte	0x51
 5581 1574 01       		.uleb128 0x1
 5582 1575 31       		.byte	0x31
 5583 1576 12       		.uleb128 0x12
 5584 1577 01       		.uleb128 0x1
 5585 1578 52       		.byte	0x52
 5586 1579 02       		.uleb128 0x2
 5587 157a 08       		.byte	0x8
 5588 157b 51       		.byte	0x51
 5589 157c 00       		.byte	0
 5590 157d 13       		.uleb128 0x13
 5591 157e 3C010000 		.4byte	.LVL211
 5592 1582 FC010000 		.4byte	0x1fc
 5593 1586 13       		.uleb128 0x13
 5594 1587 48010000 		.4byte	.LVL212
 5595 158b FC010000 		.4byte	0x1fc
 5596 158f 13       		.uleb128 0x13
 5597 1590 5C010000 		.4byte	.LVL213
 5598 1594 FC010000 		.4byte	0x1fc
 5599 1598 13       		.uleb128 0x13
 5600 1599 70010000 		.4byte	.LVL214
 5601 159d 53070000 		.4byte	0x753
 5602 15a1 11       		.uleb128 0x11
 5603 15a2 B0010000 		.4byte	.LVL215
 5604 15a6 B7170000 		.4byte	0x17b7
 5605 15aa BD150000 		.4byte	0x15bd
 5606 15ae 12       		.uleb128 0x12
 5607 15af 01       		.uleb128 0x1
 5608 15b0 51       		.byte	0x51
 5609 15b1 05       		.uleb128 0x5
 5610 15b2 03       		.byte	0x3
 5611 15b3 A0000000 		.4byte	.LC0
 5612 15b7 12       		.uleb128 0x12
 5613 15b8 01       		.uleb128 0x1
 5614 15b9 52       		.byte	0x52
 5615 15ba 01       		.uleb128 0x1
ARM GAS  C:\Users\HELLOK~1.1\AppData\Local\Temp\cciBhXYB.s 			page 112


 5616 15bb 32       		.byte	0x32
 5617 15bc 00       		.byte	0
 5618 15bd 13       		.uleb128 0x13
 5619 15be F8010000 		.4byte	.LVL217
 5620 15c2 96110000 		.4byte	0x1196
 5621 15c6 17       		.uleb128 0x17
 5622 15c7 00020000 		.4byte	.LVL218
 5623 15cb A3170000 		.4byte	0x17a3
 5624 15cf 12       		.uleb128 0x12
 5625 15d0 01       		.uleb128 0x1
 5626 15d1 50       		.byte	0x50
 5627 15d2 03       		.uleb128 0x3
 5628 15d3 0A       		.byte	0xa
 5629 15d4 E803     		.2byte	0x3e8
 5630 15d6 00       		.byte	0
 5631 15d7 00       		.byte	0
 5632 15d8 13       		.uleb128 0x13
 5633 15d9 08000000 		.4byte	.LVL189
 5634 15dd C2170000 		.4byte	0x17c2
 5635 15e1 13       		.uleb128 0x13
 5636 15e2 0C000000 		.4byte	.LVL190
 5637 15e6 CD170000 		.4byte	0x17cd
 5638 15ea 13       		.uleb128 0x13
 5639 15eb 12000000 		.4byte	.LVL191
 5640 15ef D8170000 		.4byte	0x17d8
 5641 15f3 11       		.uleb128 0x11
 5642 15f4 1E000000 		.4byte	.LVL192
 5643 15f8 E3170000 		.4byte	0x17e3
 5644 15fc 16160000 		.4byte	0x1616
 5645 1600 12       		.uleb128 0x12
 5646 1601 01       		.uleb128 0x1
 5647 1602 50       		.byte	0x50
 5648 1603 02       		.uleb128 0x2
 5649 1604 08       		.byte	0x8
 5650 1605 27       		.byte	0x27
 5651 1606 12       		.uleb128 0x12
 5652 1607 01       		.uleb128 0x1
 5653 1608 51       		.byte	0x51
 5654 1609 01       		.uleb128 0x1
 5655 160a 44       		.byte	0x44
 5656 160b 12       		.uleb128 0x12
 5657 160c 01       		.uleb128 0x1
 5658 160d 52       		.byte	0x52
 5659 160e 01       		.uleb128 0x1
 5660 160f 34       		.byte	0x34
 5661 1610 12       		.uleb128 0x12
 5662 1611 01       		.uleb128 0x1
 5663 1612 53       		.byte	0x53
 5664 1613 01       		.uleb128 0x1
 5665 1614 30       		.byte	0x30
 5666 1615 00       		.byte	0
 5667 1616 13       		.uleb128 0x13
 5668 1617 22000000 		.4byte	.LVL193
 5669 161b EE170000 		.4byte	0x17ee
 5670 161f 13       		.uleb128 0x13
 5671 1620 68000000 		.4byte	.LVL194
 5672 1624 BF040000 		.4byte	0x4bf
ARM GAS  C:\Users\HELLOK~1.1\AppData\Local\Temp\cciBhXYB.s 			page 113


 5673 1628 11       		.uleb128 0x11
 5674 1629 7C000000 		.4byte	.LVL195
 5675 162d 2B030000 		.4byte	0x32b
 5676 1631 47160000 		.4byte	0x1647
 5677 1635 12       		.uleb128 0x12
 5678 1636 01       		.uleb128 0x1
 5679 1637 50       		.byte	0x50
 5680 1638 02       		.uleb128 0x2
 5681 1639 74       		.byte	0x74
 5682 163a 00       		.sleb128 0
 5683 163b 12       		.uleb128 0x12
 5684 163c 01       		.uleb128 0x1
 5685 163d 51       		.byte	0x51
 5686 163e 01       		.uleb128 0x1
 5687 163f 32       		.byte	0x32
 5688 1640 12       		.uleb128 0x12
 5689 1641 01       		.uleb128 0x1
 5690 1642 52       		.byte	0x52
 5691 1643 02       		.uleb128 0x2
 5692 1644 08       		.byte	0x8
 5693 1645 51       		.byte	0x51
 5694 1646 00       		.byte	0
 5695 1647 17       		.uleb128 0x17
 5696 1648 8A000000 		.4byte	.LVL196
 5697 164c 2B030000 		.4byte	0x32b
 5698 1650 12       		.uleb128 0x12
 5699 1651 01       		.uleb128 0x1
 5700 1652 50       		.byte	0x50
 5701 1653 02       		.uleb128 0x2
 5702 1654 74       		.byte	0x74
 5703 1655 00       		.sleb128 0
 5704 1656 12       		.uleb128 0x12
 5705 1657 01       		.uleb128 0x1
 5706 1658 51       		.byte	0x51
 5707 1659 01       		.uleb128 0x1
 5708 165a 32       		.byte	0x32
 5709 165b 12       		.uleb128 0x12
 5710 165c 01       		.uleb128 0x1
 5711 165d 52       		.byte	0x52
 5712 165e 02       		.uleb128 0x2
 5713 165f 08       		.byte	0x8
 5714 1660 51       		.byte	0x51
 5715 1661 00       		.byte	0
 5716 1662 00       		.byte	0
 5717 1663 05       		.uleb128 0x5
 5718 1664 5D000000 		.4byte	0x5d
 5719 1668 24       		.uleb128 0x24
 5720 1669 72746300 		.ascii	"rtc\000"
 5721 166d 01       		.byte	0x1
 5722 166e 30       		.byte	0x30
 5723 166f 2F010000 		.4byte	0x12f
 5724 1673 05       		.uleb128 0x5
 5725 1674 03       		.byte	0x3
 5726 1675 00000000 		.4byte	rtc
 5727 1679 14       		.uleb128 0x14
 5728 167a BD000000 		.4byte	0xbd
 5729 167e 89160000 		.4byte	0x1689
ARM GAS  C:\Users\HELLOK~1.1\AppData\Local\Temp\cciBhXYB.s 			page 114


 5730 1682 15       		.uleb128 0x15
 5731 1683 B0000000 		.4byte	0xb0
 5732 1687 0B       		.byte	0xb
 5733 1688 00       		.byte	0
 5734 1689 25       		.uleb128 0x25
 5735 168a A4040000 		.4byte	.LASF82
 5736 168e 01       		.byte	0x1
 5737 168f 43       		.byte	0x43
 5738 1690 79160000 		.4byte	0x1679
 5739 1694 05       		.uleb128 0x5
 5740 1695 03       		.byte	0x3
 5741 1696 00000000 		.4byte	months
 5742 169a 14       		.uleb128 0x14
 5743 169b CE000000 		.4byte	0xce
 5744 169f AA160000 		.4byte	0x16aa
 5745 16a3 15       		.uleb128 0x15
 5746 16a4 B0000000 		.4byte	0xb0
 5747 16a8 09       		.byte	0x9
 5748 16a9 00       		.byte	0
 5749 16aa 25       		.uleb128 0x25
 5750 16ab 35000000 		.4byte	.LASF83
 5751 16af 01       		.byte	0x1
 5752 16b0 52       		.byte	0x52
 5753 16b1 9A160000 		.4byte	0x169a
 5754 16b5 05       		.uleb128 0x5
 5755 16b6 03       		.byte	0x3
 5756 16b7 00000000 		.4byte	feedTimes
 5757 16bb 14       		.uleb128 0x14
 5758 16bc B7000000 		.4byte	0xb7
 5759 16c0 CB160000 		.4byte	0x16cb
 5760 16c4 15       		.uleb128 0x15
 5761 16c5 B0000000 		.4byte	0xb0
 5762 16c9 05       		.byte	0x5
 5763 16ca 00       		.byte	0
 5764 16cb 25       		.uleb128 0x25
 5765 16cc 7B020000 		.4byte	.LASF84
 5766 16d0 01       		.byte	0x1
 5767 16d1 58       		.byte	0x58
 5768 16d2 BB160000 		.4byte	0x16bb
 5769 16d6 05       		.uleb128 0x5
 5770 16d7 03       		.byte	0x3
 5771 16d8 00000000 		.4byte	commands
 5772 16dc 25       		.uleb128 0x25
 5773 16dd C3000000 		.4byte	.LASF85
 5774 16e1 01       		.byte	0x1
 5775 16e2 66       		.byte	0x66
 5776 16e3 ED160000 		.4byte	0x16ed
 5777 16e7 05       		.uleb128 0x5
 5778 16e8 03       		.byte	0x3
 5779 16e9 00000000 		.4byte	LCDAddr
 5780 16ed 07       		.uleb128 0x7
 5781 16ee 83000000 		.4byte	0x83
 5782 16f2 25       		.uleb128 0x25
 5783 16f3 EC010000 		.4byte	.LASF86
 5784 16f7 01       		.byte	0x1
 5785 16f8 67       		.byte	0x67
 5786 16f9 ED160000 		.4byte	0x16ed
ARM GAS  C:\Users\HELLOK~1.1\AppData\Local\Temp\cciBhXYB.s 			page 115


 5787 16fd 05       		.uleb128 0x5
 5788 16fe 03       		.byte	0x3
 5789 16ff 00000000 		.4byte	RTCAddr
 5790 1703 25       		.uleb128 0x25
 5791 1704 F9020000 		.4byte	.LASF87
 5792 1708 01       		.byte	0x1
 5793 1709 68       		.byte	0x68
 5794 170a 6B000000 		.4byte	0x6b
 5795 170e 05       		.uleb128 0x5
 5796 170f 03       		.byte	0x3
 5797 1710 00000000 		.4byte	feedCounter
 5798 1714 25       		.uleb128 0x25
 5799 1715 0F020000 		.4byte	.LASF88
 5800 1719 01       		.byte	0x1
 5801 171a 6A       		.byte	0x6a
 5802 171b A4000000 		.4byte	0xa4
 5803 171f 05       		.uleb128 0x5
 5804 1720 03       		.byte	0x3
 5805 1721 00000000 		.4byte	buttonFlag
 5806 1725 25       		.uleb128 0x25
 5807 1726 93010000 		.4byte	.LASF89
 5808 172a 01       		.byte	0x1
 5809 172b 6B       		.byte	0x6b
 5810 172c A4000000 		.4byte	0xa4
 5811 1730 05       		.uleb128 0x5
 5812 1731 03       		.byte	0x3
 5813 1732 00000000 		.4byte	encFlag
 5814 1736 25       		.uleb128 0x25
 5815 1737 1A040000 		.4byte	.LASF90
 5816 173b 01       		.byte	0x1
 5817 173c 6C       		.byte	0x6c
 5818 173d A4000000 		.4byte	0xa4
 5819 1741 05       		.uleb128 0x5
 5820 1742 03       		.byte	0x3
 5821 1743 00000000 		.4byte	encPos
 5822 1747 26       		.uleb128 0x26
 5823 1748 7F000000 		.4byte	.LASF91
 5824 174c 7F000000 		.4byte	.LASF91
 5825 1750 03       		.byte	0x3
 5826 1751 1301     		.2byte	0x113
 5827 1753 26       		.uleb128 0x26
 5828 1754 AD010000 		.4byte	.LASF92
 5829 1758 AD010000 		.4byte	.LASF92
 5830 175c 03       		.byte	0x3
 5831 175d 0F01     		.2byte	0x10f
 5832 175f 26       		.uleb128 0x26
 5833 1760 1A020000 		.4byte	.LASF93
 5834 1764 1A020000 		.4byte	.LASF93
 5835 1768 03       		.byte	0x3
 5836 1769 1001     		.2byte	0x110
 5837 176b 26       		.uleb128 0x26
 5838 176c 61000000 		.4byte	.LASF94
 5839 1770 61000000 		.4byte	.LASF94
 5840 1774 03       		.byte	0x3
 5841 1775 1401     		.2byte	0x114
 5842 1777 27       		.uleb128 0x27
 5843 1778 8B040000 		.4byte	.LASF95
ARM GAS  C:\Users\HELLOK~1.1\AppData\Local\Temp\cciBhXYB.s 			page 116


 5844 177c 8B040000 		.4byte	.LASF95
 5845 1780 04       		.byte	0x4
 5846 1781 88       		.byte	0x88
 5847 1782 27       		.uleb128 0x27
 5848 1783 67020000 		.4byte	.LASF96
 5849 1787 67020000 		.4byte	.LASF96
 5850 178b 05       		.byte	0x5
 5851 178c FD       		.byte	0xfd
 5852 178d 27       		.uleb128 0x27
 5853 178e C4030000 		.4byte	.LASF97
 5854 1792 C4030000 		.4byte	.LASF97
 5855 1796 04       		.byte	0x4
 5856 1797 8B       		.byte	0x8b
 5857 1798 27       		.uleb128 0x27
 5858 1799 45020000 		.4byte	.LASF98
 5859 179d 45020000 		.4byte	.LASF98
 5860 17a1 04       		.byte	0x4
 5861 17a2 54       		.byte	0x54
 5862 17a3 27       		.uleb128 0x27
 5863 17a4 21050000 		.4byte	.LASF99
 5864 17a8 21050000 		.4byte	.LASF99
 5865 17ac 06       		.byte	0x6
 5866 17ad EC       		.byte	0xec
 5867 17ae 28       		.uleb128 0x28
 5868 17af B4000000 		.4byte	.LASF110
 5869 17b3 B4000000 		.4byte	.LASF110
 5870 17b7 27       		.uleb128 0x27
 5871 17b8 CB000000 		.4byte	.LASF100
 5872 17bc CB000000 		.4byte	.LASF100
 5873 17c0 07       		.byte	0x7
 5874 17c1 23       		.byte	0x23
 5875 17c2 27       		.uleb128 0x27
 5876 17c3 98030000 		.4byte	.LASF101
 5877 17c7 98030000 		.4byte	.LASF101
 5878 17cb 08       		.byte	0x8
 5879 17cc 17       		.byte	0x17
 5880 17cd 27       		.uleb128 0x27
 5881 17ce 43040000 		.4byte	.LASF102
 5882 17d2 43040000 		.4byte	.LASF102
 5883 17d6 09       		.byte	0x9
 5884 17d7 17       		.byte	0x17
 5885 17d8 27       		.uleb128 0x27
 5886 17d9 29050000 		.4byte	.LASF103
 5887 17dd 29050000 		.4byte	.LASF103
 5888 17e1 0A       		.byte	0xa
 5889 17e2 72       		.byte	0x72
 5890 17e3 27       		.uleb128 0x27
 5891 17e4 EE040000 		.4byte	.LASF104
 5892 17e8 EE040000 		.4byte	.LASF104
 5893 17ec 04       		.byte	0x4
 5894 17ed 47       		.byte	0x47
 5895 17ee 27       		.uleb128 0x27
 5896 17ef 9B010000 		.4byte	.LASF105
 5897 17f3 9B010000 		.4byte	.LASF105
 5898 17f7 04       		.byte	0x4
 5899 17f8 4E       		.byte	0x4e
 5900 17f9 00       		.byte	0
ARM GAS  C:\Users\HELLOK~1.1\AppData\Local\Temp\cciBhXYB.s 			page 117


 5901              		.section	.debug_abbrev,"",%progbits
 5902              	.Ldebug_abbrev0:
 5903 0000 01       		.uleb128 0x1
 5904 0001 11       		.uleb128 0x11
 5905 0002 01       		.byte	0x1
 5906 0003 25       		.uleb128 0x25
 5907 0004 0E       		.uleb128 0xe
 5908 0005 13       		.uleb128 0x13
 5909 0006 0B       		.uleb128 0xb
 5910 0007 03       		.uleb128 0x3
 5911 0008 0E       		.uleb128 0xe
 5912 0009 1B       		.uleb128 0x1b
 5913 000a 0E       		.uleb128 0xe
 5914 000b 55       		.uleb128 0x55
 5915 000c 17       		.uleb128 0x17
 5916 000d 11       		.uleb128 0x11
 5917 000e 01       		.uleb128 0x1
 5918 000f 10       		.uleb128 0x10
 5919 0010 17       		.uleb128 0x17
 5920 0011 00       		.byte	0
 5921 0012 00       		.byte	0
 5922 0013 02       		.uleb128 0x2
 5923 0014 24       		.uleb128 0x24
 5924 0015 00       		.byte	0
 5925 0016 0B       		.uleb128 0xb
 5926 0017 0B       		.uleb128 0xb
 5927 0018 3E       		.uleb128 0x3e
 5928 0019 0B       		.uleb128 0xb
 5929 001a 03       		.uleb128 0x3
 5930 001b 0E       		.uleb128 0xe
 5931 001c 00       		.byte	0
 5932 001d 00       		.byte	0
 5933 001e 03       		.uleb128 0x3
 5934 001f 24       		.uleb128 0x24
 5935 0020 00       		.byte	0
 5936 0021 0B       		.uleb128 0xb
 5937 0022 0B       		.uleb128 0xb
 5938 0023 3E       		.uleb128 0x3e
 5939 0024 0B       		.uleb128 0xb
 5940 0025 03       		.uleb128 0x3
 5941 0026 08       		.uleb128 0x8
 5942 0027 00       		.byte	0
 5943 0028 00       		.byte	0
 5944 0029 04       		.uleb128 0x4
 5945 002a 16       		.uleb128 0x16
 5946 002b 00       		.byte	0
 5947 002c 03       		.uleb128 0x3
 5948 002d 0E       		.uleb128 0xe
 5949 002e 3A       		.uleb128 0x3a
 5950 002f 0B       		.uleb128 0xb
 5951 0030 3B       		.uleb128 0x3b
 5952 0031 05       		.uleb128 0x5
 5953 0032 49       		.uleb128 0x49
 5954 0033 13       		.uleb128 0x13
 5955 0034 00       		.byte	0
 5956 0035 00       		.byte	0
 5957 0036 05       		.uleb128 0x5
ARM GAS  C:\Users\HELLOK~1.1\AppData\Local\Temp\cciBhXYB.s 			page 118


 5958 0037 35       		.uleb128 0x35
 5959 0038 00       		.byte	0
 5960 0039 49       		.uleb128 0x49
 5961 003a 13       		.uleb128 0x13
 5962 003b 00       		.byte	0
 5963 003c 00       		.byte	0
 5964 003d 06       		.uleb128 0x6
 5965 003e 0F       		.uleb128 0xf
 5966 003f 00       		.byte	0
 5967 0040 0B       		.uleb128 0xb
 5968 0041 0B       		.uleb128 0xb
 5969 0042 49       		.uleb128 0x49
 5970 0043 13       		.uleb128 0x13
 5971 0044 00       		.byte	0
 5972 0045 00       		.byte	0
 5973 0046 07       		.uleb128 0x7
 5974 0047 26       		.uleb128 0x26
 5975 0048 00       		.byte	0
 5976 0049 49       		.uleb128 0x49
 5977 004a 13       		.uleb128 0x13
 5978 004b 00       		.byte	0
 5979 004c 00       		.byte	0
 5980 004d 08       		.uleb128 0x8
 5981 004e 13       		.uleb128 0x13
 5982 004f 01       		.byte	0x1
 5983 0050 03       		.uleb128 0x3
 5984 0051 0E       		.uleb128 0xe
 5985 0052 0B       		.uleb128 0xb
 5986 0053 0B       		.uleb128 0xb
 5987 0054 3A       		.uleb128 0x3a
 5988 0055 0B       		.uleb128 0xb
 5989 0056 3B       		.uleb128 0x3b
 5990 0057 0B       		.uleb128 0xb
 5991 0058 01       		.uleb128 0x1
 5992 0059 13       		.uleb128 0x13
 5993 005a 00       		.byte	0
 5994 005b 00       		.byte	0
 5995 005c 09       		.uleb128 0x9
 5996 005d 0D       		.uleb128 0xd
 5997 005e 00       		.byte	0
 5998 005f 03       		.uleb128 0x3
 5999 0060 0E       		.uleb128 0xe
 6000 0061 3A       		.uleb128 0x3a
 6001 0062 0B       		.uleb128 0xb
 6002 0063 3B       		.uleb128 0x3b
 6003 0064 0B       		.uleb128 0xb
 6004 0065 49       		.uleb128 0x49
 6005 0066 13       		.uleb128 0x13
 6006 0067 38       		.uleb128 0x38
 6007 0068 0B       		.uleb128 0xb
 6008 0069 00       		.byte	0
 6009 006a 00       		.byte	0
 6010 006b 0A       		.uleb128 0xa
 6011 006c 0D       		.uleb128 0xd
 6012 006d 00       		.byte	0
 6013 006e 03       		.uleb128 0x3
 6014 006f 08       		.uleb128 0x8
ARM GAS  C:\Users\HELLOK~1.1\AppData\Local\Temp\cciBhXYB.s 			page 119


 6015 0070 3A       		.uleb128 0x3a
 6016 0071 0B       		.uleb128 0xb
 6017 0072 3B       		.uleb128 0x3b
 6018 0073 0B       		.uleb128 0xb
 6019 0074 49       		.uleb128 0x49
 6020 0075 13       		.uleb128 0x13
 6021 0076 38       		.uleb128 0x38
 6022 0077 0B       		.uleb128 0xb
 6023 0078 00       		.byte	0
 6024 0079 00       		.byte	0
 6025 007a 0B       		.uleb128 0xb
 6026 007b 13       		.uleb128 0x13
 6027 007c 01       		.byte	0x1
 6028 007d 03       		.uleb128 0x3
 6029 007e 08       		.uleb128 0x8
 6030 007f 0B       		.uleb128 0xb
 6031 0080 0B       		.uleb128 0xb
 6032 0081 3A       		.uleb128 0x3a
 6033 0082 0B       		.uleb128 0xb
 6034 0083 3B       		.uleb128 0x3b
 6035 0084 0B       		.uleb128 0xb
 6036 0085 01       		.uleb128 0x1
 6037 0086 13       		.uleb128 0x13
 6038 0087 00       		.byte	0
 6039 0088 00       		.byte	0
 6040 0089 0C       		.uleb128 0xc
 6041 008a 2E       		.uleb128 0x2e
 6042 008b 01       		.byte	0x1
 6043 008c 3F       		.uleb128 0x3f
 6044 008d 19       		.uleb128 0x19
 6045 008e 03       		.uleb128 0x3
 6046 008f 0E       		.uleb128 0xe
 6047 0090 3A       		.uleb128 0x3a
 6048 0091 0B       		.uleb128 0xb
 6049 0092 3B       		.uleb128 0x3b
 6050 0093 0B       		.uleb128 0xb
 6051 0094 27       		.uleb128 0x27
 6052 0095 19       		.uleb128 0x19
 6053 0096 49       		.uleb128 0x49
 6054 0097 13       		.uleb128 0x13
 6055 0098 11       		.uleb128 0x11
 6056 0099 01       		.uleb128 0x1
 6057 009a 12       		.uleb128 0x12
 6058 009b 06       		.uleb128 0x6
 6059 009c 40       		.uleb128 0x40
 6060 009d 18       		.uleb128 0x18
 6061 009e 9742     		.uleb128 0x2117
 6062 00a0 19       		.uleb128 0x19
 6063 00a1 01       		.uleb128 0x1
 6064 00a2 13       		.uleb128 0x13
 6065 00a3 00       		.byte	0
 6066 00a4 00       		.byte	0
 6067 00a5 0D       		.uleb128 0xd
 6068 00a6 05       		.uleb128 0x5
 6069 00a7 00       		.byte	0
 6070 00a8 03       		.uleb128 0x3
 6071 00a9 0E       		.uleb128 0xe
ARM GAS  C:\Users\HELLOK~1.1\AppData\Local\Temp\cciBhXYB.s 			page 120


 6072 00aa 3A       		.uleb128 0x3a
 6073 00ab 0B       		.uleb128 0xb
 6074 00ac 3B       		.uleb128 0x3b
 6075 00ad 0B       		.uleb128 0xb
 6076 00ae 49       		.uleb128 0x49
 6077 00af 13       		.uleb128 0x13
 6078 00b0 02       		.uleb128 0x2
 6079 00b1 17       		.uleb128 0x17
 6080 00b2 00       		.byte	0
 6081 00b3 00       		.byte	0
 6082 00b4 0E       		.uleb128 0xe
 6083 00b5 2E       		.uleb128 0x2e
 6084 00b6 01       		.byte	0x1
 6085 00b7 3F       		.uleb128 0x3f
 6086 00b8 19       		.uleb128 0x19
 6087 00b9 03       		.uleb128 0x3
 6088 00ba 0E       		.uleb128 0xe
 6089 00bb 3A       		.uleb128 0x3a
 6090 00bc 0B       		.uleb128 0xb
 6091 00bd 3B       		.uleb128 0x3b
 6092 00be 0B       		.uleb128 0xb
 6093 00bf 27       		.uleb128 0x27
 6094 00c0 19       		.uleb128 0x19
 6095 00c1 49       		.uleb128 0x49
 6096 00c2 13       		.uleb128 0x13
 6097 00c3 11       		.uleb128 0x11
 6098 00c4 01       		.uleb128 0x1
 6099 00c5 12       		.uleb128 0x12
 6100 00c6 06       		.uleb128 0x6
 6101 00c7 40       		.uleb128 0x40
 6102 00c8 18       		.uleb128 0x18
 6103 00c9 9642     		.uleb128 0x2116
 6104 00cb 19       		.uleb128 0x19
 6105 00cc 01       		.uleb128 0x1
 6106 00cd 13       		.uleb128 0x13
 6107 00ce 00       		.byte	0
 6108 00cf 00       		.byte	0
 6109 00d0 0F       		.uleb128 0xf
 6110 00d1 2E       		.uleb128 0x2e
 6111 00d2 01       		.byte	0x1
 6112 00d3 3F       		.uleb128 0x3f
 6113 00d4 19       		.uleb128 0x19
 6114 00d5 03       		.uleb128 0x3
 6115 00d6 0E       		.uleb128 0xe
 6116 00d7 3A       		.uleb128 0x3a
 6117 00d8 0B       		.uleb128 0xb
 6118 00d9 3B       		.uleb128 0x3b
 6119 00da 0B       		.uleb128 0xb
 6120 00db 27       		.uleb128 0x27
 6121 00dc 19       		.uleb128 0x19
 6122 00dd 11       		.uleb128 0x11
 6123 00de 01       		.uleb128 0x1
 6124 00df 12       		.uleb128 0x12
 6125 00e0 06       		.uleb128 0x6
 6126 00e1 40       		.uleb128 0x40
 6127 00e2 18       		.uleb128 0x18
 6128 00e3 9742     		.uleb128 0x2117
ARM GAS  C:\Users\HELLOK~1.1\AppData\Local\Temp\cciBhXYB.s 			page 121


 6129 00e5 19       		.uleb128 0x19
 6130 00e6 01       		.uleb128 0x1
 6131 00e7 13       		.uleb128 0x13
 6132 00e8 00       		.byte	0
 6133 00e9 00       		.byte	0
 6134 00ea 10       		.uleb128 0x10
 6135 00eb 34       		.uleb128 0x34
 6136 00ec 00       		.byte	0
 6137 00ed 03       		.uleb128 0x3
 6138 00ee 0E       		.uleb128 0xe
 6139 00ef 3A       		.uleb128 0x3a
 6140 00f0 0B       		.uleb128 0xb
 6141 00f1 3B       		.uleb128 0x3b
 6142 00f2 0B       		.uleb128 0xb
 6143 00f3 49       		.uleb128 0x49
 6144 00f4 13       		.uleb128 0x13
 6145 00f5 02       		.uleb128 0x2
 6146 00f6 18       		.uleb128 0x18
 6147 00f7 00       		.byte	0
 6148 00f8 00       		.byte	0
 6149 00f9 11       		.uleb128 0x11
 6150 00fa 898201   		.uleb128 0x4109
 6151 00fd 01       		.byte	0x1
 6152 00fe 11       		.uleb128 0x11
 6153 00ff 01       		.uleb128 0x1
 6154 0100 31       		.uleb128 0x31
 6155 0101 13       		.uleb128 0x13
 6156 0102 01       		.uleb128 0x1
 6157 0103 13       		.uleb128 0x13
 6158 0104 00       		.byte	0
 6159 0105 00       		.byte	0
 6160 0106 12       		.uleb128 0x12
 6161 0107 8A8201   		.uleb128 0x410a
 6162 010a 00       		.byte	0
 6163 010b 02       		.uleb128 0x2
 6164 010c 18       		.uleb128 0x18
 6165 010d 9142     		.uleb128 0x2111
 6166 010f 18       		.uleb128 0x18
 6167 0110 00       		.byte	0
 6168 0111 00       		.byte	0
 6169 0112 13       		.uleb128 0x13
 6170 0113 898201   		.uleb128 0x4109
 6171 0116 00       		.byte	0
 6172 0117 11       		.uleb128 0x11
 6173 0118 01       		.uleb128 0x1
 6174 0119 31       		.uleb128 0x31
 6175 011a 13       		.uleb128 0x13
 6176 011b 00       		.byte	0
 6177 011c 00       		.byte	0
 6178 011d 14       		.uleb128 0x14
 6179 011e 01       		.uleb128 0x1
 6180 011f 01       		.byte	0x1
 6181 0120 49       		.uleb128 0x49
 6182 0121 13       		.uleb128 0x13
 6183 0122 01       		.uleb128 0x1
 6184 0123 13       		.uleb128 0x13
 6185 0124 00       		.byte	0
ARM GAS  C:\Users\HELLOK~1.1\AppData\Local\Temp\cciBhXYB.s 			page 122


 6186 0125 00       		.byte	0
 6187 0126 15       		.uleb128 0x15
 6188 0127 21       		.uleb128 0x21
 6189 0128 00       		.byte	0
 6190 0129 49       		.uleb128 0x49
 6191 012a 13       		.uleb128 0x13
 6192 012b 2F       		.uleb128 0x2f
 6193 012c 0B       		.uleb128 0xb
 6194 012d 00       		.byte	0
 6195 012e 00       		.byte	0
 6196 012f 16       		.uleb128 0x16
 6197 0130 2E       		.uleb128 0x2e
 6198 0131 01       		.byte	0x1
 6199 0132 3F       		.uleb128 0x3f
 6200 0133 19       		.uleb128 0x19
 6201 0134 03       		.uleb128 0x3
 6202 0135 0E       		.uleb128 0xe
 6203 0136 3A       		.uleb128 0x3a
 6204 0137 0B       		.uleb128 0xb
 6205 0138 3B       		.uleb128 0x3b
 6206 0139 0B       		.uleb128 0xb
 6207 013a 11       		.uleb128 0x11
 6208 013b 01       		.uleb128 0x1
 6209 013c 12       		.uleb128 0x12
 6210 013d 06       		.uleb128 0x6
 6211 013e 40       		.uleb128 0x40
 6212 013f 18       		.uleb128 0x18
 6213 0140 9742     		.uleb128 0x2117
 6214 0142 19       		.uleb128 0x19
 6215 0143 01       		.uleb128 0x1
 6216 0144 13       		.uleb128 0x13
 6217 0145 00       		.byte	0
 6218 0146 00       		.byte	0
 6219 0147 17       		.uleb128 0x17
 6220 0148 898201   		.uleb128 0x4109
 6221 014b 01       		.byte	0x1
 6222 014c 11       		.uleb128 0x11
 6223 014d 01       		.uleb128 0x1
 6224 014e 31       		.uleb128 0x31
 6225 014f 13       		.uleb128 0x13
 6226 0150 00       		.byte	0
 6227 0151 00       		.byte	0
 6228 0152 18       		.uleb128 0x18
 6229 0153 05       		.uleb128 0x5
 6230 0154 00       		.byte	0
 6231 0155 03       		.uleb128 0x3
 6232 0156 0E       		.uleb128 0xe
 6233 0157 3A       		.uleb128 0x3a
 6234 0158 0B       		.uleb128 0xb
 6235 0159 3B       		.uleb128 0x3b
 6236 015a 0B       		.uleb128 0xb
 6237 015b 49       		.uleb128 0x49
 6238 015c 13       		.uleb128 0x13
 6239 015d 02       		.uleb128 0x2
 6240 015e 18       		.uleb128 0x18
 6241 015f 00       		.byte	0
 6242 0160 00       		.byte	0
ARM GAS  C:\Users\HELLOK~1.1\AppData\Local\Temp\cciBhXYB.s 			page 123


 6243 0161 19       		.uleb128 0x19
 6244 0162 34       		.uleb128 0x34
 6245 0163 00       		.byte	0
 6246 0164 03       		.uleb128 0x3
 6247 0165 08       		.uleb128 0x8
 6248 0166 3A       		.uleb128 0x3a
 6249 0167 0B       		.uleb128 0xb
 6250 0168 3B       		.uleb128 0x3b
 6251 0169 0B       		.uleb128 0xb
 6252 016a 49       		.uleb128 0x49
 6253 016b 13       		.uleb128 0x13
 6254 016c 02       		.uleb128 0x2
 6255 016d 18       		.uleb128 0x18
 6256 016e 00       		.byte	0
 6257 016f 00       		.byte	0
 6258 0170 1A       		.uleb128 0x1a
 6259 0171 34       		.uleb128 0x34
 6260 0172 00       		.byte	0
 6261 0173 03       		.uleb128 0x3
 6262 0174 0E       		.uleb128 0xe
 6263 0175 3A       		.uleb128 0x3a
 6264 0176 0B       		.uleb128 0xb
 6265 0177 3B       		.uleb128 0x3b
 6266 0178 0B       		.uleb128 0xb
 6267 0179 49       		.uleb128 0x49
 6268 017a 13       		.uleb128 0x13
 6269 017b 00       		.byte	0
 6270 017c 00       		.byte	0
 6271 017d 1B       		.uleb128 0x1b
 6272 017e 2E       		.uleb128 0x2e
 6273 017f 00       		.byte	0
 6274 0180 3F       		.uleb128 0x3f
 6275 0181 19       		.uleb128 0x19
 6276 0182 03       		.uleb128 0x3
 6277 0183 0E       		.uleb128 0xe
 6278 0184 3A       		.uleb128 0x3a
 6279 0185 0B       		.uleb128 0xb
 6280 0186 3B       		.uleb128 0x3b
 6281 0187 0B       		.uleb128 0xb
 6282 0188 11       		.uleb128 0x11
 6283 0189 01       		.uleb128 0x1
 6284 018a 12       		.uleb128 0x12
 6285 018b 06       		.uleb128 0x6
 6286 018c 40       		.uleb128 0x40
 6287 018d 18       		.uleb128 0x18
 6288 018e 9742     		.uleb128 0x2117
 6289 0190 19       		.uleb128 0x19
 6290 0191 00       		.byte	0
 6291 0192 00       		.byte	0
 6292 0193 1C       		.uleb128 0x1c
 6293 0194 34       		.uleb128 0x34
 6294 0195 00       		.byte	0
 6295 0196 03       		.uleb128 0x3
 6296 0197 0E       		.uleb128 0xe
 6297 0198 3A       		.uleb128 0x3a
 6298 0199 0B       		.uleb128 0xb
 6299 019a 3B       		.uleb128 0x3b
ARM GAS  C:\Users\HELLOK~1.1\AppData\Local\Temp\cciBhXYB.s 			page 124


 6300 019b 0B       		.uleb128 0xb
 6301 019c 49       		.uleb128 0x49
 6302 019d 13       		.uleb128 0x13
 6303 019e 02       		.uleb128 0x2
 6304 019f 17       		.uleb128 0x17
 6305 01a0 00       		.byte	0
 6306 01a1 00       		.byte	0
 6307 01a2 1D       		.uleb128 0x1d
 6308 01a3 34       		.uleb128 0x34
 6309 01a4 00       		.byte	0
 6310 01a5 03       		.uleb128 0x3
 6311 01a6 0E       		.uleb128 0xe
 6312 01a7 3A       		.uleb128 0x3a
 6313 01a8 0B       		.uleb128 0xb
 6314 01a9 3B       		.uleb128 0x3b
 6315 01aa 05       		.uleb128 0x5
 6316 01ab 49       		.uleb128 0x49
 6317 01ac 13       		.uleb128 0x13
 6318 01ad 02       		.uleb128 0x2
 6319 01ae 17       		.uleb128 0x17
 6320 01af 00       		.byte	0
 6321 01b0 00       		.byte	0
 6322 01b1 1E       		.uleb128 0x1e
 6323 01b2 34       		.uleb128 0x34
 6324 01b3 00       		.byte	0
 6325 01b4 03       		.uleb128 0x3
 6326 01b5 08       		.uleb128 0x8
 6327 01b6 3A       		.uleb128 0x3a
 6328 01b7 0B       		.uleb128 0xb
 6329 01b8 3B       		.uleb128 0x3b
 6330 01b9 05       		.uleb128 0x5
 6331 01ba 49       		.uleb128 0x49
 6332 01bb 13       		.uleb128 0x13
 6333 01bc 02       		.uleb128 0x2
 6334 01bd 18       		.uleb128 0x18
 6335 01be 00       		.byte	0
 6336 01bf 00       		.byte	0
 6337 01c0 1F       		.uleb128 0x1f
 6338 01c1 34       		.uleb128 0x34
 6339 01c2 00       		.byte	0
 6340 01c3 03       		.uleb128 0x3
 6341 01c4 0E       		.uleb128 0xe
 6342 01c5 3A       		.uleb128 0x3a
 6343 01c6 0B       		.uleb128 0xb
 6344 01c7 3B       		.uleb128 0x3b
 6345 01c8 05       		.uleb128 0x5
 6346 01c9 49       		.uleb128 0x49
 6347 01ca 13       		.uleb128 0x13
 6348 01cb 02       		.uleb128 0x2
 6349 01cc 18       		.uleb128 0x18
 6350 01cd 00       		.byte	0
 6351 01ce 00       		.byte	0
 6352 01cf 20       		.uleb128 0x20
 6353 01d0 0B       		.uleb128 0xb
 6354 01d1 01       		.byte	0x1
 6355 01d2 11       		.uleb128 0x11
 6356 01d3 01       		.uleb128 0x1
ARM GAS  C:\Users\HELLOK~1.1\AppData\Local\Temp\cciBhXYB.s 			page 125


 6357 01d4 12       		.uleb128 0x12
 6358 01d5 06       		.uleb128 0x6
 6359 01d6 01       		.uleb128 0x1
 6360 01d7 13       		.uleb128 0x13
 6361 01d8 00       		.byte	0
 6362 01d9 00       		.byte	0
 6363 01da 21       		.uleb128 0x21
 6364 01db 2E       		.uleb128 0x2e
 6365 01dc 00       		.byte	0
 6366 01dd 3F       		.uleb128 0x3f
 6367 01de 19       		.uleb128 0x19
 6368 01df 03       		.uleb128 0x3
 6369 01e0 0E       		.uleb128 0xe
 6370 01e1 3A       		.uleb128 0x3a
 6371 01e2 0B       		.uleb128 0xb
 6372 01e3 3B       		.uleb128 0x3b
 6373 01e4 05       		.uleb128 0x5
 6374 01e5 11       		.uleb128 0x11
 6375 01e6 01       		.uleb128 0x1
 6376 01e7 12       		.uleb128 0x12
 6377 01e8 06       		.uleb128 0x6
 6378 01e9 40       		.uleb128 0x40
 6379 01ea 18       		.uleb128 0x18
 6380 01eb 9742     		.uleb128 0x2117
 6381 01ed 19       		.uleb128 0x19
 6382 01ee 00       		.byte	0
 6383 01ef 00       		.byte	0
 6384 01f0 22       		.uleb128 0x22
 6385 01f1 2E       		.uleb128 0x2e
 6386 01f2 01       		.byte	0x1
 6387 01f3 3F       		.uleb128 0x3f
 6388 01f4 19       		.uleb128 0x19
 6389 01f5 03       		.uleb128 0x3
 6390 01f6 0E       		.uleb128 0xe
 6391 01f7 3A       		.uleb128 0x3a
 6392 01f8 0B       		.uleb128 0xb
 6393 01f9 3B       		.uleb128 0x3b
 6394 01fa 05       		.uleb128 0x5
 6395 01fb 11       		.uleb128 0x11
 6396 01fc 01       		.uleb128 0x1
 6397 01fd 12       		.uleb128 0x12
 6398 01fe 06       		.uleb128 0x6
 6399 01ff 40       		.uleb128 0x40
 6400 0200 18       		.uleb128 0x18
 6401 0201 9742     		.uleb128 0x2117
 6402 0203 19       		.uleb128 0x19
 6403 0204 01       		.uleb128 0x1
 6404 0205 13       		.uleb128 0x13
 6405 0206 00       		.byte	0
 6406 0207 00       		.byte	0
 6407 0208 23       		.uleb128 0x23
 6408 0209 2E       		.uleb128 0x2e
 6409 020a 01       		.byte	0x1
 6410 020b 3F       		.uleb128 0x3f
 6411 020c 19       		.uleb128 0x19
 6412 020d 03       		.uleb128 0x3
 6413 020e 0E       		.uleb128 0xe
ARM GAS  C:\Users\HELLOK~1.1\AppData\Local\Temp\cciBhXYB.s 			page 126


 6414 020f 3A       		.uleb128 0x3a
 6415 0210 0B       		.uleb128 0xb
 6416 0211 3B       		.uleb128 0x3b
 6417 0212 05       		.uleb128 0x5
 6418 0213 27       		.uleb128 0x27
 6419 0214 19       		.uleb128 0x19
 6420 0215 49       		.uleb128 0x49
 6421 0216 13       		.uleb128 0x13
 6422 0217 8701     		.uleb128 0x87
 6423 0219 19       		.uleb128 0x19
 6424 021a 11       		.uleb128 0x11
 6425 021b 01       		.uleb128 0x1
 6426 021c 12       		.uleb128 0x12
 6427 021d 06       		.uleb128 0x6
 6428 021e 40       		.uleb128 0x40
 6429 021f 18       		.uleb128 0x18
 6430 0220 9742     		.uleb128 0x2117
 6431 0222 19       		.uleb128 0x19
 6432 0223 01       		.uleb128 0x1
 6433 0224 13       		.uleb128 0x13
 6434 0225 00       		.byte	0
 6435 0226 00       		.byte	0
 6436 0227 24       		.uleb128 0x24
 6437 0228 34       		.uleb128 0x34
 6438 0229 00       		.byte	0
 6439 022a 03       		.uleb128 0x3
 6440 022b 08       		.uleb128 0x8
 6441 022c 3A       		.uleb128 0x3a
 6442 022d 0B       		.uleb128 0xb
 6443 022e 3B       		.uleb128 0x3b
 6444 022f 0B       		.uleb128 0xb
 6445 0230 49       		.uleb128 0x49
 6446 0231 13       		.uleb128 0x13
 6447 0232 3F       		.uleb128 0x3f
 6448 0233 19       		.uleb128 0x19
 6449 0234 02       		.uleb128 0x2
 6450 0235 18       		.uleb128 0x18
 6451 0236 00       		.byte	0
 6452 0237 00       		.byte	0
 6453 0238 25       		.uleb128 0x25
 6454 0239 34       		.uleb128 0x34
 6455 023a 00       		.byte	0
 6456 023b 03       		.uleb128 0x3
 6457 023c 0E       		.uleb128 0xe
 6458 023d 3A       		.uleb128 0x3a
 6459 023e 0B       		.uleb128 0xb
 6460 023f 3B       		.uleb128 0x3b
 6461 0240 0B       		.uleb128 0xb
 6462 0241 49       		.uleb128 0x49
 6463 0242 13       		.uleb128 0x13
 6464 0243 3F       		.uleb128 0x3f
 6465 0244 19       		.uleb128 0x19
 6466 0245 02       		.uleb128 0x2
 6467 0246 18       		.uleb128 0x18
 6468 0247 00       		.byte	0
 6469 0248 00       		.byte	0
 6470 0249 26       		.uleb128 0x26
ARM GAS  C:\Users\HELLOK~1.1\AppData\Local\Temp\cciBhXYB.s 			page 127


 6471 024a 2E       		.uleb128 0x2e
 6472 024b 00       		.byte	0
 6473 024c 3F       		.uleb128 0x3f
 6474 024d 19       		.uleb128 0x19
 6475 024e 3C       		.uleb128 0x3c
 6476 024f 19       		.uleb128 0x19
 6477 0250 6E       		.uleb128 0x6e
 6478 0251 0E       		.uleb128 0xe
 6479 0252 03       		.uleb128 0x3
 6480 0253 0E       		.uleb128 0xe
 6481 0254 3A       		.uleb128 0x3a
 6482 0255 0B       		.uleb128 0xb
 6483 0256 3B       		.uleb128 0x3b
 6484 0257 05       		.uleb128 0x5
 6485 0258 00       		.byte	0
 6486 0259 00       		.byte	0
 6487 025a 27       		.uleb128 0x27
 6488 025b 2E       		.uleb128 0x2e
 6489 025c 00       		.byte	0
 6490 025d 3F       		.uleb128 0x3f
 6491 025e 19       		.uleb128 0x19
 6492 025f 3C       		.uleb128 0x3c
 6493 0260 19       		.uleb128 0x19
 6494 0261 6E       		.uleb128 0x6e
 6495 0262 0E       		.uleb128 0xe
 6496 0263 03       		.uleb128 0x3
 6497 0264 0E       		.uleb128 0xe
 6498 0265 3A       		.uleb128 0x3a
 6499 0266 0B       		.uleb128 0xb
 6500 0267 3B       		.uleb128 0x3b
 6501 0268 0B       		.uleb128 0xb
 6502 0269 00       		.byte	0
 6503 026a 00       		.byte	0
 6504 026b 28       		.uleb128 0x28
 6505 026c 2E       		.uleb128 0x2e
 6506 026d 00       		.byte	0
 6507 026e 3F       		.uleb128 0x3f
 6508 026f 19       		.uleb128 0x19
 6509 0270 3C       		.uleb128 0x3c
 6510 0271 19       		.uleb128 0x19
 6511 0272 6E       		.uleb128 0x6e
 6512 0273 0E       		.uleb128 0xe
 6513 0274 03       		.uleb128 0x3
 6514 0275 0E       		.uleb128 0xe
 6515 0276 00       		.byte	0
 6516 0277 00       		.byte	0
 6517 0278 00       		.byte	0
 6518              		.section	.debug_loc,"",%progbits
 6519              	.Ldebug_loc0:
 6520              	.LLST0:
 6521 0000 00000000 		.4byte	.LVL0
 6522 0004 0C000000 		.4byte	.LVL1
 6523 0008 0100     		.2byte	0x1
 6524 000a 50       		.byte	0x50
 6525 000b 0C000000 		.4byte	.LVL1
 6526 000f 12000000 		.4byte	.LFE35
 6527 0013 0400     		.2byte	0x4
ARM GAS  C:\Users\HELLOK~1.1\AppData\Local\Temp\cciBhXYB.s 			page 128


 6528 0015 F3       		.byte	0xf3
 6529 0016 01       		.uleb128 0x1
 6530 0017 50       		.byte	0x50
 6531 0018 9F       		.byte	0x9f
 6532 0019 00000000 		.4byte	0
 6533 001d 00000000 		.4byte	0
 6534              	.LLST1:
 6535 0021 00000000 		.4byte	.LVL2
 6536 0025 09000000 		.4byte	.LVL3-1
 6537 0029 0100     		.2byte	0x1
 6538 002b 50       		.byte	0x50
 6539 002c 09000000 		.4byte	.LVL3-1
 6540 0030 1A000000 		.4byte	.LFE36
 6541 0034 0400     		.2byte	0x4
 6542 0036 F3       		.byte	0xf3
 6543 0037 01       		.uleb128 0x1
 6544 0038 50       		.byte	0x50
 6545 0039 9F       		.byte	0x9f
 6546 003a 00000000 		.4byte	0
 6547 003e 00000000 		.4byte	0
 6548              	.LLST2:
 6549 0042 00000000 		.4byte	.LVL5
 6550 0046 14000000 		.4byte	.LVL9
 6551 004a 0100     		.2byte	0x1
 6552 004c 50       		.byte	0x50
 6553 004d 14000000 		.4byte	.LVL9
 6554 0051 3E000000 		.4byte	.LVL17
 6555 0055 0100     		.2byte	0x1
 6556 0057 55       		.byte	0x55
 6557 0058 3E000000 		.4byte	.LVL17
 6558 005c 40000000 		.4byte	.LFE37
 6559 0060 0400     		.2byte	0x4
 6560 0062 F3       		.byte	0xf3
 6561 0063 01       		.uleb128 0x1
 6562 0064 50       		.byte	0x50
 6563 0065 9F       		.byte	0x9f
 6564 0066 00000000 		.4byte	0
 6565 006a 00000000 		.4byte	0
 6566              	.LLST3:
 6567 006e 00000000 		.4byte	.LVL5
 6568 0072 0C000000 		.4byte	.LVL6
 6569 0076 0100     		.2byte	0x1
 6570 0078 51       		.byte	0x51
 6571 0079 0C000000 		.4byte	.LVL6
 6572 007d 3E000000 		.4byte	.LVL18
 6573 0081 0100     		.2byte	0x1
 6574 0083 56       		.byte	0x56
 6575 0084 3E000000 		.4byte	.LVL18
 6576 0088 40000000 		.4byte	.LFE37
 6577 008c 0400     		.2byte	0x4
 6578 008e F3       		.byte	0xf3
 6579 008f 01       		.uleb128 0x1
 6580 0090 51       		.byte	0x51
 6581 0091 9F       		.byte	0x9f
 6582 0092 00000000 		.4byte	0
 6583 0096 00000000 		.4byte	0
 6584              	.LLST4:
ARM GAS  C:\Users\HELLOK~1.1\AppData\Local\Temp\cciBhXYB.s 			page 129


 6585 009a 00000000 		.4byte	.LVL5
 6586 009e 12000000 		.4byte	.LVL8
 6587 00a2 0100     		.2byte	0x1
 6588 00a4 52       		.byte	0x52
 6589 00a5 12000000 		.4byte	.LVL8
 6590 00a9 3E000000 		.4byte	.LVL16
 6591 00ad 0100     		.2byte	0x1
 6592 00af 54       		.byte	0x54
 6593 00b0 3E000000 		.4byte	.LVL16
 6594 00b4 40000000 		.4byte	.LFE37
 6595 00b8 0400     		.2byte	0x4
 6596 00ba F3       		.byte	0xf3
 6597 00bb 01       		.uleb128 0x1
 6598 00bc 52       		.byte	0x52
 6599 00bd 9F       		.byte	0x9f
 6600 00be 00000000 		.4byte	0
 6601 00c2 00000000 		.4byte	0
 6602              	.LLST5:
 6603 00c6 00000000 		.4byte	.LVL5
 6604 00ca 10000000 		.4byte	.LVL7
 6605 00ce 0100     		.2byte	0x1
 6606 00d0 53       		.byte	0x53
 6607 00d1 10000000 		.4byte	.LVL7
 6608 00d5 40000000 		.4byte	.LFE37
 6609 00d9 0400     		.2byte	0x4
 6610 00db F3       		.byte	0xf3
 6611 00dc 01       		.uleb128 0x1
 6612 00dd 53       		.byte	0x53
 6613 00de 9F       		.byte	0x9f
 6614 00df 00000000 		.4byte	0
 6615 00e3 00000000 		.4byte	0
 6616              	.LLST6:
 6617 00e7 00000000 		.4byte	.LVL19
 6618 00eb 0E000000 		.4byte	.LVL23
 6619 00ef 0100     		.2byte	0x1
 6620 00f1 50       		.byte	0x50
 6621 00f2 0E000000 		.4byte	.LVL23
 6622 00f6 11000000 		.4byte	.LVL24-1
 6623 00fa 0100     		.2byte	0x1
 6624 00fc 51       		.byte	0x51
 6625 00fd 11000000 		.4byte	.LVL24-1
 6626 0101 20000000 		.4byte	.LFE38
 6627 0105 0400     		.2byte	0x4
 6628 0107 F3       		.byte	0xf3
 6629 0108 01       		.uleb128 0x1
 6630 0109 50       		.byte	0x50
 6631 010a 9F       		.byte	0x9f
 6632 010b 00000000 		.4byte	0
 6633 010f 00000000 		.4byte	0
 6634              	.LLST7:
 6635 0113 00000000 		.4byte	.LVL19
 6636 0117 0C000000 		.4byte	.LVL22
 6637 011b 0100     		.2byte	0x1
 6638 011d 51       		.byte	0x51
 6639 011e 0C000000 		.4byte	.LVL22
 6640 0122 11000000 		.4byte	.LVL24-1
 6641 0126 0100     		.2byte	0x1
ARM GAS  C:\Users\HELLOK~1.1\AppData\Local\Temp\cciBhXYB.s 			page 130


 6642 0128 52       		.byte	0x52
 6643 0129 11000000 		.4byte	.LVL24-1
 6644 012d 20000000 		.4byte	.LFE38
 6645 0131 0400     		.2byte	0x4
 6646 0133 F3       		.byte	0xf3
 6647 0134 01       		.uleb128 0x1
 6648 0135 51       		.byte	0x51
 6649 0136 9F       		.byte	0x9f
 6650 0137 00000000 		.4byte	0
 6651 013b 00000000 		.4byte	0
 6652              	.LLST8:
 6653 013f 00000000 		.4byte	.LVL19
 6654 0143 0A000000 		.4byte	.LVL21
 6655 0147 0100     		.2byte	0x1
 6656 0149 52       		.byte	0x52
 6657 014a 0A000000 		.4byte	.LVL21
 6658 014e 1E000000 		.4byte	.LVL27
 6659 0152 0100     		.2byte	0x1
 6660 0154 54       		.byte	0x54
 6661 0155 1E000000 		.4byte	.LVL27
 6662 0159 20000000 		.4byte	.LFE38
 6663 015d 0400     		.2byte	0x4
 6664 015f F3       		.byte	0xf3
 6665 0160 01       		.uleb128 0x1
 6666 0161 52       		.byte	0x52
 6667 0162 9F       		.byte	0x9f
 6668 0163 00000000 		.4byte	0
 6669 0167 00000000 		.4byte	0
 6670              	.LLST9:
 6671 016b 00000000 		.4byte	.LVL19
 6672 016f 08000000 		.4byte	.LVL20
 6673 0173 0100     		.2byte	0x1
 6674 0175 53       		.byte	0x53
 6675 0176 08000000 		.4byte	.LVL20
 6676 017a 20000000 		.4byte	.LFE38
 6677 017e 0400     		.2byte	0x4
 6678 0180 F3       		.byte	0xf3
 6679 0181 01       		.uleb128 0x1
 6680 0182 53       		.byte	0x53
 6681 0183 9F       		.byte	0x9f
 6682 0184 00000000 		.4byte	0
 6683 0188 00000000 		.4byte	0
 6684              	.LLST10:
 6685 018c 66000000 		.4byte	.LVL76
 6686 0190 B6000000 		.4byte	.LVL82
 6687 0194 0100     		.2byte	0x1
 6688 0196 54       		.byte	0x54
 6689 0197 B8000000 		.4byte	.LVL83
 6690 019b DA000000 		.4byte	.LVL87
 6691 019f 0100     		.2byte	0x1
 6692 01a1 54       		.byte	0x54
 6693 01a2 F0000000 		.4byte	.LVL90
 6694 01a6 1E010000 		.4byte	.LVL93
 6695 01aa 0100     		.2byte	0x1
 6696 01ac 56       		.byte	0x56
 6697 01ad 20010000 		.4byte	.LVL94
 6698 01b1 5E010000 		.4byte	.LVL100
ARM GAS  C:\Users\HELLOK~1.1\AppData\Local\Temp\cciBhXYB.s 			page 131


 6699 01b5 0100     		.2byte	0x1
 6700 01b7 56       		.byte	0x56
 6701 01b8 60010000 		.4byte	.LVL101
 6702 01bc 8E010000 		.4byte	.LVL104
 6703 01c0 0100     		.2byte	0x1
 6704 01c2 55       		.byte	0x55
 6705 01c3 90010000 		.4byte	.LVL105
 6706 01c7 C0010000 		.4byte	.LVL110
 6707 01cb 0100     		.2byte	0x1
 6708 01cd 55       		.byte	0x55
 6709 01ce 60020000 		.4byte	.LVL121
 6710 01d2 90020000 		.4byte	.LVL124
 6711 01d6 0100     		.2byte	0x1
 6712 01d8 55       		.byte	0x55
 6713 01d9 92020000 		.4byte	.LVL125
 6714 01dd B8020000 		.4byte	.LVL130
 6715 01e1 0100     		.2byte	0x1
 6716 01e3 55       		.byte	0x55
 6717 01e4 D0020000 		.4byte	.LVL132
 6718 01e8 00030000 		.4byte	.LVL135
 6719 01ec 0100     		.2byte	0x1
 6720 01ee 56       		.byte	0x56
 6721 01ef 02030000 		.4byte	.LVL136
 6722 01f3 28030000 		.4byte	.LVL141
 6723 01f7 0100     		.2byte	0x1
 6724 01f9 56       		.byte	0x56
 6725 01fa 3C030000 		.4byte	.LVL143
 6726 01fe 40030000 		.4byte	.LVL144
 6727 0202 0200     		.2byte	0x2
 6728 0204 30       		.byte	0x30
 6729 0205 9F       		.byte	0x9f
 6730 0206 40030000 		.4byte	.LVL144
 6731 020a 54030000 		.4byte	.LVL145
 6732 020e 0100     		.2byte	0x1
 6733 0210 57       		.byte	0x57
 6734 0211 54030000 		.4byte	.LVL145
 6735 0215 90030000 		.4byte	.LVL146
 6736 0219 0300     		.2byte	0x3
 6737 021b 77       		.byte	0x77
 6738 021c 7F       		.sleb128 -1
 6739 021d 9F       		.byte	0x9f
 6740 021e 90030000 		.4byte	.LVL146
 6741 0222 CC030000 		.4byte	.LVL151
 6742 0226 0100     		.2byte	0x1
 6743 0228 57       		.byte	0x57
 6744 0229 00000000 		.4byte	0
 6745 022d 00000000 		.4byte	0
 6746              	.LLST11:
 6747 0231 DA000000 		.4byte	.LVL87
 6748 0235 56040000 		.4byte	.LVL165
 6749 0239 0100     		.2byte	0x1
 6750 023b 54       		.byte	0x54
 6751 023c 00000000 		.4byte	0
 6752 0240 00000000 		.4byte	0
 6753              	.LLST12:
 6754 0244 06000000 		.4byte	.LVL166
 6755 0248 4A000000 		.4byte	.LVL176
ARM GAS  C:\Users\HELLOK~1.1\AppData\Local\Temp\cciBhXYB.s 			page 132


 6756 024c 0200     		.2byte	0x2
 6757 024e 30       		.byte	0x30
 6758 024f 9F       		.byte	0x9f
 6759 0250 4A000000 		.4byte	.LVL176
 6760 0254 64000000 		.4byte	.LVL177
 6761 0258 0100     		.2byte	0x1
 6762 025a 54       		.byte	0x54
 6763 025b 66000000 		.4byte	.LVL178
 6764 025f 76000000 		.4byte	.LVL179
 6765 0263 0100     		.2byte	0x1
 6766 0265 54       		.byte	0x54
 6767 0266 78000000 		.4byte	.LVL180
 6768 026a 7C000000 		.4byte	.LVL181
 6769 026e 0100     		.2byte	0x1
 6770 0270 54       		.byte	0x54
 6771 0271 7E000000 		.4byte	.LVL182
 6772 0275 B6000000 		.4byte	.LVL188
 6773 0279 0100     		.2byte	0x1
 6774 027b 54       		.byte	0x54
 6775 027c 00000000 		.4byte	0
 6776 0280 00000000 		.4byte	0
 6777              		.section	.debug_aranges,"",%progbits
 6778 0000 9C000000 		.4byte	0x9c
 6779 0004 0200     		.2byte	0x2
 6780 0006 00000000 		.4byte	.Ldebug_info0
 6781 000a 04       		.byte	0x4
 6782 000b 00       		.byte	0
 6783 000c 0000     		.2byte	0
 6784 000e 0000     		.2byte	0
 6785 0010 00000000 		.4byte	.LFB35
 6786 0014 12000000 		.4byte	.LFE35-.LFB35
 6787 0018 00000000 		.4byte	.LFB36
 6788 001c 1A000000 		.4byte	.LFE36-.LFB36
 6789 0020 00000000 		.4byte	.LFB37
 6790 0024 40000000 		.4byte	.LFE37-.LFB37
 6791 0028 00000000 		.4byte	.LFB38
 6792 002c 20000000 		.4byte	.LFE38-.LFB38
 6793 0030 00000000 		.4byte	.LFB39
 6794 0034 80000000 		.4byte	.LFE39-.LFB39
 6795 0038 00000000 		.4byte	.LFB40
 6796 003c B4000000 		.4byte	.LFE40-.LFB40
 6797 0040 00000000 		.4byte	.LFB41
 6798 0044 68000000 		.4byte	.LFE41-.LFB41
 6799 0048 00000000 		.4byte	.LFB42
 6800 004c 60000000 		.4byte	.LFE42-.LFB42
 6801 0050 00000000 		.4byte	.LFB43
 6802 0054 D4000000 		.4byte	.LFE43-.LFB43
 6803 0058 00000000 		.4byte	.LFB44
 6804 005c 02000000 		.4byte	.LFE44-.LFB44
 6805 0060 00000000 		.4byte	.LFB45
 6806 0064 6C040000 		.4byte	.LFE45-.LFB45
 6807 0068 00000000 		.4byte	.LFB46
 6808 006c 02000000 		.4byte	.LFE46-.LFB46
 6809 0070 00000000 		.4byte	.LFB47
 6810 0074 02000000 		.4byte	.LFE47-.LFB47
 6811 0078 00000000 		.4byte	.LFB48
 6812 007c 02000000 		.4byte	.LFE48-.LFB48
ARM GAS  C:\Users\HELLOK~1.1\AppData\Local\Temp\cciBhXYB.s 			page 133


 6813 0080 00000000 		.4byte	.LFB49
 6814 0084 02000000 		.4byte	.LFE49-.LFB49
 6815 0088 00000000 		.4byte	.LFB50
 6816 008c D0000000 		.4byte	.LFE50-.LFB50
 6817 0090 00000000 		.4byte	.LFB51
 6818 0094 18020000 		.4byte	.LFE51-.LFB51
 6819 0098 00000000 		.4byte	0
 6820 009c 00000000 		.4byte	0
 6821              		.section	.debug_ranges,"",%progbits
 6822              	.Ldebug_ranges0:
 6823 0000 00000000 		.4byte	.LFB35
 6824 0004 12000000 		.4byte	.LFE35
 6825 0008 00000000 		.4byte	.LFB36
 6826 000c 1A000000 		.4byte	.LFE36
 6827 0010 00000000 		.4byte	.LFB37
 6828 0014 40000000 		.4byte	.LFE37
 6829 0018 00000000 		.4byte	.LFB38
 6830 001c 20000000 		.4byte	.LFE38
 6831 0020 00000000 		.4byte	.LFB39
 6832 0024 80000000 		.4byte	.LFE39
 6833 0028 00000000 		.4byte	.LFB40
 6834 002c B4000000 		.4byte	.LFE40
 6835 0030 00000000 		.4byte	.LFB41
 6836 0034 68000000 		.4byte	.LFE41
 6837 0038 00000000 		.4byte	.LFB42
 6838 003c 60000000 		.4byte	.LFE42
 6839 0040 00000000 		.4byte	.LFB43
 6840 0044 D4000000 		.4byte	.LFE43
 6841 0048 00000000 		.4byte	.LFB44
 6842 004c 02000000 		.4byte	.LFE44
 6843 0050 00000000 		.4byte	.LFB45
 6844 0054 6C040000 		.4byte	.LFE45
 6845 0058 00000000 		.4byte	.LFB46
 6846 005c 02000000 		.4byte	.LFE46
 6847 0060 00000000 		.4byte	.LFB47
 6848 0064 02000000 		.4byte	.LFE47
 6849 0068 00000000 		.4byte	.LFB48
 6850 006c 02000000 		.4byte	.LFE48
 6851 0070 00000000 		.4byte	.LFB49
 6852 0074 02000000 		.4byte	.LFE49
 6853 0078 00000000 		.4byte	.LFB50
 6854 007c D0000000 		.4byte	.LFE50
 6855 0080 00000000 		.4byte	.LFB51
 6856 0084 18020000 		.4byte	.LFE51
 6857 0088 00000000 		.4byte	0
 6858 008c 00000000 		.4byte	0
 6859              		.section	.debug_line,"",%progbits
 6860              	.Ldebug_line0:
 6861 0000 DC030000 		.section	.debug_str,"MS",%progbits,1
 6861      02001201 
 6861      00000201 
 6861      FB0E0D00 
 6861      01010101 
 6862              	.LASF27:
 6863 0000 486F7572 		.ascii	"Hours\000"
 6863      7300
 6864              	.LASF35:
ARM GAS  C:\Users\HELLOK~1.1\AppData\Local\Temp\cciBhXYB.s 			page 134


 6865 0006 5765656B 		.ascii	"WeekdayAlarm\000"
 6865      64617941 
 6865      6C61726D 
 6865      00
 6866              	.LASF58:
 6867 0013 75706461 		.ascii	"updateCurrTime\000"
 6867      74654375 
 6867      72725469 
 6867      6D6500
 6868              	.LASF56:
 6869 0022 7072696E 		.ascii	"printString\000"
 6869      74537472 
 6869      696E6700 
 6870              	.LASF78:
 6871 002e 63686F69 		.ascii	"choice\000"
 6871      636500
 6872              	.LASF83:
 6873 0035 66656564 		.ascii	"feedTimes\000"
 6873      54696D65 
 6873      7300
 6874              	.LASF31:
 6875 003f 59656172 		.ascii	"Years\000"
 6875      7300
 6876              	.LASF2:
 6877 0045 73686F72 		.ascii	"short int\000"
 6877      7420696E 
 6877      7400
 6878              	.LASF42:
 6879 004f 72656164 		.ascii	"readBuf\000"
 6879      42756600 
 6880              	.LASF23:
 6881 0057 4374726C 		.ascii	"CtrlStat1\000"
 6881      53746174 
 6881      3100
 6882              	.LASF94:
 6883 0061 4932435F 		.ascii	"I2C_I2CMasterReadBuf\000"
 6883      4932434D 
 6883      61737465 
 6883      72526561 
 6883      64427566 
 6884              	.LASF16:
 6885 0076 73697A65 		.ascii	"sizetype\000"
 6885      74797065 
 6885      00
 6886              	.LASF91:
 6887 007f 4932435F 		.ascii	"I2C_I2CMasterWriteBuf\000"
 6887      4932434D 
 6887      61737465 
 6887      72577269 
 6887      74654275 
 6888              	.LASF54:
 6889 0095 63757272 		.ascii	"currDate\000"
 6889      44617465 
 6889      00
 6890              	.LASF51:
 6891 009e 4C434449 		.ascii	"LCDInit\000"
 6891      6E697400 
ARM GAS  C:\Users\HELLOK~1.1\AppData\Local\Temp\cciBhXYB.s 			page 135


 6892              	.LASF29:
 6893 00a6 5765656B 		.ascii	"Weekdays\000"
 6893      64617973 
 6893      00
 6894              	.LASF109:
 6895 00af 6D61696E 		.ascii	"main\000"
 6895      00
 6896              	.LASF110:
 6897 00b4 6D656D63 		.ascii	"memcpy\000"
 6897      707900
 6898              	.LASF63:
 6899 00bb 73657444 		.ascii	"setDate\000"
 6899      61746500 
 6900              	.LASF85:
 6901 00c3 4C434441 		.ascii	"LCDAddr\000"
 6901      64647200 
 6902              	.LASF100:
 6903 00cb 7374726E 		.ascii	"strncmp\000"
 6903      636D7000 
 6904              	.LASF22:
 6905 00d3 79656172 		.ascii	"year\000"
 6905      00
 6906              	.LASF26:
 6907 00d8 4D696E75 		.ascii	"Minutes\000"
 6907      74657300 
 6908              	.LASF41:
 6909 00e0 76616C75 		.ascii	"value\000"
 6909      6500
 6910              	.LASF37:
 6911 00e6 54696D65 		.ascii	"TimerControl\000"
 6911      72436F6E 
 6911      74726F6C 
 6911      00
 6912              	.LASF70:
 6913 00f3 7072696E 		.ascii	"printHour\000"
 6913      74486F75 
 6913      7200
 6914              	.LASF106:
 6915 00fd 474E5520 		.ascii	"GNU C11 5.4.1 20160609 (release) [ARM/embedded-5-br"
 6915      43313120 
 6915      352E342E 
 6915      31203230 
 6915      31363036 
 6916 0130 616E6368 		.ascii	"anch revision 237715] -mcpu=cortex-m0 -mthumb -g -O"
 6916      20726576 
 6916      6973696F 
 6916      6E203233 
 6916      37373135 
 6917 0163 67202D66 		.ascii	"g -ffunction-sections -ffat-lto-objects\000"
 6917      66756E63 
 6917      74696F6E 
 6917      2D736563 
 6917      74696F6E 
 6918              	.LASF60:
 6919 018b 65786974 		.ascii	"exitLCD\000"
 6919      4C434400 
 6920              	.LASF89:
ARM GAS  C:\Users\HELLOK~1.1\AppData\Local\Temp\cciBhXYB.s 			page 136


 6921 0193 656E6346 		.ascii	"encFlag\000"
 6921      6C616700 
 6922              	.LASF105:
 6923 019b 4C434442 		.ascii	"LCDBegin\000"
 6923      6567696E 
 6923      00
 6924              	.LASF34:
 6925 01a4 44617941 		.ascii	"DayAlarm\000"
 6925      6C61726D 
 6925      00
 6926              	.LASF92:
 6927 01ad 4932435F 		.ascii	"I2C_I2CMasterStatus\000"
 6927      4932434D 
 6927      61737465 
 6927      72537461 
 6927      74757300 
 6928              	.LASF12:
 6929 01c1 666C6F61 		.ascii	"float\000"
 6929      7400
 6930              	.LASF43:
 6931 01c7 72656164 		.ascii	"readBytes\000"
 6931      42797465 
 6931      7300
 6932              	.LASF64:
 6933 01d1 63757272 		.ascii	"currentIndex\000"
 6933      656E7449 
 6933      6E646578 
 6933      00
 6934              	.LASF6:
 6935 01de 6C6F6E67 		.ascii	"long long int\000"
 6935      206C6F6E 
 6935      6720696E 
 6935      7400
 6936              	.LASF86:
 6937 01ec 52544341 		.ascii	"RTCAddr\000"
 6937      64647200 
 6938              	.LASF14:
 6939 01f4 63686172 		.ascii	"char\000"
 6939      00
 6940              	.LASF48:
 6941 01f9 77726974 		.ascii	"writeBuf\000"
 6941      65427566 
 6941      00
 6942              	.LASF73:
 6943 0202 73657446 		.ascii	"setFeedTimes\000"
 6943      65656454 
 6943      696D6573 
 6943      00
 6944              	.LASF88:
 6945 020f 62757474 		.ascii	"buttonFlag\000"
 6945      6F6E466C 
 6945      616700
 6946              	.LASF93:
 6947 021a 4932435F 		.ascii	"I2C_I2CMasterClearStatus\000"
 6947      4932434D 
 6947      61737465 
 6947      72436C65 
ARM GAS  C:\Users\HELLOK~1.1\AppData\Local\Temp\cciBhXYB.s 			page 137


 6947      61725374 
 6948              	.LASF5:
 6949 0233 6C6F6E67 		.ascii	"long unsigned int\000"
 6949      20756E73 
 6949      69676E65 
 6949      6420696E 
 6949      7400
 6950              	.LASF98:
 6951 0245 636C6561 		.ascii	"clear\000"
 6951      7200
 6952              	.LASF55:
 6953 024b 6E657874 		.ascii	"nextDate\000"
 6953      44617465 
 6953      00
 6954              	.LASF68:
 6955 0254 7072696E 		.ascii	"printDay\000"
 6955      74446179 
 6955      00
 6956              	.LASF69:
 6957 025d 7072696E 		.ascii	"printYear\000"
 6957      74596561 
 6957      7200
 6958              	.LASF96:
 6959 0267 736E7072 		.ascii	"snprintf\000"
 6959      696E7466 
 6959      00
 6960              	.LASF49:
 6961 0270 77726974 		.ascii	"writeBytes\000"
 6961      65427974 
 6961      657300
 6962              	.LASF84:
 6963 027b 636F6D6D 		.ascii	"commands\000"
 6963      616E6473 
 6963      00
 6964              	.LASF17:
 6965 0284 686F7572 		.ascii	"hour\000"
 6965      00
 6966              	.LASF15:
 6967 0289 6C6F6E67 		.ascii	"long double\000"
 6967      20646F75 
 6967      626C6500 
 6968              	.LASF108:
 6969 0295 433A5C55 		.ascii	"C:\\Users\\hElLo KiTtY 2.1\\Desktop\\Final Project\\"
 6969      73657273 
 6969      5C68456C 
 6969      4C6F204B 
 6969      69547459 
 6970 02c4 50726F6A 		.ascii	"Project Files\\Final Project\\AutomaticPetFeeder.cy"
 6970      65637420 
 6970      46696C65 
 6970      735C4669 
 6970      6E616C20 
 6971 02f5 64736E00 		.ascii	"dsn\000"
 6972              	.LASF87:
 6973 02f9 66656564 		.ascii	"feedCounter\000"
 6973      436F756E 
 6973      74657200 
ARM GAS  C:\Users\HELLOK~1.1\AppData\Local\Temp\cciBhXYB.s 			page 138


 6974              	.LASF75:
 6975 0305 746F6767 		.ascii	"toggleLEDs\000"
 6975      6C654C45 
 6975      447300
 6976              	.LASF1:
 6977 0310 756E7369 		.ascii	"unsigned char\000"
 6977      676E6564 
 6977      20636861 
 6977      7200
 6978              	.LASF52:
 6979 031e 63757272 		.ascii	"currTime\000"
 6979      54696D65 
 6979      00
 6980              	.LASF77:
 6981 0327 73746172 		.ascii	"startSettings\000"
 6981      74536574 
 6981      74696E67 
 6981      7300
 6982              	.LASF38:
 6983 0335 54696D65 		.ascii	"Timer\000"
 6983      7200
 6984              	.LASF0:
 6985 033b 7369676E 		.ascii	"signed char\000"
 6985      65642063 
 6985      68617200 
 6986              	.LASF7:
 6987 0347 6C6F6E67 		.ascii	"long long unsigned int\000"
 6987      206C6F6E 
 6987      6720756E 
 6987      7369676E 
 6987      65642069 
 6988              	.LASF32:
 6989 035e 4D696E75 		.ascii	"MinuteAlarm\000"
 6989      7465416C 
 6989      61726D00 
 6990              	.LASF65:
 6991 036a 6E756D62 		.ascii	"numberMonth\000"
 6991      65724D6F 
 6991      6E746800 
 6992              	.LASF8:
 6993 0376 756E7369 		.ascii	"unsigned int\000"
 6993      676E6564 
 6993      20696E74 
 6993      00
 6994              	.LASF47:
 6995 0383 77726974 		.ascii	"writeToAddr\000"
 6995      65546F41 
 6995      64647200 
 6996              	.LASF40:
 6997 038f 64656354 		.ascii	"decToBcd\000"
 6997      6F426364 
 6997      00
 6998              	.LASF101:
 6999 0398 42544E5F 		.ascii	"BTN_ISR_Start\000"
 6999      4953525F 
 6999      53746172 
 6999      7400
ARM GAS  C:\Users\HELLOK~1.1\AppData\Local\Temp\cciBhXYB.s 			page 139


 7000              	.LASF79:
 7001 03a6 74696D65 		.ascii	"time\000"
 7001      00
 7002              	.LASF39:
 7003 03ab 62636454 		.ascii	"bcdToDec\000"
 7003      6F446563 
 7003      00
 7004              	.LASF45:
 7005 03b4 6D656D41 		.ascii	"memAddr\000"
 7005      64647200 
 7006              	.LASF59:
 7007 03bc 52544349 		.ascii	"RTCInit\000"
 7007      6E697400 
 7008              	.LASF97:
 7009 03c4 4C43445F 		.ascii	"LCD_print\000"
 7009      7072696E 
 7009      7400
 7010              	.LASF20:
 7011 03ce 44617465 		.ascii	"Date\000"
 7011      00
 7012              	.LASF74:
 7013 03d3 73657441 		.ascii	"setAmountOfFood\000"
 7013      6D6F756E 
 7013      744F6646 
 7013      6F6F6400 
 7014              	.LASF81:
 7015 03e3 75706461 		.ascii	"updateDate\000"
 7015      74654461 
 7015      746500
 7016              	.LASF4:
 7017 03ee 6C6F6E67 		.ascii	"long int\000"
 7017      20696E74 
 7017      00
 7018              	.LASF24:
 7019 03f7 4374726C 		.ascii	"CtrlStat2\000"
 7019      53746174 
 7019      3200
 7020              	.LASF3:
 7021 0401 73686F72 		.ascii	"short unsigned int\000"
 7021      7420756E 
 7021      7369676E 
 7021      65642069 
 7021      6E7400
 7022              	.LASF21:
 7023 0414 6D6F6E74 		.ascii	"month\000"
 7023      6800
 7024              	.LASF90:
 7025 041a 656E6350 		.ascii	"encPos\000"
 7025      6F7300
 7026              	.LASF57:
 7027 0421 75706461 		.ascii	"updateNextFeed\000"
 7027      74654E65 
 7027      78744665 
 7027      656400
 7028              	.LASF10:
 7029 0430 75696E74 		.ascii	"uint16\000"
 7029      313600
ARM GAS  C:\Users\HELLOK~1.1\AppData\Local\Temp\cciBhXYB.s 			page 140


 7030              	.LASF80:
 7031 0437 64617465 		.ascii	"date\000"
 7031      00
 7032              	.LASF18:
 7033 043c 6D696E75 		.ascii	"minute\000"
 7033      746500
 7034              	.LASF102:
 7035 0443 454E435F 		.ascii	"ENC_ISR_Start\000"
 7035      4953525F 
 7035      53746172 
 7035      7400
 7036              	.LASF107:
 7037 0451 6D61696E 		.ascii	"main.c\000"
 7037      2E6300
 7038              	.LASF30:
 7039 0458 43656E74 		.ascii	"Century_Months\000"
 7039      7572795F 
 7039      4D6F6E74 
 7039      687300
 7040              	.LASF25:
 7041 0467 564C5F53 		.ascii	"VL_Sec\000"
 7041      656300
 7042              	.LASF53:
 7043 046e 6E657874 		.ascii	"nextTime\000"
 7043      54696D65 
 7043      00
 7044              	.LASF11:
 7045 0477 75696E74 		.ascii	"uint32\000"
 7045      333200
 7046              	.LASF46:
 7047 047e 72656164 		.ascii	"readFromAddr\000"
 7047      46726F6D 
 7047      41646472 
 7047      00
 7048              	.LASF95:
 7049 048b 73657443 		.ascii	"setCursor\000"
 7049      7572736F 
 7049      7200
 7050              	.LASF19:
 7051 0495 54696D65 		.ascii	"Time\000"
 7051      00
 7052              	.LASF33:
 7053 049a 486F7572 		.ascii	"HourAlarm\000"
 7053      416C6172 
 7053      6D00
 7054              	.LASF82:
 7055 04a4 6D6F6E74 		.ascii	"months\000"
 7055      687300
 7056              	.LASF72:
 7057 04ab 46454545 		.ascii	"FEEEEED\000"
 7057      45454400 
 7058              	.LASF50:
 7059 04b3 77724275 		.ascii	"wrBuf\000"
 7059      6600
 7060              	.LASF71:
 7061 04b9 7072696E 		.ascii	"printMinute\000"
 7061      744D696E 
ARM GAS  C:\Users\HELLOK~1.1\AppData\Local\Temp\cciBhXYB.s 			page 141


 7061      75746500 
 7062              	.LASF28:
 7063 04c5 44617973 		.ascii	"Days\000"
 7063      00
 7064              	.LASF61:
 7065 04ca 73657447 		.ascii	"setGlobalTime\000"
 7065      6C6F6261 
 7065      6C54696D 
 7065      6500
 7066              	.LASF36:
 7067 04d8 434C4B4F 		.ascii	"CLKOUTControl\000"
 7067      5554436F 
 7067      6E74726F 
 7067      6C00
 7068              	.LASF44:
 7069 04e6 64657641 		.ascii	"devAddr\000"
 7069      64647200 
 7070              	.LASF104:
 7071 04ee 4C697175 		.ascii	"LiquidCrystal_I2C_init\000"
 7071      69644372 
 7071      79737461 
 7071      6C5F4932 
 7071      435F696E 
 7072              	.LASF9:
 7073 0505 75696E74 		.ascii	"uint8\000"
 7073      3800
 7074              	.LASF13:
 7075 050b 646F7562 		.ascii	"double\000"
 7075      6C6500
 7076              	.LASF76:
 7077 0512 746F6767 		.ascii	"toggleSpeakers\000"
 7077      6C655370 
 7077      65616B65 
 7077      727300
 7078              	.LASF99:
 7079 0521 43794465 		.ascii	"CyDelay\000"
 7079      6C617900 
 7080              	.LASF103:
 7081 0529 4932435F 		.ascii	"I2C_Start\000"
 7081      53746172 
 7081      7400
 7082              	.LASF62:
 7083 0533 7072696E 		.ascii	"printMessage\000"
 7083      744D6573 
 7083      73616765 
 7083      00
 7084              	.LASF67:
 7085 0540 73657454 		.ascii	"setTime\000"
 7085      696D6500 
 7086              	.LASF66:
 7087 0548 75706461 		.ascii	"updateTime\000"
 7087      74655469 
 7087      6D6500
 7088              		.ident	"GCC: (GNU Tools for ARM Embedded Processors) 5.4.1 20160609 (release) [ARM/embedded-5-bran
