ARM GAS  C:\Users\HELLOK~1\AppData\Local\Temp\cc4szl9H.s 			page 1


   1              		.syntax unified
   2              		.cpu cortex-m0
   3              		.fpu softvfp
   4              		.eabi_attribute 20, 1
   5              		.eabi_attribute 21, 1
   6              		.eabi_attribute 23, 3
   7              		.eabi_attribute 24, 1
   8              		.eabi_attribute 25, 1
   9              		.eabi_attribute 26, 1
  10              		.eabi_attribute 30, 1
  11              		.eabi_attribute 34, 0
  12              		.eabi_attribute 18, 4
  13              		.thumb
  14              		.syntax unified
  15              		.file	"main.c"
  16              		.text
  17              	.Ltext0:
  18              		.cfi_sections	.debug_frame
  19              		.section	.text.MVCCW,"ax",%progbits
  20              		.align	2
  21              		.global	MVCCW
  22              		.code	16
  23              		.thumb_func
  24              		.type	MVCCW, %function
  25              	MVCCW:
  26              	.LFB35:
  27              		.file 1 "main.c"
   1:main.c        **** /* ========================================
   2:main.c        ****  *
   3:main.c        ****  * Copyright YOUR COMPANY, THE YEAR
   4:main.c        ****  * All Rights Reserved
   5:main.c        ****  * UNPUBLISHED, LICENSED SOFTWARE.
   6:main.c        ****  *
   7:main.c        ****  * CONFIDENTIAL AND PROPRIETARY INFORMATION
   8:main.c        ****  * WHICH IS THE PROPERTY OF your company.
   9:main.c        ****  *
  10:main.c        ****  * ========================================
  11:main.c        **** */
  12:main.c        **** #include "project.h"
  13:main.c        **** #include <stdio.h>
  14:main.c        **** #include "LiquidCrystal_I2C.h"
  15:main.c        **** 
  16:main.c        **** struct MTR{
  17:main.c        ****     unsigned int position : 4;
  18:main.c        **** };
  19:main.c        **** struct MTR motor = {1};
  20:main.c        **** int motorDelay = 7000;
  21:main.c        **** int feedSteps = 2000;
  22:main.c        **** 
  23:main.c        **** int MVCCW(struct MTR motor){
  28              		.loc 1 23 0
  29              		.cfi_startproc
  30              		@ args = 0, pretend = 0, frame = 0
  31              		@ frame_needed = 0, uses_anonymous_args = 0
  32              	.LVL0:
  33 0000 10B5     		push	{r4, lr}
  34              		.cfi_def_cfa_offset 8
ARM GAS  C:\Users\HELLOK~1\AppData\Local\Temp\cc4szl9H.s 			page 2


  35              		.cfi_offset 4, -8
  36              		.cfi_offset 14, -4
  24:main.c        ****     // If motor position is at edge, reset, otherwise increment
  25:main.c        ****     if(motor.position >= 4){
  37              		.loc 1 25 0
  38 0002 0307     		lsls	r3, r0, #28
  39 0004 1B0F     		lsrs	r3, r3, #28
  40 0006 032B     		cmp	r3, #3
  41 0008 04DD     		ble	.L2
  26:main.c        ****         motor.position = 1;
  42              		.loc 1 26 0
  43 000a 0F23     		movs	r3, #15
  44 000c 9843     		bics	r0, r3
  45              	.LVL1:
  46 000e 0E3B     		subs	r3, r3, #14
  47 0010 1843     		orrs	r0, r3
  48 0012 04E0     		b	.L3
  49              	.LVL2:
  50              	.L2:
  27:main.c        ****     }
  28:main.c        ****     else{
  29:main.c        ****         motor.position += 1;
  51              		.loc 1 29 0
  52 0014 0133     		adds	r3, r3, #1
  53 0016 0F22     		movs	r2, #15
  54 0018 1340     		ands	r3, r2
  55 001a 9043     		bics	r0, r2
  56              	.LVL3:
  57 001c 1843     		orrs	r0, r3
  58              	.L3:
  59              	.LVL4:
  30:main.c        ****     }
  31:main.c        ****     // Write correct motor position
  32:main.c        ****     switch(motor.position){
  60              		.loc 1 32 0
  61 001e 0007     		lsls	r0, r0, #28
  62              	.LVL5:
  63 0020 040F     		lsrs	r4, r0, #28
  64 0022 022C     		cmp	r4, #2
  65 0024 0CD0     		beq	.L5
  66 0026 02D8     		bhi	.L6
  67 0028 012C     		cmp	r4, #1
  68 002a 05D0     		beq	.L7
  69 002c 13E0     		b	.L4
  70              	.L6:
  71 002e 032C     		cmp	r4, #3
  72 0030 0AD0     		beq	.L8
  73 0032 042C     		cmp	r4, #4
  74 0034 0CD0     		beq	.L9
  75 0036 0EE0     		b	.L4
  76              	.L7:
  33:main.c        ****         case 1:
  34:main.c        ****             // 0011 -> 1001
  35:main.c        ****             Motor_Write(0x9);
  77              		.loc 1 35 0
  78 0038 0920     		movs	r0, #9
  79 003a FFF7FEFF 		bl	Motor_Write
ARM GAS  C:\Users\HELLOK~1\AppData\Local\Temp\cc4szl9H.s 			page 3


  80              	.LVL6:
  36:main.c        ****             break;
  81              		.loc 1 36 0
  82 003e 0AE0     		b	.L4
  83              	.L5:
  37:main.c        ****         case 2:
  38:main.c        ****             // 1001 -> 1100
  39:main.c        ****             Motor_Write(0xC);
  84              		.loc 1 39 0
  85 0040 0C20     		movs	r0, #12
  86 0042 FFF7FEFF 		bl	Motor_Write
  87              	.LVL7:
  40:main.c        ****             break;
  88              		.loc 1 40 0
  89 0046 06E0     		b	.L4
  90              	.L8:
  41:main.c        ****         case 3:
  42:main.c        ****             // 1100 -> 0110
  43:main.c        ****             Motor_Write(0x6);
  91              		.loc 1 43 0
  92 0048 0620     		movs	r0, #6
  93 004a FFF7FEFF 		bl	Motor_Write
  94              	.LVL8:
  44:main.c        ****             break;
  95              		.loc 1 44 0
  96 004e 02E0     		b	.L4
  97              	.L9:
  45:main.c        ****         case 4:
  46:main.c        ****             // 0110 -> 0011
  47:main.c        ****             Motor_Write(0x3);
  98              		.loc 1 47 0
  99 0050 0320     		movs	r0, #3
 100 0052 FFF7FEFF 		bl	Motor_Write
 101              	.LVL9:
 102              	.L4:
  48:main.c        ****             break;
  49:main.c        ****     }
  50:main.c        ****     // Delay defined by either default or RPM
  51:main.c        ****     CyDelayUs(motorDelay);
 103              		.loc 1 51 0
 104 0056 034B     		ldr	r3, .L10
 105 0058 1888     		ldrh	r0, [r3]
 106 005a FFF7FEFF 		bl	CyDelayUs
 107              	.LVL10:
  52:main.c        ****     // Ground so motor doesn't get hot
  53:main.c        ****     // Can change to where it only goes to ground only after all steps have been taken
  54:main.c        ****     //Motor_Write(0b0000);
  55:main.c        ****     // Return position of motor
  56:main.c        ****     return motor.position;
  57:main.c        **** }
 108              		.loc 1 57 0
 109 005e 2000     		movs	r0, r4
 110              		@ sp needed
 111 0060 10BD     		pop	{r4, pc}
 112              	.L11:
 113 0062 C046     		.align	2
 114              	.L10:
ARM GAS  C:\Users\HELLOK~1\AppData\Local\Temp\cc4szl9H.s 			page 4


 115 0064 00000000 		.word	.LANCHOR0
 116              		.cfi_endproc
 117              	.LFE35:
 118              		.size	MVCCW, .-MVCCW
 119              		.section	.text.MVCW,"ax",%progbits
 120              		.align	2
 121              		.global	MVCW
 122              		.code	16
 123              		.thumb_func
 124              		.type	MVCW, %function
 125              	MVCW:
 126              	.LFB36:
  58:main.c        **** // Function for moving clockwise
  59:main.c        **** int MVCW(struct MTR motor){
 127              		.loc 1 59 0
 128              		.cfi_startproc
 129              		@ args = 0, pretend = 0, frame = 0
 130              		@ frame_needed = 0, uses_anonymous_args = 0
 131              	.LVL11:
 132 0000 10B5     		push	{r4, lr}
 133              		.cfi_def_cfa_offset 8
 134              		.cfi_offset 4, -8
 135              		.cfi_offset 14, -4
  60:main.c        ****     // If motor is at edge, reset, if not, decrement
  61:main.c        ****     if(motor.position <= 1){
 136              		.loc 1 61 0
 137 0002 0307     		lsls	r3, r0, #28
 138 0004 1B0F     		lsrs	r3, r3, #28
 139 0006 012B     		cmp	r3, #1
 140 0008 04DC     		bgt	.L13
  62:main.c        ****         motor.position = 4;
 141              		.loc 1 62 0
 142 000a 0F23     		movs	r3, #15
 143 000c 9843     		bics	r0, r3
 144              	.LVL12:
 145 000e 0B3B     		subs	r3, r3, #11
 146 0010 1843     		orrs	r0, r3
 147 0012 04E0     		b	.L14
 148              	.LVL13:
 149              	.L13:
  63:main.c        ****     }
  64:main.c        ****     else{
  65:main.c        ****         motor.position -= 1;
 150              		.loc 1 65 0
 151 0014 013B     		subs	r3, r3, #1
 152 0016 0F22     		movs	r2, #15
 153 0018 1340     		ands	r3, r2
 154 001a 9043     		bics	r0, r2
 155              	.LVL14:
 156 001c 1843     		orrs	r0, r3
 157              	.L14:
 158              	.LVL15:
  66:main.c        ****     }
  67:main.c        ****     // Write correct motor position
  68:main.c        ****     switch(motor.position){
 159              		.loc 1 68 0
 160 001e 0007     		lsls	r0, r0, #28
ARM GAS  C:\Users\HELLOK~1\AppData\Local\Temp\cc4szl9H.s 			page 5


 161              	.LVL16:
 162 0020 040F     		lsrs	r4, r0, #28
 163 0022 022C     		cmp	r4, #2
 164 0024 0FD0     		beq	.L16
 165 0026 02D8     		bhi	.L17
 166 0028 012C     		cmp	r4, #1
 167 002a 10D0     		beq	.L18
 168 002c 12E0     		b	.L15
 169              	.L17:
 170 002e 032C     		cmp	r4, #3
 171 0030 05D0     		beq	.L19
 172 0032 042C     		cmp	r4, #4
 173 0034 0ED1     		bne	.L15
  69:main.c        ****         case 4:
  70:main.c        ****             // 1100 -> 1001
  71:main.c        ****             Motor_Write(0x9);
 174              		.loc 1 71 0
 175 0036 0920     		movs	r0, #9
 176 0038 FFF7FEFF 		bl	Motor_Write
 177              	.LVL17:
  72:main.c        ****             break;
 178              		.loc 1 72 0
 179 003c 0AE0     		b	.L15
 180              	.L19:
  73:main.c        ****         case 3:
  74:main.c        ****             // 1001 -> 0011
  75:main.c        ****             Motor_Write(0x3);
 181              		.loc 1 75 0
 182 003e 0320     		movs	r0, #3
 183 0040 FFF7FEFF 		bl	Motor_Write
 184              	.LVL18:
  76:main.c        ****             break;
 185              		.loc 1 76 0
 186 0044 06E0     		b	.L15
 187              	.L16:
  77:main.c        ****         case 2:
  78:main.c        ****             // 0011 -> 0110
  79:main.c        ****             Motor_Write(0x6);
 188              		.loc 1 79 0
 189 0046 0620     		movs	r0, #6
 190 0048 FFF7FEFF 		bl	Motor_Write
 191              	.LVL19:
  80:main.c        ****             break;
 192              		.loc 1 80 0
 193 004c 02E0     		b	.L15
 194              	.L18:
  81:main.c        ****         case 1:
  82:main.c        ****             // 0110 -> 1100
  83:main.c        ****             Motor_Write(0xC);
 195              		.loc 1 83 0
 196 004e 0C20     		movs	r0, #12
 197 0050 FFF7FEFF 		bl	Motor_Write
 198              	.LVL20:
 199              	.L15:
  84:main.c        ****             break;
  85:main.c        ****     }
  86:main.c        ****     // Delay
ARM GAS  C:\Users\HELLOK~1\AppData\Local\Temp\cc4szl9H.s 			page 6


  87:main.c        ****     CyDelayUs(motorDelay);
 200              		.loc 1 87 0
 201 0054 024B     		ldr	r3, .L21
 202 0056 1888     		ldrh	r0, [r3]
 203 0058 FFF7FEFF 		bl	CyDelayUs
 204              	.LVL21:
  88:main.c        ****     // Ground so motor doesn't get hot
  89:main.c        ****     //Motor_Write(0b0000);
  90:main.c        ****     // Return motor position
  91:main.c        ****     return motor.position;
  92:main.c        **** }
 205              		.loc 1 92 0
 206 005c 2000     		movs	r0, r4
 207              		@ sp needed
 208 005e 10BD     		pop	{r4, pc}
 209              	.L22:
 210              		.align	2
 211              	.L21:
 212 0060 00000000 		.word	.LANCHOR0
 213              		.cfi_endproc
 214              	.LFE36:
 215              		.size	MVCW, .-MVCW
 216              		.section	.text.bcdToDec,"ax",%progbits
 217              		.align	2
 218              		.global	bcdToDec
 219              		.code	16
 220              		.thumb_func
 221              		.type	bcdToDec, %function
 222              	bcdToDec:
 223              	.LFB37:
  93:main.c        **** 
  94:main.c        **** struct Time{
  95:main.c        ****     uint8 hour;
  96:main.c        ****     uint8 minute;
  97:main.c        ****     char* AM;
  98:main.c        **** };
  99:main.c        **** 
 100:main.c        **** struct Date{
 101:main.c        ****     uint8 day;
 102:main.c        ****     char* month;
 103:main.c        ****     uint8 year;
 104:main.c        **** };
 105:main.c        **** struct RTC{
 106:main.c        ****     uint8 CtrlStat1;
 107:main.c        ****     uint8 CtrlStat2;
 108:main.c        ****     uint8 VL_Sec;
 109:main.c        ****     uint8 Minutes;
 110:main.c        ****     uint8 Hours;
 111:main.c        ****     uint8 Days;
 112:main.c        ****     uint8 Weekdays;
 113:main.c        ****     uint8 Century_Months;
 114:main.c        ****     uint8 Years;
 115:main.c        ****     uint8 MinuteAlarm;
 116:main.c        ****     uint8 HourAlarm;
 117:main.c        ****     uint8 DayAlarm;
 118:main.c        ****     uint8 WeekdayAlarm;
 119:main.c        ****     uint8 CLKOUTControl;
ARM GAS  C:\Users\HELLOK~1\AppData\Local\Temp\cc4szl9H.s 			page 7


 120:main.c        ****     uint8 TimerControl;
 121:main.c        ****     uint8 Timer;
 122:main.c        **** };
 123:main.c        **** 
 124:main.c        **** struct RTC rtc = {
 125:main.c        ****     0x00, //CtrlStat1
 126:main.c        ****     0x01, //CtrlStat2
 127:main.c        ****     0x02, //VL_Sec
 128:main.c        ****     0x03, //Minutes
 129:main.c        ****     0x04, //Hours
 130:main.c        ****     0x05, //Days
 131:main.c        ****     0x06, //Weekdays
 132:main.c        ****     0x07, //Century_Months
 133:main.c        ****     0x08, //Years
 134:main.c        ****     0x09, //MinuteAlarm
 135:main.c        ****     0x0A, //HourAlarm
 136:main.c        ****     0x0B, //DayAlarm
 137:main.c        ****     0x0C, //WeekdayAlarm
 138:main.c        ****     0x0D, //CLKOUTControl
 139:main.c        ****     0x0E, //TimerControl
 140:main.c        ****     0x0F //Timer
 141:main.c        **** };
 142:main.c        **** 
 143:main.c        **** const char* months[12] = {
 144:main.c        ****     "Jan",
 145:main.c        ****     "Feb",
 146:main.c        ****     "Mar",
 147:main.c        ****     "Apr",
 148:main.c        ****     "May",
 149:main.c        ****     "Jun",
 150:main.c        ****     "Jul",
 151:main.c        ****     "Aug",
 152:main.c        ****     "Sep",
 153:main.c        ****     "Oct",
 154:main.c        ****     "Nov",
 155:main.c        ****     "Dec"
 156:main.c        **** };
 157:main.c        **** 
 158:main.c        **** struct Time feedTimes[10] = {
 159:main.c        ****     {4,25,"PM"},
 160:main.c        ****     {4,26,"PM"},
 161:main.c        ****     {5,5,"PM"}
 162:main.c        **** };
 163:main.c        **** 
 164:main.c        **** char* commands[6] = {
 165:main.c        ****     "Set Global Time     ",
 166:main.c        ****     "Change Feed Times   ",
 167:main.c        ****     "Change Feed Amount  ",
 168:main.c        ****     "Turn on/off LED's   ",
 169:main.c        ****     "Turn on/off Speakers",
 170:main.c        ****     "Exit                "
 171:main.c        **** };
 172:main.c        **** // Feed times
 173:main.c        ****     // Amount of food
 174:main.c        ****     // LED's
 175:main.c        ****     // Speakers
 176:main.c        ****     // Exit
ARM GAS  C:\Users\HELLOK~1\AppData\Local\Temp\cc4szl9H.s 			page 8


 177:main.c        **** 
 178:main.c        **** const uint32 LCDAddr = 0x27;
 179:main.c        **** const uint32 RTCAddr = 0x51;
 180:main.c        **** uint8 feedCounter = 0;
 181:main.c        **** uint8 speakerToggle = 0;
 182:main.c        **** uint8 LEDToggle = 1;
 183:main.c        **** volatile uint8 buttonFlag = 0;
 184:main.c        **** volatile uint8 encFlag = 0;
 185:main.c        **** volatile uint8 encPos = 0;
 186:main.c        **** /*
 187:main.c        **** This function simply reads from any I2C device.
 188:main.c        **** readBuf will be the size of readBytes and any read data will be stored here..
 189:main.c        **** readBytes is the number of bytes that the I2C is reading.
 190:main.c        **** devAddr is the I2C address that the microcontroller is talking to.
 191:main.c        **** memAddr is the memory or register address that is inside the I2C device.
 192:main.c        **** */
 193:main.c        **** uint8 bcdToDec(uint8 value)
 194:main.c        **** {
 224              		.loc 1 194 0
 225              		.cfi_startproc
 226              		@ args = 0, pretend = 0, frame = 0
 227              		@ frame_needed = 0, uses_anonymous_args = 0
 228              		@ link register save eliminated.
 229              	.LVL22:
 195:main.c        ****   return (uint8)((value / 16) * 10 + value % 16);
 230              		.loc 1 195 0
 231 0000 0209     		lsrs	r2, r0, #4
 232 0002 9300     		lsls	r3, r2, #2
 233 0004 D318     		adds	r3, r2, r3
 234 0006 5A00     		lsls	r2, r3, #1
 235 0008 0F23     		movs	r3, #15
 236 000a 1840     		ands	r0, r3
 237              	.LVL23:
 238 000c 1018     		adds	r0, r2, r0
 239 000e C0B2     		uxtb	r0, r0
 196:main.c        **** }
 240              		.loc 1 196 0
 241              		@ sp needed
 242 0010 7047     		bx	lr
 243              		.cfi_endproc
 244              	.LFE37:
 245              		.size	bcdToDec, .-bcdToDec
 246              		.global	__aeabi_uidiv
 247              		.global	__aeabi_uidivmod
 248 0012 C046     		.section	.text.decToBcd,"ax",%progbits
 249              		.align	2
 250              		.global	decToBcd
 251              		.code	16
 252              		.thumb_func
 253              		.type	decToBcd, %function
 254              	decToBcd:
 255              	.LFB38:
 197:main.c        **** 
 198:main.c        **** uint8 decToBcd(uint8 value){
 256              		.loc 1 198 0
 257              		.cfi_startproc
 258              		@ args = 0, pretend = 0, frame = 0
ARM GAS  C:\Users\HELLOK~1\AppData\Local\Temp\cc4szl9H.s 			page 9


 259              		@ frame_needed = 0, uses_anonymous_args = 0
 260              	.LVL24:
 261 0000 70B5     		push	{r4, r5, r6, lr}
 262              		.cfi_def_cfa_offset 16
 263              		.cfi_offset 4, -16
 264              		.cfi_offset 5, -12
 265              		.cfi_offset 6, -8
 266              		.cfi_offset 14, -4
 267 0002 0500     		movs	r5, r0
 199:main.c        ****   return (value / 10 * 16 + value % 10);
 268              		.loc 1 199 0
 269 0004 0A21     		movs	r1, #10
 270 0006 FFF7FEFF 		bl	__aeabi_uidiv
 271              	.LVL25:
 272 000a 0401     		lsls	r4, r0, #4
 273 000c 0A21     		movs	r1, #10
 274 000e 2800     		movs	r0, r5
 275 0010 FFF7FEFF 		bl	__aeabi_uidivmod
 276              	.LVL26:
 277 0014 6118     		adds	r1, r4, r1
 278 0016 C8B2     		uxtb	r0, r1
 200:main.c        **** }
 279              		.loc 1 200 0
 280              		@ sp needed
 281 0018 70BD     		pop	{r4, r5, r6, pc}
 282              		.cfi_endproc
 283              	.LFE38:
 284              		.size	decToBcd, .-decToBcd
 285 001a C046     		.section	.text.readFromAddr,"ax",%progbits
 286              		.align	2
 287              		.global	readFromAddr
 288              		.code	16
 289              		.thumb_func
 290              		.type	readFromAddr, %function
 291              	readFromAddr:
 292              	.LFB39:
 201:main.c        **** void readFromAddr(uint8* readBuf, int readBytes, uint32 devAddr, uint32 memAddr){
 293              		.loc 1 201 0
 294              		.cfi_startproc
 295              		@ args = 0, pretend = 0, frame = 8
 296              		@ frame_needed = 0, uses_anonymous_args = 0
 297              	.LVL27:
 298 0000 70B5     		push	{r4, r5, r6, lr}
 299              		.cfi_def_cfa_offset 16
 300              		.cfi_offset 4, -16
 301              		.cfi_offset 5, -12
 302              		.cfi_offset 6, -8
 303              		.cfi_offset 14, -4
 304 0002 82B0     		sub	sp, sp, #8
 305              		.cfi_def_cfa_offset 24
 306 0004 0500     		movs	r5, r0
 307 0006 0E00     		movs	r6, r1
 308 0008 1400     		movs	r4, r2
 202:main.c        ****     // First write the memory address to the I2C bus.
 203:main.c        ****     uint8 wrBuf[1];
 204:main.c        ****     wrBuf[0] = memAddr;
 309              		.loc 1 204 0
ARM GAS  C:\Users\HELLOK~1\AppData\Local\Temp\cc4szl9H.s 			page 10


 310 000a 01A9     		add	r1, sp, #4
 311              	.LVL28:
 312 000c 0B70     		strb	r3, [r1]
 205:main.c        ****     I2C_I2CMasterWriteBuf(devAddr, wrBuf, 1, I2C_I2C_MODE_NO_STOP);
 313              		.loc 1 205 0
 314 000e 0223     		movs	r3, #2
 315              	.LVL29:
 316 0010 0122     		movs	r2, #1
 317              	.LVL30:
 318 0012 2000     		movs	r0, r4
 319              	.LVL31:
 320 0014 FFF7FEFF 		bl	I2C_I2CMasterWriteBuf
 321              	.LVL32:
 322              	.L26:
 206:main.c        ****     while(!(I2C_I2CMasterStatus() & I2C_I2C_MSTAT_WR_CMPLT));
 323              		.loc 1 206 0 discriminator 1
 324 0018 FFF7FEFF 		bl	I2C_I2CMasterStatus
 325              	.LVL33:
 326 001c 8307     		lsls	r3, r0, #30
 327 001e FBD5     		bpl	.L26
 207:main.c        ****     I2C_I2CMasterClearStatus();
 328              		.loc 1 207 0
 329 0020 FFF7FEFF 		bl	I2C_I2CMasterClearStatus
 330              	.LVL34:
 208:main.c        **** 
 209:main.c        ****     // Then read the output from the I2C bus from that memory address.
 210:main.c        ****     I2C_I2CMasterReadBuf(devAddr, readBuf, readBytes, I2C_I2C_MODE_REPEAT_START);
 331              		.loc 1 210 0
 332 0024 0123     		movs	r3, #1
 333 0026 3200     		movs	r2, r6
 334 0028 2900     		movs	r1, r5
 335 002a 2000     		movs	r0, r4
 336 002c FFF7FEFF 		bl	I2C_I2CMasterReadBuf
 337              	.LVL35:
 338              	.L27:
 211:main.c        ****     while(!(I2C_I2CMasterStatus() & I2C_I2C_MSTAT_RD_CMPLT));
 339              		.loc 1 211 0 discriminator 1
 340 0030 FFF7FEFF 		bl	I2C_I2CMasterStatus
 341              	.LVL36:
 342 0034 C307     		lsls	r3, r0, #31
 343 0036 FBD5     		bpl	.L27
 212:main.c        ****     I2C_I2CMasterClearStatus();
 344              		.loc 1 212 0
 345 0038 FFF7FEFF 		bl	I2C_I2CMasterClearStatus
 346              	.LVL37:
 213:main.c        **** }
 347              		.loc 1 213 0
 348 003c 02B0     		add	sp, sp, #8
 349              		@ sp needed
 350              	.LVL38:
 351              	.LVL39:
 352              	.LVL40:
 353 003e 70BD     		pop	{r4, r5, r6, pc}
 354              		.cfi_endproc
 355              	.LFE39:
 356              		.size	readFromAddr, .-readFromAddr
 357              		.section	.text.writeToAddr,"ax",%progbits
ARM GAS  C:\Users\HELLOK~1\AppData\Local\Temp\cc4szl9H.s 			page 11


 358              		.align	2
 359              		.global	writeToAddr
 360              		.code	16
 361              		.thumb_func
 362              		.type	writeToAddr, %function
 363              	writeToAddr:
 364              	.LFB40:
 214:main.c        **** /*
 215:main.c        **** This function simply writes to any I2C device.
 216:main.c        **** writeBuf will be the size of writeBytes and any data inside here will be written to the I2C bus.
 217:main.c        **** writeBytes is the number of bytes written to the I2C bus.
 218:main.c        ****     NOTE: The first byte of the writeBuf will be overwritten if it is stored, as it is the memory a
 219:main.c        **** devAddr is the I2C address that the microcontroller is talking to.
 220:main.c        **** memAddr is the memory or register address that is inside the I2C device.
 221:main.c        **** */
 222:main.c        **** void writeToAddr(uint8* writeBuf, int writeBytes, uint32 devAddr, uint32 memAddr){
 365              		.loc 1 222 0
 366              		.cfi_startproc
 367              		@ args = 0, pretend = 0, frame = 0
 368              		@ frame_needed = 0, uses_anonymous_args = 0
 369              	.LVL41:
 370 0000 10B5     		push	{r4, lr}
 371              		.cfi_def_cfa_offset 8
 372              		.cfi_offset 4, -8
 373              		.cfi_offset 14, -4
 374 0002 1400     		movs	r4, r2
 223:main.c        ****     // Store the first byte as the memory address we are writing to.
 224:main.c        ****     writeBuf[0] = memAddr;
 375              		.loc 1 224 0
 376 0004 0370     		strb	r3, [r0]
 225:main.c        **** 
 226:main.c        ****     // Write the data to the device.
 227:main.c        ****     I2C_I2CMasterWriteBuf(devAddr, writeBuf, writeBytes, I2C_I2C_MODE_COMPLETE_XFER);
 377              		.loc 1 227 0
 378 0006 0023     		movs	r3, #0
 379              	.LVL42:
 380 0008 0A00     		movs	r2, r1
 381              	.LVL43:
 382 000a 0100     		movs	r1, r0
 383              	.LVL44:
 384 000c 2000     		movs	r0, r4
 385              	.LVL45:
 386 000e FFF7FEFF 		bl	I2C_I2CMasterWriteBuf
 387              	.LVL46:
 388              	.L29:
 228:main.c        ****     while(!(I2C_I2CMasterStatus() & I2C_I2C_MSTAT_WR_CMPLT));
 389              		.loc 1 228 0 discriminator 1
 390 0012 FFF7FEFF 		bl	I2C_I2CMasterStatus
 391              	.LVL47:
 392 0016 8307     		lsls	r3, r0, #30
 393 0018 FBD5     		bpl	.L29
 229:main.c        ****     I2C_I2CMasterClearStatus();
 394              		.loc 1 229 0
 395 001a FFF7FEFF 		bl	I2C_I2CMasterClearStatus
 396              	.LVL48:
 230:main.c        **** }
 397              		.loc 1 230 0
ARM GAS  C:\Users\HELLOK~1\AppData\Local\Temp\cc4szl9H.s 			page 12


 398              		@ sp needed
 399              	.LVL49:
 400 001e 10BD     		pop	{r4, pc}
 401              		.cfi_endproc
 402              	.LFE40:
 403              		.size	writeToAddr, .-writeToAddr
 404              		.section	.text.RTCInit,"ax",%progbits
 405              		.align	2
 406              		.global	RTCInit
 407              		.code	16
 408              		.thumb_func
 409              		.type	RTCInit, %function
 410              	RTCInit:
 411              	.LFB41:
 231:main.c        **** 
 232:main.c        **** void RTCInit(){
 412              		.loc 1 232 0
 413              		.cfi_startproc
 414              		@ args = 0, pretend = 0, frame = 8
 415              		@ frame_needed = 0, uses_anonymous_args = 0
 416 0000 30B5     		push	{r4, r5, lr}
 417              		.cfi_def_cfa_offset 12
 418              		.cfi_offset 4, -12
 419              		.cfi_offset 5, -8
 420              		.cfi_offset 14, -4
 421 0002 83B0     		sub	sp, sp, #12
 422              		.cfi_def_cfa_offset 24
 233:main.c        ****     uint8 wrBuf[2];
 234:main.c        ****     wrBuf[1] = 0x00;
 423              		.loc 1 234 0
 424 0004 01AC     		add	r4, sp, #4
 425 0006 0023     		movs	r3, #0
 426 0008 6370     		strb	r3, [r4, #1]
 235:main.c        ****     writeToAddr(wrBuf,2,RTCAddr,rtc.VL_Sec);
 427              		.loc 1 235 0
 428 000a 1C4D     		ldr	r5, .L31
 429 000c AB79     		ldrb	r3, [r5, #6]
 430 000e 5122     		movs	r2, #81
 431 0010 0221     		movs	r1, #2
 432 0012 2000     		movs	r0, r4
 433 0014 FFF7FEFF 		bl	writeToAddr
 434              	.LVL50:
 236:main.c        ****     wrBuf[1] = 0x44;
 435              		.loc 1 236 0
 436 0018 4423     		movs	r3, #68
 437 001a 6370     		strb	r3, [r4, #1]
 237:main.c        ****     writeToAddr(wrBuf,2,RTCAddr,rtc.Minutes);
 438              		.loc 1 237 0
 439 001c EB79     		ldrb	r3, [r5, #7]
 440 001e 5122     		movs	r2, #81
 441 0020 0221     		movs	r1, #2
 442 0022 2000     		movs	r0, r4
 443 0024 FFF7FEFF 		bl	writeToAddr
 444              	.LVL51:
 238:main.c        ****     wrBuf[1] = 0x10;
 445              		.loc 1 238 0
 446 0028 1023     		movs	r3, #16
ARM GAS  C:\Users\HELLOK~1\AppData\Local\Temp\cc4szl9H.s 			page 13


 447 002a 6370     		strb	r3, [r4, #1]
 239:main.c        ****     writeToAddr(wrBuf,2,RTCAddr,rtc.Hours);
 448              		.loc 1 239 0
 449 002c 2B7A     		ldrb	r3, [r5, #8]
 450 002e 5122     		movs	r2, #81
 451 0030 0221     		movs	r1, #2
 452 0032 2000     		movs	r0, r4
 453 0034 FFF7FEFF 		bl	writeToAddr
 454              	.LVL52:
 240:main.c        ****     wrBuf[1] = 0x16;
 455              		.loc 1 240 0
 456 0038 1623     		movs	r3, #22
 457 003a 6370     		strb	r3, [r4, #1]
 241:main.c        ****     writeToAddr(wrBuf,2,RTCAddr,rtc.Days);
 458              		.loc 1 241 0
 459 003c 6B7A     		ldrb	r3, [r5, #9]
 460 003e 5122     		movs	r2, #81
 461 0040 0221     		movs	r1, #2
 462 0042 2000     		movs	r0, r4
 463 0044 FFF7FEFF 		bl	writeToAddr
 464              	.LVL53:
 242:main.c        ****     wrBuf[1] = 0x06;
 465              		.loc 1 242 0
 466 0048 0623     		movs	r3, #6
 467 004a 6370     		strb	r3, [r4, #1]
 243:main.c        ****     writeToAddr(wrBuf,2,RTCAddr,rtc.Weekdays);
 468              		.loc 1 243 0
 469 004c AB7A     		ldrb	r3, [r5, #10]
 470 004e 5122     		movs	r2, #81
 471 0050 0221     		movs	r1, #2
 472 0052 2000     		movs	r0, r4
 473 0054 FFF7FEFF 		bl	writeToAddr
 474              	.LVL54:
 244:main.c        ****     wrBuf[1] = 0x04;
 475              		.loc 1 244 0
 476 0058 0423     		movs	r3, #4
 477 005a 6370     		strb	r3, [r4, #1]
 245:main.c        ****     writeToAddr(wrBuf,2,RTCAddr,rtc.Century_Months);
 478              		.loc 1 245 0
 479 005c EB7A     		ldrb	r3, [r5, #11]
 480 005e 5122     		movs	r2, #81
 481 0060 0221     		movs	r1, #2
 482 0062 2000     		movs	r0, r4
 483 0064 FFF7FEFF 		bl	writeToAddr
 484              	.LVL55:
 246:main.c        ****     wrBuf[1] = 0x23;
 485              		.loc 1 246 0
 486 0068 2323     		movs	r3, #35
 487 006a 6370     		strb	r3, [r4, #1]
 247:main.c        ****     writeToAddr(wrBuf,2,RTCAddr,rtc.Years);
 488              		.loc 1 247 0
 489 006c 2B7B     		ldrb	r3, [r5, #12]
 490 006e 5122     		movs	r2, #81
 491 0070 0221     		movs	r1, #2
 492 0072 2000     		movs	r0, r4
 493 0074 FFF7FEFF 		bl	writeToAddr
 494              	.LVL56:
ARM GAS  C:\Users\HELLOK~1\AppData\Local\Temp\cc4szl9H.s 			page 14


 248:main.c        **** }
 495              		.loc 1 248 0
 496 0078 03B0     		add	sp, sp, #12
 497              		@ sp needed
 498 007a 30BD     		pop	{r4, r5, pc}
 499              	.L32:
 500              		.align	2
 501              	.L31:
 502 007c 00000000 		.word	.LANCHOR0
 503              		.cfi_endproc
 504              	.LFE41:
 505              		.size	RTCInit, .-RTCInit
 506              		.section	.text.LCDInit,"ax",%progbits
 507              		.align	2
 508              		.global	LCDInit
 509              		.code	16
 510              		.thumb_func
 511              		.type	LCDInit, %function
 512              	LCDInit:
 513              	.LFB42:
 249:main.c        **** 
 250:main.c        **** void LCDInit(struct Time currTime, struct Time nextTime, struct Date currDate, struct Date nextDate
 514              		.loc 1 250 0
 515              		.cfi_startproc
 516              		@ args = 24, pretend = 0, frame = 40
 517              		@ frame_needed = 0, uses_anonymous_args = 0
 518 0000 F0B5     		push	{r4, r5, r6, r7, lr}
 519              		.cfi_def_cfa_offset 20
 520              		.cfi_offset 4, -20
 521              		.cfi_offset 5, -16
 522              		.cfi_offset 6, -12
 523              		.cfi_offset 7, -8
 524              		.cfi_offset 14, -4
 525 0002 4746     		mov	r7, r8
 526 0004 80B4     		push	{r7}
 527              		.cfi_def_cfa_offset 24
 528              		.cfi_offset 8, -24
 529 0006 90B0     		sub	sp, sp, #64
 530              		.cfi_def_cfa_offset 88
 531 0008 08AE     		add	r6, sp, #32
 532 000a 0890     		str	r0, [sp, #32]
 533 000c 0991     		str	r1, [sp, #36]
 534 000e 06AD     		add	r5, sp, #24
 535 0010 0692     		str	r2, [sp, #24]
 536 0012 0793     		str	r3, [sp, #28]
 251:main.c        ****     // First line time
 252:main.c        ****     setCursor(0,0);
 537              		.loc 1 252 0
 538 0014 0021     		movs	r1, #0
 539 0016 0020     		movs	r0, #0
 540 0018 FFF7FEFF 		bl	setCursor
 541              	.LVL57:
 253:main.c        ****     char printString[21];
 254:main.c        ****     snprintf(printString, 21, "%d:%.2d%s %s %d, 20%d ",currTime.hour, currTime.minute,currTime.AM, 
 542              		.loc 1 254 0
 543 001c 3378     		ldrb	r3, [r6]
 544 001e 7278     		ldrb	r2, [r6, #1]
ARM GAS  C:\Users\HELLOK~1\AppData\Local\Temp\cc4szl9H.s 			page 15


 545 0020 16A9     		add	r1, sp, #88
 546 0022 0978     		ldrb	r1, [r1]
 547 0024 16A8     		add	r0, sp, #88
 548 0026 007A     		ldrb	r0, [r0, #8]
 549 0028 1F4F     		ldr	r7, .L34
 550 002a 0AAC     		add	r4, sp, #40
 551 002c 0490     		str	r0, [sp, #16]
 552 002e 0391     		str	r1, [sp, #12]
 553 0030 1799     		ldr	r1, [sp, #92]
 554 0032 0291     		str	r1, [sp, #8]
 555 0034 7168     		ldr	r1, [r6, #4]
 556 0036 0191     		str	r1, [sp, #4]
 557 0038 0092     		str	r2, [sp]
 558 003a 3A00     		movs	r2, r7
 559 003c 1521     		movs	r1, #21
 560 003e 2000     		movs	r0, r4
 561 0040 FFF7FEFF 		bl	snprintf
 562              	.LVL58:
 255:main.c        ****     printString[20] = '\0';
 563              		.loc 1 255 0
 564 0044 0026     		movs	r6, #0
 565 0046 2675     		strb	r6, [r4, #20]
 256:main.c        ****     LCD_print(printString);
 566              		.loc 1 256 0
 567 0048 2000     		movs	r0, r4
 568 004a FFF7FEFF 		bl	LCD_print
 569              	.LVL59:
 257:main.c        ****     setCursor(0,1);
 570              		.loc 1 257 0
 571 004e 0121     		movs	r1, #1
 572 0050 0020     		movs	r0, #0
 573 0052 FFF7FEFF 		bl	setCursor
 574              	.LVL60:
 258:main.c        ****     LCD_print("--------------------");
 575              		.loc 1 258 0
 576 0056 1548     		ldr	r0, .L34+4
 577 0058 FFF7FEFF 		bl	LCD_print
 578              	.LVL61:
 259:main.c        ****     setCursor(0,2);
 579              		.loc 1 259 0
 580 005c 0221     		movs	r1, #2
 581 005e 0020     		movs	r0, #0
 582 0060 FFF7FEFF 		bl	setCursor
 583              	.LVL62:
 260:main.c        ****     LCD_print("Time of Next Feed:");
 584              		.loc 1 260 0
 585 0064 1248     		ldr	r0, .L34+8
 586 0066 FFF7FEFF 		bl	LCD_print
 587              	.LVL63:
 261:main.c        ****     setCursor(0,3);
 588              		.loc 1 261 0
 589 006a 0321     		movs	r1, #3
 590 006c 0020     		movs	r0, #0
 591 006e FFF7FEFF 		bl	setCursor
 592              	.LVL64:
 262:main.c        ****     snprintf(printString, 21, "%d:%.2d%s %s %d, 20%d ",nextTime.hour, nextTime.minute,nextTime.AM, 
 593              		.loc 1 262 0
ARM GAS  C:\Users\HELLOK~1\AppData\Local\Temp\cc4szl9H.s 			page 16


 594 0072 2B78     		ldrb	r3, [r5]
 595 0074 6A78     		ldrb	r2, [r5, #1]
 596 0076 9046     		mov	r8, r2
 597 0078 19AA     		add	r2, sp, #100
 598 007a 1078     		ldrb	r0, [r2]
 599 007c 117A     		ldrb	r1, [r2, #8]
 600 007e 0491     		str	r1, [sp, #16]
 601 0080 0390     		str	r0, [sp, #12]
 602 0082 1A9A     		ldr	r2, [sp, #104]
 603 0084 0292     		str	r2, [sp, #8]
 604 0086 6A68     		ldr	r2, [r5, #4]
 605 0088 0192     		str	r2, [sp, #4]
 606 008a 4246     		mov	r2, r8
 607 008c 0092     		str	r2, [sp]
 608 008e 3A00     		movs	r2, r7
 609 0090 1521     		movs	r1, #21
 610 0092 2000     		movs	r0, r4
 611 0094 FFF7FEFF 		bl	snprintf
 612              	.LVL65:
 263:main.c        ****     printString[20] = '\0';
 613              		.loc 1 263 0
 614 0098 2675     		strb	r6, [r4, #20]
 264:main.c        ****     LCD_print(printString);
 615              		.loc 1 264 0
 616 009a 2000     		movs	r0, r4
 617 009c FFF7FEFF 		bl	LCD_print
 618              	.LVL66:
 265:main.c        **** }
 619              		.loc 1 265 0
 620 00a0 10B0     		add	sp, sp, #64
 621              		@ sp needed
 622 00a2 04BC     		pop	{r2}
 623 00a4 9046     		mov	r8, r2
 624 00a6 F0BD     		pop	{r4, r5, r6, r7, pc}
 625              	.L35:
 626              		.align	2
 627              	.L34:
 628 00a8 00000000 		.word	.LC11
 629 00ac 18000000 		.word	.LC13
 630 00b0 30000000 		.word	.LC15
 631              		.cfi_endproc
 632              	.LFE42:
 633              		.size	LCDInit, .-LCDInit
 634              		.section	.text.updateNextFeed,"ax",%progbits
 635              		.align	2
 636              		.global	updateNextFeed
 637              		.code	16
 638              		.thumb_func
 639              		.type	updateNextFeed, %function
 640              	updateNextFeed:
 641              	.LFB43:
 266:main.c        **** 
 267:main.c        **** void updateNextFeed(struct Time nextTime, struct Date nextDate){
 642              		.loc 1 267 0
 643              		.cfi_startproc
 644              		@ args = 12, pretend = 8, frame = 32
 645              		@ frame_needed = 0, uses_anonymous_args = 0
ARM GAS  C:\Users\HELLOK~1\AppData\Local\Temp\cc4szl9H.s 			page 17


 646 0000 82B0     		sub	sp, sp, #8
 647              		.cfi_def_cfa_offset 8
 648 0002 30B5     		push	{r4, r5, lr}
 649              		.cfi_def_cfa_offset 20
 650              		.cfi_offset 4, -20
 651              		.cfi_offset 5, -16
 652              		.cfi_offset 14, -12
 653 0004 8FB0     		sub	sp, sp, #60
 654              		.cfi_def_cfa_offset 80
 655 0006 06AC     		add	r4, sp, #24
 656 0008 0690     		str	r0, [sp, #24]
 657 000a 0791     		str	r1, [sp, #28]
 658 000c 1292     		str	r2, [sp, #72]
 659 000e 1393     		str	r3, [sp, #76]
 268:main.c        ****     char printString[21];
 269:main.c        ****     setCursor(0,2);
 660              		.loc 1 269 0
 661 0010 0221     		movs	r1, #2
 662 0012 0020     		movs	r0, #0
 663 0014 FFF7FEFF 		bl	setCursor
 664              	.LVL67:
 270:main.c        ****     LCD_print("Time of Next Feed:");
 665              		.loc 1 270 0
 666 0018 1148     		ldr	r0, .L37
 667 001a FFF7FEFF 		bl	LCD_print
 668              	.LVL68:
 271:main.c        ****     setCursor(0,3);
 669              		.loc 1 271 0
 670 001e 0321     		movs	r1, #3
 671 0020 0020     		movs	r0, #0
 672 0022 FFF7FEFF 		bl	setCursor
 673              	.LVL69:
 272:main.c        ****     snprintf(printString, 21, "%d:%.2d%s %s %d, 20%d ",nextTime.hour, nextTime.minute,nextTime.AM, 
 674              		.loc 1 272 0
 675 0026 2378     		ldrb	r3, [r4]
 676 0028 6278     		ldrb	r2, [r4, #1]
 677 002a 12A9     		add	r1, sp, #72
 678 002c 0978     		ldrb	r1, [r1]
 679 002e 12A8     		add	r0, sp, #72
 680 0030 007A     		ldrb	r0, [r0, #8]
 681 0032 08AD     		add	r5, sp, #32
 682 0034 0490     		str	r0, [sp, #16]
 683 0036 0391     		str	r1, [sp, #12]
 684 0038 1399     		ldr	r1, [sp, #76]
 685 003a 0291     		str	r1, [sp, #8]
 686 003c 6168     		ldr	r1, [r4, #4]
 687 003e 0191     		str	r1, [sp, #4]
 688 0040 0092     		str	r2, [sp]
 689 0042 084A     		ldr	r2, .L37+4
 690 0044 1521     		movs	r1, #21
 691 0046 2800     		movs	r0, r5
 692 0048 FFF7FEFF 		bl	snprintf
 693              	.LVL70:
 273:main.c        ****     printString[20] = '\0';
 694              		.loc 1 273 0
 695 004c 0023     		movs	r3, #0
 696 004e 2B75     		strb	r3, [r5, #20]
ARM GAS  C:\Users\HELLOK~1\AppData\Local\Temp\cc4szl9H.s 			page 18


 274:main.c        ****     LCD_print(printString);
 697              		.loc 1 274 0
 698 0050 2800     		movs	r0, r5
 699 0052 FFF7FEFF 		bl	LCD_print
 700              	.LVL71:
 275:main.c        **** }
 701              		.loc 1 275 0
 702 0056 0FB0     		add	sp, sp, #60
 703              		@ sp needed
 704 0058 30BC     		pop	{r4, r5}
 705 005a 08BC     		pop	{r3}
 706 005c 02B0     		add	sp, sp, #8
 707 005e 1847     		bx	r3
 708              	.L38:
 709              		.align	2
 710              	.L37:
 711 0060 30000000 		.word	.LC15
 712 0064 00000000 		.word	.LC11
 713              		.cfi_endproc
 714              	.LFE43:
 715              		.size	updateNextFeed, .-updateNextFeed
 716              		.section	.text.updateCurrTime,"ax",%progbits
 717              		.align	2
 718              		.global	updateCurrTime
 719              		.code	16
 720              		.thumb_func
 721              		.type	updateCurrTime, %function
 722              	updateCurrTime:
 723              	.LFB44:
 276:main.c        **** 
 277:main.c        **** void updateCurrTime(struct Time currTime, struct Date currDate){
 724              		.loc 1 277 0
 725              		.cfi_startproc
 726              		@ args = 12, pretend = 8, frame = 32
 727              		@ frame_needed = 0, uses_anonymous_args = 0
 728 0000 82B0     		sub	sp, sp, #8
 729              		.cfi_def_cfa_offset 8
 730 0002 30B5     		push	{r4, r5, lr}
 731              		.cfi_def_cfa_offset 20
 732              		.cfi_offset 4, -20
 733              		.cfi_offset 5, -16
 734              		.cfi_offset 14, -12
 735 0004 8FB0     		sub	sp, sp, #60
 736              		.cfi_def_cfa_offset 80
 737 0006 06AC     		add	r4, sp, #24
 738 0008 0690     		str	r0, [sp, #24]
 739 000a 0791     		str	r1, [sp, #28]
 740 000c 1292     		str	r2, [sp, #72]
 741 000e 1393     		str	r3, [sp, #76]
 278:main.c        ****     setCursor(0,0);
 742              		.loc 1 278 0
 743 0010 0021     		movs	r1, #0
 744 0012 0020     		movs	r0, #0
 745 0014 FFF7FEFF 		bl	setCursor
 746              	.LVL72:
 279:main.c        ****     char printString[21];
 280:main.c        ****     snprintf(printString, 21, "%d:%.2d%s %s %d, 20%d ",currTime.hour, currTime.minute,currTime.AM, 
ARM GAS  C:\Users\HELLOK~1\AppData\Local\Temp\cc4szl9H.s 			page 19


 747              		.loc 1 280 0
 748 0018 2378     		ldrb	r3, [r4]
 749 001a 6278     		ldrb	r2, [r4, #1]
 750 001c 12A9     		add	r1, sp, #72
 751 001e 0978     		ldrb	r1, [r1]
 752 0020 12A8     		add	r0, sp, #72
 753 0022 007A     		ldrb	r0, [r0, #8]
 754 0024 08AD     		add	r5, sp, #32
 755 0026 0490     		str	r0, [sp, #16]
 756 0028 0391     		str	r1, [sp, #12]
 757 002a 1399     		ldr	r1, [sp, #76]
 758 002c 0291     		str	r1, [sp, #8]
 759 002e 6168     		ldr	r1, [r4, #4]
 760 0030 0191     		str	r1, [sp, #4]
 761 0032 0092     		str	r2, [sp]
 762 0034 094A     		ldr	r2, .L40
 763 0036 1521     		movs	r1, #21
 764 0038 2800     		movs	r0, r5
 765 003a FFF7FEFF 		bl	snprintf
 766              	.LVL73:
 281:main.c        ****     printString[20] = '\0';
 767              		.loc 1 281 0
 768 003e 0023     		movs	r3, #0
 769 0040 2B75     		strb	r3, [r5, #20]
 282:main.c        ****     LCD_print(printString);
 770              		.loc 1 282 0
 771 0042 2800     		movs	r0, r5
 772 0044 FFF7FEFF 		bl	LCD_print
 773              	.LVL74:
 283:main.c        ****     setCursor(0,1);
 774              		.loc 1 283 0
 775 0048 0121     		movs	r1, #1
 776 004a 0020     		movs	r0, #0
 777 004c FFF7FEFF 		bl	setCursor
 778              	.LVL75:
 284:main.c        **** }
 779              		.loc 1 284 0
 780 0050 0FB0     		add	sp, sp, #60
 781              		@ sp needed
 782 0052 30BC     		pop	{r4, r5}
 783 0054 08BC     		pop	{r3}
 784 0056 02B0     		add	sp, sp, #8
 785 0058 1847     		bx	r3
 786              	.L41:
 787 005a C046     		.align	2
 788              	.L40:
 789 005c 00000000 		.word	.LC11
 790              		.cfi_endproc
 791              	.LFE44:
 792              		.size	updateCurrTime, .-updateCurrTime
 793              		.section	.text.exitLCD,"ax",%progbits
 794              		.align	2
 795              		.global	exitLCD
 796              		.code	16
 797              		.thumb_func
 798              		.type	exitLCD, %function
 799              	exitLCD:
ARM GAS  C:\Users\HELLOK~1\AppData\Local\Temp\cc4szl9H.s 			page 20


 800              	.LFB45:
 285:main.c        **** void exitLCD(){
 801              		.loc 1 285 0
 802              		.cfi_startproc
 803              		@ args = 0, pretend = 0, frame = 48
 804              		@ frame_needed = 0, uses_anonymous_args = 0
 805 0000 F0B5     		push	{r4, r5, r6, r7, lr}
 806              		.cfi_def_cfa_offset 20
 807              		.cfi_offset 4, -20
 808              		.cfi_offset 5, -16
 809              		.cfi_offset 6, -12
 810              		.cfi_offset 7, -8
 811              		.cfi_offset 14, -4
 812 0002 4746     		mov	r7, r8
 813 0004 80B4     		push	{r7}
 814              		.cfi_def_cfa_offset 24
 815              		.cfi_offset 8, -24
 816 0006 92B0     		sub	sp, sp, #72
 817              		.cfi_def_cfa_offset 96
 286:main.c        ****     char printString[21];
 287:main.c        ****     struct Time nextTime = feedTimes[feedCounter];
 818              		.loc 1 287 0
 819 0008 2D4B     		ldr	r3, .L43
 820 000a 1B78     		ldrb	r3, [r3]
 821 000c 0AAC     		add	r4, sp, #40
 822 000e 2D4D     		ldr	r5, .L43+4
 823 0010 DB00     		lsls	r3, r3, #3
 824 0012 EB18     		adds	r3, r5, r3
 825 0014 1433     		adds	r3, r3, #20
 826 0016 2200     		movs	r2, r4
 827 0018 03CB     		ldmia	r3!, {r0, r1}
 828 001a 03C2     		stmia	r2!, {r0, r1}
 288:main.c        ****     uint8 day[1];
 289:main.c        ****     readFromAddr(day,1,RTCAddr,rtc.Days);
 829              		.loc 1 289 0
 830 001c 6B7A     		ldrb	r3, [r5, #9]
 831 001e 09AE     		add	r6, sp, #36
 832 0020 5122     		movs	r2, #81
 833 0022 0121     		movs	r1, #1
 834 0024 3000     		movs	r0, r6
 835 0026 FFF7FEFF 		bl	readFromAddr
 836              	.LVL76:
 290:main.c        ****     uint8 month[1];
 291:main.c        ****     readFromAddr(month,1,RTCAddr,rtc.Century_Months);
 837              		.loc 1 291 0
 838 002a EB7A     		ldrb	r3, [r5, #11]
 839 002c 08AA     		add	r2, sp, #32
 840 002e 9046     		mov	r8, r2
 841 0030 5122     		movs	r2, #81
 842 0032 0121     		movs	r1, #1
 843 0034 4046     		mov	r0, r8
 844 0036 FFF7FEFF 		bl	readFromAddr
 845              	.LVL77:
 292:main.c        ****     uint8 year[1];
 293:main.c        ****     readFromAddr(year,1,RTCAddr,rtc.Years);
 846              		.loc 1 293 0
 847 003a 2B7B     		ldrb	r3, [r5, #12]
ARM GAS  C:\Users\HELLOK~1\AppData\Local\Temp\cc4szl9H.s 			page 21


 848 003c 07AF     		add	r7, sp, #28
 849 003e 5122     		movs	r2, #81
 850 0040 0121     		movs	r1, #1
 851 0042 3800     		movs	r0, r7
 852 0044 FFF7FEFF 		bl	readFromAddr
 853              	.LVL78:
 294:main.c        ****     struct Date nextDate = {bcdToDec(day[0]),months[bcdToDec(month[0])-1],bcdToDec(year[0])};
 854              		.loc 1 294 0
 855 0048 3078     		ldrb	r0, [r6]
 856 004a FFF7FEFF 		bl	bcdToDec
 857              	.LVL79:
 858 004e 0600     		movs	r6, r0
 859 0050 4346     		mov	r3, r8
 860 0052 1878     		ldrb	r0, [r3]
 861 0054 FFF7FEFF 		bl	bcdToDec
 862              	.LVL80:
 863 0058 0138     		subs	r0, r0, #1
 864 005a 8000     		lsls	r0, r0, #2
 865 005c 2818     		adds	r0, r5, r0
 866 005e 436E     		ldr	r3, [r0, #100]
 867 0060 9846     		mov	r8, r3
 868 0062 3878     		ldrb	r0, [r7]
 869 0064 FFF7FEFF 		bl	bcdToDec
 870              	.LVL81:
 871 0068 0700     		movs	r7, r0
 295:main.c        ****     setCursor(0,1);
 872              		.loc 1 295 0
 873 006a 0121     		movs	r1, #1
 874 006c 0020     		movs	r0, #0
 875 006e FFF7FEFF 		bl	setCursor
 876              	.LVL82:
 296:main.c        ****     LCD_print("--------------------");
 877              		.loc 1 296 0
 878 0072 1548     		ldr	r0, .L43+8
 879 0074 FFF7FEFF 		bl	LCD_print
 880              	.LVL83:
 297:main.c        ****     setCursor(0,2);
 881              		.loc 1 297 0
 882 0078 0221     		movs	r1, #2
 883 007a 0020     		movs	r0, #0
 884 007c FFF7FEFF 		bl	setCursor
 885              	.LVL84:
 298:main.c        ****     LCD_print("Time of Next Feed:  ");
 886              		.loc 1 298 0
 887 0080 1248     		ldr	r0, .L43+12
 888 0082 FFF7FEFF 		bl	LCD_print
 889              	.LVL85:
 299:main.c        ****     setCursor(0,3);
 890              		.loc 1 299 0
 891 0086 0321     		movs	r1, #3
 892 0088 0020     		movs	r0, #0
 893 008a FFF7FEFF 		bl	setCursor
 894              	.LVL86:
 300:main.c        ****     snprintf(printString, 21, "%d:%.2d%s %s %d, 20%d ",nextTime.hour, nextTime.minute,nextTime.AM, 
 895              		.loc 1 300 0
 896 008e 2378     		ldrb	r3, [r4]
 897 0090 6278     		ldrb	r2, [r4, #1]
ARM GAS  C:\Users\HELLOK~1\AppData\Local\Temp\cc4szl9H.s 			page 22


 898 0092 0CAD     		add	r5, sp, #48
 899 0094 0497     		str	r7, [sp, #16]
 900 0096 0396     		str	r6, [sp, #12]
 901 0098 4146     		mov	r1, r8
 902 009a 0291     		str	r1, [sp, #8]
 903 009c 6168     		ldr	r1, [r4, #4]
 904 009e 0191     		str	r1, [sp, #4]
 905 00a0 0092     		str	r2, [sp]
 906 00a2 0B4A     		ldr	r2, .L43+16
 907 00a4 1521     		movs	r1, #21
 908 00a6 2800     		movs	r0, r5
 909 00a8 FFF7FEFF 		bl	snprintf
 910              	.LVL87:
 301:main.c        ****     printString[20] = '\0';
 911              		.loc 1 301 0
 912 00ac 0023     		movs	r3, #0
 913 00ae 2B75     		strb	r3, [r5, #20]
 302:main.c        ****     LCD_print(printString);
 914              		.loc 1 302 0
 915 00b0 2800     		movs	r0, r5
 916 00b2 FFF7FEFF 		bl	LCD_print
 917              	.LVL88:
 303:main.c        **** }
 918              		.loc 1 303 0
 919 00b6 12B0     		add	sp, sp, #72
 920              		@ sp needed
 921 00b8 04BC     		pop	{r2}
 922 00ba 9046     		mov	r8, r2
 923 00bc F0BD     		pop	{r4, r5, r6, r7, pc}
 924              	.L44:
 925 00be C046     		.align	2
 926              	.L43:
 927 00c0 00000000 		.word	.LANCHOR1
 928 00c4 00000000 		.word	.LANCHOR0
 929 00c8 18000000 		.word	.LC13
 930 00cc 44000000 		.word	.LC23
 931 00d0 00000000 		.word	.LC11
 932              		.cfi_endproc
 933              	.LFE45:
 934              		.size	exitLCD, .-exitLCD
 935              		.section	.text.FEEEEED,"ax",%progbits
 936              		.align	2
 937              		.global	FEEEEED
 938              		.code	16
 939              		.thumb_func
 940              		.type	FEEEEED, %function
 941              	FEEEEED:
 942              	.LFB46:
 304:main.c        **** void FEEEEED(){
 943              		.loc 1 304 0
 944              		.cfi_startproc
 945              		@ args = 0, pretend = 0, frame = 0
 946              		@ frame_needed = 0, uses_anonymous_args = 0
 947 0000 70B5     		push	{r4, r5, r6, lr}
 948              		.cfi_def_cfa_offset 16
 949              		.cfi_offset 4, -16
 950              		.cfi_offset 5, -12
ARM GAS  C:\Users\HELLOK~1\AppData\Local\Temp\cc4szl9H.s 			page 23


 951              		.cfi_offset 6, -8
 952              		.cfi_offset 14, -4
 953              	.LVL89:
 954              	.LBB2:
 305:main.c        ****     for(int i = 0; i < feedSteps; i++){
 955              		.loc 1 305 0
 956 0002 0025     		movs	r5, #0
 957 0004 0BE0     		b	.L46
 958              	.LVL90:
 959              	.L47:
 306:main.c        ****         motor.position = MVCW(motor);
 960              		.loc 1 306 0 discriminator 3
 961 0006 274C     		ldr	r4, .L56
 962 0008 6069     		ldr	r0, [r4, #20]
 963 000a FFF7FEFF 		bl	MVCW
 964              	.LVL91:
 965 000e 0F23     		movs	r3, #15
 966 0010 1840     		ands	r0, r3
 967 0012 237D     		ldrb	r3, [r4, #20]
 968 0014 0F22     		movs	r2, #15
 969 0016 9343     		bics	r3, r2
 970 0018 0343     		orrs	r3, r0
 971 001a 2375     		strb	r3, [r4, #20]
 305:main.c        ****     for(int i = 0; i < feedSteps; i++){
 972              		.loc 1 305 0 discriminator 3
 973 001c 0135     		adds	r5, r5, #1
 974              	.LVL92:
 975              	.L46:
 305:main.c        ****     for(int i = 0; i < feedSteps; i++){
 976              		.loc 1 305 0 is_stmt 0 discriminator 1
 977 001e 214B     		ldr	r3, .L56
 978 0020 9B69     		ldr	r3, [r3, #24]
 979 0022 9D42     		cmp	r5, r3
 980 0024 EFDB     		blt	.L47
 981              	.LBE2:
 307:main.c        ****         
 308:main.c        ****     }
 309:main.c        ****     Motor_Write(0b0000);
 982              		.loc 1 309 0 is_stmt 1
 983 0026 0020     		movs	r0, #0
 984 0028 FFF7FEFF 		bl	Motor_Write
 985              	.LVL93:
 310:main.c        ****     
 311:main.c        ****     // Turn on motor
 312:main.c        ****     LED_PWM_WritePeriod(1000);
 986              		.loc 1 312 0
 987 002c FA24     		movs	r4, #250
 988 002e A400     		lsls	r4, r4, #2
 989 0030 2000     		movs	r0, r4
 990 0032 FFF7FEFF 		bl	LED_PWM_WritePeriod
 991              	.LVL94:
 313:main.c        ****     LED_PWM_WriteCompare(1000);
 992              		.loc 1 313 0
 993 0036 2000     		movs	r0, r4
 994 0038 FFF7FEFF 		bl	LED_PWM_WriteCompare
 995              	.LVL95:
 314:main.c        ****     SPEAKER_PWM_Start();
ARM GAS  C:\Users\HELLOK~1\AppData\Local\Temp\cc4szl9H.s 			page 24


 996              		.loc 1 314 0
 997 003c FFF7FEFF 		bl	SPEAKER_PWM_Start
 998              	.LVL96:
 315:main.c        ****     SPEAKER_PWM_WritePeriod(750);
 999              		.loc 1 315 0
 1000 0040 1948     		ldr	r0, .L56+4
 1001 0042 FFF7FEFF 		bl	SPEAKER_PWM_WritePeriod
 1002              	.LVL97:
 316:main.c        ****     SPEAKER_PWM_WriteCompare(50);
 1003              		.loc 1 316 0
 1004 0046 3220     		movs	r0, #50
 1005 0048 FFF7FEFF 		bl	SPEAKER_PWM_WriteCompare
 1006              	.LVL98:
 317:main.c        ****     SPEAKER_PWM_Stop();
 1007              		.loc 1 317 0
 1008 004c FFF7FEFF 		bl	SPEAKER_PWM_Stop
 1009              	.LVL99:
 1010              	.LBB3:
 318:main.c        ****     for(int k = 0; k<8; k++){
 1011              		.loc 1 318 0
 1012 0050 0026     		movs	r6, #0
 1013 0052 24E0     		b	.L48
 1014              	.LVL100:
 1015              	.L54:
 319:main.c        ****         if(speakerToggle == 1){
 1016              		.loc 1 319 0
 1017 0054 154B     		ldr	r3, .L56+8
 1018 0056 5B78     		ldrb	r3, [r3, #1]
 1019 0058 012B     		cmp	r3, #1
 1020 005a 01D1     		bne	.L49
 320:main.c        ****             SPEAKER_PWM_Start();
 1021              		.loc 1 320 0
 1022 005c FFF7FEFF 		bl	SPEAKER_PWM_Start
 1023              	.LVL101:
 1024              	.L49:
 321:main.c        ****         }
 322:main.c        ****         if(LEDToggle == 1){
 1025              		.loc 1 322 0
 1026 0060 104B     		ldr	r3, .L56
 1027 0062 1B7F     		ldrb	r3, [r3, #28]
 1028 0064 012B     		cmp	r3, #1
 1029 0066 01D1     		bne	.L50
 323:main.c        ****             LED_PWM_Start();
 1030              		.loc 1 323 0
 1031 0068 FFF7FEFF 		bl	LED_PWM_Start
 1032              	.LVL102:
 1033              	.L50:
 1034              	.LBB4:
 1035 006c 0025     		movs	r5, #0
 1036 006e 0BE0     		b	.L51
 1037              	.LVL103:
 1038              	.L52:
 1039              	.LBB5:
 324:main.c        ****         }
 325:main.c        ****         for(int i = 0; i<100; i++){
 326:main.c        ****             for(int j = 0; j < 4; j++){
 327:main.c        ****                 LED_SEL_Write(j);
ARM GAS  C:\Users\HELLOK~1\AppData\Local\Temp\cc4szl9H.s 			page 25


 1040              		.loc 1 327 0 discriminator 3
 1041 0070 E0B2     		uxtb	r0, r4
 1042 0072 FFF7FEFF 		bl	LED_SEL_Write
 1043              	.LVL104:
 328:main.c        ****                 CyDelay(1);
 1044              		.loc 1 328 0 discriminator 3
 1045 0076 0120     		movs	r0, #1
 1046 0078 FFF7FEFF 		bl	CyDelay
 1047              	.LVL105:
 326:main.c        ****                 LED_SEL_Write(j);
 1048              		.loc 1 326 0 discriminator 3
 1049 007c 0134     		adds	r4, r4, #1
 1050              	.LVL106:
 1051 007e 00E0     		b	.L53
 1052              	.LVL107:
 1053              	.L55:
 1054              	.LBE5:
 1055 0080 0024     		movs	r4, #0
 1056              	.L53:
 1057              	.LVL108:
 1058              	.LBB6:
 326:main.c        ****                 LED_SEL_Write(j);
 1059              		.loc 1 326 0 is_stmt 0 discriminator 1
 1060 0082 032C     		cmp	r4, #3
 1061 0084 F4DD     		ble	.L52
 1062              	.LBE6:
 325:main.c        ****             for(int j = 0; j < 4; j++){
 1063              		.loc 1 325 0 is_stmt 1 discriminator 2
 1064 0086 0135     		adds	r5, r5, #1
 1065              	.LVL109:
 1066              	.L51:
 325:main.c        ****             for(int j = 0; j < 4; j++){
 1067              		.loc 1 325 0 is_stmt 0 discriminator 1
 1068 0088 632D     		cmp	r5, #99
 1069 008a F9DD     		ble	.L55
 1070              	.LBE4:
 329:main.c        ****             }
 330:main.c        ****         }
 331:main.c        ****         LED_PWM_Stop();
 1071              		.loc 1 331 0 is_stmt 1 discriminator 2
 1072 008c FFF7FEFF 		bl	LED_PWM_Stop
 1073              	.LVL110:
 332:main.c        ****         SPEAKER_PWM_Stop();
 1074              		.loc 1 332 0 discriminator 2
 1075 0090 FFF7FEFF 		bl	SPEAKER_PWM_Stop
 1076              	.LVL111:
 333:main.c        ****         CyDelay(300);
 1077              		.loc 1 333 0 discriminator 2
 1078 0094 9620     		movs	r0, #150
 1079 0096 4000     		lsls	r0, r0, #1
 1080 0098 FFF7FEFF 		bl	CyDelay
 1081              	.LVL112:
 318:main.c        ****         if(speakerToggle == 1){
 1082              		.loc 1 318 0 discriminator 2
 1083 009c 0136     		adds	r6, r6, #1
 1084              	.LVL113:
 1085              	.L48:
ARM GAS  C:\Users\HELLOK~1\AppData\Local\Temp\cc4szl9H.s 			page 26


 318:main.c        ****         if(speakerToggle == 1){
 1086              		.loc 1 318 0 is_stmt 0 discriminator 1
 1087 009e 072E     		cmp	r6, #7
 1088 00a0 D8DD     		ble	.L54
 1089              	.LBE3:
 334:main.c        ****     }
 335:main.c        ****     // Set LED's
 336:main.c        ****     // Set speakers
 337:main.c        **** }
 1090              		.loc 1 337 0 is_stmt 1
 1091              		@ sp needed
 1092              	.LVL114:
 1093 00a2 70BD     		pop	{r4, r5, r6, pc}
 1094              	.L57:
 1095              		.align	2
 1096              	.L56:
 1097 00a4 80000000 		.word	.LANCHOR2
 1098 00a8 EE020000 		.word	750
 1099 00ac 00000000 		.word	.LANCHOR1
 1100              		.cfi_endproc
 1101              	.LFE46:
 1102              		.size	FEEEEED, .-FEEEEED
 1103              		.section	.text.setGlobalTime,"ax",%progbits
 1104              		.align	2
 1105              		.global	setGlobalTime
 1106              		.code	16
 1107              		.thumb_func
 1108              		.type	setGlobalTime, %function
 1109              	setGlobalTime:
 1110              	.LFB47:
 338:main.c        **** void setGlobalTime(){
 1111              		.loc 1 338 0
 1112              		.cfi_startproc
 1113              		@ args = 0, pretend = 0, frame = 112
 1114              		@ frame_needed = 0, uses_anonymous_args = 0
 1115 0000 F0B5     		push	{r4, r5, r6, r7, lr}
 1116              		.cfi_def_cfa_offset 20
 1117              		.cfi_offset 4, -20
 1118              		.cfi_offset 5, -16
 1119              		.cfi_offset 6, -12
 1120              		.cfi_offset 7, -8
 1121              		.cfi_offset 14, -4
 1122 0002 4F46     		mov	r7, r9
 1123 0004 80B4     		push	{r7}
 1124              		.cfi_def_cfa_offset 24
 1125              		.cfi_offset 9, -24
 1126 0006 9EB0     		sub	sp, sp, #120
 1127              		.cfi_def_cfa_offset 144
 339:main.c        ****     clear();
 1128              		.loc 1 339 0
 1129 0008 FFF7FEFF 		bl	clear
 1130              	.LVL115:
 340:main.c        ****     setCursor(0,0);
 1131              		.loc 1 340 0
 1132 000c 0021     		movs	r1, #0
 1133 000e 0020     		movs	r0, #0
 1134 0010 FFF7FEFF 		bl	setCursor
ARM GAS  C:\Users\HELLOK~1\AppData\Local\Temp\cc4szl9H.s 			page 27


 1135              	.LVL116:
 341:main.c        ****     LCD_print("Set Month");
 1136              		.loc 1 341 0
 1137 0014 D048     		ldr	r0, .L104
 1138 0016 FFF7FEFF 		bl	LCD_print
 1139              	.LVL117:
 342:main.c        ****     char printMessage[21];
 343:main.c        ****     struct Time nextTime = feedTimes[feedCounter];
 344:main.c        ****     uint8 day[1];
 345:main.c        ****     readFromAddr(day,1,RTCAddr,rtc.Days);
 1140              		.loc 1 345 0
 1141 001a D04D     		ldr	r5, .L104+4
 1142 001c 6B7A     		ldrb	r3, [r5, #9]
 1143 001e 13AF     		add	r7, sp, #76
 1144 0020 5122     		movs	r2, #81
 1145 0022 0121     		movs	r1, #1
 1146 0024 3800     		movs	r0, r7
 1147 0026 FFF7FEFF 		bl	readFromAddr
 1148              	.LVL118:
 346:main.c        ****     uint8 month[1];
 347:main.c        ****     readFromAddr(month,1,RTCAddr,rtc.Century_Months);
 1149              		.loc 1 347 0
 1150 002a EB7A     		ldrb	r3, [r5, #11]
 1151 002c 12AC     		add	r4, sp, #72
 1152 002e 5122     		movs	r2, #81
 1153 0030 0121     		movs	r1, #1
 1154 0032 2000     		movs	r0, r4
 1155 0034 FFF7FEFF 		bl	readFromAddr
 1156              	.LVL119:
 348:main.c        ****     uint8 year[1];
 349:main.c        ****     readFromAddr(year,1,RTCAddr,rtc.Years);
 1157              		.loc 1 349 0
 1158 0038 2B7B     		ldrb	r3, [r5, #12]
 1159 003a 11AE     		add	r6, sp, #68
 1160 003c 5122     		movs	r2, #81
 1161 003e 0121     		movs	r1, #1
 1162 0040 3000     		movs	r0, r6
 1163 0042 FFF7FEFF 		bl	readFromAddr
 1164              	.LVL120:
 350:main.c        ****     struct Date currDate = {bcdToDec(day[0]),months[bcdToDec(month[0])-1],bcdToDec(year[0])};
 1165              		.loc 1 350 0
 1166 0046 3878     		ldrb	r0, [r7]
 1167 0048 FFF7FEFF 		bl	bcdToDec
 1168              	.LVL121:
 1169 004c 0700     		movs	r7, r0
 1170 004e 2078     		ldrb	r0, [r4]
 1171 0050 FFF7FEFF 		bl	bcdToDec
 1172              	.LVL122:
 1173 0054 441E     		subs	r4, r0, #1
 1174 0056 A300     		lsls	r3, r4, #2
 1175 0058 ED18     		adds	r5, r5, r3
 1176 005a 6B6E     		ldr	r3, [r5, #100]
 1177 005c 9946     		mov	r9, r3
 1178 005e 3078     		ldrb	r0, [r6]
 1179 0060 FFF7FEFF 		bl	bcdToDec
 1180              	.LVL123:
 1181 0064 0500     		movs	r5, r0
ARM GAS  C:\Users\HELLOK~1\AppData\Local\Temp\cc4szl9H.s 			page 28


 1182              	.LVL124:
 351:main.c        ****     struct Date setDate;
 352:main.c        ****     int currentIndex = bcdToDec(month[0])-1;
 353:main.c        ****     setCursor(0,2);
 1183              		.loc 1 353 0
 1184 0066 0221     		movs	r1, #2
 1185 0068 0020     		movs	r0, #0
 1186 006a FFF7FEFF 		bl	setCursor
 1187              	.LVL125:
 354:main.c        ****     snprintf(printMessage,21,"%s %d, 20%d",currDate.month,currDate.day,currDate.year);
 1188              		.loc 1 354 0
 1189 006e 3E00     		movs	r6, r7
 1190 0070 0195     		str	r5, [sp, #4]
 1191 0072 0097     		str	r7, [sp]
 1192 0074 4B46     		mov	r3, r9
 1193 0076 BA4A     		ldr	r2, .L104+8
 1194 0078 1521     		movs	r1, #21
 1195 007a 14A8     		add	r0, sp, #80
 1196 007c FFF7FEFF 		bl	snprintf
 1197              	.LVL126:
 355:main.c        ****     LCD_print(printMessage);
 1198              		.loc 1 355 0
 1199 0080 14A8     		add	r0, sp, #80
 1200 0082 FFF7FEFF 		bl	LCD_print
 1201              	.LVL127:
 356:main.c        ****     while(buttonFlag == 0){
 1202              		.loc 1 356 0
 1203 0086 23E0     		b	.L60
 1204              	.L63:
 357:main.c        ****         if(encFlag == 1){
 1205              		.loc 1 357 0
 1206 0088 B64B     		ldr	r3, .L104+12
 1207 008a 9B78     		ldrb	r3, [r3, #2]
 1208 008c 012B     		cmp	r3, #1
 1209 008e 1FD1     		bne	.L60
 358:main.c        ****             encFlag = 0;
 1210              		.loc 1 358 0
 1211 0090 B44B     		ldr	r3, .L104+12
 1212 0092 0022     		movs	r2, #0
 1213 0094 9A70     		strb	r2, [r3, #2]
 359:main.c        ****             if(encPos == 1){
 1214              		.loc 1 359 0
 1215 0096 DB78     		ldrb	r3, [r3, #3]
 1216 0098 012B     		cmp	r3, #1
 1217 009a 03D1     		bne	.L61
 360:main.c        ****                 if(currentIndex == 12){
 1218              		.loc 1 360 0
 1219 009c 0C2C     		cmp	r4, #12
 1220 009e 09D0     		beq	.L93
 361:main.c        ****                     currentIndex = 1;
 362:main.c        ****                 }
 363:main.c        ****                 else{
 364:main.c        ****                     currentIndex++;
 1221              		.loc 1 364 0
 1222 00a0 0134     		adds	r4, r4, #1
 1223              	.LVL128:
 1224 00a2 0AE0     		b	.L62
ARM GAS  C:\Users\HELLOK~1\AppData\Local\Temp\cc4szl9H.s 			page 29


 1225              	.L61:
 365:main.c        ****                 }
 366:main.c        ****             }
 367:main.c        ****             else if(encPos == 2){
 1226              		.loc 1 367 0
 1227 00a4 AF4B     		ldr	r3, .L104+12
 1228 00a6 DB78     		ldrb	r3, [r3, #3]
 1229 00a8 022B     		cmp	r3, #2
 1230 00aa 06D1     		bne	.L62
 368:main.c        ****                 if(currentIndex == 1){
 1231              		.loc 1 368 0
 1232 00ac 012C     		cmp	r4, #1
 1233 00ae 03D0     		beq	.L94
 369:main.c        ****                     currentIndex = 12;
 370:main.c        ****                 }
 371:main.c        ****                 else{
 372:main.c        ****                     currentIndex--;
 1234              		.loc 1 372 0
 1235 00b0 013C     		subs	r4, r4, #1
 1236              	.LVL129:
 1237 00b2 02E0     		b	.L62
 1238              	.L93:
 361:main.c        ****                 }
 1239              		.loc 1 361 0
 1240 00b4 0124     		movs	r4, #1
 1241              	.LVL130:
 1242 00b6 00E0     		b	.L62
 1243              	.LVL131:
 1244              	.L94:
 369:main.c        ****                     currentIndex = 12;
 1245              		.loc 1 369 0
 1246 00b8 0C24     		movs	r4, #12
 1247              	.LVL132:
 1248              	.L62:
 373:main.c        ****                 }
 374:main.c        ****             }
 375:main.c        ****             setCursor(0,2);
 1249              		.loc 1 375 0
 1250 00ba 0221     		movs	r1, #2
 1251 00bc 0020     		movs	r0, #0
 1252 00be FFF7FEFF 		bl	setCursor
 1253              	.LVL133:
 376:main.c        ****             LCD_print(months[currentIndex-1]);
 1254              		.loc 1 376 0
 1255 00c2 631E     		subs	r3, r4, #1
 1256 00c4 9B00     		lsls	r3, r3, #2
 1257 00c6 A54A     		ldr	r2, .L104+4
 1258 00c8 D318     		adds	r3, r2, r3
 1259 00ca 586E     		ldr	r0, [r3, #100]
 1260 00cc FFF7FEFF 		bl	LCD_print
 1261              	.LVL134:
 1262              	.L60:
 356:main.c        ****         if(encFlag == 1){
 1263              		.loc 1 356 0
 1264 00d0 A44B     		ldr	r3, .L104+12
 1265 00d2 1B79     		ldrb	r3, [r3, #4]
 1266 00d4 002B     		cmp	r3, #0
ARM GAS  C:\Users\HELLOK~1\AppData\Local\Temp\cc4szl9H.s 			page 30


 1267 00d6 D7D0     		beq	.L63
 377:main.c        ****         }
 378:main.c        ****     }
 379:main.c        ****     uint8 numberMonth = currentIndex;
 1268              		.loc 1 379 0
 1269 00d8 E4B2     		uxtb	r4, r4
 1270              	.LVL135:
 380:main.c        ****     setDate.month = months[currentIndex-1];
 381:main.c        ****     buttonFlag = 0;
 1271              		.loc 1 381 0
 1272 00da 0022     		movs	r2, #0
 1273 00dc A14B     		ldr	r3, .L104+12
 1274 00de 1A71     		strb	r2, [r3, #4]
 382:main.c        ****     setCursor(0,0);
 1275              		.loc 1 382 0
 1276 00e0 0021     		movs	r1, #0
 1277 00e2 0020     		movs	r0, #0
 1278 00e4 FFF7FEFF 		bl	setCursor
 1279              	.LVL136:
 383:main.c        ****     LCD_print("Set Day  ");
 1280              		.loc 1 383 0
 1281 00e8 9F48     		ldr	r0, .L104+16
 1282 00ea FFF7FEFF 		bl	LCD_print
 1283              	.LVL137:
 384:main.c        ****     currentIndex = currDate.day;
 385:main.c        ****     while(buttonFlag == 0){
 1284              		.loc 1 385 0
 1285 00ee 25E0     		b	.L65
 1286              	.LVL138:
 1287              	.L68:
 386:main.c        ****         if(encFlag == 1){
 1288              		.loc 1 386 0
 1289 00f0 9C4B     		ldr	r3, .L104+12
 1290 00f2 9B78     		ldrb	r3, [r3, #2]
 1291 00f4 012B     		cmp	r3, #1
 1292 00f6 21D1     		bne	.L65
 1293              	.LBB7:
 387:main.c        ****             encFlag = 0;
 1294              		.loc 1 387 0
 1295 00f8 9A4B     		ldr	r3, .L104+12
 1296 00fa 0022     		movs	r2, #0
 1297 00fc 9A70     		strb	r2, [r3, #2]
 388:main.c        ****             if(encPos == 1){
 1298              		.loc 1 388 0
 1299 00fe DB78     		ldrb	r3, [r3, #3]
 1300 0100 012B     		cmp	r3, #1
 1301 0102 03D1     		bne	.L66
 389:main.c        ****                 if(currentIndex == 31){
 1302              		.loc 1 389 0
 1303 0104 1F2E     		cmp	r6, #31
 1304 0106 09D0     		beq	.L95
 390:main.c        ****                     currentIndex = 1;
 391:main.c        ****                 }
 392:main.c        ****                 else{
 393:main.c        ****                     currentIndex++;
 1305              		.loc 1 393 0
 1306 0108 0136     		adds	r6, r6, #1
ARM GAS  C:\Users\HELLOK~1\AppData\Local\Temp\cc4szl9H.s 			page 31


 1307              	.LVL139:
 1308 010a 0AE0     		b	.L67
 1309              	.L66:
 394:main.c        ****                 }
 395:main.c        ****             }
 396:main.c        ****             else if(encPos == 2){
 1310              		.loc 1 396 0
 1311 010c 954B     		ldr	r3, .L104+12
 1312 010e DB78     		ldrb	r3, [r3, #3]
 1313 0110 022B     		cmp	r3, #2
 1314 0112 06D1     		bne	.L67
 397:main.c        ****                 if(currentIndex == 1){
 1315              		.loc 1 397 0
 1316 0114 012E     		cmp	r6, #1
 1317 0116 03D0     		beq	.L96
 398:main.c        ****                     currentIndex = 31;
 399:main.c        ****                 }
 400:main.c        ****                 else{
 401:main.c        ****                     currentIndex--;
 1318              		.loc 1 401 0
 1319 0118 013E     		subs	r6, r6, #1
 1320              	.LVL140:
 1321 011a 02E0     		b	.L67
 1322              	.L95:
 390:main.c        ****                 }
 1323              		.loc 1 390 0
 1324 011c 0126     		movs	r6, #1
 1325              	.LVL141:
 1326 011e 00E0     		b	.L67
 1327              	.LVL142:
 1328              	.L96:
 398:main.c        ****                     currentIndex = 31;
 1329              		.loc 1 398 0
 1330 0120 1F26     		movs	r6, #31
 1331              	.LVL143:
 1332              	.L67:
 402:main.c        ****                 }
 403:main.c        ****             }
 404:main.c        ****             setCursor(4,2);
 1333              		.loc 1 404 0 discriminator 1
 1334 0122 0221     		movs	r1, #2
 1335 0124 0420     		movs	r0, #4
 1336 0126 FFF7FEFF 		bl	setCursor
 1337              	.LVL144:
 405:main.c        ****             char printDay[3];
 406:main.c        ****             snprintf(printDay,3,"%02d",currentIndex);
 1338              		.loc 1 406 0 discriminator 1
 1339 012a 3300     		movs	r3, r6
 1340 012c 8F4A     		ldr	r2, .L104+20
 1341 012e 0321     		movs	r1, #3
 1342 0130 05A8     		add	r0, sp, #20
 1343 0132 FFF7FEFF 		bl	snprintf
 1344              	.LVL145:
 407:main.c        ****             LCD_print(printDay);
 1345              		.loc 1 407 0 discriminator 1
 1346 0136 05A8     		add	r0, sp, #20
 1347 0138 FFF7FEFF 		bl	LCD_print
ARM GAS  C:\Users\HELLOK~1\AppData\Local\Temp\cc4szl9H.s 			page 32


 1348              	.LVL146:
 1349              	.L65:
 1350              	.LBE7:
 385:main.c        ****         if(encFlag == 1){
 1351              		.loc 1 385 0
 1352 013c 894B     		ldr	r3, .L104+12
 1353 013e 1B79     		ldrb	r3, [r3, #4]
 1354 0140 002B     		cmp	r3, #0
 1355 0142 D5D0     		beq	.L68
 408:main.c        ****         }
 409:main.c        ****     }
 410:main.c        ****     buttonFlag = 0;
 1356              		.loc 1 410 0
 1357 0144 874B     		ldr	r3, .L104+12
 1358 0146 0022     		movs	r2, #0
 1359 0148 1A71     		strb	r2, [r3, #4]
 411:main.c        ****     
 412:main.c        ****     setDate.day = currentIndex;
 1360              		.loc 1 412 0
 1361 014a 0EA9     		add	r1, sp, #56
 1362 014c 0E70     		strb	r6, [r1]
 413:main.c        ****     buttonFlag = 0;
 1363              		.loc 1 413 0
 1364 014e 1A71     		strb	r2, [r3, #4]
 414:main.c        ****     setCursor(0,0);
 1365              		.loc 1 414 0
 1366 0150 0021     		movs	r1, #0
 1367 0152 0020     		movs	r0, #0
 1368 0154 FFF7FEFF 		bl	setCursor
 1369              	.LVL147:
 415:main.c        ****     LCD_print("Set Year");
 1370              		.loc 1 415 0
 1371 0158 8548     		ldr	r0, .L104+24
 1372 015a FFF7FEFF 		bl	LCD_print
 1373              	.LVL148:
 416:main.c        ****     currentIndex = currDate.year;
 417:main.c        ****     while(buttonFlag == 0){
 1374              		.loc 1 417 0
 1375 015e 25E0     		b	.L70
 1376              	.LVL149:
 1377              	.L73:
 418:main.c        ****         if(encFlag == 1){
 1378              		.loc 1 418 0
 1379 0160 804B     		ldr	r3, .L104+12
 1380 0162 9B78     		ldrb	r3, [r3, #2]
 1381 0164 012B     		cmp	r3, #1
 1382 0166 21D1     		bne	.L70
 1383              	.LBB8:
 419:main.c        ****             encFlag = 0;
 1384              		.loc 1 419 0
 1385 0168 7E4B     		ldr	r3, .L104+12
 1386 016a 0022     		movs	r2, #0
 1387 016c 9A70     		strb	r2, [r3, #2]
 420:main.c        ****             if(encPos == 1){
 1388              		.loc 1 420 0
 1389 016e DB78     		ldrb	r3, [r3, #3]
 1390 0170 012B     		cmp	r3, #1
ARM GAS  C:\Users\HELLOK~1\AppData\Local\Temp\cc4szl9H.s 			page 33


 1391 0172 03D1     		bne	.L71
 421:main.c        ****                 if(currentIndex == 99){
 1392              		.loc 1 421 0
 1393 0174 632D     		cmp	r5, #99
 1394 0176 09D0     		beq	.L97
 422:main.c        ****                     currentIndex = 0;
 423:main.c        ****                 }
 424:main.c        ****                 else{
 425:main.c        ****                     currentIndex++;
 1395              		.loc 1 425 0
 1396 0178 0135     		adds	r5, r5, #1
 1397              	.LVL150:
 1398 017a 0AE0     		b	.L72
 1399              	.L71:
 426:main.c        ****                 }
 427:main.c        ****             }
 428:main.c        ****             else if(encPos == 2){
 1400              		.loc 1 428 0
 1401 017c 794B     		ldr	r3, .L104+12
 1402 017e DB78     		ldrb	r3, [r3, #3]
 1403 0180 022B     		cmp	r3, #2
 1404 0182 06D1     		bne	.L72
 429:main.c        ****                 if(currentIndex == 0){
 1405              		.loc 1 429 0
 1406 0184 002D     		cmp	r5, #0
 1407 0186 03D0     		beq	.L98
 430:main.c        ****                     currentIndex = 99;
 431:main.c        ****                 }
 432:main.c        ****                 else{
 433:main.c        ****                     currentIndex--;
 1408              		.loc 1 433 0
 1409 0188 013D     		subs	r5, r5, #1
 1410              	.LVL151:
 1411 018a 02E0     		b	.L72
 1412              	.L97:
 422:main.c        ****                 }
 1413              		.loc 1 422 0
 1414 018c 0025     		movs	r5, #0
 1415              	.LVL152:
 1416 018e 00E0     		b	.L72
 1417              	.LVL153:
 1418              	.L98:
 430:main.c        ****                     currentIndex = 99;
 1419              		.loc 1 430 0
 1420 0190 6325     		movs	r5, #99
 1421              	.LVL154:
 1422              	.L72:
 434:main.c        ****                 }
 435:main.c        ****             }
 436:main.c        ****             setCursor(8,2);
 1423              		.loc 1 436 0 discriminator 2
 1424 0192 0221     		movs	r1, #2
 1425 0194 0820     		movs	r0, #8
 1426 0196 FFF7FEFF 		bl	setCursor
 1427              	.LVL155:
 437:main.c        ****             char printYear[5];
 438:main.c        ****             snprintf(printYear,5,"20%02d",currentIndex);
ARM GAS  C:\Users\HELLOK~1\AppData\Local\Temp\cc4szl9H.s 			page 34


 1428              		.loc 1 438 0 discriminator 2
 1429 019a 2B00     		movs	r3, r5
 1430 019c 754A     		ldr	r2, .L104+28
 1431 019e 0521     		movs	r1, #5
 1432 01a0 05A8     		add	r0, sp, #20
 1433 01a2 FFF7FEFF 		bl	snprintf
 1434              	.LVL156:
 439:main.c        ****             LCD_print(printYear);
 1435              		.loc 1 439 0 discriminator 2
 1436 01a6 05A8     		add	r0, sp, #20
 1437 01a8 FFF7FEFF 		bl	LCD_print
 1438              	.LVL157:
 1439              	.L70:
 1440              	.LBE8:
 417:main.c        ****         if(encFlag == 1){
 1441              		.loc 1 417 0
 1442 01ac 6D4B     		ldr	r3, .L104+12
 1443 01ae 1B79     		ldrb	r3, [r3, #4]
 1444 01b0 002B     		cmp	r3, #0
 1445 01b2 D5D0     		beq	.L73
 440:main.c        ****         }
 441:main.c        ****     }
 442:main.c        ****     buttonFlag = 0;
 1446              		.loc 1 442 0
 1447 01b4 0022     		movs	r2, #0
 1448 01b6 6B4B     		ldr	r3, .L104+12
 1449 01b8 1A71     		strb	r2, [r3, #4]
 443:main.c        ****     setDate.year = currentIndex;
 1450              		.loc 1 443 0
 1451 01ba 0EAB     		add	r3, sp, #56
 1452 01bc 1D72     		strb	r5, [r3, #8]
 444:main.c        ****     
 445:main.c        ****     uint8 min[1];
 446:main.c        ****     readFromAddr(min,1,RTCAddr,rtc.Minutes);
 1453              		.loc 1 446 0
 1454 01be 674D     		ldr	r5, .L104+4
 1455              	.LVL158:
 1456 01c0 EB79     		ldrb	r3, [r5, #7]
 1457 01c2 5132     		adds	r2, r2, #81
 1458 01c4 0121     		movs	r1, #1
 1459 01c6 0DA8     		add	r0, sp, #52
 1460 01c8 FFF7FEFF 		bl	readFromAddr
 1461              	.LVL159:
 447:main.c        ****     uint8 hour[1];
 448:main.c        ****     readFromAddr(hour,1,RTCAddr,rtc.Hours);
 1462              		.loc 1 448 0
 1463 01cc 2B7A     		ldrb	r3, [r5, #8]
 1464 01ce 0CAD     		add	r5, sp, #48
 1465 01d0 5122     		movs	r2, #81
 1466 01d2 0121     		movs	r1, #1
 1467 01d4 2800     		movs	r0, r5
 1468 01d6 FFF7FEFF 		bl	readFromAddr
 1469              	.LVL160:
 449:main.c        ****     struct Time updateTime;
 450:main.c        ****     struct Time setTime;
 451:main.c        ****     if(hour[0] > 0x12){
 1470              		.loc 1 451 0
ARM GAS  C:\Users\HELLOK~1\AppData\Local\Temp\cc4szl9H.s 			page 35


 1471 01da 2878     		ldrb	r0, [r5]
 1472 01dc 1228     		cmp	r0, #18
 1473 01de 13D9     		bls	.L74
 1474              	.LBB9:
 452:main.c        ****             volatile struct Time currTime = {bcdToDec(hour[0])-12,bcdToDec(min[0]),"PM"};
 1475              		.loc 1 452 0
 1476 01e0 FFF7FEFF 		bl	bcdToDec
 1477              	.LVL161:
 1478 01e4 1AAD     		add	r5, sp, #104
 1479 01e6 0C38     		subs	r0, r0, #12
 1480 01e8 2870     		strb	r0, [r5]
 1481 01ea 0DAB     		add	r3, sp, #52
 1482 01ec 1878     		ldrb	r0, [r3]
 1483 01ee FFF7FEFF 		bl	bcdToDec
 1484              	.LVL162:
 1485 01f2 6870     		strb	r0, [r5, #1]
 1486 01f4 604B     		ldr	r3, .L104+32
 1487 01f6 6B60     		str	r3, [r5, #4]
 1488 01f8 03AB     		add	r3, sp, #12
 1489 01fa 1A00     		movs	r2, r3
 1490 01fc 03CD     		ldmia	r5!, {r0, r1}
 1491 01fe 03C2     		stmia	r2!, {r0, r1}
 453:main.c        ****             updateTime = currTime;
 1492              		.loc 1 453 0
 1493 0200 0AAA     		add	r2, sp, #40
 1494 0202 03CB     		ldmia	r3!, {r0, r1}
 1495 0204 03C2     		stmia	r2!, {r0, r1}
 1496              	.LBE9:
 1497 0206 11E0     		b	.L75
 1498              	.L74:
 1499              	.LBB10:
 454:main.c        ****         }
 455:main.c        ****         else{
 456:main.c        ****             volatile struct Time currTime = {bcdToDec(hour[0]),bcdToDec(min[0]),"AM"};
 1500              		.loc 1 456 0
 1501 0208 FFF7FEFF 		bl	bcdToDec
 1502              	.LVL163:
 1503 020c 1CAD     		add	r5, sp, #112
 1504 020e 2870     		strb	r0, [r5]
 1505 0210 0DAB     		add	r3, sp, #52
 1506 0212 1878     		ldrb	r0, [r3]
 1507 0214 FFF7FEFF 		bl	bcdToDec
 1508              	.LVL164:
 1509 0218 6870     		strb	r0, [r5, #1]
 1510 021a 584B     		ldr	r3, .L104+36
 1511 021c 6B60     		str	r3, [r5, #4]
 1512 021e 05AB     		add	r3, sp, #20
 1513 0220 1A00     		movs	r2, r3
 1514 0222 03CD     		ldmia	r5!, {r0, r1}
 1515 0224 03C2     		stmia	r2!, {r0, r1}
 457:main.c        ****             updateTime = currTime;
 1516              		.loc 1 457 0
 1517 0226 0AAA     		add	r2, sp, #40
 1518 0228 03CB     		ldmia	r3!, {r0, r1}
 1519 022a 03C2     		stmia	r2!, {r0, r1}
 1520              	.L75:
 1521              	.LBE10:
ARM GAS  C:\Users\HELLOK~1\AppData\Local\Temp\cc4szl9H.s 			page 36


 458:main.c        ****     }
 459:main.c        ****     setCursor(0,0);
 1522              		.loc 1 459 0
 1523 022c 0021     		movs	r1, #0
 1524 022e 0020     		movs	r0, #0
 1525 0230 FFF7FEFF 		bl	setCursor
 1526              	.LVL165:
 460:main.c        ****     LCD_print("Set Hour");
 1527              		.loc 1 460 0
 1528 0234 5248     		ldr	r0, .L104+40
 1529 0236 FFF7FEFF 		bl	LCD_print
 1530              	.LVL166:
 461:main.c        ****     setCursor(0,2);
 1531              		.loc 1 461 0
 1532 023a 0221     		movs	r1, #2
 1533 023c 0020     		movs	r0, #0
 1534 023e FFF7FEFF 		bl	setCursor
 1535              	.LVL167:
 462:main.c        ****     snprintf(printMessage,21,"%d:%.2d%s        ",updateTime.hour,updateTime.minute,updateTime.AM);
 1536              		.loc 1 462 0
 1537 0242 0AAB     		add	r3, sp, #40
 1538 0244 1D78     		ldrb	r5, [r3]
 1539 0246 5E78     		ldrb	r6, [r3, #1]
 1540 0248 0B9B     		ldr	r3, [sp, #44]
 1541 024a 0193     		str	r3, [sp, #4]
 1542 024c 0096     		str	r6, [sp]
 1543 024e 2B00     		movs	r3, r5
 1544 0250 4C4A     		ldr	r2, .L104+44
 1545 0252 1521     		movs	r1, #21
 1546 0254 14A8     		add	r0, sp, #80
 1547 0256 FFF7FEFF 		bl	snprintf
 1548              	.LVL168:
 463:main.c        ****     LCD_print(printMessage);
 1549              		.loc 1 463 0
 1550 025a 14A8     		add	r0, sp, #80
 1551 025c FFF7FEFF 		bl	LCD_print
 1552              	.LVL169:
 464:main.c        ****     currentIndex = updateTime.hour;
 465:main.c        ****     while(buttonFlag == 0){
 1553              		.loc 1 465 0
 1554 0260 25E0     		b	.L77
 1555              	.L80:
 466:main.c        ****         if(encFlag == 1){
 1556              		.loc 1 466 0
 1557 0262 404B     		ldr	r3, .L104+12
 1558 0264 9B78     		ldrb	r3, [r3, #2]
 1559 0266 012B     		cmp	r3, #1
 1560 0268 21D1     		bne	.L77
 1561              	.LBB11:
 467:main.c        ****             encFlag = 0;
 1562              		.loc 1 467 0
 1563 026a 3E4B     		ldr	r3, .L104+12
 1564 026c 0022     		movs	r2, #0
 1565 026e 9A70     		strb	r2, [r3, #2]
 468:main.c        ****             if(encPos == 1){
 1566              		.loc 1 468 0
 1567 0270 DB78     		ldrb	r3, [r3, #3]
ARM GAS  C:\Users\HELLOK~1\AppData\Local\Temp\cc4szl9H.s 			page 37


 1568 0272 012B     		cmp	r3, #1
 1569 0274 03D1     		bne	.L78
 469:main.c        ****                 if(currentIndex == 12){
 1570              		.loc 1 469 0
 1571 0276 0C2D     		cmp	r5, #12
 1572 0278 09D0     		beq	.L99
 470:main.c        ****                     currentIndex = 1;
 471:main.c        ****                 }
 472:main.c        ****                 else{
 473:main.c        ****                     currentIndex++;
 1573              		.loc 1 473 0
 1574 027a 0135     		adds	r5, r5, #1
 1575              	.LVL170:
 1576 027c 0AE0     		b	.L79
 1577              	.L78:
 474:main.c        ****                 }
 475:main.c        ****             }
 476:main.c        ****             else if(encPos == 2){
 1578              		.loc 1 476 0
 1579 027e 394B     		ldr	r3, .L104+12
 1580 0280 DB78     		ldrb	r3, [r3, #3]
 1581 0282 022B     		cmp	r3, #2
 1582 0284 06D1     		bne	.L79
 477:main.c        ****                 if(currentIndex == 1){
 1583              		.loc 1 477 0
 1584 0286 012D     		cmp	r5, #1
 1585 0288 03D0     		beq	.L100
 478:main.c        ****                     currentIndex = 12;
 479:main.c        ****                 }
 480:main.c        ****                 else{
 481:main.c        ****                     currentIndex--;
 1586              		.loc 1 481 0
 1587 028a 013D     		subs	r5, r5, #1
 1588              	.LVL171:
 1589 028c 02E0     		b	.L79
 1590              	.L99:
 470:main.c        ****                 }
 1591              		.loc 1 470 0
 1592 028e 0125     		movs	r5, #1
 1593              	.LVL172:
 1594 0290 00E0     		b	.L79
 1595              	.LVL173:
 1596              	.L100:
 478:main.c        ****                     currentIndex = 12;
 1597              		.loc 1 478 0
 1598 0292 0C25     		movs	r5, #12
 1599              	.LVL174:
 1600              	.L79:
 482:main.c        ****                 }
 483:main.c        ****             }
 484:main.c        ****             setCursor(0,2);
 1601              		.loc 1 484 0 discriminator 3
 1602 0294 0221     		movs	r1, #2
 1603 0296 0020     		movs	r0, #0
 1604 0298 FFF7FEFF 		bl	setCursor
 1605              	.LVL175:
 485:main.c        ****             char printHour[3];
ARM GAS  C:\Users\HELLOK~1\AppData\Local\Temp\cc4szl9H.s 			page 38


 486:main.c        ****             snprintf(printHour,3,"%02d",currentIndex);
 1606              		.loc 1 486 0 discriminator 3
 1607 029c 2B00     		movs	r3, r5
 1608 029e 334A     		ldr	r2, .L104+20
 1609 02a0 0321     		movs	r1, #3
 1610 02a2 02A8     		add	r0, sp, #8
 1611 02a4 FFF7FEFF 		bl	snprintf
 1612              	.LVL176:
 487:main.c        ****             LCD_print(printHour);
 1613              		.loc 1 487 0 discriminator 3
 1614 02a8 02A8     		add	r0, sp, #8
 1615 02aa FFF7FEFF 		bl	LCD_print
 1616              	.LVL177:
 1617              	.L77:
 1618              	.LBE11:
 465:main.c        ****         if(encFlag == 1){
 1619              		.loc 1 465 0
 1620 02ae 2D4B     		ldr	r3, .L104+12
 1621 02b0 1B79     		ldrb	r3, [r3, #4]
 1622 02b2 002B     		cmp	r3, #0
 1623 02b4 D5D0     		beq	.L80
 488:main.c        ****             
 489:main.c        ****         }
 490:main.c        ****     }
 491:main.c        ****     
 492:main.c        ****     setTime.hour = currentIndex;
 1624              		.loc 1 492 0
 1625 02b6 EDB2     		uxtb	r5, r5
 1626              	.LVL178:
 1627 02b8 08AB     		add	r3, sp, #32
 1628 02ba 1D70     		strb	r5, [r3]
 493:main.c        ****     buttonFlag = 0;
 1629              		.loc 1 493 0
 1630 02bc 0022     		movs	r2, #0
 1631 02be 294B     		ldr	r3, .L104+12
 1632 02c0 1A71     		strb	r2, [r3, #4]
 494:main.c        ****     setCursor(0,0);
 1633              		.loc 1 494 0
 1634 02c2 0021     		movs	r1, #0
 1635 02c4 0020     		movs	r0, #0
 1636 02c6 FFF7FEFF 		bl	setCursor
 1637              	.LVL179:
 495:main.c        ****     LCD_print("Set Minute");
 1638              		.loc 1 495 0
 1639 02ca 2F48     		ldr	r0, .L104+48
 1640 02cc FFF7FEFF 		bl	LCD_print
 1641              	.LVL180:
 496:main.c        ****     currentIndex = updateTime.minute;
 497:main.c        ****     while(buttonFlag == 0){
 1642              		.loc 1 497 0
 1643 02d0 25E0     		b	.L82
 1644              	.L85:
 498:main.c        ****         if(encFlag == 1){
 1645              		.loc 1 498 0
 1646 02d2 244B     		ldr	r3, .L104+12
 1647 02d4 9B78     		ldrb	r3, [r3, #2]
 1648 02d6 012B     		cmp	r3, #1
ARM GAS  C:\Users\HELLOK~1\AppData\Local\Temp\cc4szl9H.s 			page 39


 1649 02d8 21D1     		bne	.L82
 1650              	.LBB12:
 499:main.c        ****             encFlag = 0;
 1651              		.loc 1 499 0
 1652 02da 224B     		ldr	r3, .L104+12
 1653 02dc 0022     		movs	r2, #0
 1654 02de 9A70     		strb	r2, [r3, #2]
 500:main.c        ****             if(encPos == 1){
 1655              		.loc 1 500 0
 1656 02e0 DB78     		ldrb	r3, [r3, #3]
 1657 02e2 012B     		cmp	r3, #1
 1658 02e4 03D1     		bne	.L83
 501:main.c        ****                 if(currentIndex == 59){
 1659              		.loc 1 501 0
 1660 02e6 3B2E     		cmp	r6, #59
 1661 02e8 09D0     		beq	.L101
 502:main.c        ****                     currentIndex = 0;
 503:main.c        ****                 }
 504:main.c        ****                 else{
 505:main.c        ****                     currentIndex++;
 1662              		.loc 1 505 0
 1663 02ea 0136     		adds	r6, r6, #1
 1664              	.LVL181:
 1665 02ec 0AE0     		b	.L84
 1666              	.L83:
 506:main.c        ****                 }
 507:main.c        ****             }
 508:main.c        ****             else if(encPos == 2){
 1667              		.loc 1 508 0
 1668 02ee 1D4B     		ldr	r3, .L104+12
 1669 02f0 DB78     		ldrb	r3, [r3, #3]
 1670 02f2 022B     		cmp	r3, #2
 1671 02f4 06D1     		bne	.L84
 509:main.c        ****                 if(currentIndex == 0){
 1672              		.loc 1 509 0
 1673 02f6 002E     		cmp	r6, #0
 1674 02f8 03D0     		beq	.L102
 510:main.c        ****                     currentIndex = 59;
 511:main.c        ****                 }
 512:main.c        ****                 else{
 513:main.c        ****                     currentIndex--;
 1675              		.loc 1 513 0
 1676 02fa 013E     		subs	r6, r6, #1
 1677              	.LVL182:
 1678 02fc 02E0     		b	.L84
 1679              	.L101:
 502:main.c        ****                 }
 1680              		.loc 1 502 0
 1681 02fe 0026     		movs	r6, #0
 1682              	.LVL183:
 1683 0300 00E0     		b	.L84
 1684              	.LVL184:
 1685              	.L102:
 510:main.c        ****                     currentIndex = 59;
 1686              		.loc 1 510 0
 1687 0302 3B26     		movs	r6, #59
 1688              	.LVL185:
ARM GAS  C:\Users\HELLOK~1\AppData\Local\Temp\cc4szl9H.s 			page 40


 1689              	.L84:
 514:main.c        ****                 }
 515:main.c        ****             }
 516:main.c        ****             setCursor(3,2);
 1690              		.loc 1 516 0 discriminator 4
 1691 0304 0221     		movs	r1, #2
 1692 0306 0320     		movs	r0, #3
 1693 0308 FFF7FEFF 		bl	setCursor
 1694              	.LVL186:
 517:main.c        ****             char printMinute[3];
 518:main.c        ****             snprintf(printMinute,5,"%02d",currentIndex);
 1695              		.loc 1 518 0 discriminator 4
 1696 030c 3300     		movs	r3, r6
 1697 030e 174A     		ldr	r2, .L104+20
 1698 0310 0521     		movs	r1, #5
 1699 0312 02A8     		add	r0, sp, #8
 1700 0314 FFF7FEFF 		bl	snprintf
 1701              	.LVL187:
 519:main.c        ****             LCD_print(printMinute);
 1702              		.loc 1 519 0 discriminator 4
 1703 0318 02A8     		add	r0, sp, #8
 1704 031a FFF7FEFF 		bl	LCD_print
 1705              	.LVL188:
 1706              	.L82:
 1707              	.LBE12:
 497:main.c        ****         if(encFlag == 1){
 1708              		.loc 1 497 0
 1709 031e 114B     		ldr	r3, .L104+12
 1710 0320 1B79     		ldrb	r3, [r3, #4]
 1711 0322 002B     		cmp	r3, #0
 1712 0324 D5D0     		beq	.L85
 520:main.c        ****         }
 521:main.c        ****     }
 522:main.c        ****     
 523:main.c        ****     setTime.minute = currentIndex;
 1713              		.loc 1 523 0
 1714 0326 F6B2     		uxtb	r6, r6
 1715              	.LVL189:
 524:main.c        ****     buttonFlag = 0;
 1716              		.loc 1 524 0
 1717 0328 0022     		movs	r2, #0
 1718 032a 0E4B     		ldr	r3, .L104+12
 1719 032c 1A71     		strb	r2, [r3, #4]
 525:main.c        ****     setCursor(0,0);
 1720              		.loc 1 525 0
 1721 032e 0021     		movs	r1, #0
 1722 0330 0020     		movs	r0, #0
 1723 0332 FFF7FEFF 		bl	setCursor
 1724              	.LVL190:
 526:main.c        ****     LCD_print("Set AM/PM    ");
 1725              		.loc 1 526 0
 1726 0336 1548     		ldr	r0, .L104+52
 1727 0338 FFF7FEFF 		bl	LCD_print
 1728              	.LVL191:
 527:main.c        ****     currentIndex = 0;
 1729              		.loc 1 527 0
 1730 033c 0027     		movs	r7, #0
ARM GAS  C:\Users\HELLOK~1\AppData\Local\Temp\cc4szl9H.s 			page 41


 528:main.c        ****     while(buttonFlag == 0){
 1731              		.loc 1 528 0
 1732 033e 35E0     		b	.L87
 1733              	.LVL192:
 1734              	.L91:
 529:main.c        ****         if(encFlag == 1){
 1735              		.loc 1 529 0
 1736 0340 084B     		ldr	r3, .L104+12
 1737 0342 9B78     		ldrb	r3, [r3, #2]
 1738 0344 012B     		cmp	r3, #1
 1739 0346 31D1     		bne	.L87
 530:main.c        ****             encFlag = 0;
 1740              		.loc 1 530 0
 1741 0348 0022     		movs	r2, #0
 1742 034a 064B     		ldr	r3, .L104+12
 1743 034c 9A70     		strb	r2, [r3, #2]
 531:main.c        ****             if(currentIndex == 0){
 1744              		.loc 1 531 0
 1745 034e 002F     		cmp	r7, #0
 1746 0350 1ED1     		bne	.L103
 532:main.c        ****                 currentIndex = 1;
 1747              		.loc 1 532 0
 1748 0352 0137     		adds	r7, r7, #1
 1749              	.LVL193:
 1750 0354 1DE0     		b	.L88
 1751              	.L105:
 1752 0356 C046     		.align	2
 1753              	.L104:
 1754 0358 5C000000 		.word	.LC28
 1755 035c 00000000 		.word	.LANCHOR0
 1756 0360 68000000 		.word	.LC31
 1757 0364 00000000 		.word	.LANCHOR1
 1758 0368 74000000 		.word	.LC34
 1759 036c 80000000 		.word	.LC36
 1760 0370 88000000 		.word	.LC38
 1761 0374 94000000 		.word	.LC40
 1762 0378 9C000000 		.word	.LC4
 1763 037c A0000000 		.word	.LC0
 1764 0380 A4000000 		.word	.LC44
 1765 0384 B0000000 		.word	.LC46
 1766 0388 C4000000 		.word	.LC48
 1767 038c D0000000 		.word	.LC50
 1768              	.LVL194:
 1769              	.L103:
 533:main.c        ****             }
 534:main.c        ****             else{
 535:main.c        ****                 currentIndex = 0;
 1770              		.loc 1 535 0
 1771 0390 0027     		movs	r7, #0
 1772              	.LVL195:
 1773              	.L88:
 536:main.c        ****             }
 537:main.c        ****             setCursor(5,2);
 1774              		.loc 1 537 0
 1775 0392 0221     		movs	r1, #2
 1776 0394 0520     		movs	r0, #5
 1777 0396 FFF7FEFF 		bl	setCursor
ARM GAS  C:\Users\HELLOK~1\AppData\Local\Temp\cc4szl9H.s 			page 42


 1778              	.LVL196:
 538:main.c        ****             if(currentIndex == 0){
 1779              		.loc 1 538 0
 1780 039a 002F     		cmp	r7, #0
 1781 039c 03D1     		bne	.L89
 539:main.c        ****                 LCD_print("AM");
 1782              		.loc 1 539 0
 1783 039e 2F48     		ldr	r0, .L106
 1784 03a0 FFF7FEFF 		bl	LCD_print
 1785              	.LVL197:
 1786 03a4 02E0     		b	.L87
 1787              	.L89:
 540:main.c        ****             }
 541:main.c        ****             else{
 542:main.c        ****                 LCD_print("PM");
 1788              		.loc 1 542 0
 1789 03a6 2E48     		ldr	r0, .L106+4
 1790 03a8 FFF7FEFF 		bl	LCD_print
 1791              	.LVL198:
 1792              	.L87:
 528:main.c        ****         if(encFlag == 1){
 1793              		.loc 1 528 0
 1794 03ac 2D4B     		ldr	r3, .L106+8
 1795 03ae 1B79     		ldrb	r3, [r3, #4]
 1796 03b0 002B     		cmp	r3, #0
 1797 03b2 C5D0     		beq	.L91
 543:main.c        ****             }
 544:main.c        ****         }
 545:main.c        ****     }
 546:main.c        ****     buttonFlag = 0;
 1798              		.loc 1 546 0
 1799 03b4 0022     		movs	r2, #0
 1800 03b6 2B4B     		ldr	r3, .L106+8
 1801 03b8 1A71     		strb	r2, [r3, #4]
 547:main.c        ****     if(currentIndex == 0){
 1802              		.loc 1 547 0
 1803 03ba 002F     		cmp	r7, #0
 1804 03bc 02D0     		beq	.L92
 548:main.c        ****         
 549:main.c        ****     }
 550:main.c        ****     else{
 551:main.c        ****         setTime.hour = setTime.hour + 12;
 1805              		.loc 1 551 0
 1806 03be 0C35     		adds	r5, r5, #12
 1807 03c0 08AB     		add	r3, sp, #32
 1808 03c2 1D70     		strb	r5, [r3]
 1809              	.L92:
 552:main.c        ****     }
 553:main.c        ****     
 554:main.c        ****     uint8 wrBuf[2];
 555:main.c        ****     wrBuf[1] = 0x00;
 1810              		.loc 1 555 0
 1811 03c4 07AD     		add	r5, sp, #28
 1812 03c6 0023     		movs	r3, #0
 1813 03c8 6B70     		strb	r3, [r5, #1]
 556:main.c        ****     writeToAddr(wrBuf,2,RTCAddr,rtc.VL_Sec);
 1814              		.loc 1 556 0
ARM GAS  C:\Users\HELLOK~1\AppData\Local\Temp\cc4szl9H.s 			page 43


 1815 03ca 274F     		ldr	r7, .L106+12
 1816              	.LVL199:
 1817 03cc BB79     		ldrb	r3, [r7, #6]
 1818 03ce 5122     		movs	r2, #81
 1819 03d0 0221     		movs	r1, #2
 1820 03d2 2800     		movs	r0, r5
 1821 03d4 FFF7FEFF 		bl	writeToAddr
 1822              	.LVL200:
 557:main.c        ****     wrBuf[1] = decToBcd(setTime.minute);
 1823              		.loc 1 557 0
 1824 03d8 3000     		movs	r0, r6
 1825 03da FFF7FEFF 		bl	decToBcd
 1826              	.LVL201:
 1827 03de 6870     		strb	r0, [r5, #1]
 558:main.c        ****     writeToAddr(wrBuf,2,RTCAddr,rtc.Minutes);
 1828              		.loc 1 558 0
 1829 03e0 FB79     		ldrb	r3, [r7, #7]
 1830 03e2 5122     		movs	r2, #81
 1831 03e4 0221     		movs	r1, #2
 1832 03e6 2800     		movs	r0, r5
 1833 03e8 FFF7FEFF 		bl	writeToAddr
 1834              	.LVL202:
 559:main.c        ****     wrBuf[1] = decToBcd(setTime.hour);
 1835              		.loc 1 559 0
 1836 03ec 08AB     		add	r3, sp, #32
 1837 03ee 1878     		ldrb	r0, [r3]
 1838 03f0 FFF7FEFF 		bl	decToBcd
 1839              	.LVL203:
 1840 03f4 6870     		strb	r0, [r5, #1]
 560:main.c        ****     writeToAddr(wrBuf,2,RTCAddr,rtc.Hours);
 1841              		.loc 1 560 0
 1842 03f6 3B7A     		ldrb	r3, [r7, #8]
 1843 03f8 5122     		movs	r2, #81
 1844 03fa 0221     		movs	r1, #2
 1845 03fc 2800     		movs	r0, r5
 1846 03fe FFF7FEFF 		bl	writeToAddr
 1847              	.LVL204:
 561:main.c        ****     wrBuf[1] = decToBcd(setDate.day);
 1848              		.loc 1 561 0
 1849 0402 0EAE     		add	r6, sp, #56
 1850 0404 3078     		ldrb	r0, [r6]
 1851 0406 FFF7FEFF 		bl	decToBcd
 1852              	.LVL205:
 1853 040a 6870     		strb	r0, [r5, #1]
 562:main.c        ****     writeToAddr(wrBuf,2,RTCAddr,rtc.Days);
 1854              		.loc 1 562 0
 1855 040c 7B7A     		ldrb	r3, [r7, #9]
 1856 040e 5122     		movs	r2, #81
 1857 0410 0221     		movs	r1, #2
 1858 0412 2800     		movs	r0, r5
 1859 0414 FFF7FEFF 		bl	writeToAddr
 1860              	.LVL206:
 563:main.c        ****     wrBuf[1] = 0x06;
 1861              		.loc 1 563 0
 1862 0418 0623     		movs	r3, #6
 1863 041a 6B70     		strb	r3, [r5, #1]
 564:main.c        ****     writeToAddr(wrBuf,2,RTCAddr,rtc.Weekdays);
ARM GAS  C:\Users\HELLOK~1\AppData\Local\Temp\cc4szl9H.s 			page 44


 1864              		.loc 1 564 0
 1865 041c BB7A     		ldrb	r3, [r7, #10]
 1866 041e 5122     		movs	r2, #81
 1867 0420 0221     		movs	r1, #2
 1868 0422 2800     		movs	r0, r5
 1869 0424 FFF7FEFF 		bl	writeToAddr
 1870              	.LVL207:
 565:main.c        ****     wrBuf[1] = decToBcd(numberMonth);
 1871              		.loc 1 565 0
 1872 0428 2000     		movs	r0, r4
 1873 042a FFF7FEFF 		bl	decToBcd
 1874              	.LVL208:
 1875 042e 6870     		strb	r0, [r5, #1]
 566:main.c        ****     writeToAddr(wrBuf,2,RTCAddr,rtc.Century_Months);
 1876              		.loc 1 566 0
 1877 0430 FB7A     		ldrb	r3, [r7, #11]
 1878 0432 5122     		movs	r2, #81
 1879 0434 0221     		movs	r1, #2
 1880 0436 2800     		movs	r0, r5
 1881 0438 FFF7FEFF 		bl	writeToAddr
 1882              	.LVL209:
 567:main.c        ****     wrBuf[1] = decToBcd(setDate.year);
 1883              		.loc 1 567 0
 1884 043c 307A     		ldrb	r0, [r6, #8]
 1885 043e FFF7FEFF 		bl	decToBcd
 1886              	.LVL210:
 1887 0442 6870     		strb	r0, [r5, #1]
 568:main.c        ****     writeToAddr(wrBuf,2,RTCAddr,rtc.Years);
 1888              		.loc 1 568 0
 1889 0444 3B7B     		ldrb	r3, [r7, #12]
 1890 0446 5122     		movs	r2, #81
 1891 0448 0221     		movs	r1, #2
 1892 044a 2800     		movs	r0, r5
 1893 044c FFF7FEFF 		bl	writeToAddr
 1894              	.LVL211:
 569:main.c        ****     exitLCD();
 1895              		.loc 1 569 0
 1896 0450 FFF7FEFF 		bl	exitLCD
 1897              	.LVL212:
 570:main.c        ****     
 571:main.c        **** }
 1898              		.loc 1 571 0
 1899 0454 1EB0     		add	sp, sp, #120
 1900              		@ sp needed
 1901              	.LVL213:
 1902 0456 04BC     		pop	{r2}
 1903 0458 9146     		mov	r9, r2
 1904 045a F0BD     		pop	{r4, r5, r6, r7, pc}
 1905              	.L107:
 1906              		.align	2
 1907              	.L106:
 1908 045c A0000000 		.word	.LC0
 1909 0460 9C000000 		.word	.LC4
 1910 0464 00000000 		.word	.LANCHOR1
 1911 0468 00000000 		.word	.LANCHOR0
 1912              		.cfi_endproc
 1913              	.LFE47:
ARM GAS  C:\Users\HELLOK~1\AppData\Local\Temp\cc4szl9H.s 			page 45


 1914              		.size	setGlobalTime, .-setGlobalTime
 1915              		.section	.text.setFeedTimes,"ax",%progbits
 1916              		.align	2
 1917              		.global	setFeedTimes
 1918              		.code	16
 1919              		.thumb_func
 1920              		.type	setFeedTimes, %function
 1921              	setFeedTimes:
 1922              	.LFB48:
 572:main.c        **** void setFeedTimes(){
 1923              		.loc 1 572 0
 1924              		.cfi_startproc
 1925              		@ args = 0, pretend = 0, frame = 0
 1926              		@ frame_needed = 0, uses_anonymous_args = 0
 1927              		@ link register save eliminated.
 573:main.c        ****     
 574:main.c        **** }
 1928              		.loc 1 574 0
 1929              		@ sp needed
 1930 0000 7047     		bx	lr
 1931              		.cfi_endproc
 1932              	.LFE48:
 1933              		.size	setFeedTimes, .-setFeedTimes
 1934 0002 C046     		.section	.text.setAmountOfFood,"ax",%progbits
 1935              		.align	2
 1936              		.global	setAmountOfFood
 1937              		.code	16
 1938              		.thumb_func
 1939              		.type	setAmountOfFood, %function
 1940              	setAmountOfFood:
 1941              	.LFB49:
 575:main.c        **** void setAmountOfFood(){
 1942              		.loc 1 575 0
 1943              		.cfi_startproc
 1944              		@ args = 0, pretend = 0, frame = 0
 1945              		@ frame_needed = 0, uses_anonymous_args = 0
 1946              		@ link register save eliminated.
 576:main.c        ****     
 577:main.c        **** }
 1947              		.loc 1 577 0
 1948              		@ sp needed
 1949 0000 7047     		bx	lr
 1950              		.cfi_endproc
 1951              	.LFE49:
 1952              		.size	setAmountOfFood, .-setAmountOfFood
 1953 0002 C046     		.section	.text.toggleLEDs,"ax",%progbits
 1954              		.align	2
 1955              		.global	toggleLEDs
 1956              		.code	16
 1957              		.thumb_func
 1958              		.type	toggleLEDs, %function
 1959              	toggleLEDs:
 1960              	.LFB50:
 578:main.c        **** void toggleLEDs(){
 1961              		.loc 1 578 0
 1962              		.cfi_startproc
 1963              		@ args = 0, pretend = 0, frame = 0
ARM GAS  C:\Users\HELLOK~1\AppData\Local\Temp\cc4szl9H.s 			page 46


 1964              		@ frame_needed = 0, uses_anonymous_args = 0
 1965              		@ link register save eliminated.
 579:main.c        ****     
 580:main.c        **** }
 1966              		.loc 1 580 0
 1967              		@ sp needed
 1968 0000 7047     		bx	lr
 1969              		.cfi_endproc
 1970              	.LFE50:
 1971              		.size	toggleLEDs, .-toggleLEDs
 1972 0002 C046     		.section	.text.toggleSpeakers,"ax",%progbits
 1973              		.align	2
 1974              		.global	toggleSpeakers
 1975              		.code	16
 1976              		.thumb_func
 1977              		.type	toggleSpeakers, %function
 1978              	toggleSpeakers:
 1979              	.LFB51:
 581:main.c        **** void toggleSpeakers(){
 1980              		.loc 1 581 0
 1981              		.cfi_startproc
 1982              		@ args = 0, pretend = 0, frame = 0
 1983              		@ frame_needed = 0, uses_anonymous_args = 0
 1984              		@ link register save eliminated.
 582:main.c        ****     
 583:main.c        **** }
 1985              		.loc 1 583 0
 1986              		@ sp needed
 1987 0000 7047     		bx	lr
 1988              		.cfi_endproc
 1989              	.LFE51:
 1990              		.size	toggleSpeakers, .-toggleSpeakers
 1991 0002 C046     		.section	.text.startSettings,"ax",%progbits
 1992              		.align	2
 1993              		.global	startSettings
 1994              		.code	16
 1995              		.thumb_func
 1996              		.type	startSettings, %function
 1997              	startSettings:
 1998              	.LFB52:
 584:main.c        **** 
 585:main.c        **** 
 586:main.c        **** void startSettings(){
 1999              		.loc 1 586 0
 2000              		.cfi_startproc
 2001              		@ args = 0, pretend = 0, frame = 0
 2002              		@ frame_needed = 0, uses_anonymous_args = 0
 2003 0000 10B5     		push	{r4, lr}
 2004              		.cfi_def_cfa_offset 8
 2005              		.cfi_offset 4, -8
 2006              		.cfi_offset 14, -4
 587:main.c        ****     clear();
 2007              		.loc 1 587 0
 2008 0002 FFF7FEFF 		bl	clear
 2009              	.LVL214:
 588:main.c        ****     uint8 choice = 0;
 589:main.c        ****     setCursor(0,0);
ARM GAS  C:\Users\HELLOK~1\AppData\Local\Temp\cc4szl9H.s 			page 47


 2010              		.loc 1 589 0
 2011 0006 0021     		movs	r1, #0
 2012 0008 0020     		movs	r0, #0
 2013 000a FFF7FEFF 		bl	setCursor
 2014              	.LVL215:
 590:main.c        ****     LCD_print("Button = Select");
 2015              		.loc 1 590 0
 2016 000e 2A48     		ldr	r0, .L122
 2017 0010 FFF7FEFF 		bl	LCD_print
 2018              	.LVL216:
 591:main.c        ****     setCursor(0,1);
 2019              		.loc 1 591 0
 2020 0014 0121     		movs	r1, #1
 2021 0016 0020     		movs	r0, #0
 2022 0018 FFF7FEFF 		bl	setCursor
 2023              	.LVL217:
 592:main.c        ****     LCD_print("Knob = Choice");
 2024              		.loc 1 592 0
 2025 001c 2748     		ldr	r0, .L122+4
 2026 001e FFF7FEFF 		bl	LCD_print
 2027              	.LVL218:
 593:main.c        ****     setCursor(0,2);
 2028              		.loc 1 593 0
 2029 0022 0221     		movs	r1, #2
 2030 0024 0020     		movs	r0, #0
 2031 0026 FFF7FEFF 		bl	setCursor
 2032              	.LVL219:
 594:main.c        ****     LCD_print("--------------------");
 2033              		.loc 1 594 0
 2034 002a 2548     		ldr	r0, .L122+8
 2035 002c FFF7FEFF 		bl	LCD_print
 2036              	.LVL220:
 595:main.c        ****     // Clock Time
 596:main.c        ****     setCursor(0,3);
 2037              		.loc 1 596 0
 2038 0030 0321     		movs	r1, #3
 2039 0032 0020     		movs	r0, #0
 2040 0034 FFF7FEFF 		bl	setCursor
 2041              	.LVL221:
 597:main.c        ****     LCD_print("Set Global Time");
 2042              		.loc 1 597 0
 2043 0038 2248     		ldr	r0, .L122+12
 2044 003a FFF7FEFF 		bl	LCD_print
 2045              	.LVL222:
 598:main.c        ****     CyDelay(1000);
 2046              		.loc 1 598 0
 2047 003e FA20     		movs	r0, #250
 2048 0040 8000     		lsls	r0, r0, #2
 2049 0042 FFF7FEFF 		bl	CyDelay
 2050              	.LVL223:
 588:main.c        ****     setCursor(0,0);
 2051              		.loc 1 588 0
 2052 0046 0024     		movs	r4, #0
 599:main.c        ****     while(buttonFlag == 0){
 2053              		.loc 1 599 0
 2054 0048 24E0     		b	.L113
 2055              	.LVL224:
ARM GAS  C:\Users\HELLOK~1\AppData\Local\Temp\cc4szl9H.s 			page 48


 2056              	.L116:
 600:main.c        ****         if(encFlag == 1){
 2057              		.loc 1 600 0
 2058 004a 1F4B     		ldr	r3, .L122+16
 2059 004c 9B78     		ldrb	r3, [r3, #2]
 2060 004e 012B     		cmp	r3, #1
 2061 0050 16D1     		bne	.L114
 601:main.c        ****             encFlag = 0;
 2062              		.loc 1 601 0
 2063 0052 1D4B     		ldr	r3, .L122+16
 2064 0054 0022     		movs	r2, #0
 2065 0056 9A70     		strb	r2, [r3, #2]
 602:main.c        ****             if(encPos == 1){
 2066              		.loc 1 602 0
 2067 0058 DB78     		ldrb	r3, [r3, #3]
 2068 005a 012B     		cmp	r3, #1
 2069 005c 04D1     		bne	.L115
 603:main.c        ****                 if(choice == 5){
 2070              		.loc 1 603 0
 2071 005e 052C     		cmp	r4, #5
 2072 0060 0BD0     		beq	.L120
 604:main.c        ****                     choice = 0;
 605:main.c        ****                 }
 606:main.c        ****                 else{
 607:main.c        ****                     choice++;
 2073              		.loc 1 607 0
 2074 0062 0134     		adds	r4, r4, #1
 2075              	.LVL225:
 2076 0064 E4B2     		uxtb	r4, r4
 2077              	.LVL226:
 2078 0066 0BE0     		b	.L114
 2079              	.L115:
 608:main.c        ****                 }
 609:main.c        ****             }
 610:main.c        ****             else if(encPos == 2){
 2080              		.loc 1 610 0
 2081 0068 174B     		ldr	r3, .L122+16
 2082 006a DB78     		ldrb	r3, [r3, #3]
 2083 006c 022B     		cmp	r3, #2
 2084 006e 07D1     		bne	.L114
 611:main.c        ****                 if(choice == 0){
 2085              		.loc 1 611 0
 2086 0070 002C     		cmp	r4, #0
 2087 0072 04D0     		beq	.L121
 612:main.c        ****                     choice = 5;
 613:main.c        ****                 }
 614:main.c        ****                 else{
 615:main.c        ****                     choice--;
 2088              		.loc 1 615 0
 2089 0074 013C     		subs	r4, r4, #1
 2090              	.LVL227:
 2091 0076 E4B2     		uxtb	r4, r4
 2092              	.LVL228:
 2093 0078 02E0     		b	.L114
 2094              	.L120:
 604:main.c        ****                 }
 2095              		.loc 1 604 0
ARM GAS  C:\Users\HELLOK~1\AppData\Local\Temp\cc4szl9H.s 			page 49


 2096 007a 0024     		movs	r4, #0
 2097              	.LVL229:
 2098 007c 00E0     		b	.L114
 2099              	.LVL230:
 2100              	.L121:
 612:main.c        ****                     choice = 5;
 2101              		.loc 1 612 0
 2102 007e 0524     		movs	r4, #5
 2103              	.LVL231:
 2104              	.L114:
 616:main.c        ****                 }
 617:main.c        ****             }
 618:main.c        ****         }
 619:main.c        ****         setCursor(0,3);
 2105              		.loc 1 619 0
 2106 0080 0321     		movs	r1, #3
 2107 0082 0020     		movs	r0, #0
 2108 0084 FFF7FEFF 		bl	setCursor
 2109              	.LVL232:
 620:main.c        ****         LCD_print(commands[choice]);
 2110              		.loc 1 620 0
 2111 0088 A300     		lsls	r3, r4, #2
 2112 008a 104A     		ldr	r2, .L122+20
 2113 008c D318     		adds	r3, r2, r3
 2114 008e 186A     		ldr	r0, [r3, #32]
 2115 0090 FFF7FEFF 		bl	LCD_print
 2116              	.LVL233:
 2117              	.L113:
 599:main.c        ****         if(encFlag == 1){
 2118              		.loc 1 599 0
 2119 0094 0C4B     		ldr	r3, .L122+16
 2120 0096 1B79     		ldrb	r3, [r3, #4]
 2121 0098 002B     		cmp	r3, #0
 2122 009a D6D0     		beq	.L116
 621:main.c        ****     }
 622:main.c        ****     buttonFlag = 0;
 2123              		.loc 1 622 0
 2124 009c 0022     		movs	r2, #0
 2125 009e 0A4B     		ldr	r3, .L122+16
 2126 00a0 1A71     		strb	r2, [r3, #4]
 623:main.c        ****     switch(choice){
 2127              		.loc 1 623 0
 2128 00a2 002C     		cmp	r4, #0
 2129 00a4 02D0     		beq	.L118
 2130 00a6 052C     		cmp	r4, #5
 2131 00a8 03D0     		beq	.L119
 2132 00aa 04E0     		b	.L112
 2133              	.L118:
 624:main.c        ****         case 0:
 625:main.c        ****             setGlobalTime();
 2134              		.loc 1 625 0
 2135 00ac FFF7FEFF 		bl	setGlobalTime
 2136              	.LVL234:
 626:main.c        ****             break;
 2137              		.loc 1 626 0
 2138 00b0 01E0     		b	.L112
 2139              	.L119:
ARM GAS  C:\Users\HELLOK~1\AppData\Local\Temp\cc4szl9H.s 			page 50


 627:main.c        ****         case 1:
 628:main.c        ****             setFeedTimes();
 629:main.c        ****             break;
 630:main.c        ****         case 2:
 631:main.c        ****             setAmountOfFood();
 632:main.c        ****             break;
 633:main.c        ****         case 3:
 634:main.c        ****             toggleLEDs();
 635:main.c        ****             break;
 636:main.c        ****         case 4:
 637:main.c        ****             toggleSpeakers();
 638:main.c        ****             break;
 639:main.c        ****         case 5:
 640:main.c        ****             // Done
 641:main.c        ****             exitLCD();
 2140              		.loc 1 641 0
 2141 00b2 FFF7FEFF 		bl	exitLCD
 2142              	.LVL235:
 2143              	.L112:
 642:main.c        ****             break;
 643:main.c        ****         default:
 644:main.c        ****             choice = 0;
 645:main.c        ****             break;
 646:main.c        ****     }
 647:main.c        ****     // Feed times
 648:main.c        ****     // Amount of food
 649:main.c        ****     // LED's
 650:main.c        ****     // Speakers
 651:main.c        ****     // Exit
 652:main.c        **** }
 2144              		.loc 1 652 0
 2145              		@ sp needed
 2146              	.LVL236:
 2147 00b6 10BD     		pop	{r4, pc}
 2148              	.L123:
 2149              		.align	2
 2150              	.L122:
 2151 00b8 E0000000 		.word	.LC52
 2152 00bc F0000000 		.word	.LC54
 2153 00c0 18000000 		.word	.LC13
 2154 00c4 00010000 		.word	.LC57
 2155 00c8 00000000 		.word	.LANCHOR1
 2156 00cc 80000000 		.word	.LANCHOR2
 2157              		.cfi_endproc
 2158              	.LFE52:
 2159              		.size	startSettings, .-startSettings
 2160              		.section	.text.main,"ax",%progbits
 2161              		.align	2
 2162              		.global	main
 2163              		.code	16
 2164              		.thumb_func
 2165              		.type	main, %function
 2166              	main:
 2167              	.LFB53:
 653:main.c        **** 
 654:main.c        **** 
 655:main.c        **** 
ARM GAS  C:\Users\HELLOK~1\AppData\Local\Temp\cc4szl9H.s 			page 51


 656:main.c        **** int main(void)
 657:main.c        **** {
 2168              		.loc 1 657 0
 2169              		.cfi_startproc
 2170              		@ args = 0, pretend = 0, frame = 136
 2171              		@ frame_needed = 0, uses_anonymous_args = 0
 2172 0000 F0B5     		push	{r4, r5, r6, r7, lr}
 2173              		.cfi_def_cfa_offset 20
 2174              		.cfi_offset 4, -20
 2175              		.cfi_offset 5, -16
 2176              		.cfi_offset 6, -12
 2177              		.cfi_offset 7, -8
 2178              		.cfi_offset 14, -4
 2179 0002 A9B0     		sub	sp, sp, #164
 2180              		.cfi_def_cfa_offset 184
 658:main.c        ****     BTN_ISR_Start();
 2181              		.loc 1 658 0
 2182 0004 FFF7FEFF 		bl	BTN_ISR_Start
 2183              	.LVL237:
 659:main.c        ****     ENC_ISR_Start();
 2184              		.loc 1 659 0
 2185 0008 FFF7FEFF 		bl	ENC_ISR_Start
 2186              	.LVL238:
 660:main.c        ****     CyGlobalIntEnable; /* Enable global interrupts. */
 2187              		.loc 1 660 0
 2188              		.syntax divided
 2189              	@ 660 "main.c" 1
 2190 000c 62B6     		CPSIE   i
 2191              	@ 0 "" 2
 661:main.c        ****     I2C_Start();
 2192              		.loc 1 661 0
 2193              		.thumb
 2194              		.syntax unified
 2195 000e FFF7FEFF 		bl	I2C_Start
 2196              	.LVL239:
 662:main.c        ****     LiquidCrystal_I2C_init(LCDAddr, 20,4,0);
 2197              		.loc 1 662 0
 2198 0012 0023     		movs	r3, #0
 2199 0014 0422     		movs	r2, #4
 2200 0016 1421     		movs	r1, #20
 2201 0018 2720     		movs	r0, #39
 2202 001a FFF7FEFF 		bl	LiquidCrystal_I2C_init
 2203              	.LVL240:
 663:main.c        ****     LCDBegin();
 2204              		.loc 1 663 0
 2205 001e FFF7FEFF 		bl	LCDBegin
 2206              	.LVL241:
 664:main.c        ****     FEEEEED();
 2207              		.loc 1 664 0
 2208 0022 FFF7FEFF 		bl	FEEEEED
 2209              	.LVL242:
 665:main.c        ****     struct Time time = {12,45, "AM"};
 2210              		.loc 1 665 0
 2211 0026 22AB     		add	r3, sp, #136
 2212 0028 7849     		ldr	r1, .L132
 2213 002a 0A00     		movs	r2, r1
 2214 002c 11CA     		ldmia	r2!, {r0, r4}
ARM GAS  C:\Users\HELLOK~1\AppData\Local\Temp\cc4szl9H.s 			page 52


 2215 002e 11C3     		stmia	r3!, {r0, r4}
 666:main.c        ****     struct Date date = {31, "Mar",23};
 2216              		.loc 1 666 0
 2217 0030 1FAB     		add	r3, sp, #124
 2218 0032 9C46     		mov	ip, r3
 2219 0034 1800     		movs	r0, r3
 2220 0036 70CA     		ldmia	r2!, {r4, r5, r6}
 2221 0038 70C0     		stmia	r0!, {r4, r5, r6}
 667:main.c        ****     struct Time nextTime = {6,00, "PM"};
 2222              		.loc 1 667 0
 2223 003a 1DAC     		add	r4, sp, #116
 2224 003c 0A00     		movs	r2, r1
 2225 003e 1432     		adds	r2, r2, #20
 2226 0040 2000     		movs	r0, r4
 2227 0042 60CA     		ldmia	r2!, {r5, r6}
 2228 0044 60C0     		stmia	r0!, {r5, r6}
 668:main.c        ****     struct Date nextDate = {1, "Apr", 23};
 2229              		.loc 1 668 0
 2230 0046 1AAA     		add	r2, sp, #104
 2231 0048 0800     		movs	r0, r1
 2232 004a 1C30     		adds	r0, r0, #28
 2233 004c 1500     		movs	r5, r2
 2234 004e C8C8     		ldmia	r0!, {r3, r6, r7}
 2235 0050 C8C5     		stmia	r5!, {r3, r6, r7}
 669:main.c        ****     LCDInit(time, nextTime, date, nextDate);
 2236              		.loc 1 669 0
 2237 0052 03A8     		add	r0, sp, #12
 2238 0054 68CA     		ldmia	r2!, {r3, r5, r6}
 2239 0056 68C0     		stmia	r0!, {r3, r5, r6}
 2240 0058 6A46     		mov	r2, sp
 2241 005a 6346     		mov	r3, ip
 2242 005c 61CB     		ldmia	r3!, {r0, r5, r6}
 2243 005e 61C2     		stmia	r2!, {r0, r5, r6}
 2244 0060 1D9A     		ldr	r2, [sp, #116]
 2245 0062 1E9B     		ldr	r3, [sp, #120]
 2246 0064 2298     		ldr	r0, [sp, #136]
 2247 0066 4968     		ldr	r1, [r1, #4]
 2248 0068 FFF7FEFF 		bl	LCDInit
 2249              	.LVL243:
 670:main.c        ****     uint8 wrBuf[2];
 671:main.c        ****     wrBuf[1] = 0b0000000;
 2250              		.loc 1 671 0
 2251 006c 19AC     		add	r4, sp, #100
 2252 006e 0026     		movs	r6, #0
 2253 0070 6670     		strb	r6, [r4, #1]
 672:main.c        ****     writeToAddr(wrBuf,2,RTCAddr,rtc.CtrlStat1);
 2254              		.loc 1 672 0
 2255 0072 674D     		ldr	r5, .L132+4
 2256 0074 2B79     		ldrb	r3, [r5, #4]
 2257 0076 5122     		movs	r2, #81
 2258 0078 0221     		movs	r1, #2
 2259 007a 2000     		movs	r0, r4
 2260 007c FFF7FEFF 		bl	writeToAddr
 2261              	.LVL244:
 673:main.c        ****     wrBuf[1] = 0b0000000;
 2262              		.loc 1 673 0
 2263 0080 6670     		strb	r6, [r4, #1]
ARM GAS  C:\Users\HELLOK~1\AppData\Local\Temp\cc4szl9H.s 			page 53


 674:main.c        ****     writeToAddr(wrBuf,2,RTCAddr,rtc.CtrlStat2);
 2264              		.loc 1 674 0
 2265 0082 6B79     		ldrb	r3, [r5, #5]
 2266 0084 5122     		movs	r2, #81
 2267 0086 0221     		movs	r1, #2
 2268 0088 2000     		movs	r0, r4
 2269 008a FFF7FEFF 		bl	writeToAddr
 2270              	.LVL245:
 2271              	.L131:
 2272              	.LBB13:
 675:main.c        ****     //RTCInit();
 676:main.c        **** 
 677:main.c        ****     /* Place your initialization/startup code here (e.g. MyInst_Start()) */
 678:main.c        **** 
 679:main.c        ****     for(;;)
 680:main.c        ****     {
 681:main.c        ****         struct Time updateTime;
 682:main.c        ****         
 683:main.c        ****         uint8 sec[1];
 684:main.c        ****         readFromAddr(sec,1,RTCAddr,rtc.VL_Sec);
 2273              		.loc 1 684 0
 2274 008e 604C     		ldr	r4, .L132+4
 2275 0090 A379     		ldrb	r3, [r4, #6]
 2276 0092 5122     		movs	r2, #81
 2277 0094 0121     		movs	r1, #1
 2278 0096 09A8     		add	r0, sp, #36
 2279 0098 FFF7FEFF 		bl	readFromAddr
 2280              	.LVL246:
 685:main.c        ****         uint8 min[1];
 686:main.c        ****         readFromAddr(min,1,RTCAddr,rtc.Minutes);
 2281              		.loc 1 686 0
 2282 009c E379     		ldrb	r3, [r4, #7]
 2283 009e 5122     		movs	r2, #81
 2284 00a0 0121     		movs	r1, #1
 2285 00a2 0AA8     		add	r0, sp, #40
 2286 00a4 FFF7FEFF 		bl	readFromAddr
 2287              	.LVL247:
 687:main.c        ****         uint8 hour[1];
 688:main.c        ****         readFromAddr(hour,1,RTCAddr,rtc.Hours);
 2288              		.loc 1 688 0
 2289 00a8 237A     		ldrb	r3, [r4, #8]
 2290 00aa 0BAD     		add	r5, sp, #44
 2291 00ac 5122     		movs	r2, #81
 2292 00ae 0121     		movs	r1, #1
 2293 00b0 2800     		movs	r0, r5
 2294 00b2 FFF7FEFF 		bl	readFromAddr
 2295              	.LVL248:
 689:main.c        ****         uint8 day[1];
 690:main.c        ****         readFromAddr(day,1,RTCAddr,rtc.Days);
 2296              		.loc 1 690 0
 2297 00b6 637A     		ldrb	r3, [r4, #9]
 2298 00b8 5122     		movs	r2, #81
 2299 00ba 0121     		movs	r1, #1
 2300 00bc 0CA8     		add	r0, sp, #48
 2301 00be FFF7FEFF 		bl	readFromAddr
 2302              	.LVL249:
 691:main.c        ****         uint8 month[1];
ARM GAS  C:\Users\HELLOK~1\AppData\Local\Temp\cc4szl9H.s 			page 54


 692:main.c        ****         readFromAddr(month,1,RTCAddr,rtc.Century_Months);
 2303              		.loc 1 692 0
 2304 00c2 E37A     		ldrb	r3, [r4, #11]
 2305 00c4 5122     		movs	r2, #81
 2306 00c6 0121     		movs	r1, #1
 2307 00c8 0DA8     		add	r0, sp, #52
 2308 00ca FFF7FEFF 		bl	readFromAddr
 2309              	.LVL250:
 693:main.c        ****         uint8 year[1];
 694:main.c        ****         readFromAddr(year,1,RTCAddr,rtc.Years);
 2310              		.loc 1 694 0
 2311 00ce 237B     		ldrb	r3, [r4, #12]
 2312 00d0 5122     		movs	r2, #81
 2313 00d2 0121     		movs	r1, #1
 2314 00d4 0EA8     		add	r0, sp, #56
 2315 00d6 FFF7FEFF 		bl	readFromAddr
 2316              	.LVL251:
 695:main.c        ****         if(hour[0] > 0x12){
 2317              		.loc 1 695 0
 2318 00da 2878     		ldrb	r0, [r5]
 2319 00dc 1228     		cmp	r0, #18
 2320 00de 16D9     		bls	.L125
 2321              	.LBB14:
 696:main.c        ****             volatile struct Time currTime = {bcdToDec(hour[0])-12,bcdToDec(min[0]),"PM"};
 2322              		.loc 1 696 0
 2323 00e0 FFF7FEFF 		bl	bcdToDec
 2324              	.LVL252:
 2325 00e4 24AC     		add	r4, sp, #144
 2326 00e6 0C38     		subs	r0, r0, #12
 2327 00e8 2070     		strb	r0, [r4]
 2328 00ea 0AAB     		add	r3, sp, #40
 2329 00ec 1878     		ldrb	r0, [r3]
 2330 00ee FFF7FEFF 		bl	bcdToDec
 2331              	.LVL253:
 2332 00f2 6070     		strb	r0, [r4, #1]
 2333 00f4 474B     		ldr	r3, .L132+8
 2334 00f6 6360     		str	r3, [r4, #4]
 2335 00f8 0822     		movs	r2, #8
 2336 00fa 2100     		movs	r1, r4
 2337 00fc 12A8     		add	r0, sp, #72
 2338 00fe FFF7FEFF 		bl	memcpy
 2339              	.LVL254:
 697:main.c        ****             updateTime = currTime;
 2340              		.loc 1 697 0
 2341 0102 0822     		movs	r2, #8
 2342 0104 12A9     		add	r1, sp, #72
 2343 0106 10A8     		add	r0, sp, #64
 2344 0108 FFF7FEFF 		bl	memcpy
 2345              	.LVL255:
 2346              	.LBE14:
 2347 010c 14E0     		b	.L126
 2348              	.L125:
 2349              	.LBB15:
 698:main.c        ****         }
 699:main.c        ****         else{
 700:main.c        ****             volatile struct Time currTime = {bcdToDec(hour[0]),bcdToDec(min[0]),"AM"};
 2350              		.loc 1 700 0
ARM GAS  C:\Users\HELLOK~1\AppData\Local\Temp\cc4szl9H.s 			page 55


 2351 010e FFF7FEFF 		bl	bcdToDec
 2352              	.LVL256:
 2353 0112 26AC     		add	r4, sp, #152
 2354 0114 2070     		strb	r0, [r4]
 2355 0116 0AAB     		add	r3, sp, #40
 2356 0118 1878     		ldrb	r0, [r3]
 2357 011a FFF7FEFF 		bl	bcdToDec
 2358              	.LVL257:
 2359 011e 6070     		strb	r0, [r4, #1]
 2360 0120 3D4B     		ldr	r3, .L132+12
 2361 0122 6360     		str	r3, [r4, #4]
 2362 0124 0822     		movs	r2, #8
 2363 0126 2100     		movs	r1, r4
 2364 0128 14A8     		add	r0, sp, #80
 2365 012a FFF7FEFF 		bl	memcpy
 2366              	.LVL258:
 701:main.c        ****             updateTime = currTime;
 2367              		.loc 1 701 0
 2368 012e 0822     		movs	r2, #8
 2369 0130 14A9     		add	r1, sp, #80
 2370 0132 10A8     		add	r0, sp, #64
 2371 0134 FFF7FEFF 		bl	memcpy
 2372              	.LVL259:
 2373              	.L126:
 2374              	.LBE15:
 702:main.c        ****         }
 703:main.c        ****         
 704:main.c        ****         struct Date updateDate = {bcdToDec(day[0]),months[bcdToDec(month[0])-1],bcdToDec(year[0])};
 2375              		.loc 1 704 0
 2376 0138 0CAB     		add	r3, sp, #48
 2377 013a 1878     		ldrb	r0, [r3]
 2378 013c FFF7FEFF 		bl	bcdToDec
 2379              	.LVL260:
 2380 0140 16AC     		add	r4, sp, #88
 2381 0142 2070     		strb	r0, [r4]
 2382 0144 0DAB     		add	r3, sp, #52
 2383 0146 1878     		ldrb	r0, [r3]
 2384 0148 FFF7FEFF 		bl	bcdToDec
 2385              	.LVL261:
 2386 014c 0138     		subs	r0, r0, #1
 2387 014e 304D     		ldr	r5, .L132+4
 2388 0150 8000     		lsls	r0, r0, #2
 2389 0152 2818     		adds	r0, r5, r0
 2390 0154 476E     		ldr	r7, [r0, #100]
 2391 0156 6760     		str	r7, [r4, #4]
 2392 0158 0EAB     		add	r3, sp, #56
 2393 015a 1878     		ldrb	r0, [r3]
 2394 015c FFF7FEFF 		bl	bcdToDec
 2395              	.LVL262:
 2396 0160 2072     		strb	r0, [r4, #8]
 705:main.c        ****         updateCurrTime(updateTime, updateDate);
 2397              		.loc 1 705 0
 2398 0162 10AE     		add	r6, sp, #64
 2399 0164 A368     		ldr	r3, [r4, #8]
 2400 0166 0093     		str	r3, [sp]
 2401 0168 169A     		ldr	r2, [sp, #88]
 2402 016a 3B00     		movs	r3, r7
ARM GAS  C:\Users\HELLOK~1\AppData\Local\Temp\cc4szl9H.s 			page 56


 2403 016c 1098     		ldr	r0, [sp, #64]
 2404 016e 1199     		ldr	r1, [sp, #68]
 2405 0170 FFF7FEFF 		bl	updateCurrTime
 2406              	.LVL263:
 706:main.c        ****         if(updateTime.hour == feedTimes[feedCounter].hour && updateTime.minute == feedTimes[feedCou
 2407              		.loc 1 706 0
 2408 0174 3278     		ldrb	r2, [r6]
 2409 0176 294B     		ldr	r3, .L132+16
 2410 0178 1C78     		ldrb	r4, [r3]
 2411 017a E300     		lsls	r3, r4, #3
 2412 017c EB18     		adds	r3, r5, r3
 2413 017e 1B7D     		ldrb	r3, [r3, #20]
 2414 0180 9A42     		cmp	r2, r3
 2415 0182 2FD1     		bne	.L127
 2416              		.loc 1 706 0 is_stmt 0 discriminator 1
 2417 0184 10AB     		add	r3, sp, #64
 2418 0186 5A78     		ldrb	r2, [r3, #1]
 2419 0188 E300     		lsls	r3, r4, #3
 2420 018a 2149     		ldr	r1, .L132+4
 2421 018c CB18     		adds	r3, r1, r3
 2422 018e 5B7D     		ldrb	r3, [r3, #21]
 2423 0190 9A42     		cmp	r2, r3
 2424 0192 27D1     		bne	.L127
 2425              		.loc 1 706 0 discriminator 2
 2426 0194 E300     		lsls	r3, r4, #3
 2427 0196 CB18     		adds	r3, r1, r3
 2428 0198 9B69     		ldr	r3, [r3, #24]
 2429 019a 119A     		ldr	r2, [sp, #68]
 2430 019c 9A42     		cmp	r2, r3
 2431 019e 21D1     		bne	.L127
 707:main.c        ****             if(feedCounter == 2 || strncmp(feedTimes[feedCounter+1].AM,"AM",2) != 0 || strncmp(feed
 2432              		.loc 1 707 0 is_stmt 1
 2433 01a0 022C     		cmp	r4, #2
 2434 01a2 0AD0     		beq	.L128
 2435              		.loc 1 707 0 is_stmt 0 discriminator 1
 2436 01a4 631C     		adds	r3, r4, #1
 2437 01a6 DB00     		lsls	r3, r3, #3
 2438 01a8 CB18     		adds	r3, r1, r3
 2439 01aa 9869     		ldr	r0, [r3, #24]
 2440 01ac 0222     		movs	r2, #2
 2441 01ae 1A49     		ldr	r1, .L132+12
 2442 01b0 FFF7FEFF 		bl	strncmp
 2443              	.LVL264:
 2444 01b4 0028     		cmp	r0, #0
 2445 01b6 00D1     		bne	.L128
 2446              		.loc 1 707 0 discriminator 2
 2447 01b8 19D0     		beq	.L129
 2448              	.L128:
 2449              	.LBB16:
 708:main.c        ****                 feedCounter++;
 2450              		.loc 1 708 0 is_stmt 1
 2451 01ba 0134     		adds	r4, r4, #1
 2452 01bc E1B2     		uxtb	r1, r4
 2453 01be 174B     		ldr	r3, .L132+16
 2454 01c0 1970     		strb	r1, [r3]
 709:main.c        ****                 updateNextFeed(feedTimes[feedCounter],updateDate);
 2455              		.loc 1 709 0
ARM GAS  C:\Users\HELLOK~1\AppData\Local\Temp\cc4szl9H.s 			page 57


 2456 01c2 C900     		lsls	r1, r1, #3
 2457 01c4 124B     		ldr	r3, .L132+4
 2458 01c6 5918     		adds	r1, r3, r1
 2459 01c8 189B     		ldr	r3, [sp, #96]
 2460 01ca 0793     		str	r3, [sp, #28]
 2461 01cc 0093     		str	r3, [sp]
 2462 01ce 169A     		ldr	r2, [sp, #88]
 2463 01d0 179B     		ldr	r3, [sp, #92]
 2464 01d2 4869     		ldr	r0, [r1, #20]
 2465 01d4 8969     		ldr	r1, [r1, #24]
 2466 01d6 FFF7FEFF 		bl	updateNextFeed
 2467              	.LVL265:
 710:main.c        ****                 FEEEEED();
 2468              		.loc 1 710 0
 2469 01da FFF7FEFF 		bl	FEEEEED
 2470              	.LVL266:
 711:main.c        ****                 volatile int a = 0;
 2471              		.loc 1 711 0
 2472 01de 0023     		movs	r3, #0
 2473 01e0 0F93     		str	r3, [sp, #60]
 2474 01e2 04E0     		b	.L129
 2475              	.L127:
 2476              	.LBE16:
 712:main.c        ****             }
 713:main.c        ****         }
 714:main.c        ****         else if(feedCounter == 2){
 2477              		.loc 1 714 0
 2478 01e4 022C     		cmp	r4, #2
 2479 01e6 02D1     		bne	.L129
 715:main.c        ****             feedCounter = 0;
 2480              		.loc 1 715 0
 2481 01e8 0022     		movs	r2, #0
 2482 01ea 0C4B     		ldr	r3, .L132+16
 2483 01ec 1A70     		strb	r2, [r3]
 2484              	.L129:
 716:main.c        ****         }
 717:main.c        ****         if(buttonFlag == 1){
 2485              		.loc 1 717 0
 2486 01ee 0B4B     		ldr	r3, .L132+16
 2487 01f0 1B79     		ldrb	r3, [r3, #4]
 2488 01f2 012B     		cmp	r3, #1
 2489 01f4 04D1     		bne	.L130
 718:main.c        ****             buttonFlag = 0;
 2490              		.loc 1 718 0
 2491 01f6 0022     		movs	r2, #0
 2492 01f8 084B     		ldr	r3, .L132+16
 2493 01fa 1A71     		strb	r2, [r3, #4]
 719:main.c        ****             startSettings();
 2494              		.loc 1 719 0
 2495 01fc FFF7FEFF 		bl	startSettings
 2496              	.LVL267:
 2497              	.L130:
 720:main.c        ****         }
 721:main.c        ****         CyDelay(1000);
 2498              		.loc 1 721 0
 2499 0200 FA20     		movs	r0, #250
 2500 0202 8000     		lsls	r0, r0, #2
ARM GAS  C:\Users\HELLOK~1\AppData\Local\Temp\cc4szl9H.s 			page 58


 2501 0204 FFF7FEFF 		bl	CyDelay
 2502              	.LVL268:
 2503              	.LBE13:
 722:main.c        ****         
 723:main.c        ****         //CySysPmDeepSleep();
 724:main.c        ****         /* Place your application code here. */
 725:main.c        ****     }
 2504              		.loc 1 725 0
 2505 0208 41E7     		b	.L131
 2506              	.L133:
 2507 020a C046     		.align	2
 2508              	.L132:
 2509 020c 00000000 		.word	.LANCHOR3
 2510 0210 00000000 		.word	.LANCHOR0
 2511 0214 9C000000 		.word	.LC4
 2512 0218 A0000000 		.word	.LC0
 2513 021c 00000000 		.word	.LANCHOR1
 2514              		.cfi_endproc
 2515              	.LFE53:
 2516              		.size	main, .-main
 2517              		.global	encPos
 2518              		.global	encFlag
 2519              		.global	buttonFlag
 2520              		.global	LEDToggle
 2521              		.global	speakerToggle
 2522              		.global	feedCounter
 2523              		.global	RTCAddr
 2524              		.global	LCDAddr
 2525              		.global	commands
 2526              		.global	feedTimes
 2527              		.global	months
 2528              		.global	rtc
 2529              		.global	feedSteps
 2530              		.global	motorDelay
 2531              		.global	motor
 2532              		.section	.rodata
 2533              		.align	2
 2534              		.set	.LANCHOR3,. + 0
 2535              	.LC61:
 2536 0000 0C       		.byte	12
 2537 0001 2D       		.byte	45
 2538 0002 0000     		.space	2
 2539 0004 A0000000 		.word	.LC0
 2540              	.LC63:
 2541 0008 1F       		.byte	31
 2542 0009 000000   		.space	3
 2543 000c 14010000 		.word	.LC2
 2544 0010 17       		.byte	23
 2545 0011 000000   		.space	3
 2546              	.LC64:
 2547 0014 06       		.byte	6
 2548 0015 00       		.byte	0
 2549 0016 0000     		.space	2
 2550 0018 9C000000 		.word	.LC4
 2551              	.LC65:
 2552 001c 01       		.byte	1
 2553 001d 000000   		.space	3
ARM GAS  C:\Users\HELLOK~1\AppData\Local\Temp\cc4szl9H.s 			page 59


 2554 0020 10010000 		.word	.LC6
 2555 0024 17       		.byte	23
 2556 0025 000000   		.space	3
 2557              		.type	RTCAddr, %object
 2558              		.size	RTCAddr, 4
 2559              	RTCAddr:
 2560 0028 51000000 		.word	81
 2561              		.type	LCDAddr, %object
 2562              		.size	LCDAddr, 4
 2563              	LCDAddr:
 2564 002c 27000000 		.word	39
 2565              		.data
 2566              		.align	2
 2567              		.set	.LANCHOR0,. + 0
 2568              		.set	.LANCHOR2,. + 128
 2569              		.type	motorDelay, %object
 2570              		.size	motorDelay, 4
 2571              	motorDelay:
 2572 0000 581B0000 		.word	7000
 2573              		.type	rtc, %object
 2574              		.size	rtc, 16
 2575              	rtc:
 2576 0004 00       		.byte	0
 2577 0005 01       		.byte	1
 2578 0006 02       		.byte	2
 2579 0007 03       		.byte	3
 2580 0008 04       		.byte	4
 2581 0009 05       		.byte	5
 2582 000a 06       		.byte	6
 2583 000b 07       		.byte	7
 2584 000c 08       		.byte	8
 2585 000d 09       		.byte	9
 2586 000e 0A       		.byte	10
 2587 000f 0B       		.byte	11
 2588 0010 0C       		.byte	12
 2589 0011 0D       		.byte	13
 2590 0012 0E       		.byte	14
 2591 0013 0F       		.byte	15
 2592              		.type	feedTimes, %object
 2593              		.size	feedTimes, 80
 2594              	feedTimes:
 2595 0014 04       		.byte	4
 2596 0015 19       		.byte	25
 2597 0016 0000     		.space	2
 2598 0018 9C000000 		.word	.LC4
 2599 001c 04       		.byte	4
 2600 001d 1A       		.byte	26
 2601 001e 0000     		.space	2
 2602 0020 9C000000 		.word	.LC4
 2603 0024 05       		.byte	5
 2604 0025 05       		.byte	5
 2605 0026 0000     		.space	2
 2606 0028 9C000000 		.word	.LC4
 2607 002c 00000000 		.space	56
 2607      00000000 
 2607      00000000 
 2607      00000000 
ARM GAS  C:\Users\HELLOK~1\AppData\Local\Temp\cc4szl9H.s 			page 60


 2607      00000000 
 2608              		.type	months, %object
 2609              		.size	months, 48
 2610              	months:
 2611 0064 A8010000 		.word	.LC76
 2612 0068 AC010000 		.word	.LC77
 2613 006c 14010000 		.word	.LC2
 2614 0070 10010000 		.word	.LC6
 2615 0074 B0010000 		.word	.LC78
 2616 0078 B4010000 		.word	.LC79
 2617 007c B8010000 		.word	.LC80
 2618 0080 BC010000 		.word	.LC81
 2619 0084 C0010000 		.word	.LC82
 2620 0088 C4010000 		.word	.LC83
 2621 008c C8010000 		.word	.LC84
 2622 0090 CC010000 		.word	.LC85
 2623              		.type	motor, %object
 2624              		.size	motor, 4
 2625              	motor:
 2626 0094 01       		.byte	1
 2627 0095 000000   		.space	3
 2628              		.type	feedSteps, %object
 2629              		.size	feedSteps, 4
 2630              	feedSteps:
 2631 0098 D0070000 		.word	2000
 2632              		.type	LEDToggle, %object
 2633              		.size	LEDToggle, 1
 2634              	LEDToggle:
 2635 009c 01       		.byte	1
 2636 009d 000000   		.space	3
 2637              		.type	commands, %object
 2638              		.size	commands, 24
 2639              	commands:
 2640 00a0 18010000 		.word	.LC70
 2641 00a4 30010000 		.word	.LC71
 2642 00a8 48010000 		.word	.LC72
 2643 00ac 60010000 		.word	.LC73
 2644 00b0 78010000 		.word	.LC74
 2645 00b4 90010000 		.word	.LC75
 2646              		.section	.rodata.str1.4,"aMS",%progbits,1
 2647              		.align	2
 2648              	.LC11:
 2649 0000 25643A25 		.ascii	"%d:%.2d%s %s %d, 20%d \000"
 2649      2E326425 
 2649      73202573 
 2649      2025642C 
 2649      20323025 
 2650 0017 00       		.space	1
 2651              	.LC13:
 2652 0018 2D2D2D2D 		.ascii	"--------------------\000"
 2652      2D2D2D2D 
 2652      2D2D2D2D 
 2652      2D2D2D2D 
 2652      2D2D2D2D 
 2653 002d 000000   		.space	3
 2654              	.LC15:
 2655 0030 54696D65 		.ascii	"Time of Next Feed:\000"
ARM GAS  C:\Users\HELLOK~1\AppData\Local\Temp\cc4szl9H.s 			page 61


 2655      206F6620 
 2655      4E657874 
 2655      20466565 
 2655      643A00
 2656 0043 00       		.space	1
 2657              	.LC23:
 2658 0044 54696D65 		.ascii	"Time of Next Feed:  \000"
 2658      206F6620 
 2658      4E657874 
 2658      20466565 
 2658      643A2020 
 2659 0059 000000   		.space	3
 2660              	.LC28:
 2661 005c 53657420 		.ascii	"Set Month\000"
 2661      4D6F6E74 
 2661      6800
 2662 0066 0000     		.space	2
 2663              	.LC31:
 2664 0068 25732025 		.ascii	"%s %d, 20%d\000"
 2664      642C2032 
 2664      30256400 
 2665              	.LC34:
 2666 0074 53657420 		.ascii	"Set Day  \000"
 2666      44617920 
 2666      2000
 2667 007e 0000     		.space	2
 2668              	.LC36:
 2669 0080 25303264 		.ascii	"%02d\000"
 2669      00
 2670 0085 000000   		.space	3
 2671              	.LC38:
 2672 0088 53657420 		.ascii	"Set Year\000"
 2672      59656172 
 2672      00
 2673 0091 000000   		.space	3
 2674              	.LC40:
 2675 0094 32302530 		.ascii	"20%02d\000"
 2675      326400
 2676 009b 00       		.space	1
 2677              	.LC4:
 2678 009c 504D00   		.ascii	"PM\000"
 2679 009f 00       		.space	1
 2680              	.LC0:
 2681 00a0 414D00   		.ascii	"AM\000"
 2682 00a3 00       		.space	1
 2683              	.LC44:
 2684 00a4 53657420 		.ascii	"Set Hour\000"
 2684      486F7572 
 2684      00
 2685 00ad 000000   		.space	3
 2686              	.LC46:
 2687 00b0 25643A25 		.ascii	"%d:%.2d%s        \000"
 2687      2E326425 
 2687      73202020 
 2687      20202020 
 2687      2000
 2688 00c2 0000     		.space	2
ARM GAS  C:\Users\HELLOK~1\AppData\Local\Temp\cc4szl9H.s 			page 62


 2689              	.LC48:
 2690 00c4 53657420 		.ascii	"Set Minute\000"
 2690      4D696E75 
 2690      746500
 2691 00cf 00       		.space	1
 2692              	.LC50:
 2693 00d0 53657420 		.ascii	"Set AM/PM    \000"
 2693      414D2F50 
 2693      4D202020 
 2693      2000
 2694 00de 0000     		.space	2
 2695              	.LC52:
 2696 00e0 42757474 		.ascii	"Button = Select\000"
 2696      6F6E203D 
 2696      2053656C 
 2696      65637400 
 2697              	.LC54:
 2698 00f0 4B6E6F62 		.ascii	"Knob = Choice\000"
 2698      203D2043 
 2698      686F6963 
 2698      6500
 2699 00fe 0000     		.space	2
 2700              	.LC57:
 2701 0100 53657420 		.ascii	"Set Global Time\000"
 2701      476C6F62 
 2701      616C2054 
 2701      696D6500 
 2702              	.LC6:
 2703 0110 41707200 		.ascii	"Apr\000"
 2704              	.LC2:
 2705 0114 4D617200 		.ascii	"Mar\000"
 2706              	.LC70:
 2707 0118 53657420 		.ascii	"Set Global Time     \000"
 2707      476C6F62 
 2707      616C2054 
 2707      696D6520 
 2707      20202020 
 2708 012d 000000   		.space	3
 2709              	.LC71:
 2710 0130 4368616E 		.ascii	"Change Feed Times   \000"
 2710      67652046 
 2710      65656420 
 2710      54696D65 
 2710      73202020 
 2711 0145 000000   		.space	3
 2712              	.LC72:
 2713 0148 4368616E 		.ascii	"Change Feed Amount  \000"
 2713      67652046 
 2713      65656420 
 2713      416D6F75 
 2713      6E742020 
 2714 015d 000000   		.space	3
 2715              	.LC73:
 2716 0160 5475726E 		.ascii	"Turn on/off LED's   \000"
 2716      206F6E2F 
 2716      6F666620 
 2716      4C454427 
ARM GAS  C:\Users\HELLOK~1\AppData\Local\Temp\cc4szl9H.s 			page 63


 2716      73202020 
 2717 0175 000000   		.space	3
 2718              	.LC74:
 2719 0178 5475726E 		.ascii	"Turn on/off Speakers\000"
 2719      206F6E2F 
 2719      6F666620 
 2719      53706561 
 2719      6B657273 
 2720 018d 000000   		.space	3
 2721              	.LC75:
 2722 0190 45786974 		.ascii	"Exit                \000"
 2722      20202020 
 2722      20202020 
 2722      20202020 
 2722      20202020 
 2723 01a5 000000   		.space	3
 2724              	.LC76:
 2725 01a8 4A616E00 		.ascii	"Jan\000"
 2726              	.LC77:
 2727 01ac 46656200 		.ascii	"Feb\000"
 2728              	.LC78:
 2729 01b0 4D617900 		.ascii	"May\000"
 2730              	.LC79:
 2731 01b4 4A756E00 		.ascii	"Jun\000"
 2732              	.LC80:
 2733 01b8 4A756C00 		.ascii	"Jul\000"
 2734              	.LC81:
 2735 01bc 41756700 		.ascii	"Aug\000"
 2736              	.LC82:
 2737 01c0 53657000 		.ascii	"Sep\000"
 2738              	.LC83:
 2739 01c4 4F637400 		.ascii	"Oct\000"
 2740              	.LC84:
 2741 01c8 4E6F7600 		.ascii	"Nov\000"
 2742              	.LC85:
 2743 01cc 44656300 		.ascii	"Dec\000"
 2744              		.bss
 2745              		.set	.LANCHOR1,. + 0
 2746              		.type	feedCounter, %object
 2747              		.size	feedCounter, 1
 2748              	feedCounter:
 2749 0000 00       		.space	1
 2750              		.type	speakerToggle, %object
 2751              		.size	speakerToggle, 1
 2752              	speakerToggle:
 2753 0001 00       		.space	1
 2754              		.type	encFlag, %object
 2755              		.size	encFlag, 1
 2756              	encFlag:
 2757 0002 00       		.space	1
 2758              		.type	encPos, %object
 2759              		.size	encPos, 1
 2760              	encPos:
 2761 0003 00       		.space	1
 2762              		.type	buttonFlag, %object
 2763              		.size	buttonFlag, 1
 2764              	buttonFlag:
ARM GAS  C:\Users\HELLOK~1\AppData\Local\Temp\cc4szl9H.s 			page 64


 2765 0004 00       		.space	1
 2766              		.text
 2767              	.Letext0:
 2768              		.file 2 "Generated_Source\\PSoC4/cytypes.h"
 2769              		.file 3 "Generated_Source\\PSoC4/Motor.h"
 2770              		.file 4 "Generated_Source\\PSoC4/CyLib.h"
 2771              		.file 5 "Generated_Source\\PSoC4/I2C_I2C.h"
 2772              		.file 6 "LiquidCrystal_I2C.h"
 2773              		.file 7 "c:\\program files (x86)\\cypress\\psoc creator\\4.2\\psoc creator\\import\\gnu\\arm\\5.4.
 2774              		.file 8 "Generated_Source\\PSoC4/LED_SEL.h"
 2775              		.file 9 "Generated_Source\\PSoC4/SPEAKER_PWM.h"
 2776              		.file 10 "Generated_Source\\PSoC4/LED_PWM.h"
 2777              		.file 11 "c:\\program files (x86)\\cypress\\psoc creator\\4.2\\psoc creator\\import\\gnu\\arm\\5.4
 2778              		.file 12 "Generated_Source\\PSoC4/BTN_ISR.h"
 2779              		.file 13 "Generated_Source\\PSoC4/ENC_ISR.h"
 2780              		.file 14 "Generated_Source\\PSoC4/I2C.h"
 2781              		.section	.debug_info,"",%progbits
 2782              	.Ldebug_info0:
 2783 0000 531B0000 		.4byte	0x1b53
 2784 0004 0400     		.2byte	0x4
 2785 0006 00000000 		.4byte	.Ldebug_abbrev0
 2786 000a 04       		.byte	0x4
 2787 000b 01       		.uleb128 0x1
 2788 000c 82010000 		.4byte	.LASF124
 2789 0010 0C       		.byte	0xc
 2790 0011 3D000000 		.4byte	.LASF125
 2791 0015 5E030000 		.4byte	.LASF126
 2792 0019 18000000 		.4byte	.Ldebug_ranges0+0x18
 2793 001d 00000000 		.4byte	0
 2794 0021 00000000 		.4byte	.Ldebug_line0
 2795 0025 02       		.uleb128 0x2
 2796 0026 01       		.byte	0x1
 2797 0027 06       		.byte	0x6
 2798 0028 D4050000 		.4byte	.LASF0
 2799 002c 02       		.uleb128 0x2
 2800 002d 01       		.byte	0x1
 2801 002e 08       		.byte	0x8
 2802 002f 83050000 		.4byte	.LASF1
 2803 0033 02       		.uleb128 0x2
 2804 0034 02       		.byte	0x2
 2805 0035 05       		.byte	0x5
 2806 0036 B7040000 		.4byte	.LASF2
 2807 003a 02       		.uleb128 0x2
 2808 003b 02       		.byte	0x2
 2809 003c 07       		.byte	0x7
 2810 003d E0050000 		.4byte	.LASF3
 2811 0041 02       		.uleb128 0x2
 2812 0042 04       		.byte	0x4
 2813 0043 05       		.byte	0x5
 2814 0044 C1040000 		.4byte	.LASF4
 2815 0048 02       		.uleb128 0x2
 2816 0049 04       		.byte	0x4
 2817 004a 07       		.byte	0x7
 2818 004b 2B050000 		.4byte	.LASF5
 2819 004f 02       		.uleb128 0x2
 2820 0050 08       		.byte	0x8
 2821 0051 05       		.byte	0x5
ARM GAS  C:\Users\HELLOK~1\AppData\Local\Temp\cc4szl9H.s 			page 65


 2822 0052 38030000 		.4byte	.LASF6
 2823 0056 02       		.uleb128 0x2
 2824 0057 08       		.byte	0x8
 2825 0058 07       		.byte	0x7
 2826 0059 0E010000 		.4byte	.LASF7
 2827 005d 03       		.uleb128 0x3
 2828 005e 04       		.byte	0x4
 2829 005f 05       		.byte	0x5
 2830 0060 696E7400 		.ascii	"int\000"
 2831 0064 02       		.uleb128 0x2
 2832 0065 04       		.byte	0x4
 2833 0066 07       		.byte	0x7
 2834 0067 59000000 		.4byte	.LASF8
 2835 006b 04       		.uleb128 0x4
 2836 006c 0E060000 		.4byte	.LASF9
 2837 0070 02       		.byte	0x2
 2838 0071 E701     		.2byte	0x1e7
 2839 0073 2C000000 		.4byte	0x2c
 2840 0077 04       		.uleb128 0x4
 2841 0078 DC020000 		.4byte	.LASF10
 2842 007c 02       		.byte	0x2
 2843 007d E801     		.2byte	0x1e8
 2844 007f 3A000000 		.4byte	0x3a
 2845 0083 04       		.uleb128 0x4
 2846 0084 18040000 		.4byte	.LASF11
 2847 0088 02       		.byte	0x2
 2848 0089 E901     		.2byte	0x1e9
 2849 008b 48000000 		.4byte	0x48
 2850 008f 02       		.uleb128 0x2
 2851 0090 04       		.byte	0x4
 2852 0091 04       		.byte	0x4
 2853 0092 E8000000 		.4byte	.LASF12
 2854 0096 02       		.uleb128 0x2
 2855 0097 08       		.byte	0x8
 2856 0098 04       		.byte	0x4
 2857 0099 14060000 		.4byte	.LASF13
 2858 009d 02       		.uleb128 0x2
 2859 009e 01       		.byte	0x1
 2860 009f 08       		.byte	0x8
 2861 00a0 B2020000 		.4byte	.LASF14
 2862 00a4 05       		.uleb128 0x5
 2863 00a5 6B000000 		.4byte	0x6b
 2864 00a9 02       		.uleb128 0x2
 2865 00aa 08       		.byte	0x8
 2866 00ab 04       		.byte	0x4
 2867 00ac 72040000 		.4byte	.LASF15
 2868 00b0 02       		.uleb128 0x2
 2869 00b1 04       		.byte	0x4
 2870 00b2 07       		.byte	0x7
 2871 00b3 22050000 		.4byte	.LASF16
 2872 00b7 06       		.uleb128 0x6
 2873 00b8 04       		.byte	0x4
 2874 00b9 9D000000 		.4byte	0x9d
 2875 00bd 06       		.uleb128 0x6
 2876 00be 04       		.byte	0x4
 2877 00bf C3000000 		.4byte	0xc3
 2878 00c3 07       		.uleb128 0x7
ARM GAS  C:\Users\HELLOK~1\AppData\Local\Temp\cc4szl9H.s 			page 66


 2879 00c4 9D000000 		.4byte	0x9d
 2880 00c8 06       		.uleb128 0x6
 2881 00c9 04       		.byte	0x4
 2882 00ca 6B000000 		.4byte	0x6b
 2883 00ce 08       		.uleb128 0x8
 2884 00cf 4D545200 		.ascii	"MTR\000"
 2885 00d3 04       		.byte	0x4
 2886 00d4 01       		.byte	0x1
 2887 00d5 10       		.byte	0x10
 2888 00d6 EA000000 		.4byte	0xea
 2889 00da 09       		.uleb128 0x9
 2890 00db 5D060000 		.4byte	.LASF127
 2891 00df 01       		.byte	0x1
 2892 00e0 11       		.byte	0x11
 2893 00e1 64000000 		.4byte	0x64
 2894 00e5 04       		.byte	0x4
 2895 00e6 04       		.byte	0x4
 2896 00e7 1C       		.byte	0x1c
 2897 00e8 00       		.byte	0
 2898 00e9 00       		.byte	0
 2899 00ea 0A       		.uleb128 0xa
 2900 00eb 09060000 		.4byte	.LASF17
 2901 00ef 08       		.byte	0x8
 2902 00f0 01       		.byte	0x1
 2903 00f1 5E       		.byte	0x5e
 2904 00f2 1A010000 		.4byte	0x11a
 2905 00f6 0B       		.uleb128 0xb
 2906 00f7 85020000 		.4byte	.LASF18
 2907 00fb 01       		.byte	0x1
 2908 00fc 5F       		.byte	0x5f
 2909 00fd 6B000000 		.4byte	0x6b
 2910 0101 00       		.byte	0
 2911 0102 0B       		.uleb128 0xb
 2912 0103 31030000 		.4byte	.LASF19
 2913 0107 01       		.byte	0x1
 2914 0108 60       		.byte	0x60
 2915 0109 6B000000 		.4byte	0x6b
 2916 010d 01       		.byte	0x1
 2917 010e 0C       		.uleb128 0xc
 2918 010f 414D00   		.ascii	"AM\000"
 2919 0112 01       		.byte	0x1
 2920 0113 61       		.byte	0x61
 2921 0114 B7000000 		.4byte	0xb7
 2922 0118 04       		.byte	0x4
 2923 0119 00       		.byte	0
 2924 011a 0A       		.uleb128 0xa
 2925 011b 58060000 		.4byte	.LASF20
 2926 011f 0C       		.byte	0xc
 2927 0120 01       		.byte	0x1
 2928 0121 64       		.byte	0x64
 2929 0122 4B010000 		.4byte	0x14b
 2930 0126 0C       		.uleb128 0xc
 2931 0127 64617900 		.ascii	"day\000"
 2932 012b 01       		.byte	0x1
 2933 012c 65       		.byte	0x65
 2934 012d 6B000000 		.4byte	0x6b
 2935 0131 00       		.byte	0
ARM GAS  C:\Users\HELLOK~1\AppData\Local\Temp\cc4szl9H.s 			page 67


 2936 0132 0B       		.uleb128 0xb
 2937 0133 48020000 		.4byte	.LASF21
 2938 0137 01       		.byte	0x1
 2939 0138 66       		.byte	0x66
 2940 0139 B7000000 		.4byte	0xb7
 2941 013d 04       		.byte	0x4
 2942 013e 0B       		.uleb128 0xb
 2943 013f 69050000 		.4byte	.LASF22
 2944 0143 01       		.byte	0x1
 2945 0144 67       		.byte	0x67
 2946 0145 6B000000 		.4byte	0x6b
 2947 0149 08       		.byte	0x8
 2948 014a 00       		.byte	0
 2949 014b 08       		.uleb128 0x8
 2950 014c 52544300 		.ascii	"RTC\000"
 2951 0150 10       		.byte	0x10
 2952 0151 01       		.byte	0x1
 2953 0152 69       		.byte	0x69
 2954 0153 18020000 		.4byte	0x218
 2955 0157 0B       		.uleb128 0xb
 2956 0158 1D030000 		.4byte	.LASF23
 2957 015c 01       		.byte	0x1
 2958 015d 6A       		.byte	0x6a
 2959 015e 6B000000 		.4byte	0x6b
 2960 0162 00       		.byte	0
 2961 0163 0B       		.uleb128 0xb
 2962 0164 27030000 		.4byte	.LASF24
 2963 0168 01       		.byte	0x1
 2964 0169 6B       		.byte	0x6b
 2965 016a 6B000000 		.4byte	0x6b
 2966 016e 01       		.byte	0x1
 2967 016f 0B       		.uleb128 0xb
 2968 0170 EF030000 		.4byte	.LASF25
 2969 0174 01       		.byte	0x1
 2970 0175 6C       		.byte	0x6c
 2971 0176 6B000000 		.4byte	0x6b
 2972 017a 02       		.byte	0x2
 2973 017b 0B       		.uleb128 0xb
 2974 017c 9C050000 		.4byte	.LASF26
 2975 0180 01       		.byte	0x1
 2976 0181 6D       		.byte	0x6d
 2977 0182 6B000000 		.4byte	0x6b
 2978 0186 03       		.byte	0x3
 2979 0187 0B       		.uleb128 0xb
 2980 0188 C3050000 		.4byte	.LASF27
 2981 018c 01       		.byte	0x1
 2982 018d 6E       		.byte	0x6e
 2983 018e 6B000000 		.4byte	0x6b
 2984 0192 04       		.byte	0x4
 2985 0193 0B       		.uleb128 0xb
 2986 0194 3A020000 		.4byte	.LASF28
 2987 0198 01       		.byte	0x1
 2988 0199 6F       		.byte	0x6f
 2989 019a 6B000000 		.4byte	0x6b
 2990 019e 05       		.byte	0x5
 2991 019f 0B       		.uleb128 0xb
 2992 01a0 C4020000 		.4byte	.LASF29
ARM GAS  C:\Users\HELLOK~1\AppData\Local\Temp\cc4szl9H.s 			page 68


 2993 01a4 01       		.byte	0x1
 2994 01a5 70       		.byte	0x70
 2995 01a6 6B000000 		.4byte	0x6b
 2996 01aa 06       		.byte	0x6
 2997 01ab 0B       		.uleb128 0xb
 2998 01ac C9000000 		.4byte	.LASF30
 2999 01b0 01       		.byte	0x1
 3000 01b1 71       		.byte	0x71
 3001 01b2 6B000000 		.4byte	0x6b
 3002 01b6 07       		.byte	0x7
 3003 01b7 0B       		.uleb128 0xb
 3004 01b8 55010000 		.4byte	.LASF31
 3005 01bc 01       		.byte	0x1
 3006 01bd 72       		.byte	0x72
 3007 01be 6B000000 		.4byte	0x6b
 3008 01c2 08       		.byte	0x8
 3009 01c3 0B       		.uleb128 0xb
 3010 01c4 3E060000 		.4byte	.LASF32
 3011 01c8 01       		.byte	0x1
 3012 01c9 73       		.byte	0x73
 3013 01ca 6B000000 		.4byte	0x6b
 3014 01ce 09       		.byte	0x9
 3015 01cf 0B       		.uleb128 0xb
 3016 01d0 1B060000 		.4byte	.LASF33
 3017 01d4 01       		.byte	0x1
 3018 01d5 74       		.byte	0x74
 3019 01d6 6B000000 		.4byte	0x6b
 3020 01da 0A       		.byte	0xa
 3021 01db 0B       		.uleb128 0xb
 3022 01dc 79010000 		.4byte	.LASF34
 3023 01e0 01       		.byte	0x1
 3024 01e1 75       		.byte	0x75
 3025 01e2 6B000000 		.4byte	0x6b
 3026 01e6 0B       		.byte	0xb
 3027 01e7 0B       		.uleb128 0xb
 3028 01e8 2E010000 		.4byte	.LASF35
 3029 01ec 01       		.byte	0x1
 3030 01ed 76       		.byte	0x76
 3031 01ee 6B000000 		.4byte	0x6b
 3032 01f2 0C       		.byte	0xc
 3033 01f3 0B       		.uleb128 0xb
 3034 01f4 64040000 		.4byte	.LASF36
 3035 01f8 01       		.byte	0x1
 3036 01f9 77       		.byte	0x77
 3037 01fa 6B000000 		.4byte	0x6b
 3038 01fe 0D       		.byte	0xd
 3039 01ff 0B       		.uleb128 0xb
 3040 0200 B7020000 		.4byte	.LASF37
 3041 0204 01       		.byte	0x1
 3042 0205 78       		.byte	0x78
 3043 0206 6B000000 		.4byte	0x6b
 3044 020a 0E       		.byte	0xe
 3045 020b 0B       		.uleb128 0xb
 3046 020c FE000000 		.4byte	.LASF38
 3047 0210 01       		.byte	0x1
 3048 0211 79       		.byte	0x79
 3049 0212 6B000000 		.4byte	0x6b
ARM GAS  C:\Users\HELLOK~1\AppData\Local\Temp\cc4szl9H.s 			page 69


 3050 0216 0F       		.byte	0xf
 3051 0217 00       		.byte	0
 3052 0218 0D       		.uleb128 0xd
 3053 0219 4F050000 		.4byte	.LASF39
 3054 021d 01       		.byte	0x1
 3055 021e 17       		.byte	0x17
 3056 021f 5D000000 		.4byte	0x5d
 3057 0223 00000000 		.4byte	.LFB35
 3058 0227 68000000 		.4byte	.LFE35-.LFB35
 3059 022b 01       		.uleb128 0x1
 3060 022c 9C       		.byte	0x9c
 3061 022d 96020000 		.4byte	0x296
 3062 0231 0E       		.uleb128 0xe
 3063 0232 9F020000 		.4byte	.LASF41
 3064 0236 01       		.byte	0x1
 3065 0237 17       		.byte	0x17
 3066 0238 CE000000 		.4byte	0xce
 3067 023c 00000000 		.4byte	.LLST0
 3068 0240 0F       		.uleb128 0xf
 3069 0241 3E000000 		.4byte	.LVL6
 3070 0245 231A0000 		.4byte	0x1a23
 3071 0249 53020000 		.4byte	0x253
 3072 024d 10       		.uleb128 0x10
 3073 024e 01       		.uleb128 0x1
 3074 024f 50       		.byte	0x50
 3075 0250 01       		.uleb128 0x1
 3076 0251 39       		.byte	0x39
 3077 0252 00       		.byte	0
 3078 0253 0F       		.uleb128 0xf
 3079 0254 46000000 		.4byte	.LVL7
 3080 0258 231A0000 		.4byte	0x1a23
 3081 025c 66020000 		.4byte	0x266
 3082 0260 10       		.uleb128 0x10
 3083 0261 01       		.uleb128 0x1
 3084 0262 50       		.byte	0x50
 3085 0263 01       		.uleb128 0x1
 3086 0264 3C       		.byte	0x3c
 3087 0265 00       		.byte	0
 3088 0266 0F       		.uleb128 0xf
 3089 0267 4E000000 		.4byte	.LVL8
 3090 026b 231A0000 		.4byte	0x1a23
 3091 026f 79020000 		.4byte	0x279
 3092 0273 10       		.uleb128 0x10
 3093 0274 01       		.uleb128 0x1
 3094 0275 50       		.byte	0x50
 3095 0276 01       		.uleb128 0x1
 3096 0277 36       		.byte	0x36
 3097 0278 00       		.byte	0
 3098 0279 0F       		.uleb128 0xf
 3099 027a 56000000 		.4byte	.LVL9
 3100 027e 231A0000 		.4byte	0x1a23
 3101 0282 8C020000 		.4byte	0x28c
 3102 0286 10       		.uleb128 0x10
 3103 0287 01       		.uleb128 0x1
 3104 0288 50       		.byte	0x50
 3105 0289 01       		.uleb128 0x1
 3106 028a 33       		.byte	0x33
ARM GAS  C:\Users\HELLOK~1\AppData\Local\Temp\cc4szl9H.s 			page 70


 3107 028b 00       		.byte	0
 3108 028c 11       		.uleb128 0x11
 3109 028d 5E000000 		.4byte	.LVL10
 3110 0291 2E1A0000 		.4byte	0x1a2e
 3111 0295 00       		.byte	0
 3112 0296 0D       		.uleb128 0xd
 3113 0297 35040000 		.4byte	.LASF40
 3114 029b 01       		.byte	0x1
 3115 029c 3B       		.byte	0x3b
 3116 029d 5D000000 		.4byte	0x5d
 3117 02a1 00000000 		.4byte	.LFB36
 3118 02a5 64000000 		.4byte	.LFE36-.LFB36
 3119 02a9 01       		.uleb128 0x1
 3120 02aa 9C       		.byte	0x9c
 3121 02ab 14030000 		.4byte	0x314
 3122 02af 0E       		.uleb128 0xe
 3123 02b0 9F020000 		.4byte	.LASF41
 3124 02b4 01       		.byte	0x1
 3125 02b5 3B       		.byte	0x3b
 3126 02b6 CE000000 		.4byte	0xce
 3127 02ba 29000000 		.4byte	.LLST1
 3128 02be 0F       		.uleb128 0xf
 3129 02bf 3C000000 		.4byte	.LVL17
 3130 02c3 231A0000 		.4byte	0x1a23
 3131 02c7 D1020000 		.4byte	0x2d1
 3132 02cb 10       		.uleb128 0x10
 3133 02cc 01       		.uleb128 0x1
 3134 02cd 50       		.byte	0x50
 3135 02ce 01       		.uleb128 0x1
 3136 02cf 39       		.byte	0x39
 3137 02d0 00       		.byte	0
 3138 02d1 0F       		.uleb128 0xf
 3139 02d2 44000000 		.4byte	.LVL18
 3140 02d6 231A0000 		.4byte	0x1a23
 3141 02da E4020000 		.4byte	0x2e4
 3142 02de 10       		.uleb128 0x10
 3143 02df 01       		.uleb128 0x1
 3144 02e0 50       		.byte	0x50
 3145 02e1 01       		.uleb128 0x1
 3146 02e2 33       		.byte	0x33
 3147 02e3 00       		.byte	0
 3148 02e4 0F       		.uleb128 0xf
 3149 02e5 4C000000 		.4byte	.LVL19
 3150 02e9 231A0000 		.4byte	0x1a23
 3151 02ed F7020000 		.4byte	0x2f7
 3152 02f1 10       		.uleb128 0x10
 3153 02f2 01       		.uleb128 0x1
 3154 02f3 50       		.byte	0x50
 3155 02f4 01       		.uleb128 0x1
 3156 02f5 36       		.byte	0x36
 3157 02f6 00       		.byte	0
 3158 02f7 0F       		.uleb128 0xf
 3159 02f8 54000000 		.4byte	.LVL20
 3160 02fc 231A0000 		.4byte	0x1a23
 3161 0300 0A030000 		.4byte	0x30a
 3162 0304 10       		.uleb128 0x10
 3163 0305 01       		.uleb128 0x1
ARM GAS  C:\Users\HELLOK~1\AppData\Local\Temp\cc4szl9H.s 			page 71


 3164 0306 50       		.byte	0x50
 3165 0307 01       		.uleb128 0x1
 3166 0308 3C       		.byte	0x3c
 3167 0309 00       		.byte	0
 3168 030a 11       		.uleb128 0x11
 3169 030b 5C000000 		.4byte	.LVL21
 3170 030f 2E1A0000 		.4byte	0x1a2e
 3171 0313 00       		.byte	0
 3172 0314 0D       		.uleb128 0xd
 3173 0315 EE000000 		.4byte	.LASF42
 3174 0319 01       		.byte	0x1
 3175 031a C1       		.byte	0xc1
 3176 031b 6B000000 		.4byte	0x6b
 3177 031f 00000000 		.4byte	.LFB37
 3178 0323 12000000 		.4byte	.LFE37-.LFB37
 3179 0327 01       		.uleb128 0x1
 3180 0328 9C       		.byte	0x9c
 3181 0329 3D030000 		.4byte	0x33d
 3182 032d 0E       		.uleb128 0xe
 3183 032e 73010000 		.4byte	.LASF43
 3184 0332 01       		.byte	0x1
 3185 0333 C1       		.byte	0xc1
 3186 0334 6B000000 		.4byte	0x6b
 3187 0338 52000000 		.4byte	.LLST2
 3188 033c 00       		.byte	0
 3189 033d 12       		.uleb128 0x12
 3190 033e F6030000 		.4byte	.LASF44
 3191 0342 01       		.byte	0x1
 3192 0343 C6       		.byte	0xc6
 3193 0344 6B000000 		.4byte	0x6b
 3194 0348 00000000 		.4byte	.LFB38
 3195 034c 1A000000 		.4byte	.LFE38-.LFB38
 3196 0350 01       		.uleb128 0x1
 3197 0351 9C       		.byte	0x9c
 3198 0352 66030000 		.4byte	0x366
 3199 0356 0E       		.uleb128 0xe
 3200 0357 73010000 		.4byte	.LASF43
 3201 035b 01       		.byte	0x1
 3202 035c C6       		.byte	0xc6
 3203 035d 6B000000 		.4byte	0x6b
 3204 0361 73000000 		.4byte	.LLST3
 3205 0365 00       		.byte	0
 3206 0366 13       		.uleb128 0x13
 3207 0367 F0020000 		.4byte	.LASF49
 3208 036b 01       		.byte	0x1
 3209 036c C9       		.byte	0xc9
 3210 036d 00000000 		.4byte	.LFB39
 3211 0371 40000000 		.4byte	.LFE39-.LFB39
 3212 0375 01       		.uleb128 0x1
 3213 0376 9C       		.byte	0x9c
 3214 0377 33040000 		.4byte	0x433
 3215 037b 0E       		.uleb128 0xe
 3216 037c 08000000 		.4byte	.LASF45
 3217 0380 01       		.byte	0x1
 3218 0381 C9       		.byte	0xc9
 3219 0382 C8000000 		.4byte	0xc8
 3220 0386 94000000 		.4byte	.LLST4
ARM GAS  C:\Users\HELLOK~1\AppData\Local\Temp\cc4szl9H.s 			page 72


 3221 038a 0E       		.uleb128 0xe
 3222 038b 51040000 		.4byte	.LASF46
 3223 038f 01       		.byte	0x1
 3224 0390 C9       		.byte	0xc9
 3225 0391 5D000000 		.4byte	0x5d
 3226 0395 C0000000 		.4byte	.LLST5
 3227 0399 0E       		.uleb128 0xe
 3228 039a 7F000000 		.4byte	.LASF47
 3229 039e 01       		.byte	0x1
 3230 039f C9       		.byte	0xc9
 3231 03a0 83000000 		.4byte	0x83
 3232 03a4 EC000000 		.4byte	.LLST6
 3233 03a8 0E       		.uleb128 0xe
 3234 03a9 2A020000 		.4byte	.LASF48
 3235 03ad 01       		.byte	0x1
 3236 03ae C9       		.byte	0xc9
 3237 03af 83000000 		.4byte	0x83
 3238 03b3 18010000 		.4byte	.LLST7
 3239 03b7 14       		.uleb128 0x14
 3240 03b8 87000000 		.4byte	.LASF53
 3241 03bc 01       		.byte	0x1
 3242 03bd CB       		.byte	0xcb
 3243 03be 33040000 		.4byte	0x433
 3244 03c2 02       		.uleb128 0x2
 3245 03c3 91       		.byte	0x91
 3246 03c4 6C       		.sleb128 -20
 3247 03c5 0F       		.uleb128 0xf
 3248 03c6 18000000 		.4byte	.LVL32
 3249 03ca 391A0000 		.4byte	0x1a39
 3250 03ce E9030000 		.4byte	0x3e9
 3251 03d2 10       		.uleb128 0x10
 3252 03d3 01       		.uleb128 0x1
 3253 03d4 50       		.byte	0x50
 3254 03d5 02       		.uleb128 0x2
 3255 03d6 74       		.byte	0x74
 3256 03d7 00       		.sleb128 0
 3257 03d8 10       		.uleb128 0x10
 3258 03d9 01       		.uleb128 0x1
 3259 03da 51       		.byte	0x51
 3260 03db 02       		.uleb128 0x2
 3261 03dc 91       		.byte	0x91
 3262 03dd 6C       		.sleb128 -20
 3263 03de 10       		.uleb128 0x10
 3264 03df 01       		.uleb128 0x1
 3265 03e0 52       		.byte	0x52
 3266 03e1 01       		.uleb128 0x1
 3267 03e2 31       		.byte	0x31
 3268 03e3 10       		.uleb128 0x10
 3269 03e4 01       		.uleb128 0x1
 3270 03e5 53       		.byte	0x53
 3271 03e6 01       		.uleb128 0x1
 3272 03e7 32       		.byte	0x32
 3273 03e8 00       		.byte	0
 3274 03e9 11       		.uleb128 0x11
 3275 03ea 1C000000 		.4byte	.LVL33
 3276 03ee 451A0000 		.4byte	0x1a45
 3277 03f2 11       		.uleb128 0x11
ARM GAS  C:\Users\HELLOK~1\AppData\Local\Temp\cc4szl9H.s 			page 73


 3278 03f3 24000000 		.4byte	.LVL34
 3279 03f7 511A0000 		.4byte	0x1a51
 3280 03fb 0F       		.uleb128 0xf
 3281 03fc 30000000 		.4byte	.LVL35
 3282 0400 5D1A0000 		.4byte	0x1a5d
 3283 0404 20040000 		.4byte	0x420
 3284 0408 10       		.uleb128 0x10
 3285 0409 01       		.uleb128 0x1
 3286 040a 50       		.byte	0x50
 3287 040b 02       		.uleb128 0x2
 3288 040c 74       		.byte	0x74
 3289 040d 00       		.sleb128 0
 3290 040e 10       		.uleb128 0x10
 3291 040f 01       		.uleb128 0x1
 3292 0410 51       		.byte	0x51
 3293 0411 02       		.uleb128 0x2
 3294 0412 75       		.byte	0x75
 3295 0413 00       		.sleb128 0
 3296 0414 10       		.uleb128 0x10
 3297 0415 01       		.uleb128 0x1
 3298 0416 52       		.byte	0x52
 3299 0417 02       		.uleb128 0x2
 3300 0418 76       		.byte	0x76
 3301 0419 00       		.sleb128 0
 3302 041a 10       		.uleb128 0x10
 3303 041b 01       		.uleb128 0x1
 3304 041c 53       		.byte	0x53
 3305 041d 01       		.uleb128 0x1
 3306 041e 31       		.byte	0x31
 3307 041f 00       		.byte	0
 3308 0420 11       		.uleb128 0x11
 3309 0421 34000000 		.4byte	.LVL36
 3310 0425 451A0000 		.4byte	0x1a45
 3311 0429 11       		.uleb128 0x11
 3312 042a 3C000000 		.4byte	.LVL37
 3313 042e 511A0000 		.4byte	0x1a51
 3314 0432 00       		.byte	0
 3315 0433 15       		.uleb128 0x15
 3316 0434 6B000000 		.4byte	0x6b
 3317 0438 43040000 		.4byte	0x443
 3318 043c 16       		.uleb128 0x16
 3319 043d B0000000 		.4byte	0xb0
 3320 0441 00       		.byte	0
 3321 0442 00       		.byte	0
 3322 0443 13       		.uleb128 0x13
 3323 0444 16050000 		.4byte	.LASF50
 3324 0448 01       		.byte	0x1
 3325 0449 DE       		.byte	0xde
 3326 044a 00000000 		.4byte	.LFB40
 3327 044e 20000000 		.4byte	.LFE40-.LFB40
 3328 0452 01       		.uleb128 0x1
 3329 0453 9C       		.byte	0x9c
 3330 0454 CE040000 		.4byte	0x4ce
 3331 0458 0E       		.uleb128 0xe
 3332 0459 07040000 		.4byte	.LASF51
 3333 045d 01       		.byte	0x1
 3334 045e DE       		.byte	0xde
ARM GAS  C:\Users\HELLOK~1\AppData\Local\Temp\cc4szl9H.s 			page 74


 3335 045f C8000000 		.4byte	0xc8
 3336 0463 39010000 		.4byte	.LLST8
 3337 0467 0E       		.uleb128 0xe
 3338 0468 D6040000 		.4byte	.LASF52
 3339 046c 01       		.byte	0x1
 3340 046d DE       		.byte	0xde
 3341 046e 5D000000 		.4byte	0x5d
 3342 0472 65010000 		.4byte	.LLST9
 3343 0476 0E       		.uleb128 0xe
 3344 0477 7F000000 		.4byte	.LASF47
 3345 047b 01       		.byte	0x1
 3346 047c DE       		.byte	0xde
 3347 047d 83000000 		.4byte	0x83
 3348 0481 91010000 		.4byte	.LLST10
 3349 0485 0E       		.uleb128 0xe
 3350 0486 2A020000 		.4byte	.LASF48
 3351 048a 01       		.byte	0x1
 3352 048b DE       		.byte	0xde
 3353 048c 83000000 		.4byte	0x83
 3354 0490 BD010000 		.4byte	.LLST11
 3355 0494 0F       		.uleb128 0xf
 3356 0495 12000000 		.4byte	.LVL46
 3357 0499 391A0000 		.4byte	0x1a39
 3358 049d BB040000 		.4byte	0x4bb
 3359 04a1 10       		.uleb128 0x10
 3360 04a2 01       		.uleb128 0x1
 3361 04a3 50       		.byte	0x50
 3362 04a4 02       		.uleb128 0x2
 3363 04a5 74       		.byte	0x74
 3364 04a6 00       		.sleb128 0
 3365 04a7 10       		.uleb128 0x10
 3366 04a8 01       		.uleb128 0x1
 3367 04a9 51       		.byte	0x51
 3368 04aa 03       		.uleb128 0x3
 3369 04ab F3       		.byte	0xf3
 3370 04ac 01       		.uleb128 0x1
 3371 04ad 50       		.byte	0x50
 3372 04ae 10       		.uleb128 0x10
 3373 04af 01       		.uleb128 0x1
 3374 04b0 52       		.byte	0x52
 3375 04b1 03       		.uleb128 0x3
 3376 04b2 F3       		.byte	0xf3
 3377 04b3 01       		.uleb128 0x1
 3378 04b4 51       		.byte	0x51
 3379 04b5 10       		.uleb128 0x10
 3380 04b6 01       		.uleb128 0x1
 3381 04b7 53       		.byte	0x53
 3382 04b8 01       		.uleb128 0x1
 3383 04b9 30       		.byte	0x30
 3384 04ba 00       		.byte	0
 3385 04bb 11       		.uleb128 0x11
 3386 04bc 16000000 		.4byte	.LVL47
 3387 04c0 451A0000 		.4byte	0x1a45
 3388 04c4 11       		.uleb128 0x11
 3389 04c5 1E000000 		.4byte	.LVL48
 3390 04c9 511A0000 		.4byte	0x1a51
 3391 04cd 00       		.byte	0
ARM GAS  C:\Users\HELLOK~1\AppData\Local\Temp\cc4szl9H.s 			page 75


 3392 04ce 17       		.uleb128 0x17
 3393 04cf D9030000 		.4byte	.LASF62
 3394 04d3 01       		.byte	0x1
 3395 04d4 E8       		.byte	0xe8
 3396 04d5 00000000 		.4byte	.LFB41
 3397 04d9 80000000 		.4byte	.LFE41-.LFB41
 3398 04dd 01       		.uleb128 0x1
 3399 04de 9C       		.byte	0x9c
 3400 04df C7050000 		.4byte	0x5c7
 3401 04e3 14       		.uleb128 0x14
 3402 04e4 87000000 		.4byte	.LASF53
 3403 04e8 01       		.byte	0x1
 3404 04e9 E9       		.byte	0xe9
 3405 04ea C7050000 		.4byte	0x5c7
 3406 04ee 02       		.uleb128 0x2
 3407 04ef 91       		.byte	0x91
 3408 04f0 6C       		.sleb128 -20
 3409 04f1 0F       		.uleb128 0xf
 3410 04f2 18000000 		.4byte	.LVL50
 3411 04f6 43040000 		.4byte	0x443
 3412 04fa 10050000 		.4byte	0x510
 3413 04fe 10       		.uleb128 0x10
 3414 04ff 01       		.uleb128 0x1
 3415 0500 50       		.byte	0x50
 3416 0501 02       		.uleb128 0x2
 3417 0502 74       		.byte	0x74
 3418 0503 00       		.sleb128 0
 3419 0504 10       		.uleb128 0x10
 3420 0505 01       		.uleb128 0x1
 3421 0506 51       		.byte	0x51
 3422 0507 01       		.uleb128 0x1
 3423 0508 32       		.byte	0x32
 3424 0509 10       		.uleb128 0x10
 3425 050a 01       		.uleb128 0x1
 3426 050b 52       		.byte	0x52
 3427 050c 02       		.uleb128 0x2
 3428 050d 08       		.byte	0x8
 3429 050e 51       		.byte	0x51
 3430 050f 00       		.byte	0
 3431 0510 0F       		.uleb128 0xf
 3432 0511 28000000 		.4byte	.LVL51
 3433 0515 43040000 		.4byte	0x443
 3434 0519 2F050000 		.4byte	0x52f
 3435 051d 10       		.uleb128 0x10
 3436 051e 01       		.uleb128 0x1
 3437 051f 50       		.byte	0x50
 3438 0520 02       		.uleb128 0x2
 3439 0521 74       		.byte	0x74
 3440 0522 00       		.sleb128 0
 3441 0523 10       		.uleb128 0x10
 3442 0524 01       		.uleb128 0x1
 3443 0525 51       		.byte	0x51
 3444 0526 01       		.uleb128 0x1
 3445 0527 32       		.byte	0x32
 3446 0528 10       		.uleb128 0x10
 3447 0529 01       		.uleb128 0x1
 3448 052a 52       		.byte	0x52
ARM GAS  C:\Users\HELLOK~1\AppData\Local\Temp\cc4szl9H.s 			page 76


 3449 052b 02       		.uleb128 0x2
 3450 052c 08       		.byte	0x8
 3451 052d 51       		.byte	0x51
 3452 052e 00       		.byte	0
 3453 052f 0F       		.uleb128 0xf
 3454 0530 38000000 		.4byte	.LVL52
 3455 0534 43040000 		.4byte	0x443
 3456 0538 4E050000 		.4byte	0x54e
 3457 053c 10       		.uleb128 0x10
 3458 053d 01       		.uleb128 0x1
 3459 053e 50       		.byte	0x50
 3460 053f 02       		.uleb128 0x2
 3461 0540 74       		.byte	0x74
 3462 0541 00       		.sleb128 0
 3463 0542 10       		.uleb128 0x10
 3464 0543 01       		.uleb128 0x1
 3465 0544 51       		.byte	0x51
 3466 0545 01       		.uleb128 0x1
 3467 0546 32       		.byte	0x32
 3468 0547 10       		.uleb128 0x10
 3469 0548 01       		.uleb128 0x1
 3470 0549 52       		.byte	0x52
 3471 054a 02       		.uleb128 0x2
 3472 054b 08       		.byte	0x8
 3473 054c 51       		.byte	0x51
 3474 054d 00       		.byte	0
 3475 054e 0F       		.uleb128 0xf
 3476 054f 48000000 		.4byte	.LVL53
 3477 0553 43040000 		.4byte	0x443
 3478 0557 6D050000 		.4byte	0x56d
 3479 055b 10       		.uleb128 0x10
 3480 055c 01       		.uleb128 0x1
 3481 055d 50       		.byte	0x50
 3482 055e 02       		.uleb128 0x2
 3483 055f 74       		.byte	0x74
 3484 0560 00       		.sleb128 0
 3485 0561 10       		.uleb128 0x10
 3486 0562 01       		.uleb128 0x1
 3487 0563 51       		.byte	0x51
 3488 0564 01       		.uleb128 0x1
 3489 0565 32       		.byte	0x32
 3490 0566 10       		.uleb128 0x10
 3491 0567 01       		.uleb128 0x1
 3492 0568 52       		.byte	0x52
 3493 0569 02       		.uleb128 0x2
 3494 056a 08       		.byte	0x8
 3495 056b 51       		.byte	0x51
 3496 056c 00       		.byte	0
 3497 056d 0F       		.uleb128 0xf
 3498 056e 58000000 		.4byte	.LVL54
 3499 0572 43040000 		.4byte	0x443
 3500 0576 8C050000 		.4byte	0x58c
 3501 057a 10       		.uleb128 0x10
 3502 057b 01       		.uleb128 0x1
 3503 057c 50       		.byte	0x50
 3504 057d 02       		.uleb128 0x2
 3505 057e 74       		.byte	0x74
ARM GAS  C:\Users\HELLOK~1\AppData\Local\Temp\cc4szl9H.s 			page 77


 3506 057f 00       		.sleb128 0
 3507 0580 10       		.uleb128 0x10
 3508 0581 01       		.uleb128 0x1
 3509 0582 51       		.byte	0x51
 3510 0583 01       		.uleb128 0x1
 3511 0584 32       		.byte	0x32
 3512 0585 10       		.uleb128 0x10
 3513 0586 01       		.uleb128 0x1
 3514 0587 52       		.byte	0x52
 3515 0588 02       		.uleb128 0x2
 3516 0589 08       		.byte	0x8
 3517 058a 51       		.byte	0x51
 3518 058b 00       		.byte	0
 3519 058c 0F       		.uleb128 0xf
 3520 058d 68000000 		.4byte	.LVL55
 3521 0591 43040000 		.4byte	0x443
 3522 0595 AB050000 		.4byte	0x5ab
 3523 0599 10       		.uleb128 0x10
 3524 059a 01       		.uleb128 0x1
 3525 059b 50       		.byte	0x50
 3526 059c 02       		.uleb128 0x2
 3527 059d 74       		.byte	0x74
 3528 059e 00       		.sleb128 0
 3529 059f 10       		.uleb128 0x10
 3530 05a0 01       		.uleb128 0x1
 3531 05a1 51       		.byte	0x51
 3532 05a2 01       		.uleb128 0x1
 3533 05a3 32       		.byte	0x32
 3534 05a4 10       		.uleb128 0x10
 3535 05a5 01       		.uleb128 0x1
 3536 05a6 52       		.byte	0x52
 3537 05a7 02       		.uleb128 0x2
 3538 05a8 08       		.byte	0x8
 3539 05a9 51       		.byte	0x51
 3540 05aa 00       		.byte	0
 3541 05ab 18       		.uleb128 0x18
 3542 05ac 78000000 		.4byte	.LVL56
 3543 05b0 43040000 		.4byte	0x443
 3544 05b4 10       		.uleb128 0x10
 3545 05b5 01       		.uleb128 0x1
 3546 05b6 50       		.byte	0x50
 3547 05b7 02       		.uleb128 0x2
 3548 05b8 74       		.byte	0x74
 3549 05b9 00       		.sleb128 0
 3550 05ba 10       		.uleb128 0x10
 3551 05bb 01       		.uleb128 0x1
 3552 05bc 51       		.byte	0x51
 3553 05bd 01       		.uleb128 0x1
 3554 05be 32       		.byte	0x32
 3555 05bf 10       		.uleb128 0x10
 3556 05c0 01       		.uleb128 0x1
 3557 05c1 52       		.byte	0x52
 3558 05c2 02       		.uleb128 0x2
 3559 05c3 08       		.byte	0x8
 3560 05c4 51       		.byte	0x51
 3561 05c5 00       		.byte	0
 3562 05c6 00       		.byte	0
ARM GAS  C:\Users\HELLOK~1\AppData\Local\Temp\cc4szl9H.s 			page 78


 3563 05c7 15       		.uleb128 0x15
 3564 05c8 6B000000 		.4byte	0x6b
 3565 05cc D7050000 		.4byte	0x5d7
 3566 05d0 16       		.uleb128 0x16
 3567 05d1 B0000000 		.4byte	0xb0
 3568 05d5 01       		.byte	0x1
 3569 05d6 00       		.byte	0
 3570 05d7 13       		.uleb128 0x13
 3571 05d8 E8020000 		.4byte	.LASF54
 3572 05dc 01       		.byte	0x1
 3573 05dd FA       		.byte	0xfa
 3574 05de 00000000 		.4byte	.LFB42
 3575 05e2 B4000000 		.4byte	.LFE42-.LFB42
 3576 05e6 01       		.uleb128 0x1
 3577 05e7 9C       		.byte	0x9c
 3578 05e8 7B070000 		.4byte	0x77b
 3579 05ec 19       		.uleb128 0x19
 3580 05ed 3F020000 		.4byte	.LASF55
 3581 05f1 01       		.byte	0x1
 3582 05f2 FA       		.byte	0xfa
 3583 05f3 EA000000 		.4byte	0xea
 3584 05f7 02       		.uleb128 0x2
 3585 05f8 91       		.byte	0x91
 3586 05f9 48       		.sleb128 -56
 3587 05fa 19       		.uleb128 0x19
 3588 05fb 25010000 		.4byte	.LASF56
 3589 05ff 01       		.byte	0x1
 3590 0600 FA       		.byte	0xfa
 3591 0601 EA000000 		.4byte	0xea
 3592 0605 02       		.uleb128 0x2
 3593 0606 91       		.byte	0x91
 3594 0607 40       		.sleb128 -64
 3595 0608 19       		.uleb128 0x19
 3596 0609 8A020000 		.4byte	.LASF57
 3597 060d 01       		.byte	0x1
 3598 060e FA       		.byte	0xfa
 3599 060f 1A010000 		.4byte	0x11a
 3600 0613 02       		.uleb128 0x2
 3601 0614 91       		.byte	0x91
 3602 0615 00       		.sleb128 0
 3603 0616 19       		.uleb128 0x19
 3604 0617 10020000 		.4byte	.LASF58
 3605 061b 01       		.byte	0x1
 3606 061c FA       		.byte	0xfa
 3607 061d 1A010000 		.4byte	0x11a
 3608 0621 02       		.uleb128 0x2
 3609 0622 91       		.byte	0x91
 3610 0623 0C       		.sleb128 12
 3611 0624 14       		.uleb128 0x14
 3612 0625 CA040000 		.4byte	.LASF59
 3613 0629 01       		.byte	0x1
 3614 062a FD       		.byte	0xfd
 3615 062b 7B070000 		.4byte	0x77b
 3616 062f 02       		.uleb128 0x2
 3617 0630 91       		.byte	0x91
 3618 0631 50       		.sleb128 -48
 3619 0632 0F       		.uleb128 0xf
ARM GAS  C:\Users\HELLOK~1\AppData\Local\Temp\cc4szl9H.s 			page 79


 3620 0633 1C000000 		.4byte	.LVL57
 3621 0637 691A0000 		.4byte	0x1a69
 3622 063b 4A060000 		.4byte	0x64a
 3623 063f 10       		.uleb128 0x10
 3624 0640 01       		.uleb128 0x1
 3625 0641 50       		.byte	0x50
 3626 0642 01       		.uleb128 0x1
 3627 0643 30       		.byte	0x30
 3628 0644 10       		.uleb128 0x10
 3629 0645 01       		.uleb128 0x1
 3630 0646 51       		.byte	0x51
 3631 0647 01       		.uleb128 0x1
 3632 0648 30       		.byte	0x30
 3633 0649 00       		.byte	0
 3634 064a 0F       		.uleb128 0xf
 3635 064b 44000000 		.4byte	.LVL58
 3636 064f 741A0000 		.4byte	0x1a74
 3637 0653 90060000 		.4byte	0x690
 3638 0657 10       		.uleb128 0x10
 3639 0658 01       		.uleb128 0x1
 3640 0659 50       		.byte	0x50
 3641 065a 02       		.uleb128 0x2
 3642 065b 74       		.byte	0x74
 3643 065c 00       		.sleb128 0
 3644 065d 10       		.uleb128 0x10
 3645 065e 01       		.uleb128 0x1
 3646 065f 51       		.byte	0x51
 3647 0660 01       		.uleb128 0x1
 3648 0661 45       		.byte	0x45
 3649 0662 10       		.uleb128 0x10
 3650 0663 01       		.uleb128 0x1
 3651 0664 52       		.byte	0x52
 3652 0665 02       		.uleb128 0x2
 3653 0666 77       		.byte	0x77
 3654 0667 00       		.sleb128 0
 3655 0668 10       		.uleb128 0x10
 3656 0669 01       		.uleb128 0x1
 3657 066a 53       		.byte	0x53
 3658 066b 07       		.uleb128 0x7
 3659 066c 76       		.byte	0x76
 3660 066d 00       		.sleb128 0
 3661 066e 94       		.byte	0x94
 3662 066f 01       		.byte	0x1
 3663 0670 08       		.byte	0x8
 3664 0671 FF       		.byte	0xff
 3665 0672 1A       		.byte	0x1a
 3666 0673 10       		.uleb128 0x10
 3667 0674 02       		.uleb128 0x2
 3668 0675 7D       		.byte	0x7d
 3669 0676 04       		.sleb128 4
 3670 0677 03       		.uleb128 0x3
 3671 0678 76       		.byte	0x76
 3672 0679 04       		.sleb128 4
 3673 067a 06       		.byte	0x6
 3674 067b 10       		.uleb128 0x10
 3675 067c 02       		.uleb128 0x2
 3676 067d 7D       		.byte	0x7d
ARM GAS  C:\Users\HELLOK~1\AppData\Local\Temp\cc4szl9H.s 			page 80


 3677 067e 08       		.sleb128 8
 3678 067f 03       		.uleb128 0x3
 3679 0680 91       		.byte	0x91
 3680 0681 04       		.sleb128 4
 3681 0682 06       		.byte	0x6
 3682 0683 10       		.uleb128 0x10
 3683 0684 02       		.uleb128 0x2
 3684 0685 7D       		.byte	0x7d
 3685 0686 0C       		.sleb128 12
 3686 0687 07       		.uleb128 0x7
 3687 0688 91       		.byte	0x91
 3688 0689 00       		.sleb128 0
 3689 068a 94       		.byte	0x94
 3690 068b 01       		.byte	0x1
 3691 068c 08       		.byte	0x8
 3692 068d FF       		.byte	0xff
 3693 068e 1A       		.byte	0x1a
 3694 068f 00       		.byte	0
 3695 0690 0F       		.uleb128 0xf
 3696 0691 4E000000 		.4byte	.LVL59
 3697 0695 7F1A0000 		.4byte	0x1a7f
 3698 0699 A4060000 		.4byte	0x6a4
 3699 069d 10       		.uleb128 0x10
 3700 069e 01       		.uleb128 0x1
 3701 069f 50       		.byte	0x50
 3702 06a0 02       		.uleb128 0x2
 3703 06a1 74       		.byte	0x74
 3704 06a2 00       		.sleb128 0
 3705 06a3 00       		.byte	0
 3706 06a4 0F       		.uleb128 0xf
 3707 06a5 56000000 		.4byte	.LVL60
 3708 06a9 691A0000 		.4byte	0x1a69
 3709 06ad BD060000 		.4byte	0x6bd
 3710 06b1 10       		.uleb128 0x10
 3711 06b2 01       		.uleb128 0x1
 3712 06b3 50       		.byte	0x50
 3713 06b4 02       		.uleb128 0x2
 3714 06b5 76       		.byte	0x76
 3715 06b6 00       		.sleb128 0
 3716 06b7 10       		.uleb128 0x10
 3717 06b8 01       		.uleb128 0x1
 3718 06b9 51       		.byte	0x51
 3719 06ba 01       		.uleb128 0x1
 3720 06bb 31       		.byte	0x31
 3721 06bc 00       		.byte	0
 3722 06bd 0F       		.uleb128 0xf
 3723 06be 5C000000 		.4byte	.LVL61
 3724 06c2 7F1A0000 		.4byte	0x1a7f
 3725 06c6 D4060000 		.4byte	0x6d4
 3726 06ca 10       		.uleb128 0x10
 3727 06cb 01       		.uleb128 0x1
 3728 06cc 50       		.byte	0x50
 3729 06cd 05       		.uleb128 0x5
 3730 06ce 03       		.byte	0x3
 3731 06cf 18000000 		.4byte	.LC13
 3732 06d3 00       		.byte	0
 3733 06d4 0F       		.uleb128 0xf
ARM GAS  C:\Users\HELLOK~1\AppData\Local\Temp\cc4szl9H.s 			page 81


 3734 06d5 64000000 		.4byte	.LVL62
 3735 06d9 691A0000 		.4byte	0x1a69
 3736 06dd ED060000 		.4byte	0x6ed
 3737 06e1 10       		.uleb128 0x10
 3738 06e2 01       		.uleb128 0x1
 3739 06e3 50       		.byte	0x50
 3740 06e4 02       		.uleb128 0x2
 3741 06e5 76       		.byte	0x76
 3742 06e6 00       		.sleb128 0
 3743 06e7 10       		.uleb128 0x10
 3744 06e8 01       		.uleb128 0x1
 3745 06e9 51       		.byte	0x51
 3746 06ea 01       		.uleb128 0x1
 3747 06eb 32       		.byte	0x32
 3748 06ec 00       		.byte	0
 3749 06ed 0F       		.uleb128 0xf
 3750 06ee 6A000000 		.4byte	.LVL63
 3751 06f2 7F1A0000 		.4byte	0x1a7f
 3752 06f6 04070000 		.4byte	0x704
 3753 06fa 10       		.uleb128 0x10
 3754 06fb 01       		.uleb128 0x1
 3755 06fc 50       		.byte	0x50
 3756 06fd 05       		.uleb128 0x5
 3757 06fe 03       		.byte	0x3
 3758 06ff 30000000 		.4byte	.LC15
 3759 0703 00       		.byte	0
 3760 0704 0F       		.uleb128 0xf
 3761 0705 72000000 		.4byte	.LVL64
 3762 0709 691A0000 		.4byte	0x1a69
 3763 070d 1D070000 		.4byte	0x71d
 3764 0711 10       		.uleb128 0x10
 3765 0712 01       		.uleb128 0x1
 3766 0713 50       		.byte	0x50
 3767 0714 02       		.uleb128 0x2
 3768 0715 76       		.byte	0x76
 3769 0716 00       		.sleb128 0
 3770 0717 10       		.uleb128 0x10
 3771 0718 01       		.uleb128 0x1
 3772 0719 51       		.byte	0x51
 3773 071a 01       		.uleb128 0x1
 3774 071b 33       		.byte	0x33
 3775 071c 00       		.byte	0
 3776 071d 0F       		.uleb128 0xf
 3777 071e 98000000 		.4byte	.LVL65
 3778 0722 741A0000 		.4byte	0x1a74
 3779 0726 6A070000 		.4byte	0x76a
 3780 072a 10       		.uleb128 0x10
 3781 072b 01       		.uleb128 0x1
 3782 072c 50       		.byte	0x50
 3783 072d 02       		.uleb128 0x2
 3784 072e 74       		.byte	0x74
 3785 072f 00       		.sleb128 0
 3786 0730 10       		.uleb128 0x10
 3787 0731 01       		.uleb128 0x1
 3788 0732 51       		.byte	0x51
 3789 0733 01       		.uleb128 0x1
 3790 0734 45       		.byte	0x45
ARM GAS  C:\Users\HELLOK~1\AppData\Local\Temp\cc4szl9H.s 			page 82


 3791 0735 10       		.uleb128 0x10
 3792 0736 01       		.uleb128 0x1
 3793 0737 52       		.byte	0x52
 3794 0738 02       		.uleb128 0x2
 3795 0739 77       		.byte	0x77
 3796 073a 00       		.sleb128 0
 3797 073b 10       		.uleb128 0x10
 3798 073c 01       		.uleb128 0x1
 3799 073d 53       		.byte	0x53
 3800 073e 07       		.uleb128 0x7
 3801 073f 75       		.byte	0x75
 3802 0740 00       		.sleb128 0
 3803 0741 94       		.byte	0x94
 3804 0742 01       		.byte	0x1
 3805 0743 08       		.byte	0x8
 3806 0744 FF       		.byte	0xff
 3807 0745 1A       		.byte	0x1a
 3808 0746 10       		.uleb128 0x10
 3809 0747 02       		.uleb128 0x2
 3810 0748 7D       		.byte	0x7d
 3811 0749 00       		.sleb128 0
 3812 074a 02       		.uleb128 0x2
 3813 074b 78       		.byte	0x78
 3814 074c 00       		.sleb128 0
 3815 074d 10       		.uleb128 0x10
 3816 074e 02       		.uleb128 0x2
 3817 074f 7D       		.byte	0x7d
 3818 0750 04       		.sleb128 4
 3819 0751 03       		.uleb128 0x3
 3820 0752 75       		.byte	0x75
 3821 0753 04       		.sleb128 4
 3822 0754 06       		.byte	0x6
 3823 0755 10       		.uleb128 0x10
 3824 0756 02       		.uleb128 0x2
 3825 0757 7D       		.byte	0x7d
 3826 0758 08       		.sleb128 8
 3827 0759 03       		.uleb128 0x3
 3828 075a 91       		.byte	0x91
 3829 075b 10       		.sleb128 16
 3830 075c 06       		.byte	0x6
 3831 075d 10       		.uleb128 0x10
 3832 075e 02       		.uleb128 0x2
 3833 075f 7D       		.byte	0x7d
 3834 0760 0C       		.sleb128 12
 3835 0761 07       		.uleb128 0x7
 3836 0762 91       		.byte	0x91
 3837 0763 0C       		.sleb128 12
 3838 0764 94       		.byte	0x94
 3839 0765 01       		.byte	0x1
 3840 0766 08       		.byte	0x8
 3841 0767 FF       		.byte	0xff
 3842 0768 1A       		.byte	0x1a
 3843 0769 00       		.byte	0
 3844 076a 18       		.uleb128 0x18
 3845 076b A0000000 		.4byte	.LVL66
 3846 076f 7F1A0000 		.4byte	0x1a7f
 3847 0773 10       		.uleb128 0x10
ARM GAS  C:\Users\HELLOK~1\AppData\Local\Temp\cc4szl9H.s 			page 83


 3848 0774 01       		.uleb128 0x1
 3849 0775 50       		.byte	0x50
 3850 0776 02       		.uleb128 0x2
 3851 0777 74       		.byte	0x74
 3852 0778 00       		.sleb128 0
 3853 0779 00       		.byte	0
 3854 077a 00       		.byte	0
 3855 077b 15       		.uleb128 0x15
 3856 077c 9D000000 		.4byte	0x9d
 3857 0780 8B070000 		.4byte	0x78b
 3858 0784 16       		.uleb128 0x16
 3859 0785 B0000000 		.4byte	0xb0
 3860 0789 14       		.byte	0x14
 3861 078a 00       		.byte	0
 3862 078b 1A       		.uleb128 0x1a
 3863 078c CD020000 		.4byte	.LASF60
 3864 0790 01       		.byte	0x1
 3865 0791 0B01     		.2byte	0x10b
 3866 0793 00000000 		.4byte	.LFB43
 3867 0797 68000000 		.4byte	.LFE43-.LFB43
 3868 079b 01       		.uleb128 0x1
 3869 079c 9C       		.byte	0x9c
 3870 079d 6F080000 		.4byte	0x86f
 3871 07a1 1B       		.uleb128 0x1b
 3872 07a2 25010000 		.4byte	.LASF56
 3873 07a6 01       		.byte	0x1
 3874 07a7 0B01     		.2byte	0x10b
 3875 07a9 EA000000 		.4byte	0xea
 3876 07ad 02       		.uleb128 0x2
 3877 07ae 91       		.byte	0x91
 3878 07af 48       		.sleb128 -56
 3879 07b0 1B       		.uleb128 0x1b
 3880 07b1 10020000 		.4byte	.LASF58
 3881 07b5 01       		.byte	0x1
 3882 07b6 0B01     		.2byte	0x10b
 3883 07b8 1A010000 		.4byte	0x11a
 3884 07bc 02       		.uleb128 0x2
 3885 07bd 91       		.byte	0x91
 3886 07be 78       		.sleb128 -8
 3887 07bf 1C       		.uleb128 0x1c
 3888 07c0 CA040000 		.4byte	.LASF59
 3889 07c4 01       		.byte	0x1
 3890 07c5 0C01     		.2byte	0x10c
 3891 07c7 7B070000 		.4byte	0x77b
 3892 07cb 02       		.uleb128 0x2
 3893 07cc 91       		.byte	0x91
 3894 07cd 50       		.sleb128 -48
 3895 07ce 0F       		.uleb128 0xf
 3896 07cf 18000000 		.4byte	.LVL67
 3897 07d3 691A0000 		.4byte	0x1a69
 3898 07d7 E6070000 		.4byte	0x7e6
 3899 07db 10       		.uleb128 0x10
 3900 07dc 01       		.uleb128 0x1
 3901 07dd 50       		.byte	0x50
 3902 07de 01       		.uleb128 0x1
 3903 07df 30       		.byte	0x30
 3904 07e0 10       		.uleb128 0x10
ARM GAS  C:\Users\HELLOK~1\AppData\Local\Temp\cc4szl9H.s 			page 84


 3905 07e1 01       		.uleb128 0x1
 3906 07e2 51       		.byte	0x51
 3907 07e3 01       		.uleb128 0x1
 3908 07e4 32       		.byte	0x32
 3909 07e5 00       		.byte	0
 3910 07e6 0F       		.uleb128 0xf
 3911 07e7 1E000000 		.4byte	.LVL68
 3912 07eb 7F1A0000 		.4byte	0x1a7f
 3913 07ef FD070000 		.4byte	0x7fd
 3914 07f3 10       		.uleb128 0x10
 3915 07f4 01       		.uleb128 0x1
 3916 07f5 50       		.byte	0x50
 3917 07f6 05       		.uleb128 0x5
 3918 07f7 03       		.byte	0x3
 3919 07f8 30000000 		.4byte	.LC15
 3920 07fc 00       		.byte	0
 3921 07fd 0F       		.uleb128 0xf
 3922 07fe 26000000 		.4byte	.LVL69
 3923 0802 691A0000 		.4byte	0x1a69
 3924 0806 15080000 		.4byte	0x815
 3925 080a 10       		.uleb128 0x10
 3926 080b 01       		.uleb128 0x1
 3927 080c 50       		.byte	0x50
 3928 080d 01       		.uleb128 0x1
 3929 080e 30       		.byte	0x30
 3930 080f 10       		.uleb128 0x10
 3931 0810 01       		.uleb128 0x1
 3932 0811 51       		.byte	0x51
 3933 0812 01       		.uleb128 0x1
 3934 0813 33       		.byte	0x33
 3935 0814 00       		.byte	0
 3936 0815 0F       		.uleb128 0xf
 3937 0816 4C000000 		.4byte	.LVL70
 3938 081a 741A0000 		.4byte	0x1a74
 3939 081e 5E080000 		.4byte	0x85e
 3940 0822 10       		.uleb128 0x10
 3941 0823 01       		.uleb128 0x1
 3942 0824 50       		.byte	0x50
 3943 0825 02       		.uleb128 0x2
 3944 0826 75       		.byte	0x75
 3945 0827 00       		.sleb128 0
 3946 0828 10       		.uleb128 0x10
 3947 0829 01       		.uleb128 0x1
 3948 082a 51       		.byte	0x51
 3949 082b 01       		.uleb128 0x1
 3950 082c 45       		.byte	0x45
 3951 082d 10       		.uleb128 0x10
 3952 082e 01       		.uleb128 0x1
 3953 082f 52       		.byte	0x52
 3954 0830 05       		.uleb128 0x5
 3955 0831 03       		.byte	0x3
 3956 0832 00000000 		.4byte	.LC11
 3957 0836 10       		.uleb128 0x10
 3958 0837 01       		.uleb128 0x1
 3959 0838 53       		.byte	0x53
 3960 0839 07       		.uleb128 0x7
 3961 083a 74       		.byte	0x74
ARM GAS  C:\Users\HELLOK~1\AppData\Local\Temp\cc4szl9H.s 			page 85


 3962 083b 00       		.sleb128 0
 3963 083c 94       		.byte	0x94
 3964 083d 01       		.byte	0x1
 3965 083e 08       		.byte	0x8
 3966 083f FF       		.byte	0xff
 3967 0840 1A       		.byte	0x1a
 3968 0841 10       		.uleb128 0x10
 3969 0842 02       		.uleb128 0x2
 3970 0843 7D       		.byte	0x7d
 3971 0844 04       		.sleb128 4
 3972 0845 03       		.uleb128 0x3
 3973 0846 74       		.byte	0x74
 3974 0847 04       		.sleb128 4
 3975 0848 06       		.byte	0x6
 3976 0849 10       		.uleb128 0x10
 3977 084a 02       		.uleb128 0x2
 3978 084b 7D       		.byte	0x7d
 3979 084c 08       		.sleb128 8
 3980 084d 03       		.uleb128 0x3
 3981 084e 91       		.byte	0x91
 3982 084f 6C       		.sleb128 -20
 3983 0850 06       		.byte	0x6
 3984 0851 10       		.uleb128 0x10
 3985 0852 02       		.uleb128 0x2
 3986 0853 7D       		.byte	0x7d
 3987 0854 0C       		.sleb128 12
 3988 0855 07       		.uleb128 0x7
 3989 0856 91       		.byte	0x91
 3990 0857 68       		.sleb128 -24
 3991 0858 94       		.byte	0x94
 3992 0859 01       		.byte	0x1
 3993 085a 08       		.byte	0x8
 3994 085b FF       		.byte	0xff
 3995 085c 1A       		.byte	0x1a
 3996 085d 00       		.byte	0
 3997 085e 18       		.uleb128 0x18
 3998 085f 56000000 		.4byte	.LVL71
 3999 0863 7F1A0000 		.4byte	0x1a7f
 4000 0867 10       		.uleb128 0x10
 4001 0868 01       		.uleb128 0x1
 4002 0869 50       		.byte	0x50
 4003 086a 02       		.uleb128 0x2
 4004 086b 75       		.byte	0x75
 4005 086c 00       		.sleb128 0
 4006 086d 00       		.byte	0
 4007 086e 00       		.byte	0
 4008 086f 1A       		.uleb128 0x1a
 4009 0870 42040000 		.4byte	.LASF61
 4010 0874 01       		.byte	0x1
 4011 0875 1501     		.2byte	0x115
 4012 0877 00000000 		.4byte	.LFB44
 4013 087b 60000000 		.4byte	.LFE44-.LFB44
 4014 087f 01       		.uleb128 0x1
 4015 0880 9C       		.byte	0x9c
 4016 0881 3C090000 		.4byte	0x93c
 4017 0885 1B       		.uleb128 0x1b
 4018 0886 3F020000 		.4byte	.LASF55
ARM GAS  C:\Users\HELLOK~1\AppData\Local\Temp\cc4szl9H.s 			page 86


 4019 088a 01       		.byte	0x1
 4020 088b 1501     		.2byte	0x115
 4021 088d EA000000 		.4byte	0xea
 4022 0891 02       		.uleb128 0x2
 4023 0892 91       		.byte	0x91
 4024 0893 48       		.sleb128 -56
 4025 0894 1B       		.uleb128 0x1b
 4026 0895 8A020000 		.4byte	.LASF57
 4027 0899 01       		.byte	0x1
 4028 089a 1501     		.2byte	0x115
 4029 089c 1A010000 		.4byte	0x11a
 4030 08a0 02       		.uleb128 0x2
 4031 08a1 91       		.byte	0x91
 4032 08a2 78       		.sleb128 -8
 4033 08a3 1C       		.uleb128 0x1c
 4034 08a4 CA040000 		.4byte	.LASF59
 4035 08a8 01       		.byte	0x1
 4036 08a9 1701     		.2byte	0x117
 4037 08ab 7B070000 		.4byte	0x77b
 4038 08af 02       		.uleb128 0x2
 4039 08b0 91       		.byte	0x91
 4040 08b1 50       		.sleb128 -48
 4041 08b2 0F       		.uleb128 0xf
 4042 08b3 18000000 		.4byte	.LVL72
 4043 08b7 691A0000 		.4byte	0x1a69
 4044 08bb CA080000 		.4byte	0x8ca
 4045 08bf 10       		.uleb128 0x10
 4046 08c0 01       		.uleb128 0x1
 4047 08c1 50       		.byte	0x50
 4048 08c2 01       		.uleb128 0x1
 4049 08c3 30       		.byte	0x30
 4050 08c4 10       		.uleb128 0x10
 4051 08c5 01       		.uleb128 0x1
 4052 08c6 51       		.byte	0x51
 4053 08c7 01       		.uleb128 0x1
 4054 08c8 30       		.byte	0x30
 4055 08c9 00       		.byte	0
 4056 08ca 0F       		.uleb128 0xf
 4057 08cb 3E000000 		.4byte	.LVL73
 4058 08cf 741A0000 		.4byte	0x1a74
 4059 08d3 13090000 		.4byte	0x913
 4060 08d7 10       		.uleb128 0x10
 4061 08d8 01       		.uleb128 0x1
 4062 08d9 50       		.byte	0x50
 4063 08da 02       		.uleb128 0x2
 4064 08db 75       		.byte	0x75
 4065 08dc 00       		.sleb128 0
 4066 08dd 10       		.uleb128 0x10
 4067 08de 01       		.uleb128 0x1
 4068 08df 51       		.byte	0x51
 4069 08e0 01       		.uleb128 0x1
 4070 08e1 45       		.byte	0x45
 4071 08e2 10       		.uleb128 0x10
 4072 08e3 01       		.uleb128 0x1
 4073 08e4 52       		.byte	0x52
 4074 08e5 05       		.uleb128 0x5
 4075 08e6 03       		.byte	0x3
ARM GAS  C:\Users\HELLOK~1\AppData\Local\Temp\cc4szl9H.s 			page 87


 4076 08e7 00000000 		.4byte	.LC11
 4077 08eb 10       		.uleb128 0x10
 4078 08ec 01       		.uleb128 0x1
 4079 08ed 53       		.byte	0x53
 4080 08ee 07       		.uleb128 0x7
 4081 08ef 74       		.byte	0x74
 4082 08f0 00       		.sleb128 0
 4083 08f1 94       		.byte	0x94
 4084 08f2 01       		.byte	0x1
 4085 08f3 08       		.byte	0x8
 4086 08f4 FF       		.byte	0xff
 4087 08f5 1A       		.byte	0x1a
 4088 08f6 10       		.uleb128 0x10
 4089 08f7 02       		.uleb128 0x2
 4090 08f8 7D       		.byte	0x7d
 4091 08f9 04       		.sleb128 4
 4092 08fa 03       		.uleb128 0x3
 4093 08fb 74       		.byte	0x74
 4094 08fc 04       		.sleb128 4
 4095 08fd 06       		.byte	0x6
 4096 08fe 10       		.uleb128 0x10
 4097 08ff 02       		.uleb128 0x2
 4098 0900 7D       		.byte	0x7d
 4099 0901 08       		.sleb128 8
 4100 0902 03       		.uleb128 0x3
 4101 0903 91       		.byte	0x91
 4102 0904 6C       		.sleb128 -20
 4103 0905 06       		.byte	0x6
 4104 0906 10       		.uleb128 0x10
 4105 0907 02       		.uleb128 0x2
 4106 0908 7D       		.byte	0x7d
 4107 0909 0C       		.sleb128 12
 4108 090a 07       		.uleb128 0x7
 4109 090b 91       		.byte	0x91
 4110 090c 68       		.sleb128 -24
 4111 090d 94       		.byte	0x94
 4112 090e 01       		.byte	0x1
 4113 090f 08       		.byte	0x8
 4114 0910 FF       		.byte	0xff
 4115 0911 1A       		.byte	0x1a
 4116 0912 00       		.byte	0
 4117 0913 0F       		.uleb128 0xf
 4118 0914 48000000 		.4byte	.LVL74
 4119 0918 7F1A0000 		.4byte	0x1a7f
 4120 091c 27090000 		.4byte	0x927
 4121 0920 10       		.uleb128 0x10
 4122 0921 01       		.uleb128 0x1
 4123 0922 50       		.byte	0x50
 4124 0923 02       		.uleb128 0x2
 4125 0924 75       		.byte	0x75
 4126 0925 00       		.sleb128 0
 4127 0926 00       		.byte	0
 4128 0927 18       		.uleb128 0x18
 4129 0928 50000000 		.4byte	.LVL75
 4130 092c 691A0000 		.4byte	0x1a69
 4131 0930 10       		.uleb128 0x10
 4132 0931 01       		.uleb128 0x1
ARM GAS  C:\Users\HELLOK~1\AppData\Local\Temp\cc4szl9H.s 			page 88


 4133 0932 50       		.byte	0x50
 4134 0933 01       		.uleb128 0x1
 4135 0934 30       		.byte	0x30
 4136 0935 10       		.uleb128 0x10
 4137 0936 01       		.uleb128 0x1
 4138 0937 51       		.byte	0x51
 4139 0938 01       		.uleb128 0x1
 4140 0939 31       		.byte	0x31
 4141 093a 00       		.byte	0
 4142 093b 00       		.byte	0
 4143 093c 1D       		.uleb128 0x1d
 4144 093d 68020000 		.4byte	.LASF63
 4145 0941 01       		.byte	0x1
 4146 0942 1D01     		.2byte	0x11d
 4147 0944 00000000 		.4byte	.LFB45
 4148 0948 D4000000 		.4byte	.LFE45-.LFB45
 4149 094c 01       		.uleb128 0x1
 4150 094d 9C       		.byte	0x9c
 4151 094e F30A0000 		.4byte	0xaf3
 4152 0952 1C       		.uleb128 0x1c
 4153 0953 CA040000 		.4byte	.LASF59
 4154 0957 01       		.byte	0x1
 4155 0958 1E01     		.2byte	0x11e
 4156 095a 7B070000 		.4byte	0x77b
 4157 095e 02       		.uleb128 0x2
 4158 095f 91       		.byte	0x91
 4159 0960 50       		.sleb128 -48
 4160 0961 1C       		.uleb128 0x1c
 4161 0962 25010000 		.4byte	.LASF56
 4162 0966 01       		.byte	0x1
 4163 0967 1F01     		.2byte	0x11f
 4164 0969 EA000000 		.4byte	0xea
 4165 096d 02       		.uleb128 0x2
 4166 096e 91       		.byte	0x91
 4167 096f 48       		.sleb128 -56
 4168 0970 1E       		.uleb128 0x1e
 4169 0971 64617900 		.ascii	"day\000"
 4170 0975 01       		.byte	0x1
 4171 0976 2001     		.2byte	0x120
 4172 0978 33040000 		.4byte	0x433
 4173 097c 02       		.uleb128 0x2
 4174 097d 91       		.byte	0x91
 4175 097e 44       		.sleb128 -60
 4176 097f 1C       		.uleb128 0x1c
 4177 0980 48020000 		.4byte	.LASF21
 4178 0984 01       		.byte	0x1
 4179 0985 2201     		.2byte	0x122
 4180 0987 33040000 		.4byte	0x433
 4181 098b 02       		.uleb128 0x2
 4182 098c 91       		.byte	0x91
 4183 098d 40       		.sleb128 -64
 4184 098e 1C       		.uleb128 0x1c
 4185 098f 69050000 		.4byte	.LASF22
 4186 0993 01       		.byte	0x1
 4187 0994 2401     		.2byte	0x124
 4188 0996 33040000 		.4byte	0x433
 4189 099a 03       		.uleb128 0x3
ARM GAS  C:\Users\HELLOK~1\AppData\Local\Temp\cc4szl9H.s 			page 89


 4190 099b 91       		.byte	0x91
 4191 099c BC7F     		.sleb128 -68
 4192 099e 1F       		.uleb128 0x1f
 4193 099f 10020000 		.4byte	.LASF58
 4194 09a3 01       		.byte	0x1
 4195 09a4 2601     		.2byte	0x126
 4196 09a6 1A010000 		.4byte	0x11a
 4197 09aa 0F       		.uleb128 0xf
 4198 09ab 2A000000 		.4byte	.LVL76
 4199 09af 66030000 		.4byte	0x366
 4200 09b3 C9090000 		.4byte	0x9c9
 4201 09b7 10       		.uleb128 0x10
 4202 09b8 01       		.uleb128 0x1
 4203 09b9 50       		.byte	0x50
 4204 09ba 02       		.uleb128 0x2
 4205 09bb 76       		.byte	0x76
 4206 09bc 00       		.sleb128 0
 4207 09bd 10       		.uleb128 0x10
 4208 09be 01       		.uleb128 0x1
 4209 09bf 51       		.byte	0x51
 4210 09c0 01       		.uleb128 0x1
 4211 09c1 31       		.byte	0x31
 4212 09c2 10       		.uleb128 0x10
 4213 09c3 01       		.uleb128 0x1
 4214 09c4 52       		.byte	0x52
 4215 09c5 02       		.uleb128 0x2
 4216 09c6 08       		.byte	0x8
 4217 09c7 51       		.byte	0x51
 4218 09c8 00       		.byte	0
 4219 09c9 0F       		.uleb128 0xf
 4220 09ca 3A000000 		.4byte	.LVL77
 4221 09ce 66030000 		.4byte	0x366
 4222 09d2 E8090000 		.4byte	0x9e8
 4223 09d6 10       		.uleb128 0x10
 4224 09d7 01       		.uleb128 0x1
 4225 09d8 50       		.byte	0x50
 4226 09d9 02       		.uleb128 0x2
 4227 09da 78       		.byte	0x78
 4228 09db 00       		.sleb128 0
 4229 09dc 10       		.uleb128 0x10
 4230 09dd 01       		.uleb128 0x1
 4231 09de 51       		.byte	0x51
 4232 09df 01       		.uleb128 0x1
 4233 09e0 31       		.byte	0x31
 4234 09e1 10       		.uleb128 0x10
 4235 09e2 01       		.uleb128 0x1
 4236 09e3 52       		.byte	0x52
 4237 09e4 02       		.uleb128 0x2
 4238 09e5 08       		.byte	0x8
 4239 09e6 51       		.byte	0x51
 4240 09e7 00       		.byte	0
 4241 09e8 0F       		.uleb128 0xf
 4242 09e9 48000000 		.4byte	.LVL78
 4243 09ed 66030000 		.4byte	0x366
 4244 09f1 070A0000 		.4byte	0xa07
 4245 09f5 10       		.uleb128 0x10
 4246 09f6 01       		.uleb128 0x1
ARM GAS  C:\Users\HELLOK~1\AppData\Local\Temp\cc4szl9H.s 			page 90


 4247 09f7 50       		.byte	0x50
 4248 09f8 02       		.uleb128 0x2
 4249 09f9 77       		.byte	0x77
 4250 09fa 00       		.sleb128 0
 4251 09fb 10       		.uleb128 0x10
 4252 09fc 01       		.uleb128 0x1
 4253 09fd 51       		.byte	0x51
 4254 09fe 01       		.uleb128 0x1
 4255 09ff 31       		.byte	0x31
 4256 0a00 10       		.uleb128 0x10
 4257 0a01 01       		.uleb128 0x1
 4258 0a02 52       		.byte	0x52
 4259 0a03 02       		.uleb128 0x2
 4260 0a04 08       		.byte	0x8
 4261 0a05 51       		.byte	0x51
 4262 0a06 00       		.byte	0
 4263 0a07 11       		.uleb128 0x11
 4264 0a08 4E000000 		.4byte	.LVL79
 4265 0a0c 14030000 		.4byte	0x314
 4266 0a10 11       		.uleb128 0x11
 4267 0a11 58000000 		.4byte	.LVL80
 4268 0a15 14030000 		.4byte	0x314
 4269 0a19 11       		.uleb128 0x11
 4270 0a1a 68000000 		.4byte	.LVL81
 4271 0a1e 14030000 		.4byte	0x314
 4272 0a22 0F       		.uleb128 0xf
 4273 0a23 72000000 		.4byte	.LVL82
 4274 0a27 691A0000 		.4byte	0x1a69
 4275 0a2b 3A0A0000 		.4byte	0xa3a
 4276 0a2f 10       		.uleb128 0x10
 4277 0a30 01       		.uleb128 0x1
 4278 0a31 50       		.byte	0x50
 4279 0a32 01       		.uleb128 0x1
 4280 0a33 30       		.byte	0x30
 4281 0a34 10       		.uleb128 0x10
 4282 0a35 01       		.uleb128 0x1
 4283 0a36 51       		.byte	0x51
 4284 0a37 01       		.uleb128 0x1
 4285 0a38 31       		.byte	0x31
 4286 0a39 00       		.byte	0
 4287 0a3a 0F       		.uleb128 0xf
 4288 0a3b 78000000 		.4byte	.LVL83
 4289 0a3f 7F1A0000 		.4byte	0x1a7f
 4290 0a43 510A0000 		.4byte	0xa51
 4291 0a47 10       		.uleb128 0x10
 4292 0a48 01       		.uleb128 0x1
 4293 0a49 50       		.byte	0x50
 4294 0a4a 05       		.uleb128 0x5
 4295 0a4b 03       		.byte	0x3
 4296 0a4c 18000000 		.4byte	.LC13
 4297 0a50 00       		.byte	0
 4298 0a51 0F       		.uleb128 0xf
 4299 0a52 80000000 		.4byte	.LVL84
 4300 0a56 691A0000 		.4byte	0x1a69
 4301 0a5a 690A0000 		.4byte	0xa69
 4302 0a5e 10       		.uleb128 0x10
 4303 0a5f 01       		.uleb128 0x1
ARM GAS  C:\Users\HELLOK~1\AppData\Local\Temp\cc4szl9H.s 			page 91


 4304 0a60 50       		.byte	0x50
 4305 0a61 01       		.uleb128 0x1
 4306 0a62 30       		.byte	0x30
 4307 0a63 10       		.uleb128 0x10
 4308 0a64 01       		.uleb128 0x1
 4309 0a65 51       		.byte	0x51
 4310 0a66 01       		.uleb128 0x1
 4311 0a67 32       		.byte	0x32
 4312 0a68 00       		.byte	0
 4313 0a69 0F       		.uleb128 0xf
 4314 0a6a 86000000 		.4byte	.LVL85
 4315 0a6e 7F1A0000 		.4byte	0x1a7f
 4316 0a72 800A0000 		.4byte	0xa80
 4317 0a76 10       		.uleb128 0x10
 4318 0a77 01       		.uleb128 0x1
 4319 0a78 50       		.byte	0x50
 4320 0a79 05       		.uleb128 0x5
 4321 0a7a 03       		.byte	0x3
 4322 0a7b 44000000 		.4byte	.LC23
 4323 0a7f 00       		.byte	0
 4324 0a80 0F       		.uleb128 0xf
 4325 0a81 8E000000 		.4byte	.LVL86
 4326 0a85 691A0000 		.4byte	0x1a69
 4327 0a89 980A0000 		.4byte	0xa98
 4328 0a8d 10       		.uleb128 0x10
 4329 0a8e 01       		.uleb128 0x1
 4330 0a8f 50       		.byte	0x50
 4331 0a90 01       		.uleb128 0x1
 4332 0a91 30       		.byte	0x30
 4333 0a92 10       		.uleb128 0x10
 4334 0a93 01       		.uleb128 0x1
 4335 0a94 51       		.byte	0x51
 4336 0a95 01       		.uleb128 0x1
 4337 0a96 33       		.byte	0x33
 4338 0a97 00       		.byte	0
 4339 0a98 0F       		.uleb128 0xf
 4340 0a99 AC000000 		.4byte	.LVL87
 4341 0a9d 741A0000 		.4byte	0x1a74
 4342 0aa1 E20A0000 		.4byte	0xae2
 4343 0aa5 10       		.uleb128 0x10
 4344 0aa6 01       		.uleb128 0x1
 4345 0aa7 50       		.byte	0x50
 4346 0aa8 02       		.uleb128 0x2
 4347 0aa9 75       		.byte	0x75
 4348 0aaa 00       		.sleb128 0
 4349 0aab 10       		.uleb128 0x10
 4350 0aac 01       		.uleb128 0x1
 4351 0aad 51       		.byte	0x51
 4352 0aae 01       		.uleb128 0x1
 4353 0aaf 45       		.byte	0x45
 4354 0ab0 10       		.uleb128 0x10
 4355 0ab1 01       		.uleb128 0x1
 4356 0ab2 52       		.byte	0x52
 4357 0ab3 05       		.uleb128 0x5
 4358 0ab4 03       		.byte	0x3
 4359 0ab5 00000000 		.4byte	.LC11
 4360 0ab9 10       		.uleb128 0x10
ARM GAS  C:\Users\HELLOK~1\AppData\Local\Temp\cc4szl9H.s 			page 92


 4361 0aba 01       		.uleb128 0x1
 4362 0abb 53       		.byte	0x53
 4363 0abc 07       		.uleb128 0x7
 4364 0abd 74       		.byte	0x74
 4365 0abe 00       		.sleb128 0
 4366 0abf 94       		.byte	0x94
 4367 0ac0 01       		.byte	0x1
 4368 0ac1 08       		.byte	0x8
 4369 0ac2 FF       		.byte	0xff
 4370 0ac3 1A       		.byte	0x1a
 4371 0ac4 10       		.uleb128 0x10
 4372 0ac5 02       		.uleb128 0x2
 4373 0ac6 7D       		.byte	0x7d
 4374 0ac7 04       		.sleb128 4
 4375 0ac8 03       		.uleb128 0x3
 4376 0ac9 74       		.byte	0x74
 4377 0aca 04       		.sleb128 4
 4378 0acb 06       		.byte	0x6
 4379 0acc 10       		.uleb128 0x10
 4380 0acd 02       		.uleb128 0x2
 4381 0ace 7D       		.byte	0x7d
 4382 0acf 08       		.sleb128 8
 4383 0ad0 02       		.uleb128 0x2
 4384 0ad1 78       		.byte	0x78
 4385 0ad2 00       		.sleb128 0
 4386 0ad3 10       		.uleb128 0x10
 4387 0ad4 02       		.uleb128 0x2
 4388 0ad5 7D       		.byte	0x7d
 4389 0ad6 0C       		.sleb128 12
 4390 0ad7 02       		.uleb128 0x2
 4391 0ad8 76       		.byte	0x76
 4392 0ad9 00       		.sleb128 0
 4393 0ada 10       		.uleb128 0x10
 4394 0adb 02       		.uleb128 0x2
 4395 0adc 7D       		.byte	0x7d
 4396 0add 10       		.sleb128 16
 4397 0ade 02       		.uleb128 0x2
 4398 0adf 77       		.byte	0x77
 4399 0ae0 00       		.sleb128 0
 4400 0ae1 00       		.byte	0
 4401 0ae2 18       		.uleb128 0x18
 4402 0ae3 B6000000 		.4byte	.LVL88
 4403 0ae7 7F1A0000 		.4byte	0x1a7f
 4404 0aeb 10       		.uleb128 0x10
 4405 0aec 01       		.uleb128 0x1
 4406 0aed 50       		.byte	0x50
 4407 0aee 02       		.uleb128 0x2
 4408 0aef 75       		.byte	0x75
 4409 0af0 00       		.sleb128 0
 4410 0af1 00       		.byte	0
 4411 0af2 00       		.byte	0
 4412 0af3 1D       		.uleb128 0x1d
 4413 0af4 10000000 		.4byte	.LASF64
 4414 0af8 01       		.byte	0x1
 4415 0af9 3001     		.2byte	0x130
 4416 0afb 00000000 		.4byte	.LFB46
 4417 0aff B0000000 		.4byte	.LFE46-.LFB46
ARM GAS  C:\Users\HELLOK~1\AppData\Local\Temp\cc4szl9H.s 			page 93


 4418 0b03 01       		.uleb128 0x1
 4419 0b04 9C       		.byte	0x9c
 4420 0b05 490C0000 		.4byte	0xc49
 4421 0b09 20       		.uleb128 0x20
 4422 0b0a 02000000 		.4byte	.LBB2
 4423 0b0e 24000000 		.4byte	.LBE2-.LBB2
 4424 0b12 2E0B0000 		.4byte	0xb2e
 4425 0b16 21       		.uleb128 0x21
 4426 0b17 6900     		.ascii	"i\000"
 4427 0b19 01       		.byte	0x1
 4428 0b1a 3101     		.2byte	0x131
 4429 0b1c 5D000000 		.4byte	0x5d
 4430 0b20 DE010000 		.4byte	.LLST12
 4431 0b24 11       		.uleb128 0x11
 4432 0b25 0E000000 		.4byte	.LVL91
 4433 0b29 96020000 		.4byte	0x296
 4434 0b2d 00       		.byte	0
 4435 0b2e 20       		.uleb128 0x20
 4436 0b2f 50000000 		.4byte	.LBB3
 4437 0b33 52000000 		.4byte	.LBE3-.LBB3
 4438 0b37 D20B0000 		.4byte	0xbd2
 4439 0b3b 21       		.uleb128 0x21
 4440 0b3c 6B00     		.ascii	"k\000"
 4441 0b3e 01       		.byte	0x1
 4442 0b3f 3E01     		.2byte	0x13e
 4443 0b41 5D000000 		.4byte	0x5d
 4444 0b45 FD010000 		.4byte	.LLST13
 4445 0b49 20       		.uleb128 0x20
 4446 0b4a 6C000000 		.4byte	.LBB4
 4447 0b4e 20000000 		.4byte	.LBE4-.LBB4
 4448 0b52 9C0B0000 		.4byte	0xb9c
 4449 0b56 21       		.uleb128 0x21
 4450 0b57 6900     		.ascii	"i\000"
 4451 0b59 01       		.byte	0x1
 4452 0b5a 4501     		.2byte	0x145
 4453 0b5c 5D000000 		.4byte	0x5d
 4454 0b60 1C020000 		.4byte	.LLST14
 4455 0b64 22       		.uleb128 0x22
 4456 0b65 00000000 		.4byte	.Ldebug_ranges0+0
 4457 0b69 21       		.uleb128 0x21
 4458 0b6a 6A00     		.ascii	"j\000"
 4459 0b6c 01       		.byte	0x1
 4460 0b6d 4601     		.2byte	0x146
 4461 0b6f 5D000000 		.4byte	0x5d
 4462 0b73 2F020000 		.4byte	.LLST15
 4463 0b77 0F       		.uleb128 0xf
 4464 0b78 76000000 		.4byte	.LVL104
 4465 0b7c 8A1A0000 		.4byte	0x1a8a
 4466 0b80 8B0B0000 		.4byte	0xb8b
 4467 0b84 10       		.uleb128 0x10
 4468 0b85 01       		.uleb128 0x1
 4469 0b86 50       		.byte	0x50
 4470 0b87 02       		.uleb128 0x2
 4471 0b88 74       		.byte	0x74
 4472 0b89 00       		.sleb128 0
 4473 0b8a 00       		.byte	0
 4474 0b8b 18       		.uleb128 0x18
ARM GAS  C:\Users\HELLOK~1\AppData\Local\Temp\cc4szl9H.s 			page 94


 4475 0b8c 7C000000 		.4byte	.LVL105
 4476 0b90 951A0000 		.4byte	0x1a95
 4477 0b94 10       		.uleb128 0x10
 4478 0b95 01       		.uleb128 0x1
 4479 0b96 50       		.byte	0x50
 4480 0b97 01       		.uleb128 0x1
 4481 0b98 31       		.byte	0x31
 4482 0b99 00       		.byte	0
 4483 0b9a 00       		.byte	0
 4484 0b9b 00       		.byte	0
 4485 0b9c 11       		.uleb128 0x11
 4486 0b9d 60000000 		.4byte	.LVL101
 4487 0ba1 A01A0000 		.4byte	0x1aa0
 4488 0ba5 11       		.uleb128 0x11
 4489 0ba6 6C000000 		.4byte	.LVL102
 4490 0baa AC1A0000 		.4byte	0x1aac
 4491 0bae 11       		.uleb128 0x11
 4492 0baf 90000000 		.4byte	.LVL110
 4493 0bb3 B81A0000 		.4byte	0x1ab8
 4494 0bb7 11       		.uleb128 0x11
 4495 0bb8 94000000 		.4byte	.LVL111
 4496 0bbc C41A0000 		.4byte	0x1ac4
 4497 0bc0 18       		.uleb128 0x18
 4498 0bc1 9C000000 		.4byte	.LVL112
 4499 0bc5 951A0000 		.4byte	0x1a95
 4500 0bc9 10       		.uleb128 0x10
 4501 0bca 01       		.uleb128 0x1
 4502 0bcb 50       		.byte	0x50
 4503 0bcc 03       		.uleb128 0x3
 4504 0bcd 0A       		.byte	0xa
 4505 0bce 2C01     		.2byte	0x12c
 4506 0bd0 00       		.byte	0
 4507 0bd1 00       		.byte	0
 4508 0bd2 0F       		.uleb128 0xf
 4509 0bd3 2C000000 		.4byte	.LVL93
 4510 0bd7 231A0000 		.4byte	0x1a23
 4511 0bdb E50B0000 		.4byte	0xbe5
 4512 0bdf 10       		.uleb128 0x10
 4513 0be0 01       		.uleb128 0x1
 4514 0be1 50       		.byte	0x50
 4515 0be2 01       		.uleb128 0x1
 4516 0be3 30       		.byte	0x30
 4517 0be4 00       		.byte	0
 4518 0be5 0F       		.uleb128 0xf
 4519 0be6 36000000 		.4byte	.LVL94
 4520 0bea D01A0000 		.4byte	0x1ad0
 4521 0bee F90B0000 		.4byte	0xbf9
 4522 0bf2 10       		.uleb128 0x10
 4523 0bf3 01       		.uleb128 0x1
 4524 0bf4 50       		.byte	0x50
 4525 0bf5 02       		.uleb128 0x2
 4526 0bf6 74       		.byte	0x74
 4527 0bf7 00       		.sleb128 0
 4528 0bf8 00       		.byte	0
 4529 0bf9 0F       		.uleb128 0xf
 4530 0bfa 3C000000 		.4byte	.LVL95
 4531 0bfe DC1A0000 		.4byte	0x1adc
ARM GAS  C:\Users\HELLOK~1\AppData\Local\Temp\cc4szl9H.s 			page 95


 4532 0c02 0D0C0000 		.4byte	0xc0d
 4533 0c06 10       		.uleb128 0x10
 4534 0c07 01       		.uleb128 0x1
 4535 0c08 50       		.byte	0x50
 4536 0c09 02       		.uleb128 0x2
 4537 0c0a 74       		.byte	0x74
 4538 0c0b 00       		.sleb128 0
 4539 0c0c 00       		.byte	0
 4540 0c0d 11       		.uleb128 0x11
 4541 0c0e 40000000 		.4byte	.LVL96
 4542 0c12 A01A0000 		.4byte	0x1aa0
 4543 0c16 0F       		.uleb128 0xf
 4544 0c17 46000000 		.4byte	.LVL97
 4545 0c1b E81A0000 		.4byte	0x1ae8
 4546 0c1f 2B0C0000 		.4byte	0xc2b
 4547 0c23 10       		.uleb128 0x10
 4548 0c24 01       		.uleb128 0x1
 4549 0c25 50       		.byte	0x50
 4550 0c26 03       		.uleb128 0x3
 4551 0c27 0A       		.byte	0xa
 4552 0c28 EE02     		.2byte	0x2ee
 4553 0c2a 00       		.byte	0
 4554 0c2b 0F       		.uleb128 0xf
 4555 0c2c 4C000000 		.4byte	.LVL98
 4556 0c30 F41A0000 		.4byte	0x1af4
 4557 0c34 3F0C0000 		.4byte	0xc3f
 4558 0c38 10       		.uleb128 0x10
 4559 0c39 01       		.uleb128 0x1
 4560 0c3a 50       		.byte	0x50
 4561 0c3b 02       		.uleb128 0x2
 4562 0c3c 08       		.byte	0x8
 4563 0c3d 32       		.byte	0x32
 4564 0c3e 00       		.byte	0
 4565 0c3f 11       		.uleb128 0x11
 4566 0c40 50000000 		.4byte	.LVL99
 4567 0c44 C41A0000 		.4byte	0x1ac4
 4568 0c48 00       		.byte	0
 4569 0c49 1D       		.uleb128 0x1d
 4570 0c4a EF040000 		.4byte	.LASF65
 4571 0c4e 01       		.byte	0x1
 4572 0c4f 5201     		.2byte	0x152
 4573 0c51 00000000 		.4byte	.LFB47
 4574 0c55 6C040000 		.4byte	.LFE47-.LFB47
 4575 0c59 01       		.uleb128 0x1
 4576 0c5a 9C       		.byte	0x9c
 4577 0c5b 9E130000 		.4byte	0x139e
 4578 0c5f 1C       		.uleb128 0x1c
 4579 0c60 31060000 		.4byte	.LASF66
 4580 0c64 01       		.byte	0x1
 4581 0c65 5601     		.2byte	0x156
 4582 0c67 7B070000 		.4byte	0x77b
 4583 0c6b 02       		.uleb128 0x2
 4584 0c6c 91       		.byte	0x91
 4585 0c6d 40       		.sleb128 -64
 4586 0c6e 1F       		.uleb128 0x1f
 4587 0c6f 25010000 		.4byte	.LASF56
 4588 0c73 01       		.byte	0x1
ARM GAS  C:\Users\HELLOK~1\AppData\Local\Temp\cc4szl9H.s 			page 96


 4589 0c74 5701     		.2byte	0x157
 4590 0c76 EA000000 		.4byte	0xea
 4591 0c7a 1E       		.uleb128 0x1e
 4592 0c7b 64617900 		.ascii	"day\000"
 4593 0c7f 01       		.byte	0x1
 4594 0c80 5801     		.2byte	0x158
 4595 0c82 33040000 		.4byte	0x433
 4596 0c86 03       		.uleb128 0x3
 4597 0c87 91       		.byte	0x91
 4598 0c88 BC7F     		.sleb128 -68
 4599 0c8a 1C       		.uleb128 0x1c
 4600 0c8b 48020000 		.4byte	.LASF21
 4601 0c8f 01       		.byte	0x1
 4602 0c90 5A01     		.2byte	0x15a
 4603 0c92 33040000 		.4byte	0x433
 4604 0c96 03       		.uleb128 0x3
 4605 0c97 91       		.byte	0x91
 4606 0c98 B87F     		.sleb128 -72
 4607 0c9a 1C       		.uleb128 0x1c
 4608 0c9b 69050000 		.4byte	.LASF22
 4609 0c9f 01       		.byte	0x1
 4610 0ca0 5C01     		.2byte	0x15c
 4611 0ca2 33040000 		.4byte	0x433
 4612 0ca6 03       		.uleb128 0x3
 4613 0ca7 91       		.byte	0x91
 4614 0ca8 B47F     		.sleb128 -76
 4615 0caa 1F       		.uleb128 0x1f
 4616 0cab 8A020000 		.4byte	.LASF57
 4617 0caf 01       		.byte	0x1
 4618 0cb0 5E01     		.2byte	0x15e
 4619 0cb2 1A010000 		.4byte	0x11a
 4620 0cb6 1C       		.uleb128 0x1c
 4621 0cb7 32020000 		.4byte	.LASF67
 4622 0cbb 01       		.byte	0x1
 4623 0cbc 5F01     		.2byte	0x15f
 4624 0cbe 1A010000 		.4byte	0x11a
 4625 0cc2 03       		.uleb128 0x3
 4626 0cc3 91       		.byte	0x91
 4627 0cc4 A87F     		.sleb128 -88
 4628 0cc6 23       		.uleb128 0x23
 4629 0cc7 44000000 		.4byte	.LASF68
 4630 0ccb 01       		.byte	0x1
 4631 0ccc 6001     		.2byte	0x160
 4632 0cce 5D000000 		.4byte	0x5d
 4633 0cd2 4D020000 		.4byte	.LLST16
 4634 0cd6 23       		.uleb128 0x23
 4635 0cd7 25060000 		.4byte	.LASF69
 4636 0cdb 01       		.byte	0x1
 4637 0cdc 7B01     		.2byte	0x17b
 4638 0cde 6B000000 		.4byte	0x6b
 4639 0ce2 F2020000 		.4byte	.LLST17
 4640 0ce6 1E       		.uleb128 0x1e
 4641 0ce7 6D696E00 		.ascii	"min\000"
 4642 0ceb 01       		.byte	0x1
 4643 0cec BD01     		.2byte	0x1bd
 4644 0cee 33040000 		.4byte	0x433
 4645 0cf2 03       		.uleb128 0x3
ARM GAS  C:\Users\HELLOK~1\AppData\Local\Temp\cc4szl9H.s 			page 97


 4646 0cf3 91       		.byte	0x91
 4647 0cf4 A47F     		.sleb128 -92
 4648 0cf6 1C       		.uleb128 0x1c
 4649 0cf7 85020000 		.4byte	.LASF18
 4650 0cfb 01       		.byte	0x1
 4651 0cfc BF01     		.2byte	0x1bf
 4652 0cfe 33040000 		.4byte	0x433
 4653 0d02 03       		.uleb128 0x3
 4654 0d03 91       		.byte	0x91
 4655 0d04 A07F     		.sleb128 -96
 4656 0d06 1C       		.uleb128 0x1c
 4657 0d07 91050000 		.4byte	.LASF70
 4658 0d0b 01       		.byte	0x1
 4659 0d0c C101     		.2byte	0x1c1
 4660 0d0e EA000000 		.4byte	0xea
 4661 0d12 03       		.uleb128 0x3
 4662 0d13 91       		.byte	0x91
 4663 0d14 987F     		.sleb128 -104
 4664 0d16 1C       		.uleb128 0x1c
 4665 0d17 AF040000 		.4byte	.LASF71
 4666 0d1b 01       		.byte	0x1
 4667 0d1c C201     		.2byte	0x1c2
 4668 0d1e EA000000 		.4byte	0xea
 4669 0d22 03       		.uleb128 0x3
 4670 0d23 91       		.byte	0x91
 4671 0d24 907F     		.sleb128 -112
 4672 0d26 1C       		.uleb128 0x1c
 4673 0d27 87000000 		.4byte	.LASF53
 4674 0d2b 01       		.byte	0x1
 4675 0d2c 2A02     		.2byte	0x22a
 4676 0d2e C7050000 		.4byte	0x5c7
 4677 0d32 03       		.uleb128 0x3
 4678 0d33 91       		.byte	0x91
 4679 0d34 8C7F     		.sleb128 -116
 4680 0d36 20       		.uleb128 0x20
 4681 0d37 F8000000 		.4byte	.LBB7
 4682 0d3b 44000000 		.4byte	.LBE7-.LBB7
 4683 0d3f A60D0000 		.4byte	0xda6
 4684 0d43 1C       		.uleb128 0x1c
 4685 0d44 5B010000 		.4byte	.LASF72
 4686 0d48 01       		.byte	0x1
 4687 0d49 9501     		.2byte	0x195
 4688 0d4b 9E130000 		.4byte	0x139e
 4689 0d4f 03       		.uleb128 0x3
 4690 0d50 91       		.byte	0x91
 4691 0d51 847F     		.sleb128 -124
 4692 0d53 0F       		.uleb128 0xf
 4693 0d54 2A010000 		.4byte	.LVL144
 4694 0d58 691A0000 		.4byte	0x1a69
 4695 0d5c 6B0D0000 		.4byte	0xd6b
 4696 0d60 10       		.uleb128 0x10
 4697 0d61 01       		.uleb128 0x1
 4698 0d62 50       		.byte	0x50
 4699 0d63 01       		.uleb128 0x1
 4700 0d64 34       		.byte	0x34
 4701 0d65 10       		.uleb128 0x10
 4702 0d66 01       		.uleb128 0x1
ARM GAS  C:\Users\HELLOK~1\AppData\Local\Temp\cc4szl9H.s 			page 98


 4703 0d67 51       		.byte	0x51
 4704 0d68 01       		.uleb128 0x1
 4705 0d69 32       		.byte	0x32
 4706 0d6a 00       		.byte	0
 4707 0d6b 0F       		.uleb128 0xf
 4708 0d6c 36010000 		.4byte	.LVL145
 4709 0d70 741A0000 		.4byte	0x1a74
 4710 0d74 940D0000 		.4byte	0xd94
 4711 0d78 10       		.uleb128 0x10
 4712 0d79 01       		.uleb128 0x1
 4713 0d7a 50       		.byte	0x50
 4714 0d7b 03       		.uleb128 0x3
 4715 0d7c 91       		.byte	0x91
 4716 0d7d 847F     		.sleb128 -124
 4717 0d7f 10       		.uleb128 0x10
 4718 0d80 01       		.uleb128 0x1
 4719 0d81 51       		.byte	0x51
 4720 0d82 01       		.uleb128 0x1
 4721 0d83 33       		.byte	0x33
 4722 0d84 10       		.uleb128 0x10
 4723 0d85 01       		.uleb128 0x1
 4724 0d86 52       		.byte	0x52
 4725 0d87 05       		.uleb128 0x5
 4726 0d88 03       		.byte	0x3
 4727 0d89 80000000 		.4byte	.LC36
 4728 0d8d 10       		.uleb128 0x10
 4729 0d8e 01       		.uleb128 0x1
 4730 0d8f 53       		.byte	0x53
 4731 0d90 02       		.uleb128 0x2
 4732 0d91 76       		.byte	0x76
 4733 0d92 00       		.sleb128 0
 4734 0d93 00       		.byte	0
 4735 0d94 18       		.uleb128 0x18
 4736 0d95 3C010000 		.4byte	.LVL146
 4737 0d99 7F1A0000 		.4byte	0x1a7f
 4738 0d9d 10       		.uleb128 0x10
 4739 0d9e 01       		.uleb128 0x1
 4740 0d9f 50       		.byte	0x50
 4741 0da0 03       		.uleb128 0x3
 4742 0da1 91       		.byte	0x91
 4743 0da2 847F     		.sleb128 -124
 4744 0da4 00       		.byte	0
 4745 0da5 00       		.byte	0
 4746 0da6 20       		.uleb128 0x20
 4747 0da7 68010000 		.4byte	.LBB8
 4748 0dab 44000000 		.4byte	.LBE8-.LBB8
 4749 0daf 160E0000 		.4byte	0xe16
 4750 0db3 1C       		.uleb128 0x1c
 4751 0db4 BF000000 		.4byte	.LASF73
 4752 0db8 01       		.byte	0x1
 4753 0db9 B501     		.2byte	0x1b5
 4754 0dbb AE130000 		.4byte	0x13ae
 4755 0dbf 03       		.uleb128 0x3
 4756 0dc0 91       		.byte	0x91
 4757 0dc1 847F     		.sleb128 -124
 4758 0dc3 0F       		.uleb128 0xf
 4759 0dc4 9A010000 		.4byte	.LVL155
ARM GAS  C:\Users\HELLOK~1\AppData\Local\Temp\cc4szl9H.s 			page 99


 4760 0dc8 691A0000 		.4byte	0x1a69
 4761 0dcc DB0D0000 		.4byte	0xddb
 4762 0dd0 10       		.uleb128 0x10
 4763 0dd1 01       		.uleb128 0x1
 4764 0dd2 50       		.byte	0x50
 4765 0dd3 01       		.uleb128 0x1
 4766 0dd4 38       		.byte	0x38
 4767 0dd5 10       		.uleb128 0x10
 4768 0dd6 01       		.uleb128 0x1
 4769 0dd7 51       		.byte	0x51
 4770 0dd8 01       		.uleb128 0x1
 4771 0dd9 32       		.byte	0x32
 4772 0dda 00       		.byte	0
 4773 0ddb 0F       		.uleb128 0xf
 4774 0ddc A6010000 		.4byte	.LVL156
 4775 0de0 741A0000 		.4byte	0x1a74
 4776 0de4 040E0000 		.4byte	0xe04
 4777 0de8 10       		.uleb128 0x10
 4778 0de9 01       		.uleb128 0x1
 4779 0dea 50       		.byte	0x50
 4780 0deb 03       		.uleb128 0x3
 4781 0dec 91       		.byte	0x91
 4782 0ded 847F     		.sleb128 -124
 4783 0def 10       		.uleb128 0x10
 4784 0df0 01       		.uleb128 0x1
 4785 0df1 51       		.byte	0x51
 4786 0df2 01       		.uleb128 0x1
 4787 0df3 35       		.byte	0x35
 4788 0df4 10       		.uleb128 0x10
 4789 0df5 01       		.uleb128 0x1
 4790 0df6 52       		.byte	0x52
 4791 0df7 05       		.uleb128 0x5
 4792 0df8 03       		.byte	0x3
 4793 0df9 94000000 		.4byte	.LC40
 4794 0dfd 10       		.uleb128 0x10
 4795 0dfe 01       		.uleb128 0x1
 4796 0dff 53       		.byte	0x53
 4797 0e00 02       		.uleb128 0x2
 4798 0e01 75       		.byte	0x75
 4799 0e02 00       		.sleb128 0
 4800 0e03 00       		.byte	0
 4801 0e04 18       		.uleb128 0x18
 4802 0e05 AC010000 		.4byte	.LVL157
 4803 0e09 7F1A0000 		.4byte	0x1a7f
 4804 0e0d 10       		.uleb128 0x10
 4805 0e0e 01       		.uleb128 0x1
 4806 0e0f 50       		.byte	0x50
 4807 0e10 03       		.uleb128 0x3
 4808 0e11 91       		.byte	0x91
 4809 0e12 847F     		.sleb128 -124
 4810 0e14 00       		.byte	0
 4811 0e15 00       		.byte	0
 4812 0e16 20       		.uleb128 0x20
 4813 0e17 E0010000 		.4byte	.LBB9
 4814 0e1b 26000000 		.4byte	.LBE9-.LBB9
 4815 0e1f 460E0000 		.4byte	0xe46
 4816 0e23 1C       		.uleb128 0x1c
ARM GAS  C:\Users\HELLOK~1\AppData\Local\Temp\cc4szl9H.s 			page 100


 4817 0e24 3F020000 		.4byte	.LASF55
 4818 0e28 01       		.byte	0x1
 4819 0e29 C401     		.2byte	0x1c4
 4820 0e2b BE130000 		.4byte	0x13be
 4821 0e2f 03       		.uleb128 0x3
 4822 0e30 91       		.byte	0x91
 4823 0e31 FC7E     		.sleb128 -132
 4824 0e33 11       		.uleb128 0x11
 4825 0e34 E4010000 		.4byte	.LVL161
 4826 0e38 14030000 		.4byte	0x314
 4827 0e3c 11       		.uleb128 0x11
 4828 0e3d F2010000 		.4byte	.LVL162
 4829 0e41 14030000 		.4byte	0x314
 4830 0e45 00       		.byte	0
 4831 0e46 20       		.uleb128 0x20
 4832 0e47 08020000 		.4byte	.LBB10
 4833 0e4b 24000000 		.4byte	.LBE10-.LBB10
 4834 0e4f 760E0000 		.4byte	0xe76
 4835 0e53 1C       		.uleb128 0x1c
 4836 0e54 3F020000 		.4byte	.LASF55
 4837 0e58 01       		.byte	0x1
 4838 0e59 C801     		.2byte	0x1c8
 4839 0e5b BE130000 		.4byte	0x13be
 4840 0e5f 03       		.uleb128 0x3
 4841 0e60 91       		.byte	0x91
 4842 0e61 847F     		.sleb128 -124
 4843 0e63 11       		.uleb128 0x11
 4844 0e64 0C020000 		.4byte	.LVL163
 4845 0e68 14030000 		.4byte	0x314
 4846 0e6c 11       		.uleb128 0x11
 4847 0e6d 18020000 		.4byte	.LVL164
 4848 0e71 14030000 		.4byte	0x314
 4849 0e75 00       		.byte	0
 4850 0e76 20       		.uleb128 0x20
 4851 0e77 6A020000 		.4byte	.LBB11
 4852 0e7b 44000000 		.4byte	.LBE11-.LBB11
 4853 0e7f E60E0000 		.4byte	0xee6
 4854 0e83 1C       		.uleb128 0x1c
 4855 0e84 7E040000 		.4byte	.LASF74
 4856 0e88 01       		.byte	0x1
 4857 0e89 E501     		.2byte	0x1e5
 4858 0e8b 9E130000 		.4byte	0x139e
 4859 0e8f 03       		.uleb128 0x3
 4860 0e90 91       		.byte	0x91
 4861 0e91 F87E     		.sleb128 -136
 4862 0e93 0F       		.uleb128 0xf
 4863 0e94 9C020000 		.4byte	.LVL175
 4864 0e98 691A0000 		.4byte	0x1a69
 4865 0e9c AB0E0000 		.4byte	0xeab
 4866 0ea0 10       		.uleb128 0x10
 4867 0ea1 01       		.uleb128 0x1
 4868 0ea2 50       		.byte	0x50
 4869 0ea3 01       		.uleb128 0x1
 4870 0ea4 30       		.byte	0x30
 4871 0ea5 10       		.uleb128 0x10
 4872 0ea6 01       		.uleb128 0x1
 4873 0ea7 51       		.byte	0x51
ARM GAS  C:\Users\HELLOK~1\AppData\Local\Temp\cc4szl9H.s 			page 101


 4874 0ea8 01       		.uleb128 0x1
 4875 0ea9 32       		.byte	0x32
 4876 0eaa 00       		.byte	0
 4877 0eab 0F       		.uleb128 0xf
 4878 0eac A8020000 		.4byte	.LVL176
 4879 0eb0 741A0000 		.4byte	0x1a74
 4880 0eb4 D40E0000 		.4byte	0xed4
 4881 0eb8 10       		.uleb128 0x10
 4882 0eb9 01       		.uleb128 0x1
 4883 0eba 50       		.byte	0x50
 4884 0ebb 03       		.uleb128 0x3
 4885 0ebc 91       		.byte	0x91
 4886 0ebd F87E     		.sleb128 -136
 4887 0ebf 10       		.uleb128 0x10
 4888 0ec0 01       		.uleb128 0x1
 4889 0ec1 51       		.byte	0x51
 4890 0ec2 01       		.uleb128 0x1
 4891 0ec3 33       		.byte	0x33
 4892 0ec4 10       		.uleb128 0x10
 4893 0ec5 01       		.uleb128 0x1
 4894 0ec6 52       		.byte	0x52
 4895 0ec7 05       		.uleb128 0x5
 4896 0ec8 03       		.byte	0x3
 4897 0ec9 80000000 		.4byte	.LC36
 4898 0ecd 10       		.uleb128 0x10
 4899 0ece 01       		.uleb128 0x1
 4900 0ecf 53       		.byte	0x53
 4901 0ed0 02       		.uleb128 0x2
 4902 0ed1 75       		.byte	0x75
 4903 0ed2 00       		.sleb128 0
 4904 0ed3 00       		.byte	0
 4905 0ed4 18       		.uleb128 0x18
 4906 0ed5 AE020000 		.4byte	.LVL177
 4907 0ed9 7F1A0000 		.4byte	0x1a7f
 4908 0edd 10       		.uleb128 0x10
 4909 0ede 01       		.uleb128 0x1
 4910 0edf 50       		.byte	0x50
 4911 0ee0 03       		.uleb128 0x3
 4912 0ee1 91       		.byte	0x91
 4913 0ee2 F87E     		.sleb128 -136
 4914 0ee4 00       		.byte	0
 4915 0ee5 00       		.byte	0
 4916 0ee6 20       		.uleb128 0x20
 4917 0ee7 DA020000 		.4byte	.LBB12
 4918 0eeb 44000000 		.4byte	.LBE12-.LBB12
 4919 0eef 560F0000 		.4byte	0xf56
 4920 0ef3 1C       		.uleb128 0x1c
 4921 0ef4 0A050000 		.4byte	.LASF75
 4922 0ef8 01       		.byte	0x1
 4923 0ef9 0502     		.2byte	0x205
 4924 0efb 9E130000 		.4byte	0x139e
 4925 0eff 03       		.uleb128 0x3
 4926 0f00 91       		.byte	0x91
 4927 0f01 F87E     		.sleb128 -136
 4928 0f03 0F       		.uleb128 0xf
 4929 0f04 0C030000 		.4byte	.LVL186
 4930 0f08 691A0000 		.4byte	0x1a69
ARM GAS  C:\Users\HELLOK~1\AppData\Local\Temp\cc4szl9H.s 			page 102


 4931 0f0c 1B0F0000 		.4byte	0xf1b
 4932 0f10 10       		.uleb128 0x10
 4933 0f11 01       		.uleb128 0x1
 4934 0f12 50       		.byte	0x50
 4935 0f13 01       		.uleb128 0x1
 4936 0f14 33       		.byte	0x33
 4937 0f15 10       		.uleb128 0x10
 4938 0f16 01       		.uleb128 0x1
 4939 0f17 51       		.byte	0x51
 4940 0f18 01       		.uleb128 0x1
 4941 0f19 32       		.byte	0x32
 4942 0f1a 00       		.byte	0
 4943 0f1b 0F       		.uleb128 0xf
 4944 0f1c 18030000 		.4byte	.LVL187
 4945 0f20 741A0000 		.4byte	0x1a74
 4946 0f24 440F0000 		.4byte	0xf44
 4947 0f28 10       		.uleb128 0x10
 4948 0f29 01       		.uleb128 0x1
 4949 0f2a 50       		.byte	0x50
 4950 0f2b 03       		.uleb128 0x3
 4951 0f2c 91       		.byte	0x91
 4952 0f2d F87E     		.sleb128 -136
 4953 0f2f 10       		.uleb128 0x10
 4954 0f30 01       		.uleb128 0x1
 4955 0f31 51       		.byte	0x51
 4956 0f32 01       		.uleb128 0x1
 4957 0f33 35       		.byte	0x35
 4958 0f34 10       		.uleb128 0x10
 4959 0f35 01       		.uleb128 0x1
 4960 0f36 52       		.byte	0x52
 4961 0f37 05       		.uleb128 0x5
 4962 0f38 03       		.byte	0x3
 4963 0f39 80000000 		.4byte	.LC36
 4964 0f3d 10       		.uleb128 0x10
 4965 0f3e 01       		.uleb128 0x1
 4966 0f3f 53       		.byte	0x53
 4967 0f40 02       		.uleb128 0x2
 4968 0f41 76       		.byte	0x76
 4969 0f42 00       		.sleb128 0
 4970 0f43 00       		.byte	0
 4971 0f44 18       		.uleb128 0x18
 4972 0f45 1E030000 		.4byte	.LVL188
 4973 0f49 7F1A0000 		.4byte	0x1a7f
 4974 0f4d 10       		.uleb128 0x10
 4975 0f4e 01       		.uleb128 0x1
 4976 0f4f 50       		.byte	0x50
 4977 0f50 03       		.uleb128 0x3
 4978 0f51 91       		.byte	0x91
 4979 0f52 F87E     		.sleb128 -136
 4980 0f54 00       		.byte	0
 4981 0f55 00       		.byte	0
 4982 0f56 11       		.uleb128 0x11
 4983 0f57 0C000000 		.4byte	.LVL115
 4984 0f5b 001B0000 		.4byte	0x1b00
 4985 0f5f 0F       		.uleb128 0xf
 4986 0f60 14000000 		.4byte	.LVL116
 4987 0f64 691A0000 		.4byte	0x1a69
ARM GAS  C:\Users\HELLOK~1\AppData\Local\Temp\cc4szl9H.s 			page 103


 4988 0f68 770F0000 		.4byte	0xf77
 4989 0f6c 10       		.uleb128 0x10
 4990 0f6d 01       		.uleb128 0x1
 4991 0f6e 50       		.byte	0x50
 4992 0f6f 01       		.uleb128 0x1
 4993 0f70 30       		.byte	0x30
 4994 0f71 10       		.uleb128 0x10
 4995 0f72 01       		.uleb128 0x1
 4996 0f73 51       		.byte	0x51
 4997 0f74 01       		.uleb128 0x1
 4998 0f75 30       		.byte	0x30
 4999 0f76 00       		.byte	0
 5000 0f77 0F       		.uleb128 0xf
 5001 0f78 1A000000 		.4byte	.LVL117
 5002 0f7c 7F1A0000 		.4byte	0x1a7f
 5003 0f80 8E0F0000 		.4byte	0xf8e
 5004 0f84 10       		.uleb128 0x10
 5005 0f85 01       		.uleb128 0x1
 5006 0f86 50       		.byte	0x50
 5007 0f87 05       		.uleb128 0x5
 5008 0f88 03       		.byte	0x3
 5009 0f89 5C000000 		.4byte	.LC28
 5010 0f8d 00       		.byte	0
 5011 0f8e 0F       		.uleb128 0xf
 5012 0f8f 2A000000 		.4byte	.LVL118
 5013 0f93 66030000 		.4byte	0x366
 5014 0f97 AD0F0000 		.4byte	0xfad
 5015 0f9b 10       		.uleb128 0x10
 5016 0f9c 01       		.uleb128 0x1
 5017 0f9d 50       		.byte	0x50
 5018 0f9e 02       		.uleb128 0x2
 5019 0f9f 77       		.byte	0x77
 5020 0fa0 00       		.sleb128 0
 5021 0fa1 10       		.uleb128 0x10
 5022 0fa2 01       		.uleb128 0x1
 5023 0fa3 51       		.byte	0x51
 5024 0fa4 01       		.uleb128 0x1
 5025 0fa5 31       		.byte	0x31
 5026 0fa6 10       		.uleb128 0x10
 5027 0fa7 01       		.uleb128 0x1
 5028 0fa8 52       		.byte	0x52
 5029 0fa9 02       		.uleb128 0x2
 5030 0faa 08       		.byte	0x8
 5031 0fab 51       		.byte	0x51
 5032 0fac 00       		.byte	0
 5033 0fad 0F       		.uleb128 0xf
 5034 0fae 38000000 		.4byte	.LVL119
 5035 0fb2 66030000 		.4byte	0x366
 5036 0fb6 CC0F0000 		.4byte	0xfcc
 5037 0fba 10       		.uleb128 0x10
 5038 0fbb 01       		.uleb128 0x1
 5039 0fbc 50       		.byte	0x50
 5040 0fbd 02       		.uleb128 0x2
 5041 0fbe 74       		.byte	0x74
 5042 0fbf 00       		.sleb128 0
 5043 0fc0 10       		.uleb128 0x10
 5044 0fc1 01       		.uleb128 0x1
ARM GAS  C:\Users\HELLOK~1\AppData\Local\Temp\cc4szl9H.s 			page 104


 5045 0fc2 51       		.byte	0x51
 5046 0fc3 01       		.uleb128 0x1
 5047 0fc4 31       		.byte	0x31
 5048 0fc5 10       		.uleb128 0x10
 5049 0fc6 01       		.uleb128 0x1
 5050 0fc7 52       		.byte	0x52
 5051 0fc8 02       		.uleb128 0x2
 5052 0fc9 08       		.byte	0x8
 5053 0fca 51       		.byte	0x51
 5054 0fcb 00       		.byte	0
 5055 0fcc 0F       		.uleb128 0xf
 5056 0fcd 46000000 		.4byte	.LVL120
 5057 0fd1 66030000 		.4byte	0x366
 5058 0fd5 EB0F0000 		.4byte	0xfeb
 5059 0fd9 10       		.uleb128 0x10
 5060 0fda 01       		.uleb128 0x1
 5061 0fdb 50       		.byte	0x50
 5062 0fdc 02       		.uleb128 0x2
 5063 0fdd 76       		.byte	0x76
 5064 0fde 00       		.sleb128 0
 5065 0fdf 10       		.uleb128 0x10
 5066 0fe0 01       		.uleb128 0x1
 5067 0fe1 51       		.byte	0x51
 5068 0fe2 01       		.uleb128 0x1
 5069 0fe3 31       		.byte	0x31
 5070 0fe4 10       		.uleb128 0x10
 5071 0fe5 01       		.uleb128 0x1
 5072 0fe6 52       		.byte	0x52
 5073 0fe7 02       		.uleb128 0x2
 5074 0fe8 08       		.byte	0x8
 5075 0fe9 51       		.byte	0x51
 5076 0fea 00       		.byte	0
 5077 0feb 11       		.uleb128 0x11
 5078 0fec 4C000000 		.4byte	.LVL121
 5079 0ff0 14030000 		.4byte	0x314
 5080 0ff4 11       		.uleb128 0x11
 5081 0ff5 54000000 		.4byte	.LVL122
 5082 0ff9 14030000 		.4byte	0x314
 5083 0ffd 11       		.uleb128 0x11
 5084 0ffe 64000000 		.4byte	.LVL123
 5085 1002 14030000 		.4byte	0x314
 5086 1006 0F       		.uleb128 0xf
 5087 1007 6E000000 		.4byte	.LVL125
 5088 100b 691A0000 		.4byte	0x1a69
 5089 100f 1E100000 		.4byte	0x101e
 5090 1013 10       		.uleb128 0x10
 5091 1014 01       		.uleb128 0x1
 5092 1015 50       		.byte	0x50
 5093 1016 01       		.uleb128 0x1
 5094 1017 30       		.byte	0x30
 5095 1018 10       		.uleb128 0x10
 5096 1019 01       		.uleb128 0x1
 5097 101a 51       		.byte	0x51
 5098 101b 01       		.uleb128 0x1
 5099 101c 32       		.byte	0x32
 5100 101d 00       		.byte	0
 5101 101e 0F       		.uleb128 0xf
ARM GAS  C:\Users\HELLOK~1\AppData\Local\Temp\cc4szl9H.s 			page 105


 5102 101f 80000000 		.4byte	.LVL126
 5103 1023 741A0000 		.4byte	0x1a74
 5104 1027 54100000 		.4byte	0x1054
 5105 102b 10       		.uleb128 0x10
 5106 102c 01       		.uleb128 0x1
 5107 102d 50       		.byte	0x50
 5108 102e 02       		.uleb128 0x2
 5109 102f 91       		.byte	0x91
 5110 1030 40       		.sleb128 -64
 5111 1031 10       		.uleb128 0x10
 5112 1032 01       		.uleb128 0x1
 5113 1033 51       		.byte	0x51
 5114 1034 01       		.uleb128 0x1
 5115 1035 45       		.byte	0x45
 5116 1036 10       		.uleb128 0x10
 5117 1037 01       		.uleb128 0x1
 5118 1038 52       		.byte	0x52
 5119 1039 05       		.uleb128 0x5
 5120 103a 03       		.byte	0x3
 5121 103b 68000000 		.4byte	.LC31
 5122 103f 10       		.uleb128 0x10
 5123 1040 01       		.uleb128 0x1
 5124 1041 53       		.byte	0x53
 5125 1042 02       		.uleb128 0x2
 5126 1043 79       		.byte	0x79
 5127 1044 00       		.sleb128 0
 5128 1045 10       		.uleb128 0x10
 5129 1046 02       		.uleb128 0x2
 5130 1047 7D       		.byte	0x7d
 5131 1048 00       		.sleb128 0
 5132 1049 02       		.uleb128 0x2
 5133 104a 76       		.byte	0x76
 5134 104b 00       		.sleb128 0
 5135 104c 10       		.uleb128 0x10
 5136 104d 02       		.uleb128 0x2
 5137 104e 7D       		.byte	0x7d
 5138 104f 04       		.sleb128 4
 5139 1050 02       		.uleb128 0x2
 5140 1051 75       		.byte	0x75
 5141 1052 00       		.sleb128 0
 5142 1053 00       		.byte	0
 5143 1054 0F       		.uleb128 0xf
 5144 1055 86000000 		.4byte	.LVL127
 5145 1059 7F1A0000 		.4byte	0x1a7f
 5146 105d 68100000 		.4byte	0x1068
 5147 1061 10       		.uleb128 0x10
 5148 1062 01       		.uleb128 0x1
 5149 1063 50       		.byte	0x50
 5150 1064 02       		.uleb128 0x2
 5151 1065 91       		.byte	0x91
 5152 1066 40       		.sleb128 -64
 5153 1067 00       		.byte	0
 5154 1068 0F       		.uleb128 0xf
 5155 1069 C2000000 		.4byte	.LVL133
 5156 106d 691A0000 		.4byte	0x1a69
 5157 1071 80100000 		.4byte	0x1080
 5158 1075 10       		.uleb128 0x10
ARM GAS  C:\Users\HELLOK~1\AppData\Local\Temp\cc4szl9H.s 			page 106


 5159 1076 01       		.uleb128 0x1
 5160 1077 50       		.byte	0x50
 5161 1078 01       		.uleb128 0x1
 5162 1079 30       		.byte	0x30
 5163 107a 10       		.uleb128 0x10
 5164 107b 01       		.uleb128 0x1
 5165 107c 51       		.byte	0x51
 5166 107d 01       		.uleb128 0x1
 5167 107e 32       		.byte	0x32
 5168 107f 00       		.byte	0
 5169 1080 11       		.uleb128 0x11
 5170 1081 D0000000 		.4byte	.LVL134
 5171 1085 7F1A0000 		.4byte	0x1a7f
 5172 1089 0F       		.uleb128 0xf
 5173 108a E8000000 		.4byte	.LVL136
 5174 108e 691A0000 		.4byte	0x1a69
 5175 1092 A1100000 		.4byte	0x10a1
 5176 1096 10       		.uleb128 0x10
 5177 1097 01       		.uleb128 0x1
 5178 1098 50       		.byte	0x50
 5179 1099 01       		.uleb128 0x1
 5180 109a 30       		.byte	0x30
 5181 109b 10       		.uleb128 0x10
 5182 109c 01       		.uleb128 0x1
 5183 109d 51       		.byte	0x51
 5184 109e 01       		.uleb128 0x1
 5185 109f 30       		.byte	0x30
 5186 10a0 00       		.byte	0
 5187 10a1 0F       		.uleb128 0xf
 5188 10a2 EE000000 		.4byte	.LVL137
 5189 10a6 7F1A0000 		.4byte	0x1a7f
 5190 10aa B8100000 		.4byte	0x10b8
 5191 10ae 10       		.uleb128 0x10
 5192 10af 01       		.uleb128 0x1
 5193 10b0 50       		.byte	0x50
 5194 10b1 05       		.uleb128 0x5
 5195 10b2 03       		.byte	0x3
 5196 10b3 74000000 		.4byte	.LC34
 5197 10b7 00       		.byte	0
 5198 10b8 0F       		.uleb128 0xf
 5199 10b9 58010000 		.4byte	.LVL147
 5200 10bd 691A0000 		.4byte	0x1a69
 5201 10c1 D0100000 		.4byte	0x10d0
 5202 10c5 10       		.uleb128 0x10
 5203 10c6 01       		.uleb128 0x1
 5204 10c7 50       		.byte	0x50
 5205 10c8 01       		.uleb128 0x1
 5206 10c9 30       		.byte	0x30
 5207 10ca 10       		.uleb128 0x10
 5208 10cb 01       		.uleb128 0x1
 5209 10cc 51       		.byte	0x51
 5210 10cd 01       		.uleb128 0x1
 5211 10ce 30       		.byte	0x30
 5212 10cf 00       		.byte	0
 5213 10d0 0F       		.uleb128 0xf
 5214 10d1 5E010000 		.4byte	.LVL148
 5215 10d5 7F1A0000 		.4byte	0x1a7f
ARM GAS  C:\Users\HELLOK~1\AppData\Local\Temp\cc4szl9H.s 			page 107


 5216 10d9 E7100000 		.4byte	0x10e7
 5217 10dd 10       		.uleb128 0x10
 5218 10de 01       		.uleb128 0x1
 5219 10df 50       		.byte	0x50
 5220 10e0 05       		.uleb128 0x5
 5221 10e1 03       		.byte	0x3
 5222 10e2 88000000 		.4byte	.LC38
 5223 10e6 00       		.byte	0
 5224 10e7 0F       		.uleb128 0xf
 5225 10e8 CC010000 		.4byte	.LVL159
 5226 10ec 66030000 		.4byte	0x366
 5227 10f0 07110000 		.4byte	0x1107
 5228 10f4 10       		.uleb128 0x10
 5229 10f5 01       		.uleb128 0x1
 5230 10f6 50       		.byte	0x50
 5231 10f7 03       		.uleb128 0x3
 5232 10f8 91       		.byte	0x91
 5233 10f9 A47F     		.sleb128 -92
 5234 10fb 10       		.uleb128 0x10
 5235 10fc 01       		.uleb128 0x1
 5236 10fd 51       		.byte	0x51
 5237 10fe 01       		.uleb128 0x1
 5238 10ff 31       		.byte	0x31
 5239 1100 10       		.uleb128 0x10
 5240 1101 01       		.uleb128 0x1
 5241 1102 52       		.byte	0x52
 5242 1103 02       		.uleb128 0x2
 5243 1104 08       		.byte	0x8
 5244 1105 51       		.byte	0x51
 5245 1106 00       		.byte	0
 5246 1107 0F       		.uleb128 0xf
 5247 1108 DA010000 		.4byte	.LVL160
 5248 110c 66030000 		.4byte	0x366
 5249 1110 26110000 		.4byte	0x1126
 5250 1114 10       		.uleb128 0x10
 5251 1115 01       		.uleb128 0x1
 5252 1116 50       		.byte	0x50
 5253 1117 02       		.uleb128 0x2
 5254 1118 75       		.byte	0x75
 5255 1119 00       		.sleb128 0
 5256 111a 10       		.uleb128 0x10
 5257 111b 01       		.uleb128 0x1
 5258 111c 51       		.byte	0x51
 5259 111d 01       		.uleb128 0x1
 5260 111e 31       		.byte	0x31
 5261 111f 10       		.uleb128 0x10
 5262 1120 01       		.uleb128 0x1
 5263 1121 52       		.byte	0x52
 5264 1122 02       		.uleb128 0x2
 5265 1123 08       		.byte	0x8
 5266 1124 51       		.byte	0x51
 5267 1125 00       		.byte	0
 5268 1126 0F       		.uleb128 0xf
 5269 1127 34020000 		.4byte	.LVL165
 5270 112b 691A0000 		.4byte	0x1a69
 5271 112f 3E110000 		.4byte	0x113e
 5272 1133 10       		.uleb128 0x10
ARM GAS  C:\Users\HELLOK~1\AppData\Local\Temp\cc4szl9H.s 			page 108


 5273 1134 01       		.uleb128 0x1
 5274 1135 50       		.byte	0x50
 5275 1136 01       		.uleb128 0x1
 5276 1137 30       		.byte	0x30
 5277 1138 10       		.uleb128 0x10
 5278 1139 01       		.uleb128 0x1
 5279 113a 51       		.byte	0x51
 5280 113b 01       		.uleb128 0x1
 5281 113c 30       		.byte	0x30
 5282 113d 00       		.byte	0
 5283 113e 0F       		.uleb128 0xf
 5284 113f 3A020000 		.4byte	.LVL166
 5285 1143 7F1A0000 		.4byte	0x1a7f
 5286 1147 55110000 		.4byte	0x1155
 5287 114b 10       		.uleb128 0x10
 5288 114c 01       		.uleb128 0x1
 5289 114d 50       		.byte	0x50
 5290 114e 05       		.uleb128 0x5
 5291 114f 03       		.byte	0x3
 5292 1150 A4000000 		.4byte	.LC44
 5293 1154 00       		.byte	0
 5294 1155 0F       		.uleb128 0xf
 5295 1156 42020000 		.4byte	.LVL167
 5296 115a 691A0000 		.4byte	0x1a69
 5297 115e 6D110000 		.4byte	0x116d
 5298 1162 10       		.uleb128 0x10
 5299 1163 01       		.uleb128 0x1
 5300 1164 50       		.byte	0x50
 5301 1165 01       		.uleb128 0x1
 5302 1166 30       		.byte	0x30
 5303 1167 10       		.uleb128 0x10
 5304 1168 01       		.uleb128 0x1
 5305 1169 51       		.byte	0x51
 5306 116a 01       		.uleb128 0x1
 5307 116b 32       		.byte	0x32
 5308 116c 00       		.byte	0
 5309 116d 0F       		.uleb128 0xf
 5310 116e 5A020000 		.4byte	.LVL168
 5311 1172 741A0000 		.4byte	0x1a74
 5312 1176 A5110000 		.4byte	0x11a5
 5313 117a 10       		.uleb128 0x10
 5314 117b 01       		.uleb128 0x1
 5315 117c 50       		.byte	0x50
 5316 117d 02       		.uleb128 0x2
 5317 117e 91       		.byte	0x91
 5318 117f 40       		.sleb128 -64
 5319 1180 10       		.uleb128 0x10
 5320 1181 01       		.uleb128 0x1
 5321 1182 51       		.byte	0x51
 5322 1183 01       		.uleb128 0x1
 5323 1184 45       		.byte	0x45
 5324 1185 10       		.uleb128 0x10
 5325 1186 01       		.uleb128 0x1
 5326 1187 52       		.byte	0x52
 5327 1188 05       		.uleb128 0x5
 5328 1189 03       		.byte	0x3
 5329 118a B0000000 		.4byte	.LC46
ARM GAS  C:\Users\HELLOK~1\AppData\Local\Temp\cc4szl9H.s 			page 109


 5330 118e 10       		.uleb128 0x10
 5331 118f 01       		.uleb128 0x1
 5332 1190 53       		.byte	0x53
 5333 1191 02       		.uleb128 0x2
 5334 1192 75       		.byte	0x75
 5335 1193 00       		.sleb128 0
 5336 1194 10       		.uleb128 0x10
 5337 1195 02       		.uleb128 0x2
 5338 1196 7D       		.byte	0x7d
 5339 1197 00       		.sleb128 0
 5340 1198 02       		.uleb128 0x2
 5341 1199 76       		.byte	0x76
 5342 119a 00       		.sleb128 0
 5343 119b 10       		.uleb128 0x10
 5344 119c 02       		.uleb128 0x2
 5345 119d 7D       		.byte	0x7d
 5346 119e 04       		.sleb128 4
 5347 119f 04       		.uleb128 0x4
 5348 11a0 91       		.byte	0x91
 5349 11a1 9C7F     		.sleb128 -100
 5350 11a3 06       		.byte	0x6
 5351 11a4 00       		.byte	0
 5352 11a5 0F       		.uleb128 0xf
 5353 11a6 60020000 		.4byte	.LVL169
 5354 11aa 7F1A0000 		.4byte	0x1a7f
 5355 11ae B9110000 		.4byte	0x11b9
 5356 11b2 10       		.uleb128 0x10
 5357 11b3 01       		.uleb128 0x1
 5358 11b4 50       		.byte	0x50
 5359 11b5 02       		.uleb128 0x2
 5360 11b6 91       		.byte	0x91
 5361 11b7 40       		.sleb128 -64
 5362 11b8 00       		.byte	0
 5363 11b9 0F       		.uleb128 0xf
 5364 11ba CA020000 		.4byte	.LVL179
 5365 11be 691A0000 		.4byte	0x1a69
 5366 11c2 D1110000 		.4byte	0x11d1
 5367 11c6 10       		.uleb128 0x10
 5368 11c7 01       		.uleb128 0x1
 5369 11c8 50       		.byte	0x50
 5370 11c9 01       		.uleb128 0x1
 5371 11ca 30       		.byte	0x30
 5372 11cb 10       		.uleb128 0x10
 5373 11cc 01       		.uleb128 0x1
 5374 11cd 51       		.byte	0x51
 5375 11ce 01       		.uleb128 0x1
 5376 11cf 30       		.byte	0x30
 5377 11d0 00       		.byte	0
 5378 11d1 0F       		.uleb128 0xf
 5379 11d2 D0020000 		.4byte	.LVL180
 5380 11d6 7F1A0000 		.4byte	0x1a7f
 5381 11da E8110000 		.4byte	0x11e8
 5382 11de 10       		.uleb128 0x10
 5383 11df 01       		.uleb128 0x1
 5384 11e0 50       		.byte	0x50
 5385 11e1 05       		.uleb128 0x5
 5386 11e2 03       		.byte	0x3
ARM GAS  C:\Users\HELLOK~1\AppData\Local\Temp\cc4szl9H.s 			page 110


 5387 11e3 C4000000 		.4byte	.LC48
 5388 11e7 00       		.byte	0
 5389 11e8 0F       		.uleb128 0xf
 5390 11e9 36030000 		.4byte	.LVL190
 5391 11ed 691A0000 		.4byte	0x1a69
 5392 11f1 00120000 		.4byte	0x1200
 5393 11f5 10       		.uleb128 0x10
 5394 11f6 01       		.uleb128 0x1
 5395 11f7 50       		.byte	0x50
 5396 11f8 01       		.uleb128 0x1
 5397 11f9 30       		.byte	0x30
 5398 11fa 10       		.uleb128 0x10
 5399 11fb 01       		.uleb128 0x1
 5400 11fc 51       		.byte	0x51
 5401 11fd 01       		.uleb128 0x1
 5402 11fe 30       		.byte	0x30
 5403 11ff 00       		.byte	0
 5404 1200 0F       		.uleb128 0xf
 5405 1201 3C030000 		.4byte	.LVL191
 5406 1205 7F1A0000 		.4byte	0x1a7f
 5407 1209 17120000 		.4byte	0x1217
 5408 120d 10       		.uleb128 0x10
 5409 120e 01       		.uleb128 0x1
 5410 120f 50       		.byte	0x50
 5411 1210 05       		.uleb128 0x5
 5412 1211 03       		.byte	0x3
 5413 1212 D0000000 		.4byte	.LC50
 5414 1216 00       		.byte	0
 5415 1217 0F       		.uleb128 0xf
 5416 1218 9A030000 		.4byte	.LVL196
 5417 121c 691A0000 		.4byte	0x1a69
 5418 1220 2F120000 		.4byte	0x122f
 5419 1224 10       		.uleb128 0x10
 5420 1225 01       		.uleb128 0x1
 5421 1226 50       		.byte	0x50
 5422 1227 01       		.uleb128 0x1
 5423 1228 35       		.byte	0x35
 5424 1229 10       		.uleb128 0x10
 5425 122a 01       		.uleb128 0x1
 5426 122b 51       		.byte	0x51
 5427 122c 01       		.uleb128 0x1
 5428 122d 32       		.byte	0x32
 5429 122e 00       		.byte	0
 5430 122f 0F       		.uleb128 0xf
 5431 1230 A4030000 		.4byte	.LVL197
 5432 1234 7F1A0000 		.4byte	0x1a7f
 5433 1238 46120000 		.4byte	0x1246
 5434 123c 10       		.uleb128 0x10
 5435 123d 01       		.uleb128 0x1
 5436 123e 50       		.byte	0x50
 5437 123f 05       		.uleb128 0x5
 5438 1240 03       		.byte	0x3
 5439 1241 A0000000 		.4byte	.LC0
 5440 1245 00       		.byte	0
 5441 1246 0F       		.uleb128 0xf
 5442 1247 AC030000 		.4byte	.LVL198
 5443 124b 7F1A0000 		.4byte	0x1a7f
ARM GAS  C:\Users\HELLOK~1\AppData\Local\Temp\cc4szl9H.s 			page 111


 5444 124f 5D120000 		.4byte	0x125d
 5445 1253 10       		.uleb128 0x10
 5446 1254 01       		.uleb128 0x1
 5447 1255 50       		.byte	0x50
 5448 1256 05       		.uleb128 0x5
 5449 1257 03       		.byte	0x3
 5450 1258 9C000000 		.4byte	.LC4
 5451 125c 00       		.byte	0
 5452 125d 0F       		.uleb128 0xf
 5453 125e D8030000 		.4byte	.LVL200
 5454 1262 43040000 		.4byte	0x443
 5455 1266 7C120000 		.4byte	0x127c
 5456 126a 10       		.uleb128 0x10
 5457 126b 01       		.uleb128 0x1
 5458 126c 50       		.byte	0x50
 5459 126d 02       		.uleb128 0x2
 5460 126e 75       		.byte	0x75
 5461 126f 00       		.sleb128 0
 5462 1270 10       		.uleb128 0x10
 5463 1271 01       		.uleb128 0x1
 5464 1272 51       		.byte	0x51
 5465 1273 01       		.uleb128 0x1
 5466 1274 32       		.byte	0x32
 5467 1275 10       		.uleb128 0x10
 5468 1276 01       		.uleb128 0x1
 5469 1277 52       		.byte	0x52
 5470 1278 02       		.uleb128 0x2
 5471 1279 08       		.byte	0x8
 5472 127a 51       		.byte	0x51
 5473 127b 00       		.byte	0
 5474 127c 0F       		.uleb128 0xf
 5475 127d DE030000 		.4byte	.LVL201
 5476 1281 3D030000 		.4byte	0x33d
 5477 1285 90120000 		.4byte	0x1290
 5478 1289 10       		.uleb128 0x10
 5479 128a 01       		.uleb128 0x1
 5480 128b 50       		.byte	0x50
 5481 128c 02       		.uleb128 0x2
 5482 128d 76       		.byte	0x76
 5483 128e 00       		.sleb128 0
 5484 128f 00       		.byte	0
 5485 1290 0F       		.uleb128 0xf
 5486 1291 EC030000 		.4byte	.LVL202
 5487 1295 43040000 		.4byte	0x443
 5488 1299 AF120000 		.4byte	0x12af
 5489 129d 10       		.uleb128 0x10
 5490 129e 01       		.uleb128 0x1
 5491 129f 50       		.byte	0x50
 5492 12a0 02       		.uleb128 0x2
 5493 12a1 75       		.byte	0x75
 5494 12a2 00       		.sleb128 0
 5495 12a3 10       		.uleb128 0x10
 5496 12a4 01       		.uleb128 0x1
 5497 12a5 51       		.byte	0x51
 5498 12a6 01       		.uleb128 0x1
 5499 12a7 32       		.byte	0x32
 5500 12a8 10       		.uleb128 0x10
ARM GAS  C:\Users\HELLOK~1\AppData\Local\Temp\cc4szl9H.s 			page 112


 5501 12a9 01       		.uleb128 0x1
 5502 12aa 52       		.byte	0x52
 5503 12ab 02       		.uleb128 0x2
 5504 12ac 08       		.byte	0x8
 5505 12ad 51       		.byte	0x51
 5506 12ae 00       		.byte	0
 5507 12af 0F       		.uleb128 0xf
 5508 12b0 F4030000 		.4byte	.LVL203
 5509 12b4 3D030000 		.4byte	0x33d
 5510 12b8 C6120000 		.4byte	0x12c6
 5511 12bc 10       		.uleb128 0x10
 5512 12bd 01       		.uleb128 0x1
 5513 12be 50       		.byte	0x50
 5514 12bf 05       		.uleb128 0x5
 5515 12c0 91       		.byte	0x91
 5516 12c1 907F     		.sleb128 -112
 5517 12c3 94       		.byte	0x94
 5518 12c4 01       		.byte	0x1
 5519 12c5 00       		.byte	0
 5520 12c6 0F       		.uleb128 0xf
 5521 12c7 02040000 		.4byte	.LVL204
 5522 12cb 43040000 		.4byte	0x443
 5523 12cf E5120000 		.4byte	0x12e5
 5524 12d3 10       		.uleb128 0x10
 5525 12d4 01       		.uleb128 0x1
 5526 12d5 50       		.byte	0x50
 5527 12d6 02       		.uleb128 0x2
 5528 12d7 75       		.byte	0x75
 5529 12d8 00       		.sleb128 0
 5530 12d9 10       		.uleb128 0x10
 5531 12da 01       		.uleb128 0x1
 5532 12db 51       		.byte	0x51
 5533 12dc 01       		.uleb128 0x1
 5534 12dd 32       		.byte	0x32
 5535 12de 10       		.uleb128 0x10
 5536 12df 01       		.uleb128 0x1
 5537 12e0 52       		.byte	0x52
 5538 12e1 02       		.uleb128 0x2
 5539 12e2 08       		.byte	0x8
 5540 12e3 51       		.byte	0x51
 5541 12e4 00       		.byte	0
 5542 12e5 0F       		.uleb128 0xf
 5543 12e6 0A040000 		.4byte	.LVL205
 5544 12ea 3D030000 		.4byte	0x33d
 5545 12ee FB120000 		.4byte	0x12fb
 5546 12f2 10       		.uleb128 0x10
 5547 12f3 01       		.uleb128 0x1
 5548 12f4 50       		.byte	0x50
 5549 12f5 04       		.uleb128 0x4
 5550 12f6 76       		.byte	0x76
 5551 12f7 00       		.sleb128 0
 5552 12f8 94       		.byte	0x94
 5553 12f9 01       		.byte	0x1
 5554 12fa 00       		.byte	0
 5555 12fb 0F       		.uleb128 0xf
 5556 12fc 18040000 		.4byte	.LVL206
 5557 1300 43040000 		.4byte	0x443
ARM GAS  C:\Users\HELLOK~1\AppData\Local\Temp\cc4szl9H.s 			page 113


 5558 1304 1A130000 		.4byte	0x131a
 5559 1308 10       		.uleb128 0x10
 5560 1309 01       		.uleb128 0x1
 5561 130a 50       		.byte	0x50
 5562 130b 02       		.uleb128 0x2
 5563 130c 75       		.byte	0x75
 5564 130d 00       		.sleb128 0
 5565 130e 10       		.uleb128 0x10
 5566 130f 01       		.uleb128 0x1
 5567 1310 51       		.byte	0x51
 5568 1311 01       		.uleb128 0x1
 5569 1312 32       		.byte	0x32
 5570 1313 10       		.uleb128 0x10
 5571 1314 01       		.uleb128 0x1
 5572 1315 52       		.byte	0x52
 5573 1316 02       		.uleb128 0x2
 5574 1317 08       		.byte	0x8
 5575 1318 51       		.byte	0x51
 5576 1319 00       		.byte	0
 5577 131a 0F       		.uleb128 0xf
 5578 131b 28040000 		.4byte	.LVL207
 5579 131f 43040000 		.4byte	0x443
 5580 1323 39130000 		.4byte	0x1339
 5581 1327 10       		.uleb128 0x10
 5582 1328 01       		.uleb128 0x1
 5583 1329 50       		.byte	0x50
 5584 132a 02       		.uleb128 0x2
 5585 132b 75       		.byte	0x75
 5586 132c 00       		.sleb128 0
 5587 132d 10       		.uleb128 0x10
 5588 132e 01       		.uleb128 0x1
 5589 132f 51       		.byte	0x51
 5590 1330 01       		.uleb128 0x1
 5591 1331 32       		.byte	0x32
 5592 1332 10       		.uleb128 0x10
 5593 1333 01       		.uleb128 0x1
 5594 1334 52       		.byte	0x52
 5595 1335 02       		.uleb128 0x2
 5596 1336 08       		.byte	0x8
 5597 1337 51       		.byte	0x51
 5598 1338 00       		.byte	0
 5599 1339 0F       		.uleb128 0xf
 5600 133a 2E040000 		.4byte	.LVL208
 5601 133e 3D030000 		.4byte	0x33d
 5602 1342 4D130000 		.4byte	0x134d
 5603 1346 10       		.uleb128 0x10
 5604 1347 01       		.uleb128 0x1
 5605 1348 50       		.byte	0x50
 5606 1349 02       		.uleb128 0x2
 5607 134a 74       		.byte	0x74
 5608 134b 00       		.sleb128 0
 5609 134c 00       		.byte	0
 5610 134d 0F       		.uleb128 0xf
 5611 134e 3C040000 		.4byte	.LVL209
 5612 1352 43040000 		.4byte	0x443
 5613 1356 6C130000 		.4byte	0x136c
 5614 135a 10       		.uleb128 0x10
ARM GAS  C:\Users\HELLOK~1\AppData\Local\Temp\cc4szl9H.s 			page 114


 5615 135b 01       		.uleb128 0x1
 5616 135c 50       		.byte	0x50
 5617 135d 02       		.uleb128 0x2
 5618 135e 75       		.byte	0x75
 5619 135f 00       		.sleb128 0
 5620 1360 10       		.uleb128 0x10
 5621 1361 01       		.uleb128 0x1
 5622 1362 51       		.byte	0x51
 5623 1363 01       		.uleb128 0x1
 5624 1364 32       		.byte	0x32
 5625 1365 10       		.uleb128 0x10
 5626 1366 01       		.uleb128 0x1
 5627 1367 52       		.byte	0x52
 5628 1368 02       		.uleb128 0x2
 5629 1369 08       		.byte	0x8
 5630 136a 51       		.byte	0x51
 5631 136b 00       		.byte	0
 5632 136c 11       		.uleb128 0x11
 5633 136d 42040000 		.4byte	.LVL210
 5634 1371 3D030000 		.4byte	0x33d
 5635 1375 0F       		.uleb128 0xf
 5636 1376 50040000 		.4byte	.LVL211
 5637 137a 43040000 		.4byte	0x443
 5638 137e 94130000 		.4byte	0x1394
 5639 1382 10       		.uleb128 0x10
 5640 1383 01       		.uleb128 0x1
 5641 1384 50       		.byte	0x50
 5642 1385 02       		.uleb128 0x2
 5643 1386 75       		.byte	0x75
 5644 1387 00       		.sleb128 0
 5645 1388 10       		.uleb128 0x10
 5646 1389 01       		.uleb128 0x1
 5647 138a 51       		.byte	0x51
 5648 138b 01       		.uleb128 0x1
 5649 138c 32       		.byte	0x32
 5650 138d 10       		.uleb128 0x10
 5651 138e 01       		.uleb128 0x1
 5652 138f 52       		.byte	0x52
 5653 1390 02       		.uleb128 0x2
 5654 1391 08       		.byte	0x8
 5655 1392 51       		.byte	0x51
 5656 1393 00       		.byte	0
 5657 1394 11       		.uleb128 0x11
 5658 1395 54040000 		.4byte	.LVL212
 5659 1399 3C090000 		.4byte	0x93c
 5660 139d 00       		.byte	0
 5661 139e 15       		.uleb128 0x15
 5662 139f 9D000000 		.4byte	0x9d
 5663 13a3 AE130000 		.4byte	0x13ae
 5664 13a7 16       		.uleb128 0x16
 5665 13a8 B0000000 		.4byte	0xb0
 5666 13ac 02       		.byte	0x2
 5667 13ad 00       		.byte	0
 5668 13ae 15       		.uleb128 0x15
 5669 13af 9D000000 		.4byte	0x9d
 5670 13b3 BE130000 		.4byte	0x13be
 5671 13b7 16       		.uleb128 0x16
ARM GAS  C:\Users\HELLOK~1\AppData\Local\Temp\cc4szl9H.s 			page 115


 5672 13b8 B0000000 		.4byte	0xb0
 5673 13bc 04       		.byte	0x4
 5674 13bd 00       		.byte	0
 5675 13be 05       		.uleb128 0x5
 5676 13bf EA000000 		.4byte	0xea
 5677 13c3 24       		.uleb128 0x24
 5678 13c4 A5020000 		.4byte	.LASF76
 5679 13c8 01       		.byte	0x1
 5680 13c9 3C02     		.2byte	0x23c
 5681 13cb 00000000 		.4byte	.LFB48
 5682 13cf 02000000 		.4byte	.LFE48-.LFB48
 5683 13d3 01       		.uleb128 0x1
 5684 13d4 9C       		.byte	0x9c
 5685 13d5 24       		.uleb128 0x24
 5686 13d6 D8000000 		.4byte	.LASF77
 5687 13da 01       		.byte	0x1
 5688 13db 3F02     		.2byte	0x23f
 5689 13dd 00000000 		.4byte	.LFB49
 5690 13e1 02000000 		.4byte	.LFE49-.LFB49
 5691 13e5 01       		.uleb128 0x1
 5692 13e6 9C       		.byte	0x9c
 5693 13e7 24       		.uleb128 0x24
 5694 13e8 7A020000 		.4byte	.LASF78
 5695 13ec 01       		.byte	0x1
 5696 13ed 4202     		.2byte	0x242
 5697 13ef 00000000 		.4byte	.LFB50
 5698 13f3 02000000 		.4byte	.LFE50-.LFB50
 5699 13f7 01       		.uleb128 0x1
 5700 13f8 9C       		.byte	0x9c
 5701 13f9 24       		.uleb128 0x24
 5702 13fa 4E020000 		.4byte	.LASF79
 5703 13fe 01       		.byte	0x1
 5704 13ff 4502     		.2byte	0x245
 5705 1401 00000000 		.4byte	.LFB51
 5706 1405 02000000 		.4byte	.LFE51-.LFB51
 5707 1409 01       		.uleb128 0x1
 5708 140a 9C       		.byte	0x9c
 5709 140b 1D       		.uleb128 0x1d
 5710 140c E1040000 		.4byte	.LASF80
 5711 1410 01       		.byte	0x1
 5712 1411 4A02     		.2byte	0x24a
 5713 1413 00000000 		.4byte	.LFB52
 5714 1417 D0000000 		.4byte	.LFE52-.LFB52
 5715 141b 01       		.uleb128 0x1
 5716 141c 9C       		.byte	0x9c
 5717 141d 3F150000 		.4byte	0x153f
 5718 1421 23       		.uleb128 0x23
 5719 1422 16030000 		.4byte	.LASF81
 5720 1426 01       		.byte	0x1
 5721 1427 4C02     		.2byte	0x24c
 5722 1429 6B000000 		.4byte	0x6b
 5723 142d 05030000 		.4byte	.LLST18
 5724 1431 11       		.uleb128 0x11
 5725 1432 06000000 		.4byte	.LVL214
 5726 1436 001B0000 		.4byte	0x1b00
 5727 143a 0F       		.uleb128 0xf
 5728 143b 0E000000 		.4byte	.LVL215
ARM GAS  C:\Users\HELLOK~1\AppData\Local\Temp\cc4szl9H.s 			page 116


 5729 143f 691A0000 		.4byte	0x1a69
 5730 1443 52140000 		.4byte	0x1452
 5731 1447 10       		.uleb128 0x10
 5732 1448 01       		.uleb128 0x1
 5733 1449 50       		.byte	0x50
 5734 144a 01       		.uleb128 0x1
 5735 144b 30       		.byte	0x30
 5736 144c 10       		.uleb128 0x10
 5737 144d 01       		.uleb128 0x1
 5738 144e 51       		.byte	0x51
 5739 144f 01       		.uleb128 0x1
 5740 1450 30       		.byte	0x30
 5741 1451 00       		.byte	0
 5742 1452 0F       		.uleb128 0xf
 5743 1453 14000000 		.4byte	.LVL216
 5744 1457 7F1A0000 		.4byte	0x1a7f
 5745 145b 69140000 		.4byte	0x1469
 5746 145f 10       		.uleb128 0x10
 5747 1460 01       		.uleb128 0x1
 5748 1461 50       		.byte	0x50
 5749 1462 05       		.uleb128 0x5
 5750 1463 03       		.byte	0x3
 5751 1464 E0000000 		.4byte	.LC52
 5752 1468 00       		.byte	0
 5753 1469 0F       		.uleb128 0xf
 5754 146a 1C000000 		.4byte	.LVL217
 5755 146e 691A0000 		.4byte	0x1a69
 5756 1472 81140000 		.4byte	0x1481
 5757 1476 10       		.uleb128 0x10
 5758 1477 01       		.uleb128 0x1
 5759 1478 50       		.byte	0x50
 5760 1479 01       		.uleb128 0x1
 5761 147a 30       		.byte	0x30
 5762 147b 10       		.uleb128 0x10
 5763 147c 01       		.uleb128 0x1
 5764 147d 51       		.byte	0x51
 5765 147e 01       		.uleb128 0x1
 5766 147f 31       		.byte	0x31
 5767 1480 00       		.byte	0
 5768 1481 0F       		.uleb128 0xf
 5769 1482 22000000 		.4byte	.LVL218
 5770 1486 7F1A0000 		.4byte	0x1a7f
 5771 148a 98140000 		.4byte	0x1498
 5772 148e 10       		.uleb128 0x10
 5773 148f 01       		.uleb128 0x1
 5774 1490 50       		.byte	0x50
 5775 1491 05       		.uleb128 0x5
 5776 1492 03       		.byte	0x3
 5777 1493 F0000000 		.4byte	.LC54
 5778 1497 00       		.byte	0
 5779 1498 0F       		.uleb128 0xf
 5780 1499 2A000000 		.4byte	.LVL219
 5781 149d 691A0000 		.4byte	0x1a69
 5782 14a1 B0140000 		.4byte	0x14b0
 5783 14a5 10       		.uleb128 0x10
 5784 14a6 01       		.uleb128 0x1
 5785 14a7 50       		.byte	0x50
ARM GAS  C:\Users\HELLOK~1\AppData\Local\Temp\cc4szl9H.s 			page 117


 5786 14a8 01       		.uleb128 0x1
 5787 14a9 30       		.byte	0x30
 5788 14aa 10       		.uleb128 0x10
 5789 14ab 01       		.uleb128 0x1
 5790 14ac 51       		.byte	0x51
 5791 14ad 01       		.uleb128 0x1
 5792 14ae 32       		.byte	0x32
 5793 14af 00       		.byte	0
 5794 14b0 0F       		.uleb128 0xf
 5795 14b1 30000000 		.4byte	.LVL220
 5796 14b5 7F1A0000 		.4byte	0x1a7f
 5797 14b9 C7140000 		.4byte	0x14c7
 5798 14bd 10       		.uleb128 0x10
 5799 14be 01       		.uleb128 0x1
 5800 14bf 50       		.byte	0x50
 5801 14c0 05       		.uleb128 0x5
 5802 14c1 03       		.byte	0x3
 5803 14c2 18000000 		.4byte	.LC13
 5804 14c6 00       		.byte	0
 5805 14c7 0F       		.uleb128 0xf
 5806 14c8 38000000 		.4byte	.LVL221
 5807 14cc 691A0000 		.4byte	0x1a69
 5808 14d0 DF140000 		.4byte	0x14df
 5809 14d4 10       		.uleb128 0x10
 5810 14d5 01       		.uleb128 0x1
 5811 14d6 50       		.byte	0x50
 5812 14d7 01       		.uleb128 0x1
 5813 14d8 30       		.byte	0x30
 5814 14d9 10       		.uleb128 0x10
 5815 14da 01       		.uleb128 0x1
 5816 14db 51       		.byte	0x51
 5817 14dc 01       		.uleb128 0x1
 5818 14dd 33       		.byte	0x33
 5819 14de 00       		.byte	0
 5820 14df 0F       		.uleb128 0xf
 5821 14e0 3E000000 		.4byte	.LVL222
 5822 14e4 7F1A0000 		.4byte	0x1a7f
 5823 14e8 F6140000 		.4byte	0x14f6
 5824 14ec 10       		.uleb128 0x10
 5825 14ed 01       		.uleb128 0x1
 5826 14ee 50       		.byte	0x50
 5827 14ef 05       		.uleb128 0x5
 5828 14f0 03       		.byte	0x3
 5829 14f1 00010000 		.4byte	.LC57
 5830 14f5 00       		.byte	0
 5831 14f6 0F       		.uleb128 0xf
 5832 14f7 46000000 		.4byte	.LVL223
 5833 14fb 951A0000 		.4byte	0x1a95
 5834 14ff 0B150000 		.4byte	0x150b
 5835 1503 10       		.uleb128 0x10
 5836 1504 01       		.uleb128 0x1
 5837 1505 50       		.byte	0x50
 5838 1506 03       		.uleb128 0x3
 5839 1507 0A       		.byte	0xa
 5840 1508 E803     		.2byte	0x3e8
 5841 150a 00       		.byte	0
 5842 150b 0F       		.uleb128 0xf
ARM GAS  C:\Users\HELLOK~1\AppData\Local\Temp\cc4szl9H.s 			page 118


 5843 150c 88000000 		.4byte	.LVL232
 5844 1510 691A0000 		.4byte	0x1a69
 5845 1514 23150000 		.4byte	0x1523
 5846 1518 10       		.uleb128 0x10
 5847 1519 01       		.uleb128 0x1
 5848 151a 50       		.byte	0x50
 5849 151b 01       		.uleb128 0x1
 5850 151c 30       		.byte	0x30
 5851 151d 10       		.uleb128 0x10
 5852 151e 01       		.uleb128 0x1
 5853 151f 51       		.byte	0x51
 5854 1520 01       		.uleb128 0x1
 5855 1521 33       		.byte	0x33
 5856 1522 00       		.byte	0
 5857 1523 11       		.uleb128 0x11
 5858 1524 94000000 		.4byte	.LVL233
 5859 1528 7F1A0000 		.4byte	0x1a7f
 5860 152c 11       		.uleb128 0x11
 5861 152d B0000000 		.4byte	.LVL234
 5862 1531 490C0000 		.4byte	0xc49
 5863 1535 11       		.uleb128 0x11
 5864 1536 B6000000 		.4byte	.LVL235
 5865 153a 3C090000 		.4byte	0x93c
 5866 153e 00       		.byte	0
 5867 153f 25       		.uleb128 0x25
 5868 1540 FA050000 		.4byte	.LASF128
 5869 1544 01       		.byte	0x1
 5870 1545 9002     		.2byte	0x290
 5871 1547 5D000000 		.4byte	0x5d
 5872 154b 00000000 		.4byte	.LFB53
 5873 154f 20020000 		.4byte	.LFE53-.LFB53
 5874 1553 01       		.uleb128 0x1
 5875 1554 9C       		.byte	0x9c
 5876 1555 EA180000 		.4byte	0x18ea
 5877 1559 1C       		.uleb128 0x1c
 5878 155a 64010000 		.4byte	.LASF82
 5879 155e 01       		.byte	0x1
 5880 155f 9902     		.2byte	0x299
 5881 1561 EA000000 		.4byte	0xea
 5882 1565 02       		.uleb128 0x2
 5883 1566 91       		.byte	0x91
 5884 1567 50       		.sleb128 -48
 5885 1568 1C       		.uleb128 0x1c
 5886 1569 E3020000 		.4byte	.LASF83
 5887 156d 01       		.byte	0x1
 5888 156e 9A02     		.2byte	0x29a
 5889 1570 1A010000 		.4byte	0x11a
 5890 1574 02       		.uleb128 0x2
 5891 1575 91       		.byte	0x91
 5892 1576 44       		.sleb128 -60
 5893 1577 1C       		.uleb128 0x1c
 5894 1578 25010000 		.4byte	.LASF56
 5895 157c 01       		.byte	0x1
 5896 157d 9B02     		.2byte	0x29b
 5897 157f EA000000 		.4byte	0xea
 5898 1583 03       		.uleb128 0x3
 5899 1584 91       		.byte	0x91
ARM GAS  C:\Users\HELLOK~1\AppData\Local\Temp\cc4szl9H.s 			page 119


 5900 1585 BC7F     		.sleb128 -68
 5901 1587 1C       		.uleb128 0x1c
 5902 1588 10020000 		.4byte	.LASF58
 5903 158c 01       		.byte	0x1
 5904 158d 9C02     		.2byte	0x29c
 5905 158f 1A010000 		.4byte	0x11a
 5906 1593 03       		.uleb128 0x3
 5907 1594 91       		.byte	0x91
 5908 1595 B07F     		.sleb128 -80
 5909 1597 1C       		.uleb128 0x1c
 5910 1598 87000000 		.4byte	.LASF53
 5911 159c 01       		.byte	0x1
 5912 159d 9E02     		.2byte	0x29e
 5913 159f C7050000 		.4byte	0x5c7
 5914 15a3 03       		.uleb128 0x3
 5915 15a4 91       		.byte	0x91
 5916 15a5 AC7F     		.sleb128 -84
 5917 15a7 20       		.uleb128 0x20
 5918 15a8 8E000000 		.4byte	.LBB13
 5919 15ac 7A010000 		.4byte	.LBE13-.LBB13
 5920 15b0 56180000 		.4byte	0x1856
 5921 15b4 1C       		.uleb128 0x1c
 5922 15b5 91050000 		.4byte	.LASF70
 5923 15b9 01       		.byte	0x1
 5924 15ba A902     		.2byte	0x2a9
 5925 15bc EA000000 		.4byte	0xea
 5926 15c0 03       		.uleb128 0x3
 5927 15c1 91       		.byte	0x91
 5928 15c2 887F     		.sleb128 -120
 5929 15c4 1E       		.uleb128 0x1e
 5930 15c5 73656300 		.ascii	"sec\000"
 5931 15c9 01       		.byte	0x1
 5932 15ca AB02     		.2byte	0x2ab
 5933 15cc 33040000 		.4byte	0x433
 5934 15d0 03       		.uleb128 0x3
 5935 15d1 91       		.byte	0x91
 5936 15d2 EC7E     		.sleb128 -148
 5937 15d4 1E       		.uleb128 0x1e
 5938 15d5 6D696E00 		.ascii	"min\000"
 5939 15d9 01       		.byte	0x1
 5940 15da AD02     		.2byte	0x2ad
 5941 15dc 33040000 		.4byte	0x433
 5942 15e0 03       		.uleb128 0x3
 5943 15e1 91       		.byte	0x91
 5944 15e2 F07E     		.sleb128 -144
 5945 15e4 1C       		.uleb128 0x1c
 5946 15e5 85020000 		.4byte	.LASF18
 5947 15e9 01       		.byte	0x1
 5948 15ea AF02     		.2byte	0x2af
 5949 15ec 33040000 		.4byte	0x433
 5950 15f0 03       		.uleb128 0x3
 5951 15f1 91       		.byte	0x91
 5952 15f2 F47E     		.sleb128 -140
 5953 15f4 1E       		.uleb128 0x1e
 5954 15f5 64617900 		.ascii	"day\000"
 5955 15f9 01       		.byte	0x1
 5956 15fa B102     		.2byte	0x2b1
ARM GAS  C:\Users\HELLOK~1\AppData\Local\Temp\cc4szl9H.s 			page 120


 5957 15fc 33040000 		.4byte	0x433
 5958 1600 03       		.uleb128 0x3
 5959 1601 91       		.byte	0x91
 5960 1602 F87E     		.sleb128 -136
 5961 1604 1C       		.uleb128 0x1c
 5962 1605 48020000 		.4byte	.LASF21
 5963 1609 01       		.byte	0x1
 5964 160a B302     		.2byte	0x2b3
 5965 160c 33040000 		.4byte	0x433
 5966 1610 03       		.uleb128 0x3
 5967 1611 91       		.byte	0x91
 5968 1612 FC7E     		.sleb128 -132
 5969 1614 1C       		.uleb128 0x1c
 5970 1615 69050000 		.4byte	.LASF22
 5971 1619 01       		.byte	0x1
 5972 161a B502     		.2byte	0x2b5
 5973 161c 33040000 		.4byte	0x433
 5974 1620 03       		.uleb128 0x3
 5975 1621 91       		.byte	0x91
 5976 1622 807F     		.sleb128 -128
 5977 1624 1C       		.uleb128 0x1c
 5978 1625 C9050000 		.4byte	.LASF84
 5979 1629 01       		.byte	0x1
 5980 162a C002     		.2byte	0x2c0
 5981 162c 1A010000 		.4byte	0x11a
 5982 1630 03       		.uleb128 0x3
 5983 1631 91       		.byte	0x91
 5984 1632 A07F     		.sleb128 -96
 5985 1634 20       		.uleb128 0x20
 5986 1635 E0000000 		.4byte	.LBB14
 5987 1639 2C000000 		.4byte	.LBE14-.LBB14
 5988 163d A1160000 		.4byte	0x16a1
 5989 1641 1C       		.uleb128 0x1c
 5990 1642 3F020000 		.4byte	.LASF55
 5991 1646 01       		.byte	0x1
 5992 1647 B802     		.2byte	0x2b8
 5993 1649 BE130000 		.4byte	0x13be
 5994 164d 03       		.uleb128 0x3
 5995 164e 91       		.byte	0x91
 5996 164f 907F     		.sleb128 -112
 5997 1651 11       		.uleb128 0x11
 5998 1652 E4000000 		.4byte	.LVL252
 5999 1656 14030000 		.4byte	0x314
 6000 165a 11       		.uleb128 0x11
 6001 165b F2000000 		.4byte	.LVL253
 6002 165f 14030000 		.4byte	0x314
 6003 1663 0F       		.uleb128 0xf
 6004 1664 02010000 		.4byte	.LVL254
 6005 1668 0B1B0000 		.4byte	0x1b0b
 6006 166c 83160000 		.4byte	0x1683
 6007 1670 10       		.uleb128 0x10
 6008 1671 01       		.uleb128 0x1
 6009 1672 50       		.byte	0x50
 6010 1673 03       		.uleb128 0x3
 6011 1674 91       		.byte	0x91
 6012 1675 907F     		.sleb128 -112
 6013 1677 10       		.uleb128 0x10
ARM GAS  C:\Users\HELLOK~1\AppData\Local\Temp\cc4szl9H.s 			page 121


 6014 1678 01       		.uleb128 0x1
 6015 1679 51       		.byte	0x51
 6016 167a 02       		.uleb128 0x2
 6017 167b 74       		.byte	0x74
 6018 167c 00       		.sleb128 0
 6019 167d 10       		.uleb128 0x10
 6020 167e 01       		.uleb128 0x1
 6021 167f 52       		.byte	0x52
 6022 1680 01       		.uleb128 0x1
 6023 1681 38       		.byte	0x38
 6024 1682 00       		.byte	0
 6025 1683 18       		.uleb128 0x18
 6026 1684 0C010000 		.4byte	.LVL255
 6027 1688 0B1B0000 		.4byte	0x1b0b
 6028 168c 10       		.uleb128 0x10
 6029 168d 01       		.uleb128 0x1
 6030 168e 50       		.byte	0x50
 6031 168f 03       		.uleb128 0x3
 6032 1690 91       		.byte	0x91
 6033 1691 887F     		.sleb128 -120
 6034 1693 10       		.uleb128 0x10
 6035 1694 01       		.uleb128 0x1
 6036 1695 51       		.byte	0x51
 6037 1696 03       		.uleb128 0x3
 6038 1697 91       		.byte	0x91
 6039 1698 907F     		.sleb128 -112
 6040 169a 10       		.uleb128 0x10
 6041 169b 01       		.uleb128 0x1
 6042 169c 52       		.byte	0x52
 6043 169d 01       		.uleb128 0x1
 6044 169e 38       		.byte	0x38
 6045 169f 00       		.byte	0
 6046 16a0 00       		.byte	0
 6047 16a1 20       		.uleb128 0x20
 6048 16a2 0E010000 		.4byte	.LBB15
 6049 16a6 2A000000 		.4byte	.LBE15-.LBB15
 6050 16aa 0E170000 		.4byte	0x170e
 6051 16ae 1C       		.uleb128 0x1c
 6052 16af 3F020000 		.4byte	.LASF55
 6053 16b3 01       		.byte	0x1
 6054 16b4 BC02     		.2byte	0x2bc
 6055 16b6 BE130000 		.4byte	0x13be
 6056 16ba 03       		.uleb128 0x3
 6057 16bb 91       		.byte	0x91
 6058 16bc 987F     		.sleb128 -104
 6059 16be 11       		.uleb128 0x11
 6060 16bf 12010000 		.4byte	.LVL256
 6061 16c3 14030000 		.4byte	0x314
 6062 16c7 11       		.uleb128 0x11
 6063 16c8 1E010000 		.4byte	.LVL257
 6064 16cc 14030000 		.4byte	0x314
 6065 16d0 0F       		.uleb128 0xf
 6066 16d1 2E010000 		.4byte	.LVL258
 6067 16d5 0B1B0000 		.4byte	0x1b0b
 6068 16d9 F0160000 		.4byte	0x16f0
 6069 16dd 10       		.uleb128 0x10
 6070 16de 01       		.uleb128 0x1
ARM GAS  C:\Users\HELLOK~1\AppData\Local\Temp\cc4szl9H.s 			page 122


 6071 16df 50       		.byte	0x50
 6072 16e0 03       		.uleb128 0x3
 6073 16e1 91       		.byte	0x91
 6074 16e2 987F     		.sleb128 -104
 6075 16e4 10       		.uleb128 0x10
 6076 16e5 01       		.uleb128 0x1
 6077 16e6 51       		.byte	0x51
 6078 16e7 02       		.uleb128 0x2
 6079 16e8 74       		.byte	0x74
 6080 16e9 00       		.sleb128 0
 6081 16ea 10       		.uleb128 0x10
 6082 16eb 01       		.uleb128 0x1
 6083 16ec 52       		.byte	0x52
 6084 16ed 01       		.uleb128 0x1
 6085 16ee 38       		.byte	0x38
 6086 16ef 00       		.byte	0
 6087 16f0 18       		.uleb128 0x18
 6088 16f1 38010000 		.4byte	.LVL259
 6089 16f5 0B1B0000 		.4byte	0x1b0b
 6090 16f9 10       		.uleb128 0x10
 6091 16fa 01       		.uleb128 0x1
 6092 16fb 50       		.byte	0x50
 6093 16fc 03       		.uleb128 0x3
 6094 16fd 91       		.byte	0x91
 6095 16fe 887F     		.sleb128 -120
 6096 1700 10       		.uleb128 0x10
 6097 1701 01       		.uleb128 0x1
 6098 1702 51       		.byte	0x51
 6099 1703 03       		.uleb128 0x3
 6100 1704 91       		.byte	0x91
 6101 1705 987F     		.sleb128 -104
 6102 1707 10       		.uleb128 0x10
 6103 1708 01       		.uleb128 0x1
 6104 1709 52       		.byte	0x52
 6105 170a 01       		.uleb128 0x1
 6106 170b 38       		.byte	0x38
 6107 170c 00       		.byte	0
 6108 170d 00       		.byte	0
 6109 170e 20       		.uleb128 0x20
 6110 170f BA010000 		.4byte	.LBB16
 6111 1713 2A000000 		.4byte	.LBE16-.LBB16
 6112 1717 3C170000 		.4byte	0x173c
 6113 171b 1E       		.uleb128 0x1e
 6114 171c 6100     		.ascii	"a\000"
 6115 171e 01       		.byte	0x1
 6116 171f C702     		.2byte	0x2c7
 6117 1721 EA180000 		.4byte	0x18ea
 6118 1725 03       		.uleb128 0x3
 6119 1726 91       		.byte	0x91
 6120 1727 847F     		.sleb128 -124
 6121 1729 11       		.uleb128 0x11
 6122 172a DA010000 		.4byte	.LVL265
 6123 172e 8B070000 		.4byte	0x78b
 6124 1732 11       		.uleb128 0x11
 6125 1733 DE010000 		.4byte	.LVL266
 6126 1737 F30A0000 		.4byte	0xaf3
 6127 173b 00       		.byte	0
ARM GAS  C:\Users\HELLOK~1\AppData\Local\Temp\cc4szl9H.s 			page 123


 6128 173c 0F       		.uleb128 0xf
 6129 173d 9C000000 		.4byte	.LVL246
 6130 1741 66030000 		.4byte	0x366
 6131 1745 5C170000 		.4byte	0x175c
 6132 1749 10       		.uleb128 0x10
 6133 174a 01       		.uleb128 0x1
 6134 174b 50       		.byte	0x50
 6135 174c 03       		.uleb128 0x3
 6136 174d 91       		.byte	0x91
 6137 174e EC7E     		.sleb128 -148
 6138 1750 10       		.uleb128 0x10
 6139 1751 01       		.uleb128 0x1
 6140 1752 51       		.byte	0x51
 6141 1753 01       		.uleb128 0x1
 6142 1754 31       		.byte	0x31
 6143 1755 10       		.uleb128 0x10
 6144 1756 01       		.uleb128 0x1
 6145 1757 52       		.byte	0x52
 6146 1758 02       		.uleb128 0x2
 6147 1759 08       		.byte	0x8
 6148 175a 51       		.byte	0x51
 6149 175b 00       		.byte	0
 6150 175c 0F       		.uleb128 0xf
 6151 175d A8000000 		.4byte	.LVL247
 6152 1761 66030000 		.4byte	0x366
 6153 1765 7C170000 		.4byte	0x177c
 6154 1769 10       		.uleb128 0x10
 6155 176a 01       		.uleb128 0x1
 6156 176b 50       		.byte	0x50
 6157 176c 03       		.uleb128 0x3
 6158 176d 91       		.byte	0x91
 6159 176e F07E     		.sleb128 -144
 6160 1770 10       		.uleb128 0x10
 6161 1771 01       		.uleb128 0x1
 6162 1772 51       		.byte	0x51
 6163 1773 01       		.uleb128 0x1
 6164 1774 31       		.byte	0x31
 6165 1775 10       		.uleb128 0x10
 6166 1776 01       		.uleb128 0x1
 6167 1777 52       		.byte	0x52
 6168 1778 02       		.uleb128 0x2
 6169 1779 08       		.byte	0x8
 6170 177a 51       		.byte	0x51
 6171 177b 00       		.byte	0
 6172 177c 0F       		.uleb128 0xf
 6173 177d B6000000 		.4byte	.LVL248
 6174 1781 66030000 		.4byte	0x366
 6175 1785 9B170000 		.4byte	0x179b
 6176 1789 10       		.uleb128 0x10
 6177 178a 01       		.uleb128 0x1
 6178 178b 50       		.byte	0x50
 6179 178c 02       		.uleb128 0x2
 6180 178d 75       		.byte	0x75
 6181 178e 00       		.sleb128 0
 6182 178f 10       		.uleb128 0x10
 6183 1790 01       		.uleb128 0x1
 6184 1791 51       		.byte	0x51
ARM GAS  C:\Users\HELLOK~1\AppData\Local\Temp\cc4szl9H.s 			page 124


 6185 1792 01       		.uleb128 0x1
 6186 1793 31       		.byte	0x31
 6187 1794 10       		.uleb128 0x10
 6188 1795 01       		.uleb128 0x1
 6189 1796 52       		.byte	0x52
 6190 1797 02       		.uleb128 0x2
 6191 1798 08       		.byte	0x8
 6192 1799 51       		.byte	0x51
 6193 179a 00       		.byte	0
 6194 179b 0F       		.uleb128 0xf
 6195 179c C2000000 		.4byte	.LVL249
 6196 17a0 66030000 		.4byte	0x366
 6197 17a4 BB170000 		.4byte	0x17bb
 6198 17a8 10       		.uleb128 0x10
 6199 17a9 01       		.uleb128 0x1
 6200 17aa 50       		.byte	0x50
 6201 17ab 03       		.uleb128 0x3
 6202 17ac 91       		.byte	0x91
 6203 17ad F87E     		.sleb128 -136
 6204 17af 10       		.uleb128 0x10
 6205 17b0 01       		.uleb128 0x1
 6206 17b1 51       		.byte	0x51
 6207 17b2 01       		.uleb128 0x1
 6208 17b3 31       		.byte	0x31
 6209 17b4 10       		.uleb128 0x10
 6210 17b5 01       		.uleb128 0x1
 6211 17b6 52       		.byte	0x52
 6212 17b7 02       		.uleb128 0x2
 6213 17b8 08       		.byte	0x8
 6214 17b9 51       		.byte	0x51
 6215 17ba 00       		.byte	0
 6216 17bb 0F       		.uleb128 0xf
 6217 17bc CE000000 		.4byte	.LVL250
 6218 17c0 66030000 		.4byte	0x366
 6219 17c4 DB170000 		.4byte	0x17db
 6220 17c8 10       		.uleb128 0x10
 6221 17c9 01       		.uleb128 0x1
 6222 17ca 50       		.byte	0x50
 6223 17cb 03       		.uleb128 0x3
 6224 17cc 91       		.byte	0x91
 6225 17cd FC7E     		.sleb128 -132
 6226 17cf 10       		.uleb128 0x10
 6227 17d0 01       		.uleb128 0x1
 6228 17d1 51       		.byte	0x51
 6229 17d2 01       		.uleb128 0x1
 6230 17d3 31       		.byte	0x31
 6231 17d4 10       		.uleb128 0x10
 6232 17d5 01       		.uleb128 0x1
 6233 17d6 52       		.byte	0x52
 6234 17d7 02       		.uleb128 0x2
 6235 17d8 08       		.byte	0x8
 6236 17d9 51       		.byte	0x51
 6237 17da 00       		.byte	0
 6238 17db 0F       		.uleb128 0xf
 6239 17dc DA000000 		.4byte	.LVL251
 6240 17e0 66030000 		.4byte	0x366
 6241 17e4 FB170000 		.4byte	0x17fb
ARM GAS  C:\Users\HELLOK~1\AppData\Local\Temp\cc4szl9H.s 			page 125


 6242 17e8 10       		.uleb128 0x10
 6243 17e9 01       		.uleb128 0x1
 6244 17ea 50       		.byte	0x50
 6245 17eb 03       		.uleb128 0x3
 6246 17ec 91       		.byte	0x91
 6247 17ed 807F     		.sleb128 -128
 6248 17ef 10       		.uleb128 0x10
 6249 17f0 01       		.uleb128 0x1
 6250 17f1 51       		.byte	0x51
 6251 17f2 01       		.uleb128 0x1
 6252 17f3 31       		.byte	0x31
 6253 17f4 10       		.uleb128 0x10
 6254 17f5 01       		.uleb128 0x1
 6255 17f6 52       		.byte	0x52
 6256 17f7 02       		.uleb128 0x2
 6257 17f8 08       		.byte	0x8
 6258 17f9 51       		.byte	0x51
 6259 17fa 00       		.byte	0
 6260 17fb 11       		.uleb128 0x11
 6261 17fc 40010000 		.4byte	.LVL260
 6262 1800 14030000 		.4byte	0x314
 6263 1804 11       		.uleb128 0x11
 6264 1805 4C010000 		.4byte	.LVL261
 6265 1809 14030000 		.4byte	0x314
 6266 180d 11       		.uleb128 0x11
 6267 180e 60010000 		.4byte	.LVL262
 6268 1812 14030000 		.4byte	0x314
 6269 1816 11       		.uleb128 0x11
 6270 1817 74010000 		.4byte	.LVL263
 6271 181b 6F080000 		.4byte	0x86f
 6272 181f 0F       		.uleb128 0xf
 6273 1820 B4010000 		.4byte	.LVL264
 6274 1824 141B0000 		.4byte	0x1b14
 6275 1828 3B180000 		.4byte	0x183b
 6276 182c 10       		.uleb128 0x10
 6277 182d 01       		.uleb128 0x1
 6278 182e 51       		.byte	0x51
 6279 182f 05       		.uleb128 0x5
 6280 1830 03       		.byte	0x3
 6281 1831 A0000000 		.4byte	.LC0
 6282 1835 10       		.uleb128 0x10
 6283 1836 01       		.uleb128 0x1
 6284 1837 52       		.byte	0x52
 6285 1838 01       		.uleb128 0x1
 6286 1839 32       		.byte	0x32
 6287 183a 00       		.byte	0
 6288 183b 11       		.uleb128 0x11
 6289 183c 00020000 		.4byte	.LVL267
 6290 1840 0B140000 		.4byte	0x140b
 6291 1844 18       		.uleb128 0x18
 6292 1845 08020000 		.4byte	.LVL268
 6293 1849 951A0000 		.4byte	0x1a95
 6294 184d 10       		.uleb128 0x10
 6295 184e 01       		.uleb128 0x1
 6296 184f 50       		.byte	0x50
 6297 1850 03       		.uleb128 0x3
 6298 1851 0A       		.byte	0xa
ARM GAS  C:\Users\HELLOK~1\AppData\Local\Temp\cc4szl9H.s 			page 126


 6299 1852 E803     		.2byte	0x3e8
 6300 1854 00       		.byte	0
 6301 1855 00       		.byte	0
 6302 1856 11       		.uleb128 0x11
 6303 1857 08000000 		.4byte	.LVL237
 6304 185b 1F1B0000 		.4byte	0x1b1f
 6305 185f 11       		.uleb128 0x11
 6306 1860 0C000000 		.4byte	.LVL238
 6307 1864 2A1B0000 		.4byte	0x1b2a
 6308 1868 11       		.uleb128 0x11
 6309 1869 12000000 		.4byte	.LVL239
 6310 186d 351B0000 		.4byte	0x1b35
 6311 1871 0F       		.uleb128 0xf
 6312 1872 1E000000 		.4byte	.LVL240
 6313 1876 401B0000 		.4byte	0x1b40
 6314 187a 94180000 		.4byte	0x1894
 6315 187e 10       		.uleb128 0x10
 6316 187f 01       		.uleb128 0x1
 6317 1880 50       		.byte	0x50
 6318 1881 02       		.uleb128 0x2
 6319 1882 08       		.byte	0x8
 6320 1883 27       		.byte	0x27
 6321 1884 10       		.uleb128 0x10
 6322 1885 01       		.uleb128 0x1
 6323 1886 51       		.byte	0x51
 6324 1887 01       		.uleb128 0x1
 6325 1888 44       		.byte	0x44
 6326 1889 10       		.uleb128 0x10
 6327 188a 01       		.uleb128 0x1
 6328 188b 52       		.byte	0x52
 6329 188c 01       		.uleb128 0x1
 6330 188d 34       		.byte	0x34
 6331 188e 10       		.uleb128 0x10
 6332 188f 01       		.uleb128 0x1
 6333 1890 53       		.byte	0x53
 6334 1891 01       		.uleb128 0x1
 6335 1892 30       		.byte	0x30
 6336 1893 00       		.byte	0
 6337 1894 11       		.uleb128 0x11
 6338 1895 22000000 		.4byte	.LVL241
 6339 1899 4B1B0000 		.4byte	0x1b4b
 6340 189d 11       		.uleb128 0x11
 6341 189e 26000000 		.4byte	.LVL242
 6342 18a2 F30A0000 		.4byte	0xaf3
 6343 18a6 11       		.uleb128 0x11
 6344 18a7 6C000000 		.4byte	.LVL243
 6345 18ab D7050000 		.4byte	0x5d7
 6346 18af 0F       		.uleb128 0xf
 6347 18b0 80000000 		.4byte	.LVL244
 6348 18b4 43040000 		.4byte	0x443
 6349 18b8 CE180000 		.4byte	0x18ce
 6350 18bc 10       		.uleb128 0x10
 6351 18bd 01       		.uleb128 0x1
 6352 18be 50       		.byte	0x50
 6353 18bf 02       		.uleb128 0x2
 6354 18c0 74       		.byte	0x74
 6355 18c1 00       		.sleb128 0
ARM GAS  C:\Users\HELLOK~1\AppData\Local\Temp\cc4szl9H.s 			page 127


 6356 18c2 10       		.uleb128 0x10
 6357 18c3 01       		.uleb128 0x1
 6358 18c4 51       		.byte	0x51
 6359 18c5 01       		.uleb128 0x1
 6360 18c6 32       		.byte	0x32
 6361 18c7 10       		.uleb128 0x10
 6362 18c8 01       		.uleb128 0x1
 6363 18c9 52       		.byte	0x52
 6364 18ca 02       		.uleb128 0x2
 6365 18cb 08       		.byte	0x8
 6366 18cc 51       		.byte	0x51
 6367 18cd 00       		.byte	0
 6368 18ce 18       		.uleb128 0x18
 6369 18cf 8E000000 		.4byte	.LVL245
 6370 18d3 43040000 		.4byte	0x443
 6371 18d7 10       		.uleb128 0x10
 6372 18d8 01       		.uleb128 0x1
 6373 18d9 50       		.byte	0x50
 6374 18da 02       		.uleb128 0x2
 6375 18db 74       		.byte	0x74
 6376 18dc 00       		.sleb128 0
 6377 18dd 10       		.uleb128 0x10
 6378 18de 01       		.uleb128 0x1
 6379 18df 51       		.byte	0x51
 6380 18e0 01       		.uleb128 0x1
 6381 18e1 32       		.byte	0x32
 6382 18e2 10       		.uleb128 0x10
 6383 18e3 01       		.uleb128 0x1
 6384 18e4 52       		.byte	0x52
 6385 18e5 02       		.uleb128 0x2
 6386 18e6 08       		.byte	0x8
 6387 18e7 51       		.byte	0x51
 6388 18e8 00       		.byte	0
 6389 18e9 00       		.byte	0
 6390 18ea 05       		.uleb128 0x5
 6391 18eb 5D000000 		.4byte	0x5d
 6392 18ef 26       		.uleb128 0x26
 6393 18f0 9F020000 		.4byte	.LASF41
 6394 18f4 01       		.byte	0x1
 6395 18f5 13       		.byte	0x13
 6396 18f6 CE000000 		.4byte	0xce
 6397 18fa 05       		.uleb128 0x5
 6398 18fb 03       		.byte	0x3
 6399 18fc 00000000 		.4byte	motor
 6400 1900 26       		.uleb128 0x26
 6401 1901 A4050000 		.4byte	.LASF85
 6402 1905 01       		.byte	0x1
 6403 1906 14       		.byte	0x14
 6404 1907 5D000000 		.4byte	0x5d
 6405 190b 05       		.uleb128 0x5
 6406 190c 03       		.byte	0x3
 6407 190d 00000000 		.4byte	motorDelay
 6408 1911 26       		.uleb128 0x26
 6409 1912 70020000 		.4byte	.LASF86
 6410 1916 01       		.byte	0x1
 6411 1917 15       		.byte	0x15
 6412 1918 5D000000 		.4byte	0x5d
ARM GAS  C:\Users\HELLOK~1\AppData\Local\Temp\cc4szl9H.s 			page 128


 6413 191c 05       		.uleb128 0x5
 6414 191d 03       		.byte	0x3
 6415 191e 00000000 		.4byte	feedSteps
 6416 1922 27       		.uleb128 0x27
 6417 1923 72746300 		.ascii	"rtc\000"
 6418 1927 01       		.byte	0x1
 6419 1928 7C       		.byte	0x7c
 6420 1929 4B010000 		.4byte	0x14b
 6421 192d 05       		.uleb128 0x5
 6422 192e 03       		.byte	0x3
 6423 192f 00000000 		.4byte	rtc
 6424 1933 15       		.uleb128 0x15
 6425 1934 BD000000 		.4byte	0xbd
 6426 1938 43190000 		.4byte	0x1943
 6427 193c 16       		.uleb128 0x16
 6428 193d B0000000 		.4byte	0xb0
 6429 1941 0B       		.byte	0xb
 6430 1942 00       		.byte	0
 6431 1943 26       		.uleb128 0x26
 6432 1944 F7000000 		.4byte	.LASF87
 6433 1948 01       		.byte	0x1
 6434 1949 8F       		.byte	0x8f
 6435 194a 33190000 		.4byte	0x1933
 6436 194e 05       		.uleb128 0x5
 6437 194f 03       		.byte	0x3
 6438 1950 00000000 		.4byte	months
 6439 1954 15       		.uleb128 0x15
 6440 1955 EA000000 		.4byte	0xea
 6441 1959 64190000 		.4byte	0x1964
 6442 195d 16       		.uleb128 0x16
 6443 195e B0000000 		.4byte	0xb0
 6444 1962 09       		.byte	0x9
 6445 1963 00       		.byte	0
 6446 1964 26       		.uleb128 0x26
 6447 1965 96000000 		.4byte	.LASF88
 6448 1969 01       		.byte	0x1
 6449 196a 9E       		.byte	0x9e
 6450 196b 54190000 		.4byte	0x1954
 6451 196f 05       		.uleb128 0x5
 6452 1970 03       		.byte	0x3
 6453 1971 00000000 		.4byte	feedTimes
 6454 1975 15       		.uleb128 0x15
 6455 1976 B7000000 		.4byte	0xb7
 6456 197a 85190000 		.4byte	0x1985
 6457 197e 16       		.uleb128 0x16
 6458 197f B0000000 		.4byte	0xb0
 6459 1983 05       		.byte	0x5
 6460 1984 00       		.byte	0
 6461 1985 26       		.uleb128 0x26
 6462 1986 5B040000 		.4byte	.LASF89
 6463 198a 01       		.byte	0x1
 6464 198b A4       		.byte	0xa4
 6465 198c 75190000 		.4byte	0x1975
 6466 1990 05       		.uleb128 0x5
 6467 1991 03       		.byte	0x3
 6468 1992 00000000 		.4byte	commands
 6469 1996 26       		.uleb128 0x26
ARM GAS  C:\Users\HELLOK~1\AppData\Local\Temp\cc4szl9H.s 			page 129


 6470 1997 FF030000 		.4byte	.LASF90
 6471 199b 01       		.byte	0x1
 6472 199c B2       		.byte	0xb2
 6473 199d A7190000 		.4byte	0x19a7
 6474 19a1 05       		.uleb128 0x5
 6475 19a2 03       		.byte	0x3
 6476 19a3 00000000 		.4byte	LCDAddr
 6477 19a7 07       		.uleb128 0x7
 6478 19a8 83000000 		.4byte	0x83
 6479 19ac 26       		.uleb128 0x26
 6480 19ad 3A040000 		.4byte	.LASF91
 6481 19b1 01       		.byte	0x1
 6482 19b2 B3       		.byte	0xb3
 6483 19b3 A7190000 		.4byte	0x19a7
 6484 19b7 05       		.uleb128 0x5
 6485 19b8 03       		.byte	0x3
 6486 19b9 00000000 		.4byte	RTCAddr
 6487 19bd 26       		.uleb128 0x26
 6488 19be 93020000 		.4byte	.LASF92
 6489 19c2 01       		.byte	0x1
 6490 19c3 B4       		.byte	0xb4
 6491 19c4 6B000000 		.4byte	0x6b
 6492 19c8 05       		.uleb128 0x5
 6493 19c9 03       		.byte	0x3
 6494 19ca 00000000 		.4byte	feedCounter
 6495 19ce 26       		.uleb128 0x26
 6496 19cf 50030000 		.4byte	.LASF93
 6497 19d3 01       		.byte	0x1
 6498 19d4 B5       		.byte	0xb5
 6499 19d5 6B000000 		.4byte	0x6b
 6500 19d9 05       		.uleb128 0x5
 6501 19da 03       		.byte	0x3
 6502 19db 00000000 		.4byte	speakerToggle
 6503 19df 26       		.uleb128 0x26
 6504 19e0 46030000 		.4byte	.LASF94
 6505 19e4 01       		.byte	0x1
 6506 19e5 B6       		.byte	0xb6
 6507 19e6 6B000000 		.4byte	0x6b
 6508 19ea 05       		.uleb128 0x5
 6509 19eb 03       		.byte	0x3
 6510 19ec 00000000 		.4byte	LEDToggle
 6511 19f0 26       		.uleb128 0x26
 6512 19f1 5D020000 		.4byte	.LASF95
 6513 19f5 01       		.byte	0x1
 6514 19f6 B7       		.byte	0xb7
 6515 19f7 A4000000 		.4byte	0xa4
 6516 19fb 05       		.uleb128 0x5
 6517 19fc 03       		.byte	0x3
 6518 19fd 00000000 		.4byte	buttonFlag
 6519 1a01 26       		.uleb128 0x26
 6520 1a02 10040000 		.4byte	.LASF96
 6521 1a06 01       		.byte	0x1
 6522 1a07 B8       		.byte	0xb8
 6523 1a08 A4000000 		.4byte	0xa4
 6524 1a0c 05       		.uleb128 0x5
 6525 1a0d 03       		.byte	0x3
 6526 1a0e 00000000 		.4byte	encFlag
ARM GAS  C:\Users\HELLOK~1\AppData\Local\Temp\cc4szl9H.s 			page 130


 6527 1a12 26       		.uleb128 0x26
 6528 1a13 D2030000 		.4byte	.LASF97
 6529 1a17 01       		.byte	0x1
 6530 1a18 B9       		.byte	0xb9
 6531 1a19 A4000000 		.4byte	0xa4
 6532 1a1d 05       		.uleb128 0x5
 6533 1a1e 03       		.byte	0x3
 6534 1a1f 00000000 		.4byte	encPos
 6535 1a23 28       		.uleb128 0x28
 6536 1a24 49010000 		.4byte	.LASF98
 6537 1a28 49010000 		.4byte	.LASF98
 6538 1a2c 03       		.byte	0x3
 6539 1a2d 2F       		.byte	0x2f
 6540 1a2e 28       		.uleb128 0x28
 6541 1a2f 04010000 		.4byte	.LASF99
 6542 1a33 04010000 		.4byte	.LASF99
 6543 1a37 04       		.byte	0x4
 6544 1a38 DA       		.byte	0xda
 6545 1a39 29       		.uleb128 0x29
 6546 1a3a 1F040000 		.4byte	.LASF100
 6547 1a3e 1F040000 		.4byte	.LASF100
 6548 1a42 05       		.byte	0x5
 6549 1a43 1301     		.2byte	0x113
 6550 1a45 29       		.uleb128 0x29
 6551 1a46 55050000 		.4byte	.LASF101
 6552 1a4a 55050000 		.4byte	.LASF101
 6553 1a4e 05       		.byte	0x5
 6554 1a4f 0F01     		.2byte	0x10f
 6555 1a51 29       		.uleb128 0x29
 6556 1a52 FD020000 		.4byte	.LASF102
 6557 1a56 FD020000 		.4byte	.LASF102
 6558 1a5a 05       		.byte	0x5
 6559 1a5b 1001     		.2byte	0x110
 6560 1a5d 29       		.uleb128 0x29
 6561 1a5e A0000000 		.4byte	.LASF103
 6562 1a62 A0000000 		.4byte	.LASF103
 6563 1a66 05       		.byte	0x5
 6564 1a67 1401     		.2byte	0x114
 6565 1a69 28       		.uleb128 0x28
 6566 1a6a FF050000 		.4byte	.LASF104
 6567 1a6e FF050000 		.4byte	.LASF104
 6568 1a72 06       		.byte	0x6
 6569 1a73 88       		.byte	0x88
 6570 1a74 28       		.uleb128 0x28
 6571 1a75 A6040000 		.4byte	.LASF105
 6572 1a79 A6040000 		.4byte	.LASF105
 6573 1a7d 07       		.byte	0x7
 6574 1a7e FD       		.byte	0xfd
 6575 1a7f 28       		.uleb128 0x28
 6576 1a80 69010000 		.4byte	.LASF106
 6577 1a84 69010000 		.4byte	.LASF106
 6578 1a88 06       		.byte	0x6
 6579 1a89 8B       		.byte	0x8b
 6580 1a8a 28       		.uleb128 0x28
 6581 1a8b E1030000 		.4byte	.LASF107
 6582 1a8f E1030000 		.4byte	.LASF107
 6583 1a93 08       		.byte	0x8
ARM GAS  C:\Users\HELLOK~1\AppData\Local\Temp\cc4szl9H.s 			page 131


 6584 1a94 2F       		.byte	0x2f
 6585 1a95 28       		.uleb128 0x28
 6586 1a96 00000000 		.4byte	.LASF108
 6587 1a9a 00000000 		.4byte	.LASF108
 6588 1a9e 04       		.byte	0x4
 6589 1a9f D9       		.byte	0xd9
 6590 1aa0 29       		.uleb128 0x29
 6591 1aa1 3D050000 		.4byte	.LASF109
 6592 1aa5 3D050000 		.4byte	.LASF109
 6593 1aa9 09       		.byte	0x9
 6594 1aaa 3201     		.2byte	0x132
 6595 1aac 29       		.uleb128 0x29
 6596 1aad 2F000000 		.4byte	.LASF110
 6597 1ab1 2F000000 		.4byte	.LASF110
 6598 1ab5 0A       		.byte	0xa
 6599 1ab6 3201     		.2byte	0x132
 6600 1ab8 29       		.uleb128 0x29
 6601 1ab9 FD040000 		.4byte	.LASF111
 6602 1abd FD040000 		.4byte	.LASF111
 6603 1ac1 0A       		.byte	0xa
 6604 1ac2 3301     		.2byte	0x133
 6605 1ac4 29       		.uleb128 0x29
 6606 1ac5 19020000 		.4byte	.LASF112
 6607 1ac9 19020000 		.4byte	.LASF112
 6608 1acd 09       		.byte	0x9
 6609 1ace 3301     		.2byte	0x133
 6610 1ad0 29       		.uleb128 0x29
 6611 1ad1 AF050000 		.4byte	.LASF113
 6612 1ad5 AF050000 		.4byte	.LASF113
 6613 1ad9 0A       		.byte	0xa
 6614 1ada 5001     		.2byte	0x150
 6615 1adc 29       		.uleb128 0x29
 6616 1add 6E050000 		.4byte	.LASF114
 6617 1ae1 6E050000 		.4byte	.LASF114
 6618 1ae5 0A       		.byte	0xa
 6619 1ae6 5501     		.2byte	0x155
 6620 1ae8 29       		.uleb128 0x29
 6621 1ae9 88040000 		.4byte	.LASF115
 6622 1aed 88040000 		.4byte	.LASF115
 6623 1af1 09       		.byte	0x9
 6624 1af2 5001     		.2byte	0x150
 6625 1af4 29       		.uleb128 0x29
 6626 1af5 66000000 		.4byte	.LASF116
 6627 1af9 66000000 		.4byte	.LASF116
 6628 1afd 09       		.byte	0x9
 6629 1afe 5501     		.2byte	0x155
 6630 1b00 28       		.uleb128 0x28
 6631 1b01 A0040000 		.4byte	.LASF117
 6632 1b05 A0040000 		.4byte	.LASF117
 6633 1b09 06       		.byte	0x6
 6634 1b0a 54       		.byte	0x54
 6635 1b0b 2A       		.uleb128 0x2a
 6636 1b0c F3050000 		.4byte	.LASF129
 6637 1b10 F3050000 		.4byte	.LASF129
 6638 1b14 28       		.uleb128 0x28
 6639 1b15 51000000 		.4byte	.LASF118
 6640 1b19 51000000 		.4byte	.LASF118
ARM GAS  C:\Users\HELLOK~1\AppData\Local\Temp\cc4szl9H.s 			page 132


 6641 1b1d 0B       		.byte	0xb
 6642 1b1e 23       		.byte	0x23
 6643 1b1f 28       		.uleb128 0x28
 6644 1b20 4A060000 		.4byte	.LASF119
 6645 1b24 4A060000 		.4byte	.LASF119
 6646 1b28 0C       		.byte	0xc
 6647 1b29 17       		.byte	0x17
 6648 1b2a 28       		.uleb128 0x28
 6649 1b2b 3B010000 		.4byte	.LASF120
 6650 1b2f 3B010000 		.4byte	.LASF120
 6651 1b33 0D       		.byte	0xd
 6652 1b34 17       		.byte	0x17
 6653 1b35 28       		.uleb128 0x28
 6654 1b36 B5000000 		.4byte	.LASF121
 6655 1b3a B5000000 		.4byte	.LASF121
 6656 1b3e 0E       		.byte	0xe
 6657 1b3f 72       		.byte	0x72
 6658 1b40 28       		.uleb128 0x28
 6659 1b41 18000000 		.4byte	.LASF122
 6660 1b45 18000000 		.4byte	.LASF122
 6661 1b49 06       		.byte	0x6
 6662 1b4a 47       		.byte	0x47
 6663 1b4b 28       		.uleb128 0x28
 6664 1b4c 8D000000 		.4byte	.LASF123
 6665 1b50 8D000000 		.4byte	.LASF123
 6666 1b54 06       		.byte	0x6
 6667 1b55 4E       		.byte	0x4e
 6668 1b56 00       		.byte	0
 6669              		.section	.debug_abbrev,"",%progbits
 6670              	.Ldebug_abbrev0:
 6671 0000 01       		.uleb128 0x1
 6672 0001 11       		.uleb128 0x11
 6673 0002 01       		.byte	0x1
 6674 0003 25       		.uleb128 0x25
 6675 0004 0E       		.uleb128 0xe
 6676 0005 13       		.uleb128 0x13
 6677 0006 0B       		.uleb128 0xb
 6678 0007 03       		.uleb128 0x3
 6679 0008 0E       		.uleb128 0xe
 6680 0009 1B       		.uleb128 0x1b
 6681 000a 0E       		.uleb128 0xe
 6682 000b 55       		.uleb128 0x55
 6683 000c 17       		.uleb128 0x17
 6684 000d 11       		.uleb128 0x11
 6685 000e 01       		.uleb128 0x1
 6686 000f 10       		.uleb128 0x10
 6687 0010 17       		.uleb128 0x17
 6688 0011 00       		.byte	0
 6689 0012 00       		.byte	0
 6690 0013 02       		.uleb128 0x2
 6691 0014 24       		.uleb128 0x24
 6692 0015 00       		.byte	0
 6693 0016 0B       		.uleb128 0xb
 6694 0017 0B       		.uleb128 0xb
 6695 0018 3E       		.uleb128 0x3e
 6696 0019 0B       		.uleb128 0xb
 6697 001a 03       		.uleb128 0x3
ARM GAS  C:\Users\HELLOK~1\AppData\Local\Temp\cc4szl9H.s 			page 133


 6698 001b 0E       		.uleb128 0xe
 6699 001c 00       		.byte	0
 6700 001d 00       		.byte	0
 6701 001e 03       		.uleb128 0x3
 6702 001f 24       		.uleb128 0x24
 6703 0020 00       		.byte	0
 6704 0021 0B       		.uleb128 0xb
 6705 0022 0B       		.uleb128 0xb
 6706 0023 3E       		.uleb128 0x3e
 6707 0024 0B       		.uleb128 0xb
 6708 0025 03       		.uleb128 0x3
 6709 0026 08       		.uleb128 0x8
 6710 0027 00       		.byte	0
 6711 0028 00       		.byte	0
 6712 0029 04       		.uleb128 0x4
 6713 002a 16       		.uleb128 0x16
 6714 002b 00       		.byte	0
 6715 002c 03       		.uleb128 0x3
 6716 002d 0E       		.uleb128 0xe
 6717 002e 3A       		.uleb128 0x3a
 6718 002f 0B       		.uleb128 0xb
 6719 0030 3B       		.uleb128 0x3b
 6720 0031 05       		.uleb128 0x5
 6721 0032 49       		.uleb128 0x49
 6722 0033 13       		.uleb128 0x13
 6723 0034 00       		.byte	0
 6724 0035 00       		.byte	0
 6725 0036 05       		.uleb128 0x5
 6726 0037 35       		.uleb128 0x35
 6727 0038 00       		.byte	0
 6728 0039 49       		.uleb128 0x49
 6729 003a 13       		.uleb128 0x13
 6730 003b 00       		.byte	0
 6731 003c 00       		.byte	0
 6732 003d 06       		.uleb128 0x6
 6733 003e 0F       		.uleb128 0xf
 6734 003f 00       		.byte	0
 6735 0040 0B       		.uleb128 0xb
 6736 0041 0B       		.uleb128 0xb
 6737 0042 49       		.uleb128 0x49
 6738 0043 13       		.uleb128 0x13
 6739 0044 00       		.byte	0
 6740 0045 00       		.byte	0
 6741 0046 07       		.uleb128 0x7
 6742 0047 26       		.uleb128 0x26
 6743 0048 00       		.byte	0
 6744 0049 49       		.uleb128 0x49
 6745 004a 13       		.uleb128 0x13
 6746 004b 00       		.byte	0
 6747 004c 00       		.byte	0
 6748 004d 08       		.uleb128 0x8
 6749 004e 13       		.uleb128 0x13
 6750 004f 01       		.byte	0x1
 6751 0050 03       		.uleb128 0x3
 6752 0051 08       		.uleb128 0x8
 6753 0052 0B       		.uleb128 0xb
 6754 0053 0B       		.uleb128 0xb
ARM GAS  C:\Users\HELLOK~1\AppData\Local\Temp\cc4szl9H.s 			page 134


 6755 0054 3A       		.uleb128 0x3a
 6756 0055 0B       		.uleb128 0xb
 6757 0056 3B       		.uleb128 0x3b
 6758 0057 0B       		.uleb128 0xb
 6759 0058 01       		.uleb128 0x1
 6760 0059 13       		.uleb128 0x13
 6761 005a 00       		.byte	0
 6762 005b 00       		.byte	0
 6763 005c 09       		.uleb128 0x9
 6764 005d 0D       		.uleb128 0xd
 6765 005e 00       		.byte	0
 6766 005f 03       		.uleb128 0x3
 6767 0060 0E       		.uleb128 0xe
 6768 0061 3A       		.uleb128 0x3a
 6769 0062 0B       		.uleb128 0xb
 6770 0063 3B       		.uleb128 0x3b
 6771 0064 0B       		.uleb128 0xb
 6772 0065 49       		.uleb128 0x49
 6773 0066 13       		.uleb128 0x13
 6774 0067 0B       		.uleb128 0xb
 6775 0068 0B       		.uleb128 0xb
 6776 0069 0D       		.uleb128 0xd
 6777 006a 0B       		.uleb128 0xb
 6778 006b 0C       		.uleb128 0xc
 6779 006c 0B       		.uleb128 0xb
 6780 006d 38       		.uleb128 0x38
 6781 006e 0B       		.uleb128 0xb
 6782 006f 00       		.byte	0
 6783 0070 00       		.byte	0
 6784 0071 0A       		.uleb128 0xa
 6785 0072 13       		.uleb128 0x13
 6786 0073 01       		.byte	0x1
 6787 0074 03       		.uleb128 0x3
 6788 0075 0E       		.uleb128 0xe
 6789 0076 0B       		.uleb128 0xb
 6790 0077 0B       		.uleb128 0xb
 6791 0078 3A       		.uleb128 0x3a
 6792 0079 0B       		.uleb128 0xb
 6793 007a 3B       		.uleb128 0x3b
 6794 007b 0B       		.uleb128 0xb
 6795 007c 01       		.uleb128 0x1
 6796 007d 13       		.uleb128 0x13
 6797 007e 00       		.byte	0
 6798 007f 00       		.byte	0
 6799 0080 0B       		.uleb128 0xb
 6800 0081 0D       		.uleb128 0xd
 6801 0082 00       		.byte	0
 6802 0083 03       		.uleb128 0x3
 6803 0084 0E       		.uleb128 0xe
 6804 0085 3A       		.uleb128 0x3a
 6805 0086 0B       		.uleb128 0xb
 6806 0087 3B       		.uleb128 0x3b
 6807 0088 0B       		.uleb128 0xb
 6808 0089 49       		.uleb128 0x49
 6809 008a 13       		.uleb128 0x13
 6810 008b 38       		.uleb128 0x38
 6811 008c 0B       		.uleb128 0xb
ARM GAS  C:\Users\HELLOK~1\AppData\Local\Temp\cc4szl9H.s 			page 135


 6812 008d 00       		.byte	0
 6813 008e 00       		.byte	0
 6814 008f 0C       		.uleb128 0xc
 6815 0090 0D       		.uleb128 0xd
 6816 0091 00       		.byte	0
 6817 0092 03       		.uleb128 0x3
 6818 0093 08       		.uleb128 0x8
 6819 0094 3A       		.uleb128 0x3a
 6820 0095 0B       		.uleb128 0xb
 6821 0096 3B       		.uleb128 0x3b
 6822 0097 0B       		.uleb128 0xb
 6823 0098 49       		.uleb128 0x49
 6824 0099 13       		.uleb128 0x13
 6825 009a 38       		.uleb128 0x38
 6826 009b 0B       		.uleb128 0xb
 6827 009c 00       		.byte	0
 6828 009d 00       		.byte	0
 6829 009e 0D       		.uleb128 0xd
 6830 009f 2E       		.uleb128 0x2e
 6831 00a0 01       		.byte	0x1
 6832 00a1 3F       		.uleb128 0x3f
 6833 00a2 19       		.uleb128 0x19
 6834 00a3 03       		.uleb128 0x3
 6835 00a4 0E       		.uleb128 0xe
 6836 00a5 3A       		.uleb128 0x3a
 6837 00a6 0B       		.uleb128 0xb
 6838 00a7 3B       		.uleb128 0x3b
 6839 00a8 0B       		.uleb128 0xb
 6840 00a9 27       		.uleb128 0x27
 6841 00aa 19       		.uleb128 0x19
 6842 00ab 49       		.uleb128 0x49
 6843 00ac 13       		.uleb128 0x13
 6844 00ad 11       		.uleb128 0x11
 6845 00ae 01       		.uleb128 0x1
 6846 00af 12       		.uleb128 0x12
 6847 00b0 06       		.uleb128 0x6
 6848 00b1 40       		.uleb128 0x40
 6849 00b2 18       		.uleb128 0x18
 6850 00b3 9742     		.uleb128 0x2117
 6851 00b5 19       		.uleb128 0x19
 6852 00b6 01       		.uleb128 0x1
 6853 00b7 13       		.uleb128 0x13
 6854 00b8 00       		.byte	0
 6855 00b9 00       		.byte	0
 6856 00ba 0E       		.uleb128 0xe
 6857 00bb 05       		.uleb128 0x5
 6858 00bc 00       		.byte	0
 6859 00bd 03       		.uleb128 0x3
 6860 00be 0E       		.uleb128 0xe
 6861 00bf 3A       		.uleb128 0x3a
 6862 00c0 0B       		.uleb128 0xb
 6863 00c1 3B       		.uleb128 0x3b
 6864 00c2 0B       		.uleb128 0xb
 6865 00c3 49       		.uleb128 0x49
 6866 00c4 13       		.uleb128 0x13
 6867 00c5 02       		.uleb128 0x2
 6868 00c6 17       		.uleb128 0x17
ARM GAS  C:\Users\HELLOK~1\AppData\Local\Temp\cc4szl9H.s 			page 136


 6869 00c7 00       		.byte	0
 6870 00c8 00       		.byte	0
 6871 00c9 0F       		.uleb128 0xf
 6872 00ca 898201   		.uleb128 0x4109
 6873 00cd 01       		.byte	0x1
 6874 00ce 11       		.uleb128 0x11
 6875 00cf 01       		.uleb128 0x1
 6876 00d0 31       		.uleb128 0x31
 6877 00d1 13       		.uleb128 0x13
 6878 00d2 01       		.uleb128 0x1
 6879 00d3 13       		.uleb128 0x13
 6880 00d4 00       		.byte	0
 6881 00d5 00       		.byte	0
 6882 00d6 10       		.uleb128 0x10
 6883 00d7 8A8201   		.uleb128 0x410a
 6884 00da 00       		.byte	0
 6885 00db 02       		.uleb128 0x2
 6886 00dc 18       		.uleb128 0x18
 6887 00dd 9142     		.uleb128 0x2111
 6888 00df 18       		.uleb128 0x18
 6889 00e0 00       		.byte	0
 6890 00e1 00       		.byte	0
 6891 00e2 11       		.uleb128 0x11
 6892 00e3 898201   		.uleb128 0x4109
 6893 00e6 00       		.byte	0
 6894 00e7 11       		.uleb128 0x11
 6895 00e8 01       		.uleb128 0x1
 6896 00e9 31       		.uleb128 0x31
 6897 00ea 13       		.uleb128 0x13
 6898 00eb 00       		.byte	0
 6899 00ec 00       		.byte	0
 6900 00ed 12       		.uleb128 0x12
 6901 00ee 2E       		.uleb128 0x2e
 6902 00ef 01       		.byte	0x1
 6903 00f0 3F       		.uleb128 0x3f
 6904 00f1 19       		.uleb128 0x19
 6905 00f2 03       		.uleb128 0x3
 6906 00f3 0E       		.uleb128 0xe
 6907 00f4 3A       		.uleb128 0x3a
 6908 00f5 0B       		.uleb128 0xb
 6909 00f6 3B       		.uleb128 0x3b
 6910 00f7 0B       		.uleb128 0xb
 6911 00f8 27       		.uleb128 0x27
 6912 00f9 19       		.uleb128 0x19
 6913 00fa 49       		.uleb128 0x49
 6914 00fb 13       		.uleb128 0x13
 6915 00fc 11       		.uleb128 0x11
 6916 00fd 01       		.uleb128 0x1
 6917 00fe 12       		.uleb128 0x12
 6918 00ff 06       		.uleb128 0x6
 6919 0100 40       		.uleb128 0x40
 6920 0101 18       		.uleb128 0x18
 6921 0102 9642     		.uleb128 0x2116
 6922 0104 19       		.uleb128 0x19
 6923 0105 01       		.uleb128 0x1
 6924 0106 13       		.uleb128 0x13
 6925 0107 00       		.byte	0
ARM GAS  C:\Users\HELLOK~1\AppData\Local\Temp\cc4szl9H.s 			page 137


 6926 0108 00       		.byte	0
 6927 0109 13       		.uleb128 0x13
 6928 010a 2E       		.uleb128 0x2e
 6929 010b 01       		.byte	0x1
 6930 010c 3F       		.uleb128 0x3f
 6931 010d 19       		.uleb128 0x19
 6932 010e 03       		.uleb128 0x3
 6933 010f 0E       		.uleb128 0xe
 6934 0110 3A       		.uleb128 0x3a
 6935 0111 0B       		.uleb128 0xb
 6936 0112 3B       		.uleb128 0x3b
 6937 0113 0B       		.uleb128 0xb
 6938 0114 27       		.uleb128 0x27
 6939 0115 19       		.uleb128 0x19
 6940 0116 11       		.uleb128 0x11
 6941 0117 01       		.uleb128 0x1
 6942 0118 12       		.uleb128 0x12
 6943 0119 06       		.uleb128 0x6
 6944 011a 40       		.uleb128 0x40
 6945 011b 18       		.uleb128 0x18
 6946 011c 9742     		.uleb128 0x2117
 6947 011e 19       		.uleb128 0x19
 6948 011f 01       		.uleb128 0x1
 6949 0120 13       		.uleb128 0x13
 6950 0121 00       		.byte	0
 6951 0122 00       		.byte	0
 6952 0123 14       		.uleb128 0x14
 6953 0124 34       		.uleb128 0x34
 6954 0125 00       		.byte	0
 6955 0126 03       		.uleb128 0x3
 6956 0127 0E       		.uleb128 0xe
 6957 0128 3A       		.uleb128 0x3a
 6958 0129 0B       		.uleb128 0xb
 6959 012a 3B       		.uleb128 0x3b
 6960 012b 0B       		.uleb128 0xb
 6961 012c 49       		.uleb128 0x49
 6962 012d 13       		.uleb128 0x13
 6963 012e 02       		.uleb128 0x2
 6964 012f 18       		.uleb128 0x18
 6965 0130 00       		.byte	0
 6966 0131 00       		.byte	0
 6967 0132 15       		.uleb128 0x15
 6968 0133 01       		.uleb128 0x1
 6969 0134 01       		.byte	0x1
 6970 0135 49       		.uleb128 0x49
 6971 0136 13       		.uleb128 0x13
 6972 0137 01       		.uleb128 0x1
 6973 0138 13       		.uleb128 0x13
 6974 0139 00       		.byte	0
 6975 013a 00       		.byte	0
 6976 013b 16       		.uleb128 0x16
 6977 013c 21       		.uleb128 0x21
 6978 013d 00       		.byte	0
 6979 013e 49       		.uleb128 0x49
 6980 013f 13       		.uleb128 0x13
 6981 0140 2F       		.uleb128 0x2f
 6982 0141 0B       		.uleb128 0xb
ARM GAS  C:\Users\HELLOK~1\AppData\Local\Temp\cc4szl9H.s 			page 138


 6983 0142 00       		.byte	0
 6984 0143 00       		.byte	0
 6985 0144 17       		.uleb128 0x17
 6986 0145 2E       		.uleb128 0x2e
 6987 0146 01       		.byte	0x1
 6988 0147 3F       		.uleb128 0x3f
 6989 0148 19       		.uleb128 0x19
 6990 0149 03       		.uleb128 0x3
 6991 014a 0E       		.uleb128 0xe
 6992 014b 3A       		.uleb128 0x3a
 6993 014c 0B       		.uleb128 0xb
 6994 014d 3B       		.uleb128 0x3b
 6995 014e 0B       		.uleb128 0xb
 6996 014f 11       		.uleb128 0x11
 6997 0150 01       		.uleb128 0x1
 6998 0151 12       		.uleb128 0x12
 6999 0152 06       		.uleb128 0x6
 7000 0153 40       		.uleb128 0x40
 7001 0154 18       		.uleb128 0x18
 7002 0155 9742     		.uleb128 0x2117
 7003 0157 19       		.uleb128 0x19
 7004 0158 01       		.uleb128 0x1
 7005 0159 13       		.uleb128 0x13
 7006 015a 00       		.byte	0
 7007 015b 00       		.byte	0
 7008 015c 18       		.uleb128 0x18
 7009 015d 898201   		.uleb128 0x4109
 7010 0160 01       		.byte	0x1
 7011 0161 11       		.uleb128 0x11
 7012 0162 01       		.uleb128 0x1
 7013 0163 31       		.uleb128 0x31
 7014 0164 13       		.uleb128 0x13
 7015 0165 00       		.byte	0
 7016 0166 00       		.byte	0
 7017 0167 19       		.uleb128 0x19
 7018 0168 05       		.uleb128 0x5
 7019 0169 00       		.byte	0
 7020 016a 03       		.uleb128 0x3
 7021 016b 0E       		.uleb128 0xe
 7022 016c 3A       		.uleb128 0x3a
 7023 016d 0B       		.uleb128 0xb
 7024 016e 3B       		.uleb128 0x3b
 7025 016f 0B       		.uleb128 0xb
 7026 0170 49       		.uleb128 0x49
 7027 0171 13       		.uleb128 0x13
 7028 0172 02       		.uleb128 0x2
 7029 0173 18       		.uleb128 0x18
 7030 0174 00       		.byte	0
 7031 0175 00       		.byte	0
 7032 0176 1A       		.uleb128 0x1a
 7033 0177 2E       		.uleb128 0x2e
 7034 0178 01       		.byte	0x1
 7035 0179 3F       		.uleb128 0x3f
 7036 017a 19       		.uleb128 0x19
 7037 017b 03       		.uleb128 0x3
 7038 017c 0E       		.uleb128 0xe
 7039 017d 3A       		.uleb128 0x3a
ARM GAS  C:\Users\HELLOK~1\AppData\Local\Temp\cc4szl9H.s 			page 139


 7040 017e 0B       		.uleb128 0xb
 7041 017f 3B       		.uleb128 0x3b
 7042 0180 05       		.uleb128 0x5
 7043 0181 27       		.uleb128 0x27
 7044 0182 19       		.uleb128 0x19
 7045 0183 11       		.uleb128 0x11
 7046 0184 01       		.uleb128 0x1
 7047 0185 12       		.uleb128 0x12
 7048 0186 06       		.uleb128 0x6
 7049 0187 40       		.uleb128 0x40
 7050 0188 18       		.uleb128 0x18
 7051 0189 9742     		.uleb128 0x2117
 7052 018b 19       		.uleb128 0x19
 7053 018c 01       		.uleb128 0x1
 7054 018d 13       		.uleb128 0x13
 7055 018e 00       		.byte	0
 7056 018f 00       		.byte	0
 7057 0190 1B       		.uleb128 0x1b
 7058 0191 05       		.uleb128 0x5
 7059 0192 00       		.byte	0
 7060 0193 03       		.uleb128 0x3
 7061 0194 0E       		.uleb128 0xe
 7062 0195 3A       		.uleb128 0x3a
 7063 0196 0B       		.uleb128 0xb
 7064 0197 3B       		.uleb128 0x3b
 7065 0198 05       		.uleb128 0x5
 7066 0199 49       		.uleb128 0x49
 7067 019a 13       		.uleb128 0x13
 7068 019b 02       		.uleb128 0x2
 7069 019c 18       		.uleb128 0x18
 7070 019d 00       		.byte	0
 7071 019e 00       		.byte	0
 7072 019f 1C       		.uleb128 0x1c
 7073 01a0 34       		.uleb128 0x34
 7074 01a1 00       		.byte	0
 7075 01a2 03       		.uleb128 0x3
 7076 01a3 0E       		.uleb128 0xe
 7077 01a4 3A       		.uleb128 0x3a
 7078 01a5 0B       		.uleb128 0xb
 7079 01a6 3B       		.uleb128 0x3b
 7080 01a7 05       		.uleb128 0x5
 7081 01a8 49       		.uleb128 0x49
 7082 01a9 13       		.uleb128 0x13
 7083 01aa 02       		.uleb128 0x2
 7084 01ab 18       		.uleb128 0x18
 7085 01ac 00       		.byte	0
 7086 01ad 00       		.byte	0
 7087 01ae 1D       		.uleb128 0x1d
 7088 01af 2E       		.uleb128 0x2e
 7089 01b0 01       		.byte	0x1
 7090 01b1 3F       		.uleb128 0x3f
 7091 01b2 19       		.uleb128 0x19
 7092 01b3 03       		.uleb128 0x3
 7093 01b4 0E       		.uleb128 0xe
 7094 01b5 3A       		.uleb128 0x3a
 7095 01b6 0B       		.uleb128 0xb
 7096 01b7 3B       		.uleb128 0x3b
ARM GAS  C:\Users\HELLOK~1\AppData\Local\Temp\cc4szl9H.s 			page 140


 7097 01b8 05       		.uleb128 0x5
 7098 01b9 11       		.uleb128 0x11
 7099 01ba 01       		.uleb128 0x1
 7100 01bb 12       		.uleb128 0x12
 7101 01bc 06       		.uleb128 0x6
 7102 01bd 40       		.uleb128 0x40
 7103 01be 18       		.uleb128 0x18
 7104 01bf 9742     		.uleb128 0x2117
 7105 01c1 19       		.uleb128 0x19
 7106 01c2 01       		.uleb128 0x1
 7107 01c3 13       		.uleb128 0x13
 7108 01c4 00       		.byte	0
 7109 01c5 00       		.byte	0
 7110 01c6 1E       		.uleb128 0x1e
 7111 01c7 34       		.uleb128 0x34
 7112 01c8 00       		.byte	0
 7113 01c9 03       		.uleb128 0x3
 7114 01ca 08       		.uleb128 0x8
 7115 01cb 3A       		.uleb128 0x3a
 7116 01cc 0B       		.uleb128 0xb
 7117 01cd 3B       		.uleb128 0x3b
 7118 01ce 05       		.uleb128 0x5
 7119 01cf 49       		.uleb128 0x49
 7120 01d0 13       		.uleb128 0x13
 7121 01d1 02       		.uleb128 0x2
 7122 01d2 18       		.uleb128 0x18
 7123 01d3 00       		.byte	0
 7124 01d4 00       		.byte	0
 7125 01d5 1F       		.uleb128 0x1f
 7126 01d6 34       		.uleb128 0x34
 7127 01d7 00       		.byte	0
 7128 01d8 03       		.uleb128 0x3
 7129 01d9 0E       		.uleb128 0xe
 7130 01da 3A       		.uleb128 0x3a
 7131 01db 0B       		.uleb128 0xb
 7132 01dc 3B       		.uleb128 0x3b
 7133 01dd 05       		.uleb128 0x5
 7134 01de 49       		.uleb128 0x49
 7135 01df 13       		.uleb128 0x13
 7136 01e0 00       		.byte	0
 7137 01e1 00       		.byte	0
 7138 01e2 20       		.uleb128 0x20
 7139 01e3 0B       		.uleb128 0xb
 7140 01e4 01       		.byte	0x1
 7141 01e5 11       		.uleb128 0x11
 7142 01e6 01       		.uleb128 0x1
 7143 01e7 12       		.uleb128 0x12
 7144 01e8 06       		.uleb128 0x6
 7145 01e9 01       		.uleb128 0x1
 7146 01ea 13       		.uleb128 0x13
 7147 01eb 00       		.byte	0
 7148 01ec 00       		.byte	0
 7149 01ed 21       		.uleb128 0x21
 7150 01ee 34       		.uleb128 0x34
 7151 01ef 00       		.byte	0
 7152 01f0 03       		.uleb128 0x3
 7153 01f1 08       		.uleb128 0x8
ARM GAS  C:\Users\HELLOK~1\AppData\Local\Temp\cc4szl9H.s 			page 141


 7154 01f2 3A       		.uleb128 0x3a
 7155 01f3 0B       		.uleb128 0xb
 7156 01f4 3B       		.uleb128 0x3b
 7157 01f5 05       		.uleb128 0x5
 7158 01f6 49       		.uleb128 0x49
 7159 01f7 13       		.uleb128 0x13
 7160 01f8 02       		.uleb128 0x2
 7161 01f9 17       		.uleb128 0x17
 7162 01fa 00       		.byte	0
 7163 01fb 00       		.byte	0
 7164 01fc 22       		.uleb128 0x22
 7165 01fd 0B       		.uleb128 0xb
 7166 01fe 01       		.byte	0x1
 7167 01ff 55       		.uleb128 0x55
 7168 0200 17       		.uleb128 0x17
 7169 0201 00       		.byte	0
 7170 0202 00       		.byte	0
 7171 0203 23       		.uleb128 0x23
 7172 0204 34       		.uleb128 0x34
 7173 0205 00       		.byte	0
 7174 0206 03       		.uleb128 0x3
 7175 0207 0E       		.uleb128 0xe
 7176 0208 3A       		.uleb128 0x3a
 7177 0209 0B       		.uleb128 0xb
 7178 020a 3B       		.uleb128 0x3b
 7179 020b 05       		.uleb128 0x5
 7180 020c 49       		.uleb128 0x49
 7181 020d 13       		.uleb128 0x13
 7182 020e 02       		.uleb128 0x2
 7183 020f 17       		.uleb128 0x17
 7184 0210 00       		.byte	0
 7185 0211 00       		.byte	0
 7186 0212 24       		.uleb128 0x24
 7187 0213 2E       		.uleb128 0x2e
 7188 0214 00       		.byte	0
 7189 0215 3F       		.uleb128 0x3f
 7190 0216 19       		.uleb128 0x19
 7191 0217 03       		.uleb128 0x3
 7192 0218 0E       		.uleb128 0xe
 7193 0219 3A       		.uleb128 0x3a
 7194 021a 0B       		.uleb128 0xb
 7195 021b 3B       		.uleb128 0x3b
 7196 021c 05       		.uleb128 0x5
 7197 021d 11       		.uleb128 0x11
 7198 021e 01       		.uleb128 0x1
 7199 021f 12       		.uleb128 0x12
 7200 0220 06       		.uleb128 0x6
 7201 0221 40       		.uleb128 0x40
 7202 0222 18       		.uleb128 0x18
 7203 0223 9742     		.uleb128 0x2117
 7204 0225 19       		.uleb128 0x19
 7205 0226 00       		.byte	0
 7206 0227 00       		.byte	0
 7207 0228 25       		.uleb128 0x25
 7208 0229 2E       		.uleb128 0x2e
 7209 022a 01       		.byte	0x1
 7210 022b 3F       		.uleb128 0x3f
ARM GAS  C:\Users\HELLOK~1\AppData\Local\Temp\cc4szl9H.s 			page 142


 7211 022c 19       		.uleb128 0x19
 7212 022d 03       		.uleb128 0x3
 7213 022e 0E       		.uleb128 0xe
 7214 022f 3A       		.uleb128 0x3a
 7215 0230 0B       		.uleb128 0xb
 7216 0231 3B       		.uleb128 0x3b
 7217 0232 05       		.uleb128 0x5
 7218 0233 27       		.uleb128 0x27
 7219 0234 19       		.uleb128 0x19
 7220 0235 49       		.uleb128 0x49
 7221 0236 13       		.uleb128 0x13
 7222 0237 8701     		.uleb128 0x87
 7223 0239 19       		.uleb128 0x19
 7224 023a 11       		.uleb128 0x11
 7225 023b 01       		.uleb128 0x1
 7226 023c 12       		.uleb128 0x12
 7227 023d 06       		.uleb128 0x6
 7228 023e 40       		.uleb128 0x40
 7229 023f 18       		.uleb128 0x18
 7230 0240 9742     		.uleb128 0x2117
 7231 0242 19       		.uleb128 0x19
 7232 0243 01       		.uleb128 0x1
 7233 0244 13       		.uleb128 0x13
 7234 0245 00       		.byte	0
 7235 0246 00       		.byte	0
 7236 0247 26       		.uleb128 0x26
 7237 0248 34       		.uleb128 0x34
 7238 0249 00       		.byte	0
 7239 024a 03       		.uleb128 0x3
 7240 024b 0E       		.uleb128 0xe
 7241 024c 3A       		.uleb128 0x3a
 7242 024d 0B       		.uleb128 0xb
 7243 024e 3B       		.uleb128 0x3b
 7244 024f 0B       		.uleb128 0xb
 7245 0250 49       		.uleb128 0x49
 7246 0251 13       		.uleb128 0x13
 7247 0252 3F       		.uleb128 0x3f
 7248 0253 19       		.uleb128 0x19
 7249 0254 02       		.uleb128 0x2
 7250 0255 18       		.uleb128 0x18
 7251 0256 00       		.byte	0
 7252 0257 00       		.byte	0
 7253 0258 27       		.uleb128 0x27
 7254 0259 34       		.uleb128 0x34
 7255 025a 00       		.byte	0
 7256 025b 03       		.uleb128 0x3
 7257 025c 08       		.uleb128 0x8
 7258 025d 3A       		.uleb128 0x3a
 7259 025e 0B       		.uleb128 0xb
 7260 025f 3B       		.uleb128 0x3b
 7261 0260 0B       		.uleb128 0xb
 7262 0261 49       		.uleb128 0x49
 7263 0262 13       		.uleb128 0x13
 7264 0263 3F       		.uleb128 0x3f
 7265 0264 19       		.uleb128 0x19
 7266 0265 02       		.uleb128 0x2
 7267 0266 18       		.uleb128 0x18
ARM GAS  C:\Users\HELLOK~1\AppData\Local\Temp\cc4szl9H.s 			page 143


 7268 0267 00       		.byte	0
 7269 0268 00       		.byte	0
 7270 0269 28       		.uleb128 0x28
 7271 026a 2E       		.uleb128 0x2e
 7272 026b 00       		.byte	0
 7273 026c 3F       		.uleb128 0x3f
 7274 026d 19       		.uleb128 0x19
 7275 026e 3C       		.uleb128 0x3c
 7276 026f 19       		.uleb128 0x19
 7277 0270 6E       		.uleb128 0x6e
 7278 0271 0E       		.uleb128 0xe
 7279 0272 03       		.uleb128 0x3
 7280 0273 0E       		.uleb128 0xe
 7281 0274 3A       		.uleb128 0x3a
 7282 0275 0B       		.uleb128 0xb
 7283 0276 3B       		.uleb128 0x3b
 7284 0277 0B       		.uleb128 0xb
 7285 0278 00       		.byte	0
 7286 0279 00       		.byte	0
 7287 027a 29       		.uleb128 0x29
 7288 027b 2E       		.uleb128 0x2e
 7289 027c 00       		.byte	0
 7290 027d 3F       		.uleb128 0x3f
 7291 027e 19       		.uleb128 0x19
 7292 027f 3C       		.uleb128 0x3c
 7293 0280 19       		.uleb128 0x19
 7294 0281 6E       		.uleb128 0x6e
 7295 0282 0E       		.uleb128 0xe
 7296 0283 03       		.uleb128 0x3
 7297 0284 0E       		.uleb128 0xe
 7298 0285 3A       		.uleb128 0x3a
 7299 0286 0B       		.uleb128 0xb
 7300 0287 3B       		.uleb128 0x3b
 7301 0288 05       		.uleb128 0x5
 7302 0289 00       		.byte	0
 7303 028a 00       		.byte	0
 7304 028b 2A       		.uleb128 0x2a
 7305 028c 2E       		.uleb128 0x2e
 7306 028d 00       		.byte	0
 7307 028e 3F       		.uleb128 0x3f
 7308 028f 19       		.uleb128 0x19
 7309 0290 3C       		.uleb128 0x3c
 7310 0291 19       		.uleb128 0x19
 7311 0292 6E       		.uleb128 0x6e
 7312 0293 0E       		.uleb128 0xe
 7313 0294 03       		.uleb128 0x3
 7314 0295 0E       		.uleb128 0xe
 7315 0296 00       		.byte	0
 7316 0297 00       		.byte	0
 7317 0298 00       		.byte	0
 7318              		.section	.debug_loc,"",%progbits
 7319              	.Ldebug_loc0:
 7320              	.LLST0:
 7321 0000 00000000 		.4byte	.LVL0
 7322 0004 0E000000 		.4byte	.LVL1
 7323 0008 0100     		.2byte	0x1
 7324 000a 50       		.byte	0x50
ARM GAS  C:\Users\HELLOK~1\AppData\Local\Temp\cc4szl9H.s 			page 144


 7325 000b 14000000 		.4byte	.LVL2
 7326 000f 1C000000 		.4byte	.LVL3
 7327 0013 0100     		.2byte	0x1
 7328 0015 50       		.byte	0x50
 7329 0016 1E000000 		.4byte	.LVL4
 7330 001a 20000000 		.4byte	.LVL5
 7331 001e 0100     		.2byte	0x1
 7332 0020 50       		.byte	0x50
 7333 0021 00000000 		.4byte	0
 7334 0025 00000000 		.4byte	0
 7335              	.LLST1:
 7336 0029 00000000 		.4byte	.LVL11
 7337 002d 0E000000 		.4byte	.LVL12
 7338 0031 0100     		.2byte	0x1
 7339 0033 50       		.byte	0x50
 7340 0034 14000000 		.4byte	.LVL13
 7341 0038 1C000000 		.4byte	.LVL14
 7342 003c 0100     		.2byte	0x1
 7343 003e 50       		.byte	0x50
 7344 003f 1E000000 		.4byte	.LVL15
 7345 0043 20000000 		.4byte	.LVL16
 7346 0047 0100     		.2byte	0x1
 7347 0049 50       		.byte	0x50
 7348 004a 00000000 		.4byte	0
 7349 004e 00000000 		.4byte	0
 7350              	.LLST2:
 7351 0052 00000000 		.4byte	.LVL22
 7352 0056 0C000000 		.4byte	.LVL23
 7353 005a 0100     		.2byte	0x1
 7354 005c 50       		.byte	0x50
 7355 005d 0C000000 		.4byte	.LVL23
 7356 0061 12000000 		.4byte	.LFE37
 7357 0065 0400     		.2byte	0x4
 7358 0067 F3       		.byte	0xf3
 7359 0068 01       		.uleb128 0x1
 7360 0069 50       		.byte	0x50
 7361 006a 9F       		.byte	0x9f
 7362 006b 00000000 		.4byte	0
 7363 006f 00000000 		.4byte	0
 7364              	.LLST3:
 7365 0073 00000000 		.4byte	.LVL24
 7366 0077 09000000 		.4byte	.LVL25-1
 7367 007b 0100     		.2byte	0x1
 7368 007d 50       		.byte	0x50
 7369 007e 09000000 		.4byte	.LVL25-1
 7370 0082 1A000000 		.4byte	.LFE38
 7371 0086 0400     		.2byte	0x4
 7372 0088 F3       		.byte	0xf3
 7373 0089 01       		.uleb128 0x1
 7374 008a 50       		.byte	0x50
 7375 008b 9F       		.byte	0x9f
 7376 008c 00000000 		.4byte	0
 7377 0090 00000000 		.4byte	0
 7378              	.LLST4:
 7379 0094 00000000 		.4byte	.LVL27
 7380 0098 14000000 		.4byte	.LVL31
 7381 009c 0100     		.2byte	0x1
ARM GAS  C:\Users\HELLOK~1\AppData\Local\Temp\cc4szl9H.s 			page 145


 7382 009e 50       		.byte	0x50
 7383 009f 14000000 		.4byte	.LVL31
 7384 00a3 3E000000 		.4byte	.LVL39
 7385 00a7 0100     		.2byte	0x1
 7386 00a9 55       		.byte	0x55
 7387 00aa 3E000000 		.4byte	.LVL39
 7388 00ae 40000000 		.4byte	.LFE39
 7389 00b2 0400     		.2byte	0x4
 7390 00b4 F3       		.byte	0xf3
 7391 00b5 01       		.uleb128 0x1
 7392 00b6 50       		.byte	0x50
 7393 00b7 9F       		.byte	0x9f
 7394 00b8 00000000 		.4byte	0
 7395 00bc 00000000 		.4byte	0
 7396              	.LLST5:
 7397 00c0 00000000 		.4byte	.LVL27
 7398 00c4 0C000000 		.4byte	.LVL28
 7399 00c8 0100     		.2byte	0x1
 7400 00ca 51       		.byte	0x51
 7401 00cb 0C000000 		.4byte	.LVL28
 7402 00cf 3E000000 		.4byte	.LVL40
 7403 00d3 0100     		.2byte	0x1
 7404 00d5 56       		.byte	0x56
 7405 00d6 3E000000 		.4byte	.LVL40
 7406 00da 40000000 		.4byte	.LFE39
 7407 00de 0400     		.2byte	0x4
 7408 00e0 F3       		.byte	0xf3
 7409 00e1 01       		.uleb128 0x1
 7410 00e2 51       		.byte	0x51
 7411 00e3 9F       		.byte	0x9f
 7412 00e4 00000000 		.4byte	0
 7413 00e8 00000000 		.4byte	0
 7414              	.LLST6:
 7415 00ec 00000000 		.4byte	.LVL27
 7416 00f0 12000000 		.4byte	.LVL30
 7417 00f4 0100     		.2byte	0x1
 7418 00f6 52       		.byte	0x52
 7419 00f7 12000000 		.4byte	.LVL30
 7420 00fb 3E000000 		.4byte	.LVL38
 7421 00ff 0100     		.2byte	0x1
 7422 0101 54       		.byte	0x54
 7423 0102 3E000000 		.4byte	.LVL38
 7424 0106 40000000 		.4byte	.LFE39
 7425 010a 0400     		.2byte	0x4
 7426 010c F3       		.byte	0xf3
 7427 010d 01       		.uleb128 0x1
 7428 010e 52       		.byte	0x52
 7429 010f 9F       		.byte	0x9f
 7430 0110 00000000 		.4byte	0
 7431 0114 00000000 		.4byte	0
 7432              	.LLST7:
 7433 0118 00000000 		.4byte	.LVL27
 7434 011c 10000000 		.4byte	.LVL29
 7435 0120 0100     		.2byte	0x1
 7436 0122 53       		.byte	0x53
 7437 0123 10000000 		.4byte	.LVL29
 7438 0127 40000000 		.4byte	.LFE39
ARM GAS  C:\Users\HELLOK~1\AppData\Local\Temp\cc4szl9H.s 			page 146


 7439 012b 0400     		.2byte	0x4
 7440 012d F3       		.byte	0xf3
 7441 012e 01       		.uleb128 0x1
 7442 012f 53       		.byte	0x53
 7443 0130 9F       		.byte	0x9f
 7444 0131 00000000 		.4byte	0
 7445 0135 00000000 		.4byte	0
 7446              	.LLST8:
 7447 0139 00000000 		.4byte	.LVL41
 7448 013d 0E000000 		.4byte	.LVL45
 7449 0141 0100     		.2byte	0x1
 7450 0143 50       		.byte	0x50
 7451 0144 0E000000 		.4byte	.LVL45
 7452 0148 11000000 		.4byte	.LVL46-1
 7453 014c 0100     		.2byte	0x1
 7454 014e 51       		.byte	0x51
 7455 014f 11000000 		.4byte	.LVL46-1
 7456 0153 20000000 		.4byte	.LFE40
 7457 0157 0400     		.2byte	0x4
 7458 0159 F3       		.byte	0xf3
 7459 015a 01       		.uleb128 0x1
 7460 015b 50       		.byte	0x50
 7461 015c 9F       		.byte	0x9f
 7462 015d 00000000 		.4byte	0
 7463 0161 00000000 		.4byte	0
 7464              	.LLST9:
 7465 0165 00000000 		.4byte	.LVL41
 7466 0169 0C000000 		.4byte	.LVL44
 7467 016d 0100     		.2byte	0x1
 7468 016f 51       		.byte	0x51
 7469 0170 0C000000 		.4byte	.LVL44
 7470 0174 11000000 		.4byte	.LVL46-1
 7471 0178 0100     		.2byte	0x1
 7472 017a 52       		.byte	0x52
 7473 017b 11000000 		.4byte	.LVL46-1
 7474 017f 20000000 		.4byte	.LFE40
 7475 0183 0400     		.2byte	0x4
 7476 0185 F3       		.byte	0xf3
 7477 0186 01       		.uleb128 0x1
 7478 0187 51       		.byte	0x51
 7479 0188 9F       		.byte	0x9f
 7480 0189 00000000 		.4byte	0
 7481 018d 00000000 		.4byte	0
 7482              	.LLST10:
 7483 0191 00000000 		.4byte	.LVL41
 7484 0195 0A000000 		.4byte	.LVL43
 7485 0199 0100     		.2byte	0x1
 7486 019b 52       		.byte	0x52
 7487 019c 0A000000 		.4byte	.LVL43
 7488 01a0 1E000000 		.4byte	.LVL49
 7489 01a4 0100     		.2byte	0x1
 7490 01a6 54       		.byte	0x54
 7491 01a7 1E000000 		.4byte	.LVL49
 7492 01ab 20000000 		.4byte	.LFE40
 7493 01af 0400     		.2byte	0x4
 7494 01b1 F3       		.byte	0xf3
 7495 01b2 01       		.uleb128 0x1
ARM GAS  C:\Users\HELLOK~1\AppData\Local\Temp\cc4szl9H.s 			page 147


 7496 01b3 52       		.byte	0x52
 7497 01b4 9F       		.byte	0x9f
 7498 01b5 00000000 		.4byte	0
 7499 01b9 00000000 		.4byte	0
 7500              	.LLST11:
 7501 01bd 00000000 		.4byte	.LVL41
 7502 01c1 08000000 		.4byte	.LVL42
 7503 01c5 0100     		.2byte	0x1
 7504 01c7 53       		.byte	0x53
 7505 01c8 08000000 		.4byte	.LVL42
 7506 01cc 20000000 		.4byte	.LFE40
 7507 01d0 0400     		.2byte	0x4
 7508 01d2 F3       		.byte	0xf3
 7509 01d3 01       		.uleb128 0x1
 7510 01d4 53       		.byte	0x53
 7511 01d5 9F       		.byte	0x9f
 7512 01d6 00000000 		.4byte	0
 7513 01da 00000000 		.4byte	0
 7514              	.LLST12:
 7515 01de 02000000 		.4byte	.LVL89
 7516 01e2 06000000 		.4byte	.LVL90
 7517 01e6 0200     		.2byte	0x2
 7518 01e8 30       		.byte	0x30
 7519 01e9 9F       		.byte	0x9f
 7520 01ea 06000000 		.4byte	.LVL90
 7521 01ee 54000000 		.4byte	.LVL100
 7522 01f2 0100     		.2byte	0x1
 7523 01f4 55       		.byte	0x55
 7524 01f5 00000000 		.4byte	0
 7525 01f9 00000000 		.4byte	0
 7526              	.LLST13:
 7527 01fd 50000000 		.4byte	.LVL99
 7528 0201 54000000 		.4byte	.LVL100
 7529 0205 0200     		.2byte	0x2
 7530 0207 30       		.byte	0x30
 7531 0208 9F       		.byte	0x9f
 7532 0209 54000000 		.4byte	.LVL100
 7533 020d A2000000 		.4byte	.LVL114
 7534 0211 0100     		.2byte	0x1
 7535 0213 56       		.byte	0x56
 7536 0214 00000000 		.4byte	0
 7537 0218 00000000 		.4byte	0
 7538              	.LLST14:
 7539 021c 70000000 		.4byte	.LVL103
 7540 0220 9E000000 		.4byte	.LVL113
 7541 0224 0100     		.2byte	0x1
 7542 0226 55       		.byte	0x55
 7543 0227 00000000 		.4byte	0
 7544 022b 00000000 		.4byte	0
 7545              	.LLST15:
 7546 022f 70000000 		.4byte	.LVL103
 7547 0233 80000000 		.4byte	.LVL107
 7548 0237 0100     		.2byte	0x1
 7549 0239 54       		.byte	0x54
 7550 023a 82000000 		.4byte	.LVL108
 7551 023e 88000000 		.4byte	.LVL109
 7552 0242 0100     		.2byte	0x1
ARM GAS  C:\Users\HELLOK~1\AppData\Local\Temp\cc4szl9H.s 			page 148


 7553 0244 54       		.byte	0x54
 7554 0245 00000000 		.4byte	0
 7555 0249 00000000 		.4byte	0
 7556              	.LLST16:
 7557 024d 66000000 		.4byte	.LVL124
 7558 0251 B6000000 		.4byte	.LVL130
 7559 0255 0100     		.2byte	0x1
 7560 0257 54       		.byte	0x54
 7561 0258 B8000000 		.4byte	.LVL131
 7562 025c DA000000 		.4byte	.LVL135
 7563 0260 0100     		.2byte	0x1
 7564 0262 54       		.byte	0x54
 7565 0263 F0000000 		.4byte	.LVL138
 7566 0267 1E010000 		.4byte	.LVL141
 7567 026b 0100     		.2byte	0x1
 7568 026d 56       		.byte	0x56
 7569 026e 20010000 		.4byte	.LVL142
 7570 0272 5E010000 		.4byte	.LVL148
 7571 0276 0100     		.2byte	0x1
 7572 0278 56       		.byte	0x56
 7573 0279 60010000 		.4byte	.LVL149
 7574 027d 8E010000 		.4byte	.LVL152
 7575 0281 0100     		.2byte	0x1
 7576 0283 55       		.byte	0x55
 7577 0284 90010000 		.4byte	.LVL153
 7578 0288 C0010000 		.4byte	.LVL158
 7579 028c 0100     		.2byte	0x1
 7580 028e 55       		.byte	0x55
 7581 028f 60020000 		.4byte	.LVL169
 7582 0293 90020000 		.4byte	.LVL172
 7583 0297 0100     		.2byte	0x1
 7584 0299 55       		.byte	0x55
 7585 029a 92020000 		.4byte	.LVL173
 7586 029e B8020000 		.4byte	.LVL178
 7587 02a2 0100     		.2byte	0x1
 7588 02a4 55       		.byte	0x55
 7589 02a5 D0020000 		.4byte	.LVL180
 7590 02a9 00030000 		.4byte	.LVL183
 7591 02ad 0100     		.2byte	0x1
 7592 02af 56       		.byte	0x56
 7593 02b0 02030000 		.4byte	.LVL184
 7594 02b4 28030000 		.4byte	.LVL189
 7595 02b8 0100     		.2byte	0x1
 7596 02ba 56       		.byte	0x56
 7597 02bb 3C030000 		.4byte	.LVL191
 7598 02bf 40030000 		.4byte	.LVL192
 7599 02c3 0200     		.2byte	0x2
 7600 02c5 30       		.byte	0x30
 7601 02c6 9F       		.byte	0x9f
 7602 02c7 40030000 		.4byte	.LVL192
 7603 02cb 54030000 		.4byte	.LVL193
 7604 02cf 0100     		.2byte	0x1
 7605 02d1 57       		.byte	0x57
 7606 02d2 54030000 		.4byte	.LVL193
 7607 02d6 90030000 		.4byte	.LVL194
 7608 02da 0300     		.2byte	0x3
 7609 02dc 77       		.byte	0x77
ARM GAS  C:\Users\HELLOK~1\AppData\Local\Temp\cc4szl9H.s 			page 149


 7610 02dd 7F       		.sleb128 -1
 7611 02de 9F       		.byte	0x9f
 7612 02df 90030000 		.4byte	.LVL194
 7613 02e3 CC030000 		.4byte	.LVL199
 7614 02e7 0100     		.2byte	0x1
 7615 02e9 57       		.byte	0x57
 7616 02ea 00000000 		.4byte	0
 7617 02ee 00000000 		.4byte	0
 7618              	.LLST17:
 7619 02f2 DA000000 		.4byte	.LVL135
 7620 02f6 56040000 		.4byte	.LVL213
 7621 02fa 0100     		.2byte	0x1
 7622 02fc 54       		.byte	0x54
 7623 02fd 00000000 		.4byte	0
 7624 0301 00000000 		.4byte	0
 7625              	.LLST18:
 7626 0305 06000000 		.4byte	.LVL214
 7627 0309 4A000000 		.4byte	.LVL224
 7628 030d 0200     		.2byte	0x2
 7629 030f 30       		.byte	0x30
 7630 0310 9F       		.byte	0x9f
 7631 0311 4A000000 		.4byte	.LVL224
 7632 0315 64000000 		.4byte	.LVL225
 7633 0319 0100     		.2byte	0x1
 7634 031b 54       		.byte	0x54
 7635 031c 66000000 		.4byte	.LVL226
 7636 0320 76000000 		.4byte	.LVL227
 7637 0324 0100     		.2byte	0x1
 7638 0326 54       		.byte	0x54
 7639 0327 78000000 		.4byte	.LVL228
 7640 032b 7C000000 		.4byte	.LVL229
 7641 032f 0100     		.2byte	0x1
 7642 0331 54       		.byte	0x54
 7643 0332 7E000000 		.4byte	.LVL230
 7644 0336 B6000000 		.4byte	.LVL236
 7645 033a 0100     		.2byte	0x1
 7646 033c 54       		.byte	0x54
 7647 033d 00000000 		.4byte	0
 7648 0341 00000000 		.4byte	0
 7649              		.section	.debug_aranges,"",%progbits
 7650 0000 AC000000 		.4byte	0xac
 7651 0004 0200     		.2byte	0x2
 7652 0006 00000000 		.4byte	.Ldebug_info0
 7653 000a 04       		.byte	0x4
 7654 000b 00       		.byte	0
 7655 000c 0000     		.2byte	0
 7656 000e 0000     		.2byte	0
 7657 0010 00000000 		.4byte	.LFB35
 7658 0014 68000000 		.4byte	.LFE35-.LFB35
 7659 0018 00000000 		.4byte	.LFB36
 7660 001c 64000000 		.4byte	.LFE36-.LFB36
 7661 0020 00000000 		.4byte	.LFB37
 7662 0024 12000000 		.4byte	.LFE37-.LFB37
 7663 0028 00000000 		.4byte	.LFB38
 7664 002c 1A000000 		.4byte	.LFE38-.LFB38
 7665 0030 00000000 		.4byte	.LFB39
 7666 0034 40000000 		.4byte	.LFE39-.LFB39
ARM GAS  C:\Users\HELLOK~1\AppData\Local\Temp\cc4szl9H.s 			page 150


 7667 0038 00000000 		.4byte	.LFB40
 7668 003c 20000000 		.4byte	.LFE40-.LFB40
 7669 0040 00000000 		.4byte	.LFB41
 7670 0044 80000000 		.4byte	.LFE41-.LFB41
 7671 0048 00000000 		.4byte	.LFB42
 7672 004c B4000000 		.4byte	.LFE42-.LFB42
 7673 0050 00000000 		.4byte	.LFB43
 7674 0054 68000000 		.4byte	.LFE43-.LFB43
 7675 0058 00000000 		.4byte	.LFB44
 7676 005c 60000000 		.4byte	.LFE44-.LFB44
 7677 0060 00000000 		.4byte	.LFB45
 7678 0064 D4000000 		.4byte	.LFE45-.LFB45
 7679 0068 00000000 		.4byte	.LFB46
 7680 006c B0000000 		.4byte	.LFE46-.LFB46
 7681 0070 00000000 		.4byte	.LFB47
 7682 0074 6C040000 		.4byte	.LFE47-.LFB47
 7683 0078 00000000 		.4byte	.LFB48
 7684 007c 02000000 		.4byte	.LFE48-.LFB48
 7685 0080 00000000 		.4byte	.LFB49
 7686 0084 02000000 		.4byte	.LFE49-.LFB49
 7687 0088 00000000 		.4byte	.LFB50
 7688 008c 02000000 		.4byte	.LFE50-.LFB50
 7689 0090 00000000 		.4byte	.LFB51
 7690 0094 02000000 		.4byte	.LFE51-.LFB51
 7691 0098 00000000 		.4byte	.LFB52
 7692 009c D0000000 		.4byte	.LFE52-.LFB52
 7693 00a0 00000000 		.4byte	.LFB53
 7694 00a4 20020000 		.4byte	.LFE53-.LFB53
 7695 00a8 00000000 		.4byte	0
 7696 00ac 00000000 		.4byte	0
 7697              		.section	.debug_ranges,"",%progbits
 7698              	.Ldebug_ranges0:
 7699 0000 70000000 		.4byte	.LBB5
 7700 0004 80000000 		.4byte	.LBE5
 7701 0008 82000000 		.4byte	.LBB6
 7702 000c 86000000 		.4byte	.LBE6
 7703 0010 00000000 		.4byte	0
 7704 0014 00000000 		.4byte	0
 7705 0018 00000000 		.4byte	.LFB35
 7706 001c 68000000 		.4byte	.LFE35
 7707 0020 00000000 		.4byte	.LFB36
 7708 0024 64000000 		.4byte	.LFE36
 7709 0028 00000000 		.4byte	.LFB37
 7710 002c 12000000 		.4byte	.LFE37
 7711 0030 00000000 		.4byte	.LFB38
 7712 0034 1A000000 		.4byte	.LFE38
 7713 0038 00000000 		.4byte	.LFB39
 7714 003c 40000000 		.4byte	.LFE39
 7715 0040 00000000 		.4byte	.LFB40
 7716 0044 20000000 		.4byte	.LFE40
 7717 0048 00000000 		.4byte	.LFB41
 7718 004c 80000000 		.4byte	.LFE41
 7719 0050 00000000 		.4byte	.LFB42
 7720 0054 B4000000 		.4byte	.LFE42
 7721 0058 00000000 		.4byte	.LFB43
 7722 005c 68000000 		.4byte	.LFE43
 7723 0060 00000000 		.4byte	.LFB44
ARM GAS  C:\Users\HELLOK~1\AppData\Local\Temp\cc4szl9H.s 			page 151


 7724 0064 60000000 		.4byte	.LFE44
 7725 0068 00000000 		.4byte	.LFB45
 7726 006c D4000000 		.4byte	.LFE45
 7727 0070 00000000 		.4byte	.LFB46
 7728 0074 B0000000 		.4byte	.LFE46
 7729 0078 00000000 		.4byte	.LFB47
 7730 007c 6C040000 		.4byte	.LFE47
 7731 0080 00000000 		.4byte	.LFB48
 7732 0084 02000000 		.4byte	.LFE48
 7733 0088 00000000 		.4byte	.LFB49
 7734 008c 02000000 		.4byte	.LFE49
 7735 0090 00000000 		.4byte	.LFB50
 7736 0094 02000000 		.4byte	.LFE50
 7737 0098 00000000 		.4byte	.LFB51
 7738 009c 02000000 		.4byte	.LFE51
 7739 00a0 00000000 		.4byte	.LFB52
 7740 00a4 D0000000 		.4byte	.LFE52
 7741 00a8 00000000 		.4byte	.LFB53
 7742 00ac 20020000 		.4byte	.LFE53
 7743 00b0 00000000 		.4byte	0
 7744 00b4 00000000 		.4byte	0
 7745              		.section	.debug_line,"",%progbits
 7746              	.Ldebug_line0:
 7747 0000 AB040000 		.section	.debug_str,"MS",%progbits,1
 7747      02004801 
 7747      00000201 
 7747      FB0E0D00 
 7747      01010101 
 7748              	.LASF108:
 7749 0000 43794465 		.ascii	"CyDelay\000"
 7749      6C617900 
 7750              	.LASF45:
 7751 0008 72656164 		.ascii	"readBuf\000"
 7751      42756600 
 7752              	.LASF64:
 7753 0010 46454545 		.ascii	"FEEEEED\000"
 7753      45454400 
 7754              	.LASF122:
 7755 0018 4C697175 		.ascii	"LiquidCrystal_I2C_init\000"
 7755      69644372 
 7755      79737461 
 7755      6C5F4932 
 7755      435F696E 
 7756              	.LASF110:
 7757 002f 4C45445F 		.ascii	"LED_PWM_Start\000"
 7757      50574D5F 
 7757      53746172 
 7757      7400
 7758              	.LASF125:
 7759 003d 6D61696E 		.ascii	"main.c\000"
 7759      2E6300
 7760              	.LASF68:
 7761 0044 63757272 		.ascii	"currentIndex\000"
 7761      656E7449 
 7761      6E646578 
 7761      00
 7762              	.LASF118:
ARM GAS  C:\Users\HELLOK~1\AppData\Local\Temp\cc4szl9H.s 			page 152


 7763 0051 7374726E 		.ascii	"strncmp\000"
 7763      636D7000 
 7764              	.LASF8:
 7765 0059 756E7369 		.ascii	"unsigned int\000"
 7765      676E6564 
 7765      20696E74 
 7765      00
 7766              	.LASF116:
 7767 0066 53504541 		.ascii	"SPEAKER_PWM_WriteCompare\000"
 7767      4B45525F 
 7767      50574D5F 
 7767      57726974 
 7767      65436F6D 
 7768              	.LASF47:
 7769 007f 64657641 		.ascii	"devAddr\000"
 7769      64647200 
 7770              	.LASF53:
 7771 0087 77724275 		.ascii	"wrBuf\000"
 7771      6600
 7772              	.LASF123:
 7773 008d 4C434442 		.ascii	"LCDBegin\000"
 7773      6567696E 
 7773      00
 7774              	.LASF88:
 7775 0096 66656564 		.ascii	"feedTimes\000"
 7775      54696D65 
 7775      7300
 7776              	.LASF103:
 7777 00a0 4932435F 		.ascii	"I2C_I2CMasterReadBuf\000"
 7777      4932434D 
 7777      61737465 
 7777      72526561 
 7777      64427566 
 7778              	.LASF121:
 7779 00b5 4932435F 		.ascii	"I2C_Start\000"
 7779      53746172 
 7779      7400
 7780              	.LASF73:
 7781 00bf 7072696E 		.ascii	"printYear\000"
 7781      74596561 
 7781      7200
 7782              	.LASF30:
 7783 00c9 43656E74 		.ascii	"Century_Months\000"
 7783      7572795F 
 7783      4D6F6E74 
 7783      687300
 7784              	.LASF77:
 7785 00d8 73657441 		.ascii	"setAmountOfFood\000"
 7785      6D6F756E 
 7785      744F6646 
 7785      6F6F6400 
 7786              	.LASF12:
 7787 00e8 666C6F61 		.ascii	"float\000"
 7787      7400
 7788              	.LASF42:
 7789 00ee 62636454 		.ascii	"bcdToDec\000"
 7789      6F446563 
ARM GAS  C:\Users\HELLOK~1\AppData\Local\Temp\cc4szl9H.s 			page 153


 7789      00
 7790              	.LASF87:
 7791 00f7 6D6F6E74 		.ascii	"months\000"
 7791      687300
 7792              	.LASF38:
 7793 00fe 54696D65 		.ascii	"Timer\000"
 7793      7200
 7794              	.LASF99:
 7795 0104 43794465 		.ascii	"CyDelayUs\000"
 7795      6C617955 
 7795      7300
 7796              	.LASF7:
 7797 010e 6C6F6E67 		.ascii	"long long unsigned int\000"
 7797      206C6F6E 
 7797      6720756E 
 7797      7369676E 
 7797      65642069 
 7798              	.LASF56:
 7799 0125 6E657874 		.ascii	"nextTime\000"
 7799      54696D65 
 7799      00
 7800              	.LASF35:
 7801 012e 5765656B 		.ascii	"WeekdayAlarm\000"
 7801      64617941 
 7801      6C61726D 
 7801      00
 7802              	.LASF120:
 7803 013b 454E435F 		.ascii	"ENC_ISR_Start\000"
 7803      4953525F 
 7803      53746172 
 7803      7400
 7804              	.LASF98:
 7805 0149 4D6F746F 		.ascii	"Motor_Write\000"
 7805      725F5772 
 7805      69746500 
 7806              	.LASF31:
 7807 0155 59656172 		.ascii	"Years\000"
 7807      7300
 7808              	.LASF72:
 7809 015b 7072696E 		.ascii	"printDay\000"
 7809      74446179 
 7809      00
 7810              	.LASF82:
 7811 0164 74696D65 		.ascii	"time\000"
 7811      00
 7812              	.LASF106:
 7813 0169 4C43445F 		.ascii	"LCD_print\000"
 7813      7072696E 
 7813      7400
 7814              	.LASF43:
 7815 0173 76616C75 		.ascii	"value\000"
 7815      6500
 7816              	.LASF34:
 7817 0179 44617941 		.ascii	"DayAlarm\000"
 7817      6C61726D 
 7817      00
 7818              	.LASF124:
ARM GAS  C:\Users\HELLOK~1\AppData\Local\Temp\cc4szl9H.s 			page 154


 7819 0182 474E5520 		.ascii	"GNU C11 5.4.1 20160609 (release) [ARM/embedded-5-br"
 7819      43313120 
 7819      352E342E 
 7819      31203230 
 7819      31363036 
 7820 01b5 616E6368 		.ascii	"anch revision 237715] -mcpu=cortex-m0 -mthumb -g -O"
 7820      20726576 
 7820      6973696F 
 7820      6E203233 
 7820      37373135 
 7821 01e8 67202D66 		.ascii	"g -ffunction-sections -ffat-lto-objects\000"
 7821      66756E63 
 7821      74696F6E 
 7821      2D736563 
 7821      74696F6E 
 7822              	.LASF58:
 7823 0210 6E657874 		.ascii	"nextDate\000"
 7823      44617465 
 7823      00
 7824              	.LASF112:
 7825 0219 53504541 		.ascii	"SPEAKER_PWM_Stop\000"
 7825      4B45525F 
 7825      50574D5F 
 7825      53746F70 
 7825      00
 7826              	.LASF48:
 7827 022a 6D656D41 		.ascii	"memAddr\000"
 7827      64647200 
 7828              	.LASF67:
 7829 0232 73657444 		.ascii	"setDate\000"
 7829      61746500 
 7830              	.LASF28:
 7831 023a 44617973 		.ascii	"Days\000"
 7831      00
 7832              	.LASF55:
 7833 023f 63757272 		.ascii	"currTime\000"
 7833      54696D65 
 7833      00
 7834              	.LASF21:
 7835 0248 6D6F6E74 		.ascii	"month\000"
 7835      6800
 7836              	.LASF79:
 7837 024e 746F6767 		.ascii	"toggleSpeakers\000"
 7837      6C655370 
 7837      65616B65 
 7837      727300
 7838              	.LASF95:
 7839 025d 62757474 		.ascii	"buttonFlag\000"
 7839      6F6E466C 
 7839      616700
 7840              	.LASF63:
 7841 0268 65786974 		.ascii	"exitLCD\000"
 7841      4C434400 
 7842              	.LASF86:
 7843 0270 66656564 		.ascii	"feedSteps\000"
 7843      53746570 
 7843      7300
ARM GAS  C:\Users\HELLOK~1\AppData\Local\Temp\cc4szl9H.s 			page 155


 7844              	.LASF78:
 7845 027a 746F6767 		.ascii	"toggleLEDs\000"
 7845      6C654C45 
 7845      447300
 7846              	.LASF18:
 7847 0285 686F7572 		.ascii	"hour\000"
 7847      00
 7848              	.LASF57:
 7849 028a 63757272 		.ascii	"currDate\000"
 7849      44617465 
 7849      00
 7850              	.LASF92:
 7851 0293 66656564 		.ascii	"feedCounter\000"
 7851      436F756E 
 7851      74657200 
 7852              	.LASF41:
 7853 029f 6D6F746F 		.ascii	"motor\000"
 7853      7200
 7854              	.LASF76:
 7855 02a5 73657446 		.ascii	"setFeedTimes\000"
 7855      65656454 
 7855      696D6573 
 7855      00
 7856              	.LASF14:
 7857 02b2 63686172 		.ascii	"char\000"
 7857      00
 7858              	.LASF37:
 7859 02b7 54696D65 		.ascii	"TimerControl\000"
 7859      72436F6E 
 7859      74726F6C 
 7859      00
 7860              	.LASF29:
 7861 02c4 5765656B 		.ascii	"Weekdays\000"
 7861      64617973 
 7861      00
 7862              	.LASF60:
 7863 02cd 75706461 		.ascii	"updateNextFeed\000"
 7863      74654E65 
 7863      78744665 
 7863      656400
 7864              	.LASF10:
 7865 02dc 75696E74 		.ascii	"uint16\000"
 7865      313600
 7866              	.LASF83:
 7867 02e3 64617465 		.ascii	"date\000"
 7867      00
 7868              	.LASF54:
 7869 02e8 4C434449 		.ascii	"LCDInit\000"
 7869      6E697400 
 7870              	.LASF49:
 7871 02f0 72656164 		.ascii	"readFromAddr\000"
 7871      46726F6D 
 7871      41646472 
 7871      00
 7872              	.LASF102:
 7873 02fd 4932435F 		.ascii	"I2C_I2CMasterClearStatus\000"
 7873      4932434D 
ARM GAS  C:\Users\HELLOK~1\AppData\Local\Temp\cc4szl9H.s 			page 156


 7873      61737465 
 7873      72436C65 
 7873      61725374 
 7874              	.LASF81:
 7875 0316 63686F69 		.ascii	"choice\000"
 7875      636500
 7876              	.LASF23:
 7877 031d 4374726C 		.ascii	"CtrlStat1\000"
 7877      53746174 
 7877      3100
 7878              	.LASF24:
 7879 0327 4374726C 		.ascii	"CtrlStat2\000"
 7879      53746174 
 7879      3200
 7880              	.LASF19:
 7881 0331 6D696E75 		.ascii	"minute\000"
 7881      746500
 7882              	.LASF6:
 7883 0338 6C6F6E67 		.ascii	"long long int\000"
 7883      206C6F6E 
 7883      6720696E 
 7883      7400
 7884              	.LASF94:
 7885 0346 4C454454 		.ascii	"LEDToggle\000"
 7885      6F67676C 
 7885      6500
 7886              	.LASF93:
 7887 0350 73706561 		.ascii	"speakerToggle\000"
 7887      6B657254 
 7887      6F67676C 
 7887      6500
 7888              	.LASF126:
 7889 035e 433A5C55 		.ascii	"C:\\Users\\Hello Kitty\\Desktop\\MicrocontrollersLa"
 7889      73657273 
 7889      5C48656C 
 7889      6C6F204B 
 7889      69747479 
 7890 038d 625C4669 		.ascii	"b\\Final Project\\Project Files\\Final Project\\Aut"
 7890      6E616C20 
 7890      50726F6A 
 7890      6563745C 
 7890      50726F6A 
 7891 03bc 6F6D6174 		.ascii	"omaticPetFeeder.cydsn\000"
 7891      69635065 
 7891      74466565 
 7891      6465722E 
 7891      63796473 
 7892              	.LASF97:
 7893 03d2 656E6350 		.ascii	"encPos\000"
 7893      6F7300
 7894              	.LASF62:
 7895 03d9 52544349 		.ascii	"RTCInit\000"
 7895      6E697400 
 7896              	.LASF107:
 7897 03e1 4C45445F 		.ascii	"LED_SEL_Write\000"
 7897      53454C5F 
 7897      57726974 
ARM GAS  C:\Users\HELLOK~1\AppData\Local\Temp\cc4szl9H.s 			page 157


 7897      6500
 7898              	.LASF25:
 7899 03ef 564C5F53 		.ascii	"VL_Sec\000"
 7899      656300
 7900              	.LASF44:
 7901 03f6 64656354 		.ascii	"decToBcd\000"
 7901      6F426364 
 7901      00
 7902              	.LASF90:
 7903 03ff 4C434441 		.ascii	"LCDAddr\000"
 7903      64647200 
 7904              	.LASF51:
 7905 0407 77726974 		.ascii	"writeBuf\000"
 7905      65427566 
 7905      00
 7906              	.LASF96:
 7907 0410 656E6346 		.ascii	"encFlag\000"
 7907      6C616700 
 7908              	.LASF11:
 7909 0418 75696E74 		.ascii	"uint32\000"
 7909      333200
 7910              	.LASF100:
 7911 041f 4932435F 		.ascii	"I2C_I2CMasterWriteBuf\000"
 7911      4932434D 
 7911      61737465 
 7911      72577269 
 7911      74654275 
 7912              	.LASF40:
 7913 0435 4D564357 		.ascii	"MVCW\000"
 7913      00
 7914              	.LASF91:
 7915 043a 52544341 		.ascii	"RTCAddr\000"
 7915      64647200 
 7916              	.LASF61:
 7917 0442 75706461 		.ascii	"updateCurrTime\000"
 7917      74654375 
 7917      72725469 
 7917      6D6500
 7918              	.LASF46:
 7919 0451 72656164 		.ascii	"readBytes\000"
 7919      42797465 
 7919      7300
 7920              	.LASF89:
 7921 045b 636F6D6D 		.ascii	"commands\000"
 7921      616E6473 
 7921      00
 7922              	.LASF36:
 7923 0464 434C4B4F 		.ascii	"CLKOUTControl\000"
 7923      5554436F 
 7923      6E74726F 
 7923      6C00
 7924              	.LASF15:
 7925 0472 6C6F6E67 		.ascii	"long double\000"
 7925      20646F75 
 7925      626C6500 
 7926              	.LASF74:
 7927 047e 7072696E 		.ascii	"printHour\000"
ARM GAS  C:\Users\HELLOK~1\AppData\Local\Temp\cc4szl9H.s 			page 158


 7927      74486F75 
 7927      7200
 7928              	.LASF115:
 7929 0488 53504541 		.ascii	"SPEAKER_PWM_WritePeriod\000"
 7929      4B45525F 
 7929      50574D5F 
 7929      57726974 
 7929      65506572 
 7930              	.LASF117:
 7931 04a0 636C6561 		.ascii	"clear\000"
 7931      7200
 7932              	.LASF105:
 7933 04a6 736E7072 		.ascii	"snprintf\000"
 7933      696E7466 
 7933      00
 7934              	.LASF71:
 7935 04af 73657454 		.ascii	"setTime\000"
 7935      696D6500 
 7936              	.LASF2:
 7937 04b7 73686F72 		.ascii	"short int\000"
 7937      7420696E 
 7937      7400
 7938              	.LASF4:
 7939 04c1 6C6F6E67 		.ascii	"long int\000"
 7939      20696E74 
 7939      00
 7940              	.LASF59:
 7941 04ca 7072696E 		.ascii	"printString\000"
 7941      74537472 
 7941      696E6700 
 7942              	.LASF52:
 7943 04d6 77726974 		.ascii	"writeBytes\000"
 7943      65427974 
 7943      657300
 7944              	.LASF80:
 7945 04e1 73746172 		.ascii	"startSettings\000"
 7945      74536574 
 7945      74696E67 
 7945      7300
 7946              	.LASF65:
 7947 04ef 73657447 		.ascii	"setGlobalTime\000"
 7947      6C6F6261 
 7947      6C54696D 
 7947      6500
 7948              	.LASF111:
 7949 04fd 4C45445F 		.ascii	"LED_PWM_Stop\000"
 7949      50574D5F 
 7949      53746F70 
 7949      00
 7950              	.LASF75:
 7951 050a 7072696E 		.ascii	"printMinute\000"
 7951      744D696E 
 7951      75746500 
 7952              	.LASF50:
 7953 0516 77726974 		.ascii	"writeToAddr\000"
 7953      65546F41 
 7953      64647200 
ARM GAS  C:\Users\HELLOK~1\AppData\Local\Temp\cc4szl9H.s 			page 159


 7954              	.LASF16:
 7955 0522 73697A65 		.ascii	"sizetype\000"
 7955      74797065 
 7955      00
 7956              	.LASF5:
 7957 052b 6C6F6E67 		.ascii	"long unsigned int\000"
 7957      20756E73 
 7957      69676E65 
 7957      6420696E 
 7957      7400
 7958              	.LASF109:
 7959 053d 53504541 		.ascii	"SPEAKER_PWM_Start\000"
 7959      4B45525F 
 7959      50574D5F 
 7959      53746172 
 7959      7400
 7960              	.LASF39:
 7961 054f 4D564343 		.ascii	"MVCCW\000"
 7961      5700
 7962              	.LASF101:
 7963 0555 4932435F 		.ascii	"I2C_I2CMasterStatus\000"
 7963      4932434D 
 7963      61737465 
 7963      72537461 
 7963      74757300 
 7964              	.LASF22:
 7965 0569 79656172 		.ascii	"year\000"
 7965      00
 7966              	.LASF114:
 7967 056e 4C45445F 		.ascii	"LED_PWM_WriteCompare\000"
 7967      50574D5F 
 7967      57726974 
 7967      65436F6D 
 7967      70617265 
 7968              	.LASF1:
 7969 0583 756E7369 		.ascii	"unsigned char\000"
 7969      676E6564 
 7969      20636861 
 7969      7200
 7970              	.LASF70:
 7971 0591 75706461 		.ascii	"updateTime\000"
 7971      74655469 
 7971      6D6500
 7972              	.LASF26:
 7973 059c 4D696E75 		.ascii	"Minutes\000"
 7973      74657300 
 7974              	.LASF85:
 7975 05a4 6D6F746F 		.ascii	"motorDelay\000"
 7975      7244656C 
 7975      617900
 7976              	.LASF113:
 7977 05af 4C45445F 		.ascii	"LED_PWM_WritePeriod\000"
 7977      50574D5F 
 7977      57726974 
 7977      65506572 
 7977      696F6400 
 7978              	.LASF27:
ARM GAS  C:\Users\HELLOK~1\AppData\Local\Temp\cc4szl9H.s 			page 160


 7979 05c3 486F7572 		.ascii	"Hours\000"
 7979      7300
 7980              	.LASF84:
 7981 05c9 75706461 		.ascii	"updateDate\000"
 7981      74654461 
 7981      746500
 7982              	.LASF0:
 7983 05d4 7369676E 		.ascii	"signed char\000"
 7983      65642063 
 7983      68617200 
 7984              	.LASF3:
 7985 05e0 73686F72 		.ascii	"short unsigned int\000"
 7985      7420756E 
 7985      7369676E 
 7985      65642069 
 7985      6E7400
 7986              	.LASF129:
 7987 05f3 6D656D63 		.ascii	"memcpy\000"
 7987      707900
 7988              	.LASF128:
 7989 05fa 6D61696E 		.ascii	"main\000"
 7989      00
 7990              	.LASF104:
 7991 05ff 73657443 		.ascii	"setCursor\000"
 7991      7572736F 
 7991      7200
 7992              	.LASF17:
 7993 0609 54696D65 		.ascii	"Time\000"
 7993      00
 7994              	.LASF9:
 7995 060e 75696E74 		.ascii	"uint8\000"
 7995      3800
 7996              	.LASF13:
 7997 0614 646F7562 		.ascii	"double\000"
 7997      6C6500
 7998              	.LASF33:
 7999 061b 486F7572 		.ascii	"HourAlarm\000"
 7999      416C6172 
 7999      6D00
 8000              	.LASF69:
 8001 0625 6E756D62 		.ascii	"numberMonth\000"
 8001      65724D6F 
 8001      6E746800 
 8002              	.LASF66:
 8003 0631 7072696E 		.ascii	"printMessage\000"
 8003      744D6573 
 8003      73616765 
 8003      00
 8004              	.LASF32:
 8005 063e 4D696E75 		.ascii	"MinuteAlarm\000"
 8005      7465416C 
 8005      61726D00 
 8006              	.LASF119:
 8007 064a 42544E5F 		.ascii	"BTN_ISR_Start\000"
 8007      4953525F 
 8007      53746172 
 8007      7400
ARM GAS  C:\Users\HELLOK~1\AppData\Local\Temp\cc4szl9H.s 			page 161


 8008              	.LASF20:
 8009 0658 44617465 		.ascii	"Date\000"
 8009      00
 8010              	.LASF127:
 8011 065d 706F7369 		.ascii	"position\000"
 8011      74696F6E 
 8011      00
 8012              		.ident	"GCC: (GNU Tools for ARM Embedded Processors) 5.4.1 20160609 (release) [ARM/embedded-5-bran
