ARM GAS  C:\Users\HELLOK~1.1\AppData\Local\Temp\cciBhXYB.s 			page 1


   1              		.syntax unified
   2              		.cpu cortex-m0
   3              		.fpu softvfp
   4              		.eabi_attribute 20, 1
   5              		.eabi_attribute 21, 1
   6              		.eabi_attribute 23, 3
   7              		.eabi_attribute 24, 1
   8              		.eabi_attribute 25, 1
   9              		.eabi_attribute 26, 1
  10              		.eabi_attribute 30, 1
  11              		.eabi_attribute 34, 0
  12              		.eabi_attribute 18, 4
  13              		.thumb
  14              		.syntax unified
  15              		.file	"main.c"
  16              		.text
  17              	.Ltext0:
  18              		.cfi_sections	.debug_frame
  19              		.section	.text.bcdToDec,"ax",%progbits
  20              		.align	2
  21              		.global	bcdToDec
  22              		.code	16
  23              		.thumb_func
  24              		.type	bcdToDec, %function
  25              	bcdToDec:
  26              	.LFB35:
  27              		.file 1 "main.c"
   1:main.c        **** /* ========================================
   2:main.c        ****  *
   3:main.c        ****  * Copyright YOUR COMPANY, THE YEAR
   4:main.c        ****  * All Rights Reserved
   5:main.c        ****  * UNPUBLISHED, LICENSED SOFTWARE.
   6:main.c        ****  *
   7:main.c        ****  * CONFIDENTIAL AND PROPRIETARY INFORMATION
   8:main.c        ****  * WHICH IS THE PROPERTY OF your company.
   9:main.c        ****  *
  10:main.c        ****  * ========================================
  11:main.c        **** */
  12:main.c        **** #include "project.h"
  13:main.c        **** #include <stdio.h>
  14:main.c        **** #include "LiquidCrystal_I2C.h"
  15:main.c        **** 
  16:main.c        **** 
  17:main.c        **** 
  18:main.c        **** struct Time{
  19:main.c        ****     uint8 hour;
  20:main.c        ****     uint8 minute;
  21:main.c        ****     char* AM;
  22:main.c        **** };
  23:main.c        **** 
  24:main.c        **** struct Date{
  25:main.c        ****     uint8 day;
  26:main.c        ****     char* month;
  27:main.c        ****     uint8 year;
  28:main.c        **** };
  29:main.c        **** struct RTC{
  30:main.c        ****     uint8 CtrlStat1;
ARM GAS  C:\Users\HELLOK~1.1\AppData\Local\Temp\cciBhXYB.s 			page 2


  31:main.c        ****     uint8 CtrlStat2;
  32:main.c        ****     uint8 VL_Sec;
  33:main.c        ****     uint8 Minutes;
  34:main.c        ****     uint8 Hours;
  35:main.c        ****     uint8 Days;
  36:main.c        ****     uint8 Weekdays;
  37:main.c        ****     uint8 Century_Months;
  38:main.c        ****     uint8 Years;
  39:main.c        ****     uint8 MinuteAlarm;
  40:main.c        ****     uint8 HourAlarm;
  41:main.c        ****     uint8 DayAlarm;
  42:main.c        ****     uint8 WeekdayAlarm;
  43:main.c        ****     uint8 CLKOUTControl;
  44:main.c        ****     uint8 TimerControl;
  45:main.c        ****     uint8 Timer;
  46:main.c        **** };
  47:main.c        **** 
  48:main.c        **** struct RTC rtc = {
  49:main.c        ****     0x00, //CtrlStat1
  50:main.c        ****     0x01, //CtrlStat2
  51:main.c        ****     0x02, //VL_Sec
  52:main.c        ****     0x03, //Minutes
  53:main.c        ****     0x04, //Hours
  54:main.c        ****     0x05, //Days
  55:main.c        ****     0x06, //Weekdays
  56:main.c        ****     0x07, //Century_Months
  57:main.c        ****     0x08, //Years
  58:main.c        ****     0x09, //MinuteAlarm
  59:main.c        ****     0x0A, //HourAlarm
  60:main.c        ****     0x0B, //DayAlarm
  61:main.c        ****     0x0C, //WeekdayAlarm
  62:main.c        ****     0x0D, //CLKOUTControl
  63:main.c        ****     0x0E, //TimerControl
  64:main.c        ****     0x0F //Timer
  65:main.c        **** };
  66:main.c        **** 
  67:main.c        **** const char* months[12] = {
  68:main.c        ****     "Jan",
  69:main.c        ****     "Feb",
  70:main.c        ****     "Mar",
  71:main.c        ****     "Apr",
  72:main.c        ****     "May",
  73:main.c        ****     "Jun",
  74:main.c        ****     "Jul",
  75:main.c        ****     "Aug",
  76:main.c        ****     "Sep",
  77:main.c        ****     "Oct",
  78:main.c        ****     "Nov",
  79:main.c        ****     "Dec"
  80:main.c        **** };
  81:main.c        **** 
  82:main.c        **** struct Time feedTimes[10] = {
  83:main.c        ****     {4,25,"PM"},
  84:main.c        ****     {4,26,"PM"},
  85:main.c        ****     {5,5,"PM"}
  86:main.c        **** };
  87:main.c        **** 
ARM GAS  C:\Users\HELLOK~1.1\AppData\Local\Temp\cciBhXYB.s 			page 3


  88:main.c        **** char* commands[6] = {
  89:main.c        ****     "Set Global Time     ",
  90:main.c        ****     "Change Feed Times   ",
  91:main.c        ****     "Change Feed Amount  ",
  92:main.c        ****     "Turn on/off LED's   ",
  93:main.c        ****     "Turn on/off Speakers",
  94:main.c        ****     "Exit                "
  95:main.c        **** };
  96:main.c        **** // Feed times
  97:main.c        ****     // Amount of food
  98:main.c        ****     // LED's
  99:main.c        ****     // Speakers
 100:main.c        ****     // Exit
 101:main.c        **** 
 102:main.c        **** const uint32 LCDAddr = 0x27;
 103:main.c        **** const uint32 RTCAddr = 0x51;
 104:main.c        **** uint8 feedCounter = 0;
 105:main.c        **** 
 106:main.c        **** volatile uint8 buttonFlag = 0;
 107:main.c        **** volatile uint8 encFlag = 0;
 108:main.c        **** volatile uint8 encPos = 0;
 109:main.c        **** /*
 110:main.c        **** This function simply reads from any I2C device.
 111:main.c        **** readBuf will be the size of readBytes and any read data will be stored here..
 112:main.c        **** readBytes is the number of bytes that the I2C is reading.
 113:main.c        **** devAddr is the I2C address that the microcontroller is talking to.
 114:main.c        **** memAddr is the memory or register address that is inside the I2C device.
 115:main.c        **** */
 116:main.c        **** uint8 bcdToDec(uint8 value)
 117:main.c        **** {
  28              		.loc 1 117 0
  29              		.cfi_startproc
  30              		@ args = 0, pretend = 0, frame = 0
  31              		@ frame_needed = 0, uses_anonymous_args = 0
  32              		@ link register save eliminated.
  33              	.LVL0:
 118:main.c        ****   return (uint8)((value / 16) * 10 + value % 16);
  34              		.loc 1 118 0
  35 0000 0209     		lsrs	r2, r0, #4
  36 0002 9300     		lsls	r3, r2, #2
  37 0004 D318     		adds	r3, r2, r3
  38 0006 5A00     		lsls	r2, r3, #1
  39 0008 0F23     		movs	r3, #15
  40 000a 1840     		ands	r0, r3
  41              	.LVL1:
  42 000c 1018     		adds	r0, r2, r0
  43 000e C0B2     		uxtb	r0, r0
 119:main.c        **** }
  44              		.loc 1 119 0
  45              		@ sp needed
  46 0010 7047     		bx	lr
  47              		.cfi_endproc
  48              	.LFE35:
  49              		.size	bcdToDec, .-bcdToDec
  50              		.global	__aeabi_uidiv
  51              		.global	__aeabi_uidivmod
  52 0012 C046     		.section	.text.decToBcd,"ax",%progbits
ARM GAS  C:\Users\HELLOK~1.1\AppData\Local\Temp\cciBhXYB.s 			page 4


  53              		.align	2
  54              		.global	decToBcd
  55              		.code	16
  56              		.thumb_func
  57              		.type	decToBcd, %function
  58              	decToBcd:
  59              	.LFB36:
 120:main.c        **** 
 121:main.c        **** uint8 decToBcd(uint8 value){
  60              		.loc 1 121 0
  61              		.cfi_startproc
  62              		@ args = 0, pretend = 0, frame = 0
  63              		@ frame_needed = 0, uses_anonymous_args = 0
  64              	.LVL2:
  65 0000 70B5     		push	{r4, r5, r6, lr}
  66              		.cfi_def_cfa_offset 16
  67              		.cfi_offset 4, -16
  68              		.cfi_offset 5, -12
  69              		.cfi_offset 6, -8
  70              		.cfi_offset 14, -4
  71 0002 0500     		movs	r5, r0
 122:main.c        ****   return (value / 10 * 16 + value % 10);
  72              		.loc 1 122 0
  73 0004 0A21     		movs	r1, #10
  74 0006 FFF7FEFF 		bl	__aeabi_uidiv
  75              	.LVL3:
  76 000a 0401     		lsls	r4, r0, #4
  77 000c 0A21     		movs	r1, #10
  78 000e 2800     		movs	r0, r5
  79 0010 FFF7FEFF 		bl	__aeabi_uidivmod
  80              	.LVL4:
  81 0014 6118     		adds	r1, r4, r1
  82 0016 C8B2     		uxtb	r0, r1
 123:main.c        **** }
  83              		.loc 1 123 0
  84              		@ sp needed
  85 0018 70BD     		pop	{r4, r5, r6, pc}
  86              		.cfi_endproc
  87              	.LFE36:
  88              		.size	decToBcd, .-decToBcd
  89 001a C046     		.section	.text.readFromAddr,"ax",%progbits
  90              		.align	2
  91              		.global	readFromAddr
  92              		.code	16
  93              		.thumb_func
  94              		.type	readFromAddr, %function
  95              	readFromAddr:
  96              	.LFB37:
 124:main.c        **** void readFromAddr(uint8* readBuf, int readBytes, uint32 devAddr, uint32 memAddr){
  97              		.loc 1 124 0
  98              		.cfi_startproc
  99              		@ args = 0, pretend = 0, frame = 8
 100              		@ frame_needed = 0, uses_anonymous_args = 0
 101              	.LVL5:
 102 0000 70B5     		push	{r4, r5, r6, lr}
 103              		.cfi_def_cfa_offset 16
 104              		.cfi_offset 4, -16
ARM GAS  C:\Users\HELLOK~1.1\AppData\Local\Temp\cciBhXYB.s 			page 5


 105              		.cfi_offset 5, -12
 106              		.cfi_offset 6, -8
 107              		.cfi_offset 14, -4
 108 0002 82B0     		sub	sp, sp, #8
 109              		.cfi_def_cfa_offset 24
 110 0004 0500     		movs	r5, r0
 111 0006 0E00     		movs	r6, r1
 112 0008 1400     		movs	r4, r2
 125:main.c        ****     // First write the memory address to the I2C bus.
 126:main.c        ****     uint8 wrBuf[1];
 127:main.c        ****     wrBuf[0] = memAddr;
 113              		.loc 1 127 0
 114 000a 01A9     		add	r1, sp, #4
 115              	.LVL6:
 116 000c 0B70     		strb	r3, [r1]
 128:main.c        ****     I2C_I2CMasterWriteBuf(devAddr, wrBuf, 1, I2C_I2C_MODE_NO_STOP);
 117              		.loc 1 128 0
 118 000e 0223     		movs	r3, #2
 119              	.LVL7:
 120 0010 0122     		movs	r2, #1
 121              	.LVL8:
 122 0012 2000     		movs	r0, r4
 123              	.LVL9:
 124 0014 FFF7FEFF 		bl	I2C_I2CMasterWriteBuf
 125              	.LVL10:
 126              	.L4:
 129:main.c        ****     while(!(I2C_I2CMasterStatus() & I2C_I2C_MSTAT_WR_CMPLT));
 127              		.loc 1 129 0 discriminator 1
 128 0018 FFF7FEFF 		bl	I2C_I2CMasterStatus
 129              	.LVL11:
 130 001c 8307     		lsls	r3, r0, #30
 131 001e FBD5     		bpl	.L4
 130:main.c        ****     I2C_I2CMasterClearStatus();
 132              		.loc 1 130 0
 133 0020 FFF7FEFF 		bl	I2C_I2CMasterClearStatus
 134              	.LVL12:
 131:main.c        **** 
 132:main.c        ****     // Then read the output from the I2C bus from that memory address.
 133:main.c        ****     I2C_I2CMasterReadBuf(devAddr, readBuf, readBytes, I2C_I2C_MODE_REPEAT_START);
 135              		.loc 1 133 0
 136 0024 0123     		movs	r3, #1
 137 0026 3200     		movs	r2, r6
 138 0028 2900     		movs	r1, r5
 139 002a 2000     		movs	r0, r4
 140 002c FFF7FEFF 		bl	I2C_I2CMasterReadBuf
 141              	.LVL13:
 142              	.L5:
 134:main.c        ****     while(!(I2C_I2CMasterStatus() & I2C_I2C_MSTAT_RD_CMPLT));
 143              		.loc 1 134 0 discriminator 1
 144 0030 FFF7FEFF 		bl	I2C_I2CMasterStatus
 145              	.LVL14:
 146 0034 C307     		lsls	r3, r0, #31
 147 0036 FBD5     		bpl	.L5
 135:main.c        ****     I2C_I2CMasterClearStatus();
 148              		.loc 1 135 0
 149 0038 FFF7FEFF 		bl	I2C_I2CMasterClearStatus
 150              	.LVL15:
ARM GAS  C:\Users\HELLOK~1.1\AppData\Local\Temp\cciBhXYB.s 			page 6


 136:main.c        **** }
 151              		.loc 1 136 0
 152 003c 02B0     		add	sp, sp, #8
 153              		@ sp needed
 154              	.LVL16:
 155              	.LVL17:
 156              	.LVL18:
 157 003e 70BD     		pop	{r4, r5, r6, pc}
 158              		.cfi_endproc
 159              	.LFE37:
 160              		.size	readFromAddr, .-readFromAddr
 161              		.section	.text.writeToAddr,"ax",%progbits
 162              		.align	2
 163              		.global	writeToAddr
 164              		.code	16
 165              		.thumb_func
 166              		.type	writeToAddr, %function
 167              	writeToAddr:
 168              	.LFB38:
 137:main.c        **** /*
 138:main.c        **** This function simply writes to any I2C device.
 139:main.c        **** writeBuf will be the size of writeBytes and any data inside here will be written to the I2C bus.
 140:main.c        **** writeBytes is the number of bytes written to the I2C bus.
 141:main.c        ****     NOTE: The first byte of the writeBuf will be overwritten if it is stored, as it is the memory a
 142:main.c        **** devAddr is the I2C address that the microcontroller is talking to.
 143:main.c        **** memAddr is the memory or register address that is inside the I2C device.
 144:main.c        **** */
 145:main.c        **** void writeToAddr(uint8* writeBuf, int writeBytes, uint32 devAddr, uint32 memAddr){
 169              		.loc 1 145 0
 170              		.cfi_startproc
 171              		@ args = 0, pretend = 0, frame = 0
 172              		@ frame_needed = 0, uses_anonymous_args = 0
 173              	.LVL19:
 174 0000 10B5     		push	{r4, lr}
 175              		.cfi_def_cfa_offset 8
 176              		.cfi_offset 4, -8
 177              		.cfi_offset 14, -4
 178 0002 1400     		movs	r4, r2
 146:main.c        ****     // Store the first byte as the memory address we are writing to.
 147:main.c        ****     writeBuf[0] = memAddr;
 179              		.loc 1 147 0
 180 0004 0370     		strb	r3, [r0]
 148:main.c        **** 
 149:main.c        ****     // Write the data to the device.
 150:main.c        ****     I2C_I2CMasterWriteBuf(devAddr, writeBuf, writeBytes, I2C_I2C_MODE_COMPLETE_XFER);
 181              		.loc 1 150 0
 182 0006 0023     		movs	r3, #0
 183              	.LVL20:
 184 0008 0A00     		movs	r2, r1
 185              	.LVL21:
 186 000a 0100     		movs	r1, r0
 187              	.LVL22:
 188 000c 2000     		movs	r0, r4
 189              	.LVL23:
 190 000e FFF7FEFF 		bl	I2C_I2CMasterWriteBuf
 191              	.LVL24:
 192              	.L7:
ARM GAS  C:\Users\HELLOK~1.1\AppData\Local\Temp\cciBhXYB.s 			page 7


 151:main.c        ****     while(!(I2C_I2CMasterStatus() & I2C_I2C_MSTAT_WR_CMPLT));
 193              		.loc 1 151 0 discriminator 1
 194 0012 FFF7FEFF 		bl	I2C_I2CMasterStatus
 195              	.LVL25:
 196 0016 8307     		lsls	r3, r0, #30
 197 0018 FBD5     		bpl	.L7
 152:main.c        ****     I2C_I2CMasterClearStatus();
 198              		.loc 1 152 0
 199 001a FFF7FEFF 		bl	I2C_I2CMasterClearStatus
 200              	.LVL26:
 153:main.c        **** }
 201              		.loc 1 153 0
 202              		@ sp needed
 203              	.LVL27:
 204 001e 10BD     		pop	{r4, pc}
 205              		.cfi_endproc
 206              	.LFE38:
 207              		.size	writeToAddr, .-writeToAddr
 208              		.section	.text.RTCInit,"ax",%progbits
 209              		.align	2
 210              		.global	RTCInit
 211              		.code	16
 212              		.thumb_func
 213              		.type	RTCInit, %function
 214              	RTCInit:
 215              	.LFB39:
 154:main.c        **** 
 155:main.c        **** void RTCInit(){
 216              		.loc 1 155 0
 217              		.cfi_startproc
 218              		@ args = 0, pretend = 0, frame = 8
 219              		@ frame_needed = 0, uses_anonymous_args = 0
 220 0000 30B5     		push	{r4, r5, lr}
 221              		.cfi_def_cfa_offset 12
 222              		.cfi_offset 4, -12
 223              		.cfi_offset 5, -8
 224              		.cfi_offset 14, -4
 225 0002 83B0     		sub	sp, sp, #12
 226              		.cfi_def_cfa_offset 24
 156:main.c        ****     uint8 wrBuf[2];
 157:main.c        ****     wrBuf[1] = 0x00;
 227              		.loc 1 157 0
 228 0004 01AC     		add	r4, sp, #4
 229 0006 0023     		movs	r3, #0
 230 0008 6370     		strb	r3, [r4, #1]
 158:main.c        ****     writeToAddr(wrBuf,2,RTCAddr,rtc.VL_Sec);
 231              		.loc 1 158 0
 232 000a 1C4D     		ldr	r5, .L9
 233 000c AB78     		ldrb	r3, [r5, #2]
 234 000e 5122     		movs	r2, #81
 235 0010 0221     		movs	r1, #2
 236 0012 2000     		movs	r0, r4
 237 0014 FFF7FEFF 		bl	writeToAddr
 238              	.LVL28:
 159:main.c        ****     wrBuf[1] = 0x44;
 239              		.loc 1 159 0
 240 0018 4423     		movs	r3, #68
ARM GAS  C:\Users\HELLOK~1.1\AppData\Local\Temp\cciBhXYB.s 			page 8


 241 001a 6370     		strb	r3, [r4, #1]
 160:main.c        ****     writeToAddr(wrBuf,2,RTCAddr,rtc.Minutes);
 242              		.loc 1 160 0
 243 001c EB78     		ldrb	r3, [r5, #3]
 244 001e 5122     		movs	r2, #81
 245 0020 0221     		movs	r1, #2
 246 0022 2000     		movs	r0, r4
 247 0024 FFF7FEFF 		bl	writeToAddr
 248              	.LVL29:
 161:main.c        ****     wrBuf[1] = 0x10;
 249              		.loc 1 161 0
 250 0028 1023     		movs	r3, #16
 251 002a 6370     		strb	r3, [r4, #1]
 162:main.c        ****     writeToAddr(wrBuf,2,RTCAddr,rtc.Hours);
 252              		.loc 1 162 0
 253 002c 2B79     		ldrb	r3, [r5, #4]
 254 002e 5122     		movs	r2, #81
 255 0030 0221     		movs	r1, #2
 256 0032 2000     		movs	r0, r4
 257 0034 FFF7FEFF 		bl	writeToAddr
 258              	.LVL30:
 163:main.c        ****     wrBuf[1] = 0x16;
 259              		.loc 1 163 0
 260 0038 1623     		movs	r3, #22
 261 003a 6370     		strb	r3, [r4, #1]
 164:main.c        ****     writeToAddr(wrBuf,2,RTCAddr,rtc.Days);
 262              		.loc 1 164 0
 263 003c 6B79     		ldrb	r3, [r5, #5]
 264 003e 5122     		movs	r2, #81
 265 0040 0221     		movs	r1, #2
 266 0042 2000     		movs	r0, r4
 267 0044 FFF7FEFF 		bl	writeToAddr
 268              	.LVL31:
 165:main.c        ****     wrBuf[1] = 0x06;
 269              		.loc 1 165 0
 270 0048 0623     		movs	r3, #6
 271 004a 6370     		strb	r3, [r4, #1]
 166:main.c        ****     writeToAddr(wrBuf,2,RTCAddr,rtc.Weekdays);
 272              		.loc 1 166 0
 273 004c AB79     		ldrb	r3, [r5, #6]
 274 004e 5122     		movs	r2, #81
 275 0050 0221     		movs	r1, #2
 276 0052 2000     		movs	r0, r4
 277 0054 FFF7FEFF 		bl	writeToAddr
 278              	.LVL32:
 167:main.c        ****     wrBuf[1] = 0x04;
 279              		.loc 1 167 0
 280 0058 0423     		movs	r3, #4
 281 005a 6370     		strb	r3, [r4, #1]
 168:main.c        ****     writeToAddr(wrBuf,2,RTCAddr,rtc.Century_Months);
 282              		.loc 1 168 0
 283 005c EB79     		ldrb	r3, [r5, #7]
 284 005e 5122     		movs	r2, #81
 285 0060 0221     		movs	r1, #2
 286 0062 2000     		movs	r0, r4
 287 0064 FFF7FEFF 		bl	writeToAddr
 288              	.LVL33:
ARM GAS  C:\Users\HELLOK~1.1\AppData\Local\Temp\cciBhXYB.s 			page 9


 169:main.c        ****     wrBuf[1] = 0x23;
 289              		.loc 1 169 0
 290 0068 2323     		movs	r3, #35
 291 006a 6370     		strb	r3, [r4, #1]
 170:main.c        ****     writeToAddr(wrBuf,2,RTCAddr,rtc.Years);
 292              		.loc 1 170 0
 293 006c 2B7A     		ldrb	r3, [r5, #8]
 294 006e 5122     		movs	r2, #81
 295 0070 0221     		movs	r1, #2
 296 0072 2000     		movs	r0, r4
 297 0074 FFF7FEFF 		bl	writeToAddr
 298              	.LVL34:
 171:main.c        **** }
 299              		.loc 1 171 0
 300 0078 03B0     		add	sp, sp, #12
 301              		@ sp needed
 302 007a 30BD     		pop	{r4, r5, pc}
 303              	.L10:
 304              		.align	2
 305              	.L9:
 306 007c 00000000 		.word	.LANCHOR0
 307              		.cfi_endproc
 308              	.LFE39:
 309              		.size	RTCInit, .-RTCInit
 310              		.section	.text.LCDInit,"ax",%progbits
 311              		.align	2
 312              		.global	LCDInit
 313              		.code	16
 314              		.thumb_func
 315              		.type	LCDInit, %function
 316              	LCDInit:
 317              	.LFB40:
 172:main.c        **** 
 173:main.c        **** void LCDInit(struct Time currTime, struct Time nextTime, struct Date currDate, struct Date nextDate
 318              		.loc 1 173 0
 319              		.cfi_startproc
 320              		@ args = 24, pretend = 0, frame = 40
 321              		@ frame_needed = 0, uses_anonymous_args = 0
 322 0000 F0B5     		push	{r4, r5, r6, r7, lr}
 323              		.cfi_def_cfa_offset 20
 324              		.cfi_offset 4, -20
 325              		.cfi_offset 5, -16
 326              		.cfi_offset 6, -12
 327              		.cfi_offset 7, -8
 328              		.cfi_offset 14, -4
 329 0002 4746     		mov	r7, r8
 330 0004 80B4     		push	{r7}
 331              		.cfi_def_cfa_offset 24
 332              		.cfi_offset 8, -24
 333 0006 90B0     		sub	sp, sp, #64
 334              		.cfi_def_cfa_offset 88
 335 0008 08AE     		add	r6, sp, #32
 336 000a 0890     		str	r0, [sp, #32]
 337 000c 0991     		str	r1, [sp, #36]
 338 000e 06AD     		add	r5, sp, #24
 339 0010 0692     		str	r2, [sp, #24]
 340 0012 0793     		str	r3, [sp, #28]
ARM GAS  C:\Users\HELLOK~1.1\AppData\Local\Temp\cciBhXYB.s 			page 10


 174:main.c        ****     // First line time
 175:main.c        ****     setCursor(0,0);
 341              		.loc 1 175 0
 342 0014 0021     		movs	r1, #0
 343 0016 0020     		movs	r0, #0
 344 0018 FFF7FEFF 		bl	setCursor
 345              	.LVL35:
 176:main.c        ****     char printString[21];
 177:main.c        ****     snprintf(printString, 21, "%d:%.2d%s %s %d, 20%d ",currTime.hour, currTime.minute,currTime.AM, 
 346              		.loc 1 177 0
 347 001c 3378     		ldrb	r3, [r6]
 348 001e 7278     		ldrb	r2, [r6, #1]
 349 0020 16A9     		add	r1, sp, #88
 350 0022 0978     		ldrb	r1, [r1]
 351 0024 16A8     		add	r0, sp, #88
 352 0026 007A     		ldrb	r0, [r0, #8]
 353 0028 1F4F     		ldr	r7, .L12
 354 002a 0AAC     		add	r4, sp, #40
 355 002c 0490     		str	r0, [sp, #16]
 356 002e 0391     		str	r1, [sp, #12]
 357 0030 1799     		ldr	r1, [sp, #92]
 358 0032 0291     		str	r1, [sp, #8]
 359 0034 7168     		ldr	r1, [r6, #4]
 360 0036 0191     		str	r1, [sp, #4]
 361 0038 0092     		str	r2, [sp]
 362 003a 3A00     		movs	r2, r7
 363 003c 1521     		movs	r1, #21
 364 003e 2000     		movs	r0, r4
 365 0040 FFF7FEFF 		bl	snprintf
 366              	.LVL36:
 178:main.c        ****     printString[20] = '\0';
 367              		.loc 1 178 0
 368 0044 0026     		movs	r6, #0
 369 0046 2675     		strb	r6, [r4, #20]
 179:main.c        ****     LCD_print(printString);
 370              		.loc 1 179 0
 371 0048 2000     		movs	r0, r4
 372 004a FFF7FEFF 		bl	LCD_print
 373              	.LVL37:
 180:main.c        ****     setCursor(0,1);
 374              		.loc 1 180 0
 375 004e 0121     		movs	r1, #1
 376 0050 0020     		movs	r0, #0
 377 0052 FFF7FEFF 		bl	setCursor
 378              	.LVL38:
 181:main.c        ****     LCD_print("--------------------");
 379              		.loc 1 181 0
 380 0056 1548     		ldr	r0, .L12+4
 381 0058 FFF7FEFF 		bl	LCD_print
 382              	.LVL39:
 182:main.c        ****     setCursor(0,2);
 383              		.loc 1 182 0
 384 005c 0221     		movs	r1, #2
 385 005e 0020     		movs	r0, #0
 386 0060 FFF7FEFF 		bl	setCursor
 387              	.LVL40:
 183:main.c        ****     LCD_print("Time of Next Feed:");
ARM GAS  C:\Users\HELLOK~1.1\AppData\Local\Temp\cciBhXYB.s 			page 11


 388              		.loc 1 183 0
 389 0064 1248     		ldr	r0, .L12+8
 390 0066 FFF7FEFF 		bl	LCD_print
 391              	.LVL41:
 184:main.c        ****     setCursor(0,3);
 392              		.loc 1 184 0
 393 006a 0321     		movs	r1, #3
 394 006c 0020     		movs	r0, #0
 395 006e FFF7FEFF 		bl	setCursor
 396              	.LVL42:
 185:main.c        ****     snprintf(printString, 21, "%d:%.2d%s %s %d, 20%d ",nextTime.hour, nextTime.minute,nextTime.AM, 
 397              		.loc 1 185 0
 398 0072 2B78     		ldrb	r3, [r5]
 399 0074 6A78     		ldrb	r2, [r5, #1]
 400 0076 9046     		mov	r8, r2
 401 0078 19AA     		add	r2, sp, #100
 402 007a 1078     		ldrb	r0, [r2]
 403 007c 117A     		ldrb	r1, [r2, #8]
 404 007e 0491     		str	r1, [sp, #16]
 405 0080 0390     		str	r0, [sp, #12]
 406 0082 1A9A     		ldr	r2, [sp, #104]
 407 0084 0292     		str	r2, [sp, #8]
 408 0086 6A68     		ldr	r2, [r5, #4]
 409 0088 0192     		str	r2, [sp, #4]
 410 008a 4246     		mov	r2, r8
 411 008c 0092     		str	r2, [sp]
 412 008e 3A00     		movs	r2, r7
 413 0090 1521     		movs	r1, #21
 414 0092 2000     		movs	r0, r4
 415 0094 FFF7FEFF 		bl	snprintf
 416              	.LVL43:
 186:main.c        ****     printString[20] = '\0';
 417              		.loc 1 186 0
 418 0098 2675     		strb	r6, [r4, #20]
 187:main.c        ****     LCD_print(printString);
 419              		.loc 1 187 0
 420 009a 2000     		movs	r0, r4
 421 009c FFF7FEFF 		bl	LCD_print
 422              	.LVL44:
 188:main.c        **** }
 423              		.loc 1 188 0
 424 00a0 10B0     		add	sp, sp, #64
 425              		@ sp needed
 426 00a2 04BC     		pop	{r2}
 427 00a4 9046     		mov	r8, r2
 428 00a6 F0BD     		pop	{r4, r5, r6, r7, pc}
 429              	.L13:
 430              		.align	2
 431              	.L12:
 432 00a8 00000000 		.word	.LC9
 433 00ac 18000000 		.word	.LC11
 434 00b0 30000000 		.word	.LC13
 435              		.cfi_endproc
 436              	.LFE40:
 437              		.size	LCDInit, .-LCDInit
 438              		.section	.text.updateNextFeed,"ax",%progbits
 439              		.align	2
ARM GAS  C:\Users\HELLOK~1.1\AppData\Local\Temp\cciBhXYB.s 			page 12


 440              		.global	updateNextFeed
 441              		.code	16
 442              		.thumb_func
 443              		.type	updateNextFeed, %function
 444              	updateNextFeed:
 445              	.LFB41:
 189:main.c        **** 
 190:main.c        **** void updateNextFeed(struct Time nextTime, struct Date nextDate){
 446              		.loc 1 190 0
 447              		.cfi_startproc
 448              		@ args = 12, pretend = 8, frame = 32
 449              		@ frame_needed = 0, uses_anonymous_args = 0
 450 0000 82B0     		sub	sp, sp, #8
 451              		.cfi_def_cfa_offset 8
 452 0002 30B5     		push	{r4, r5, lr}
 453              		.cfi_def_cfa_offset 20
 454              		.cfi_offset 4, -20
 455              		.cfi_offset 5, -16
 456              		.cfi_offset 14, -12
 457 0004 8FB0     		sub	sp, sp, #60
 458              		.cfi_def_cfa_offset 80
 459 0006 06AC     		add	r4, sp, #24
 460 0008 0690     		str	r0, [sp, #24]
 461 000a 0791     		str	r1, [sp, #28]
 462 000c 1292     		str	r2, [sp, #72]
 463 000e 1393     		str	r3, [sp, #76]
 191:main.c        ****     char printString[21];
 192:main.c        ****     setCursor(0,2);
 464              		.loc 1 192 0
 465 0010 0221     		movs	r1, #2
 466 0012 0020     		movs	r0, #0
 467 0014 FFF7FEFF 		bl	setCursor
 468              	.LVL45:
 193:main.c        ****     LCD_print("Time of Next Feed:");
 469              		.loc 1 193 0
 470 0018 1148     		ldr	r0, .L15
 471 001a FFF7FEFF 		bl	LCD_print
 472              	.LVL46:
 194:main.c        ****     setCursor(0,3);
 473              		.loc 1 194 0
 474 001e 0321     		movs	r1, #3
 475 0020 0020     		movs	r0, #0
 476 0022 FFF7FEFF 		bl	setCursor
 477              	.LVL47:
 195:main.c        ****     snprintf(printString, 21, "%d:%.2d%s %s %d, 20%d ",nextTime.hour, nextTime.minute,nextTime.AM, 
 478              		.loc 1 195 0
 479 0026 2378     		ldrb	r3, [r4]
 480 0028 6278     		ldrb	r2, [r4, #1]
 481 002a 12A9     		add	r1, sp, #72
 482 002c 0978     		ldrb	r1, [r1]
 483 002e 12A8     		add	r0, sp, #72
 484 0030 007A     		ldrb	r0, [r0, #8]
 485 0032 08AD     		add	r5, sp, #32
 486 0034 0490     		str	r0, [sp, #16]
 487 0036 0391     		str	r1, [sp, #12]
 488 0038 1399     		ldr	r1, [sp, #76]
 489 003a 0291     		str	r1, [sp, #8]
ARM GAS  C:\Users\HELLOK~1.1\AppData\Local\Temp\cciBhXYB.s 			page 13


 490 003c 6168     		ldr	r1, [r4, #4]
 491 003e 0191     		str	r1, [sp, #4]
 492 0040 0092     		str	r2, [sp]
 493 0042 084A     		ldr	r2, .L15+4
 494 0044 1521     		movs	r1, #21
 495 0046 2800     		movs	r0, r5
 496 0048 FFF7FEFF 		bl	snprintf
 497              	.LVL48:
 196:main.c        ****     printString[20] = '\0';
 498              		.loc 1 196 0
 499 004c 0023     		movs	r3, #0
 500 004e 2B75     		strb	r3, [r5, #20]
 197:main.c        ****     LCD_print(printString);
 501              		.loc 1 197 0
 502 0050 2800     		movs	r0, r5
 503 0052 FFF7FEFF 		bl	LCD_print
 504              	.LVL49:
 198:main.c        **** }
 505              		.loc 1 198 0
 506 0056 0FB0     		add	sp, sp, #60
 507              		@ sp needed
 508 0058 30BC     		pop	{r4, r5}
 509 005a 08BC     		pop	{r3}
 510 005c 02B0     		add	sp, sp, #8
 511 005e 1847     		bx	r3
 512              	.L16:
 513              		.align	2
 514              	.L15:
 515 0060 30000000 		.word	.LC13
 516 0064 00000000 		.word	.LC9
 517              		.cfi_endproc
 518              	.LFE41:
 519              		.size	updateNextFeed, .-updateNextFeed
 520              		.section	.text.updateCurrTime,"ax",%progbits
 521              		.align	2
 522              		.global	updateCurrTime
 523              		.code	16
 524              		.thumb_func
 525              		.type	updateCurrTime, %function
 526              	updateCurrTime:
 527              	.LFB42:
 199:main.c        **** 
 200:main.c        **** void updateCurrTime(struct Time currTime, struct Date currDate){
 528              		.loc 1 200 0
 529              		.cfi_startproc
 530              		@ args = 12, pretend = 8, frame = 32
 531              		@ frame_needed = 0, uses_anonymous_args = 0
 532 0000 82B0     		sub	sp, sp, #8
 533              		.cfi_def_cfa_offset 8
 534 0002 30B5     		push	{r4, r5, lr}
 535              		.cfi_def_cfa_offset 20
 536              		.cfi_offset 4, -20
 537              		.cfi_offset 5, -16
 538              		.cfi_offset 14, -12
 539 0004 8FB0     		sub	sp, sp, #60
 540              		.cfi_def_cfa_offset 80
 541 0006 06AC     		add	r4, sp, #24
ARM GAS  C:\Users\HELLOK~1.1\AppData\Local\Temp\cciBhXYB.s 			page 14


 542 0008 0690     		str	r0, [sp, #24]
 543 000a 0791     		str	r1, [sp, #28]
 544 000c 1292     		str	r2, [sp, #72]
 545 000e 1393     		str	r3, [sp, #76]
 201:main.c        ****     setCursor(0,0);
 546              		.loc 1 201 0
 547 0010 0021     		movs	r1, #0
 548 0012 0020     		movs	r0, #0
 549 0014 FFF7FEFF 		bl	setCursor
 550              	.LVL50:
 202:main.c        ****     char printString[21];
 203:main.c        ****     snprintf(printString, 21, "%d:%.2d%s %s %d, 20%d ",currTime.hour, currTime.minute,currTime.AM, 
 551              		.loc 1 203 0
 552 0018 2378     		ldrb	r3, [r4]
 553 001a 6278     		ldrb	r2, [r4, #1]
 554 001c 12A9     		add	r1, sp, #72
 555 001e 0978     		ldrb	r1, [r1]
 556 0020 12A8     		add	r0, sp, #72
 557 0022 007A     		ldrb	r0, [r0, #8]
 558 0024 08AD     		add	r5, sp, #32
 559 0026 0490     		str	r0, [sp, #16]
 560 0028 0391     		str	r1, [sp, #12]
 561 002a 1399     		ldr	r1, [sp, #76]
 562 002c 0291     		str	r1, [sp, #8]
 563 002e 6168     		ldr	r1, [r4, #4]
 564 0030 0191     		str	r1, [sp, #4]
 565 0032 0092     		str	r2, [sp]
 566 0034 094A     		ldr	r2, .L18
 567 0036 1521     		movs	r1, #21
 568 0038 2800     		movs	r0, r5
 569 003a FFF7FEFF 		bl	snprintf
 570              	.LVL51:
 204:main.c        ****     printString[20] = '\0';
 571              		.loc 1 204 0
 572 003e 0023     		movs	r3, #0
 573 0040 2B75     		strb	r3, [r5, #20]
 205:main.c        ****     LCD_print(printString);
 574              		.loc 1 205 0
 575 0042 2800     		movs	r0, r5
 576 0044 FFF7FEFF 		bl	LCD_print
 577              	.LVL52:
 206:main.c        ****     setCursor(0,1);
 578              		.loc 1 206 0
 579 0048 0121     		movs	r1, #1
 580 004a 0020     		movs	r0, #0
 581 004c FFF7FEFF 		bl	setCursor
 582              	.LVL53:
 207:main.c        **** }
 583              		.loc 1 207 0
 584 0050 0FB0     		add	sp, sp, #60
 585              		@ sp needed
 586 0052 30BC     		pop	{r4, r5}
 587 0054 08BC     		pop	{r3}
 588 0056 02B0     		add	sp, sp, #8
 589 0058 1847     		bx	r3
 590              	.L19:
 591 005a C046     		.align	2
ARM GAS  C:\Users\HELLOK~1.1\AppData\Local\Temp\cciBhXYB.s 			page 15


 592              	.L18:
 593 005c 00000000 		.word	.LC9
 594              		.cfi_endproc
 595              	.LFE42:
 596              		.size	updateCurrTime, .-updateCurrTime
 597              		.section	.text.exitLCD,"ax",%progbits
 598              		.align	2
 599              		.global	exitLCD
 600              		.code	16
 601              		.thumb_func
 602              		.type	exitLCD, %function
 603              	exitLCD:
 604              	.LFB43:
 208:main.c        **** void exitLCD(){
 605              		.loc 1 208 0
 606              		.cfi_startproc
 607              		@ args = 0, pretend = 0, frame = 48
 608              		@ frame_needed = 0, uses_anonymous_args = 0
 609 0000 F0B5     		push	{r4, r5, r6, r7, lr}
 610              		.cfi_def_cfa_offset 20
 611              		.cfi_offset 4, -20
 612              		.cfi_offset 5, -16
 613              		.cfi_offset 6, -12
 614              		.cfi_offset 7, -8
 615              		.cfi_offset 14, -4
 616 0002 4746     		mov	r7, r8
 617 0004 80B4     		push	{r7}
 618              		.cfi_def_cfa_offset 24
 619              		.cfi_offset 8, -24
 620 0006 92B0     		sub	sp, sp, #72
 621              		.cfi_def_cfa_offset 96
 209:main.c        ****     char printString[21];
 210:main.c        ****     struct Time nextTime = feedTimes[feedCounter];
 622              		.loc 1 210 0
 623 0008 2D4B     		ldr	r3, .L21
 624 000a 1B78     		ldrb	r3, [r3]
 625 000c 0AAC     		add	r4, sp, #40
 626 000e 2D4D     		ldr	r5, .L21+4
 627 0010 DB00     		lsls	r3, r3, #3
 628 0012 EB18     		adds	r3, r5, r3
 629 0014 1033     		adds	r3, r3, #16
 630 0016 2200     		movs	r2, r4
 631 0018 03CB     		ldmia	r3!, {r0, r1}
 632 001a 03C2     		stmia	r2!, {r0, r1}
 211:main.c        ****     uint8 day[1];
 212:main.c        ****     readFromAddr(day,1,RTCAddr,rtc.Days);
 633              		.loc 1 212 0
 634 001c 6B79     		ldrb	r3, [r5, #5]
 635 001e 09AE     		add	r6, sp, #36
 636 0020 5122     		movs	r2, #81
 637 0022 0121     		movs	r1, #1
 638 0024 3000     		movs	r0, r6
 639 0026 FFF7FEFF 		bl	readFromAddr
 640              	.LVL54:
 213:main.c        ****     uint8 month[1];
 214:main.c        ****     readFromAddr(month,1,RTCAddr,rtc.Century_Months);
 641              		.loc 1 214 0
ARM GAS  C:\Users\HELLOK~1.1\AppData\Local\Temp\cciBhXYB.s 			page 16


 642 002a EB79     		ldrb	r3, [r5, #7]
 643 002c 08AA     		add	r2, sp, #32
 644 002e 9046     		mov	r8, r2
 645 0030 5122     		movs	r2, #81
 646 0032 0121     		movs	r1, #1
 647 0034 4046     		mov	r0, r8
 648 0036 FFF7FEFF 		bl	readFromAddr
 649              	.LVL55:
 215:main.c        ****     uint8 year[1];
 216:main.c        ****     readFromAddr(year,1,RTCAddr,rtc.Years);
 650              		.loc 1 216 0
 651 003a 2B7A     		ldrb	r3, [r5, #8]
 652 003c 07AF     		add	r7, sp, #28
 653 003e 5122     		movs	r2, #81
 654 0040 0121     		movs	r1, #1
 655 0042 3800     		movs	r0, r7
 656 0044 FFF7FEFF 		bl	readFromAddr
 657              	.LVL56:
 217:main.c        ****     struct Date nextDate = {bcdToDec(day[0]),months[bcdToDec(month[0])-1],bcdToDec(year[0])};
 658              		.loc 1 217 0
 659 0048 3078     		ldrb	r0, [r6]
 660 004a FFF7FEFF 		bl	bcdToDec
 661              	.LVL57:
 662 004e 0600     		movs	r6, r0
 663 0050 4346     		mov	r3, r8
 664 0052 1878     		ldrb	r0, [r3]
 665 0054 FFF7FEFF 		bl	bcdToDec
 666              	.LVL58:
 667 0058 0138     		subs	r0, r0, #1
 668 005a 8000     		lsls	r0, r0, #2
 669 005c 2818     		adds	r0, r5, r0
 670 005e 036E     		ldr	r3, [r0, #96]
 671 0060 9846     		mov	r8, r3
 672 0062 3878     		ldrb	r0, [r7]
 673 0064 FFF7FEFF 		bl	bcdToDec
 674              	.LVL59:
 675 0068 0700     		movs	r7, r0
 218:main.c        ****     setCursor(0,1);
 676              		.loc 1 218 0
 677 006a 0121     		movs	r1, #1
 678 006c 0020     		movs	r0, #0
 679 006e FFF7FEFF 		bl	setCursor
 680              	.LVL60:
 219:main.c        ****     LCD_print("--------------------");
 681              		.loc 1 219 0
 682 0072 1548     		ldr	r0, .L21+8
 683 0074 FFF7FEFF 		bl	LCD_print
 684              	.LVL61:
 220:main.c        ****     setCursor(0,2);
 685              		.loc 1 220 0
 686 0078 0221     		movs	r1, #2
 687 007a 0020     		movs	r0, #0
 688 007c FFF7FEFF 		bl	setCursor
 689              	.LVL62:
 221:main.c        ****     LCD_print("Time of Next Feed:  ");
 690              		.loc 1 221 0
 691 0080 1248     		ldr	r0, .L21+12
ARM GAS  C:\Users\HELLOK~1.1\AppData\Local\Temp\cciBhXYB.s 			page 17


 692 0082 FFF7FEFF 		bl	LCD_print
 693              	.LVL63:
 222:main.c        ****     setCursor(0,3);
 694              		.loc 1 222 0
 695 0086 0321     		movs	r1, #3
 696 0088 0020     		movs	r0, #0
 697 008a FFF7FEFF 		bl	setCursor
 698              	.LVL64:
 223:main.c        ****     snprintf(printString, 21, "%d:%.2d%s %s %d, 20%d ",nextTime.hour, nextTime.minute,nextTime.AM, 
 699              		.loc 1 223 0
 700 008e 2378     		ldrb	r3, [r4]
 701 0090 6278     		ldrb	r2, [r4, #1]
 702 0092 0CAD     		add	r5, sp, #48
 703 0094 0497     		str	r7, [sp, #16]
 704 0096 0396     		str	r6, [sp, #12]
 705 0098 4146     		mov	r1, r8
 706 009a 0291     		str	r1, [sp, #8]
 707 009c 6168     		ldr	r1, [r4, #4]
 708 009e 0191     		str	r1, [sp, #4]
 709 00a0 0092     		str	r2, [sp]
 710 00a2 0B4A     		ldr	r2, .L21+16
 711 00a4 1521     		movs	r1, #21
 712 00a6 2800     		movs	r0, r5
 713 00a8 FFF7FEFF 		bl	snprintf
 714              	.LVL65:
 224:main.c        ****     printString[20] = '\0';
 715              		.loc 1 224 0
 716 00ac 0023     		movs	r3, #0
 717 00ae 2B75     		strb	r3, [r5, #20]
 225:main.c        ****     LCD_print(printString);
 718              		.loc 1 225 0
 719 00b0 2800     		movs	r0, r5
 720 00b2 FFF7FEFF 		bl	LCD_print
 721              	.LVL66:
 226:main.c        **** }
 722              		.loc 1 226 0
 723 00b6 12B0     		add	sp, sp, #72
 724              		@ sp needed
 725 00b8 04BC     		pop	{r2}
 726 00ba 9046     		mov	r8, r2
 727 00bc F0BD     		pop	{r4, r5, r6, r7, pc}
 728              	.L22:
 729 00be C046     		.align	2
 730              	.L21:
 731 00c0 00000000 		.word	.LANCHOR1
 732 00c4 00000000 		.word	.LANCHOR0
 733 00c8 18000000 		.word	.LC11
 734 00cc 44000000 		.word	.LC21
 735 00d0 00000000 		.word	.LC9
 736              		.cfi_endproc
 737              	.LFE43:
 738              		.size	exitLCD, .-exitLCD
 739              		.section	.text.FEEEEED,"ax",%progbits
 740              		.align	2
 741              		.global	FEEEEED
 742              		.code	16
 743              		.thumb_func
ARM GAS  C:\Users\HELLOK~1.1\AppData\Local\Temp\cciBhXYB.s 			page 18


 744              		.type	FEEEEED, %function
 745              	FEEEEED:
 746              	.LFB44:
 227:main.c        **** void FEEEEED(){
 747              		.loc 1 227 0
 748              		.cfi_startproc
 749              		@ args = 0, pretend = 0, frame = 0
 750              		@ frame_needed = 0, uses_anonymous_args = 0
 751              		@ link register save eliminated.
 228:main.c        ****     // Turn on motor
 229:main.c        ****     // Set LED's
 230:main.c        ****     // Set speakers
 231:main.c        **** }
 752              		.loc 1 231 0
 753              		@ sp needed
 754 0000 7047     		bx	lr
 755              		.cfi_endproc
 756              	.LFE44:
 757              		.size	FEEEEED, .-FEEEEED
 758 0002 C046     		.section	.text.setGlobalTime,"ax",%progbits
 759              		.align	2
 760              		.global	setGlobalTime
 761              		.code	16
 762              		.thumb_func
 763              		.type	setGlobalTime, %function
 764              	setGlobalTime:
 765              	.LFB45:
 232:main.c        **** void setGlobalTime(){
 766              		.loc 1 232 0
 767              		.cfi_startproc
 768              		@ args = 0, pretend = 0, frame = 112
 769              		@ frame_needed = 0, uses_anonymous_args = 0
 770 0000 F0B5     		push	{r4, r5, r6, r7, lr}
 771              		.cfi_def_cfa_offset 20
 772              		.cfi_offset 4, -20
 773              		.cfi_offset 5, -16
 774              		.cfi_offset 6, -12
 775              		.cfi_offset 7, -8
 776              		.cfi_offset 14, -4
 777 0002 4F46     		mov	r7, r9
 778 0004 80B4     		push	{r7}
 779              		.cfi_def_cfa_offset 24
 780              		.cfi_offset 9, -24
 781 0006 9EB0     		sub	sp, sp, #120
 782              		.cfi_def_cfa_offset 144
 233:main.c        ****     clear();
 783              		.loc 1 233 0
 784 0008 FFF7FEFF 		bl	clear
 785              	.LVL67:
 234:main.c        ****     setCursor(0,0);
 786              		.loc 1 234 0
 787 000c 0021     		movs	r1, #0
 788 000e 0020     		movs	r0, #0
 789 0010 FFF7FEFF 		bl	setCursor
 790              	.LVL68:
 235:main.c        ****     LCD_print("Set Month");
 791              		.loc 1 235 0
ARM GAS  C:\Users\HELLOK~1.1\AppData\Local\Temp\cciBhXYB.s 			page 19


 792 0014 D048     		ldr	r0, .L70
 793 0016 FFF7FEFF 		bl	LCD_print
 794              	.LVL69:
 236:main.c        ****     char printMessage[21];
 237:main.c        ****     struct Time nextTime = feedTimes[feedCounter];
 238:main.c        ****     uint8 day[1];
 239:main.c        ****     readFromAddr(day,1,RTCAddr,rtc.Days);
 795              		.loc 1 239 0
 796 001a D04D     		ldr	r5, .L70+4
 797 001c 6B79     		ldrb	r3, [r5, #5]
 798 001e 13AF     		add	r7, sp, #76
 799 0020 5122     		movs	r2, #81
 800 0022 0121     		movs	r1, #1
 801 0024 3800     		movs	r0, r7
 802 0026 FFF7FEFF 		bl	readFromAddr
 803              	.LVL70:
 240:main.c        ****     uint8 month[1];
 241:main.c        ****     readFromAddr(month,1,RTCAddr,rtc.Century_Months);
 804              		.loc 1 241 0
 805 002a EB79     		ldrb	r3, [r5, #7]
 806 002c 12AC     		add	r4, sp, #72
 807 002e 5122     		movs	r2, #81
 808 0030 0121     		movs	r1, #1
 809 0032 2000     		movs	r0, r4
 810 0034 FFF7FEFF 		bl	readFromAddr
 811              	.LVL71:
 242:main.c        ****     uint8 year[1];
 243:main.c        ****     readFromAddr(year,1,RTCAddr,rtc.Years);
 812              		.loc 1 243 0
 813 0038 2B7A     		ldrb	r3, [r5, #8]
 814 003a 11AE     		add	r6, sp, #68
 815 003c 5122     		movs	r2, #81
 816 003e 0121     		movs	r1, #1
 817 0040 3000     		movs	r0, r6
 818 0042 FFF7FEFF 		bl	readFromAddr
 819              	.LVL72:
 244:main.c        ****     struct Date currDate = {bcdToDec(day[0]),months[bcdToDec(month[0])-1],bcdToDec(year[0])};
 820              		.loc 1 244 0
 821 0046 3878     		ldrb	r0, [r7]
 822 0048 FFF7FEFF 		bl	bcdToDec
 823              	.LVL73:
 824 004c 0700     		movs	r7, r0
 825 004e 2078     		ldrb	r0, [r4]
 826 0050 FFF7FEFF 		bl	bcdToDec
 827              	.LVL74:
 828 0054 441E     		subs	r4, r0, #1
 829 0056 A300     		lsls	r3, r4, #2
 830 0058 ED18     		adds	r5, r5, r3
 831 005a 2B6E     		ldr	r3, [r5, #96]
 832 005c 9946     		mov	r9, r3
 833 005e 3078     		ldrb	r0, [r6]
 834 0060 FFF7FEFF 		bl	bcdToDec
 835              	.LVL75:
 836 0064 0500     		movs	r5, r0
 837              	.LVL76:
 245:main.c        ****     struct Date setDate;
 246:main.c        ****     int currentIndex = bcdToDec(month[0])-1;
ARM GAS  C:\Users\HELLOK~1.1\AppData\Local\Temp\cciBhXYB.s 			page 20


 247:main.c        ****     setCursor(0,2);
 838              		.loc 1 247 0
 839 0066 0221     		movs	r1, #2
 840 0068 0020     		movs	r0, #0
 841 006a FFF7FEFF 		bl	setCursor
 842              	.LVL77:
 248:main.c        ****     snprintf(printMessage,21,"%s %d, 20%d",currDate.month,currDate.day,currDate.year);
 843              		.loc 1 248 0
 844 006e 3E00     		movs	r6, r7
 845 0070 0195     		str	r5, [sp, #4]
 846 0072 0097     		str	r7, [sp]
 847 0074 4B46     		mov	r3, r9
 848 0076 BA4A     		ldr	r2, .L70+8
 849 0078 1521     		movs	r1, #21
 850 007a 14A8     		add	r0, sp, #80
 851 007c FFF7FEFF 		bl	snprintf
 852              	.LVL78:
 249:main.c        ****     LCD_print(printMessage);
 853              		.loc 1 249 0
 854 0080 14A8     		add	r0, sp, #80
 855 0082 FFF7FEFF 		bl	LCD_print
 856              	.LVL79:
 250:main.c        ****     while(buttonFlag == 0){
 857              		.loc 1 250 0
 858 0086 23E0     		b	.L26
 859              	.L29:
 251:main.c        ****         if(encFlag == 1){
 860              		.loc 1 251 0
 861 0088 B64B     		ldr	r3, .L70+12
 862 008a 5B78     		ldrb	r3, [r3, #1]
 863 008c 012B     		cmp	r3, #1
 864 008e 1FD1     		bne	.L26
 252:main.c        ****             encFlag = 0;
 865              		.loc 1 252 0
 866 0090 B44B     		ldr	r3, .L70+12
 867 0092 0022     		movs	r2, #0
 868 0094 5A70     		strb	r2, [r3, #1]
 253:main.c        ****             if(encPos == 1){
 869              		.loc 1 253 0
 870 0096 9B78     		ldrb	r3, [r3, #2]
 871 0098 012B     		cmp	r3, #1
 872 009a 03D1     		bne	.L27
 254:main.c        ****                 if(currentIndex == 12){
 873              		.loc 1 254 0
 874 009c 0C2C     		cmp	r4, #12
 875 009e 09D0     		beq	.L59
 255:main.c        ****                     currentIndex = 1;
 256:main.c        ****                 }
 257:main.c        ****                 else{
 258:main.c        ****                     currentIndex++;
 876              		.loc 1 258 0
 877 00a0 0134     		adds	r4, r4, #1
 878              	.LVL80:
 879 00a2 0AE0     		b	.L28
 880              	.L27:
 259:main.c        ****                 }
 260:main.c        ****             }
ARM GAS  C:\Users\HELLOK~1.1\AppData\Local\Temp\cciBhXYB.s 			page 21


 261:main.c        ****             else if(encPos == 2){
 881              		.loc 1 261 0
 882 00a4 AF4B     		ldr	r3, .L70+12
 883 00a6 9B78     		ldrb	r3, [r3, #2]
 884 00a8 022B     		cmp	r3, #2
 885 00aa 06D1     		bne	.L28
 262:main.c        ****                 if(currentIndex == 1){
 886              		.loc 1 262 0
 887 00ac 012C     		cmp	r4, #1
 888 00ae 03D0     		beq	.L60
 263:main.c        ****                     currentIndex = 12;
 264:main.c        ****                 }
 265:main.c        ****                 else{
 266:main.c        ****                     currentIndex--;
 889              		.loc 1 266 0
 890 00b0 013C     		subs	r4, r4, #1
 891              	.LVL81:
 892 00b2 02E0     		b	.L28
 893              	.L59:
 255:main.c        ****                 }
 894              		.loc 1 255 0
 895 00b4 0124     		movs	r4, #1
 896              	.LVL82:
 897 00b6 00E0     		b	.L28
 898              	.LVL83:
 899              	.L60:
 263:main.c        ****                     currentIndex = 12;
 900              		.loc 1 263 0
 901 00b8 0C24     		movs	r4, #12
 902              	.LVL84:
 903              	.L28:
 267:main.c        ****                 }
 268:main.c        ****             }
 269:main.c        ****             setCursor(0,2);
 904              		.loc 1 269 0
 905 00ba 0221     		movs	r1, #2
 906 00bc 0020     		movs	r0, #0
 907 00be FFF7FEFF 		bl	setCursor
 908              	.LVL85:
 270:main.c        ****             LCD_print(months[currentIndex-1]);
 909              		.loc 1 270 0
 910 00c2 631E     		subs	r3, r4, #1
 911 00c4 9B00     		lsls	r3, r3, #2
 912 00c6 A54A     		ldr	r2, .L70+4
 913 00c8 D318     		adds	r3, r2, r3
 914 00ca 186E     		ldr	r0, [r3, #96]
 915 00cc FFF7FEFF 		bl	LCD_print
 916              	.LVL86:
 917              	.L26:
 250:main.c        ****         if(encFlag == 1){
 918              		.loc 1 250 0
 919 00d0 A44B     		ldr	r3, .L70+12
 920 00d2 DB78     		ldrb	r3, [r3, #3]
 921 00d4 002B     		cmp	r3, #0
 922 00d6 D7D0     		beq	.L29
 271:main.c        ****         }
 272:main.c        ****     }
ARM GAS  C:\Users\HELLOK~1.1\AppData\Local\Temp\cciBhXYB.s 			page 22


 273:main.c        ****     uint8 numberMonth = currentIndex;
 923              		.loc 1 273 0
 924 00d8 E4B2     		uxtb	r4, r4
 925              	.LVL87:
 274:main.c        ****     setDate.month = months[currentIndex-1];
 275:main.c        ****     buttonFlag = 0;
 926              		.loc 1 275 0
 927 00da 0022     		movs	r2, #0
 928 00dc A14B     		ldr	r3, .L70+12
 929 00de DA70     		strb	r2, [r3, #3]
 276:main.c        ****     setCursor(0,0);
 930              		.loc 1 276 0
 931 00e0 0021     		movs	r1, #0
 932 00e2 0020     		movs	r0, #0
 933 00e4 FFF7FEFF 		bl	setCursor
 934              	.LVL88:
 277:main.c        ****     LCD_print("Set Day  ");
 935              		.loc 1 277 0
 936 00e8 9F48     		ldr	r0, .L70+16
 937 00ea FFF7FEFF 		bl	LCD_print
 938              	.LVL89:
 278:main.c        ****     currentIndex = currDate.day;
 279:main.c        ****     while(buttonFlag == 0){
 939              		.loc 1 279 0
 940 00ee 25E0     		b	.L31
 941              	.LVL90:
 942              	.L34:
 280:main.c        ****         if(encFlag == 1){
 943              		.loc 1 280 0
 944 00f0 9C4B     		ldr	r3, .L70+12
 945 00f2 5B78     		ldrb	r3, [r3, #1]
 946 00f4 012B     		cmp	r3, #1
 947 00f6 21D1     		bne	.L31
 948              	.LBB2:
 281:main.c        ****             encFlag = 0;
 949              		.loc 1 281 0
 950 00f8 9A4B     		ldr	r3, .L70+12
 951 00fa 0022     		movs	r2, #0
 952 00fc 5A70     		strb	r2, [r3, #1]
 282:main.c        ****             if(encPos == 1){
 953              		.loc 1 282 0
 954 00fe 9B78     		ldrb	r3, [r3, #2]
 955 0100 012B     		cmp	r3, #1
 956 0102 03D1     		bne	.L32
 283:main.c        ****                 if(currentIndex == 31){
 957              		.loc 1 283 0
 958 0104 1F2E     		cmp	r6, #31
 959 0106 09D0     		beq	.L61
 284:main.c        ****                     currentIndex = 1;
 285:main.c        ****                 }
 286:main.c        ****                 else{
 287:main.c        ****                     currentIndex++;
 960              		.loc 1 287 0
 961 0108 0136     		adds	r6, r6, #1
 962              	.LVL91:
 963 010a 0AE0     		b	.L33
 964              	.L32:
ARM GAS  C:\Users\HELLOK~1.1\AppData\Local\Temp\cciBhXYB.s 			page 23


 288:main.c        ****                 }
 289:main.c        ****             }
 290:main.c        ****             else if(encPos == 2){
 965              		.loc 1 290 0
 966 010c 954B     		ldr	r3, .L70+12
 967 010e 9B78     		ldrb	r3, [r3, #2]
 968 0110 022B     		cmp	r3, #2
 969 0112 06D1     		bne	.L33
 291:main.c        ****                 if(currentIndex == 1){
 970              		.loc 1 291 0
 971 0114 012E     		cmp	r6, #1
 972 0116 03D0     		beq	.L62
 292:main.c        ****                     currentIndex = 31;
 293:main.c        ****                 }
 294:main.c        ****                 else{
 295:main.c        ****                     currentIndex--;
 973              		.loc 1 295 0
 974 0118 013E     		subs	r6, r6, #1
 975              	.LVL92:
 976 011a 02E0     		b	.L33
 977              	.L61:
 284:main.c        ****                 }
 978              		.loc 1 284 0
 979 011c 0126     		movs	r6, #1
 980              	.LVL93:
 981 011e 00E0     		b	.L33
 982              	.LVL94:
 983              	.L62:
 292:main.c        ****                     currentIndex = 31;
 984              		.loc 1 292 0
 985 0120 1F26     		movs	r6, #31
 986              	.LVL95:
 987              	.L33:
 296:main.c        ****                 }
 297:main.c        ****             }
 298:main.c        ****             setCursor(4,2);
 988              		.loc 1 298 0 discriminator 1
 989 0122 0221     		movs	r1, #2
 990 0124 0420     		movs	r0, #4
 991 0126 FFF7FEFF 		bl	setCursor
 992              	.LVL96:
 299:main.c        ****             char printDay[3];
 300:main.c        ****             snprintf(printDay,3,"%02d",currentIndex);
 993              		.loc 1 300 0 discriminator 1
 994 012a 3300     		movs	r3, r6
 995 012c 8F4A     		ldr	r2, .L70+20
 996 012e 0321     		movs	r1, #3
 997 0130 05A8     		add	r0, sp, #20
 998 0132 FFF7FEFF 		bl	snprintf
 999              	.LVL97:
 301:main.c        ****             LCD_print(printDay);
 1000              		.loc 1 301 0 discriminator 1
 1001 0136 05A8     		add	r0, sp, #20
 1002 0138 FFF7FEFF 		bl	LCD_print
 1003              	.LVL98:
 1004              	.L31:
 1005              	.LBE2:
ARM GAS  C:\Users\HELLOK~1.1\AppData\Local\Temp\cciBhXYB.s 			page 24


 279:main.c        ****         if(encFlag == 1){
 1006              		.loc 1 279 0
 1007 013c 894B     		ldr	r3, .L70+12
 1008 013e DB78     		ldrb	r3, [r3, #3]
 1009 0140 002B     		cmp	r3, #0
 1010 0142 D5D0     		beq	.L34
 302:main.c        ****         }
 303:main.c        ****     }
 304:main.c        ****     buttonFlag = 0;
 1011              		.loc 1 304 0
 1012 0144 874B     		ldr	r3, .L70+12
 1013 0146 0022     		movs	r2, #0
 1014 0148 DA70     		strb	r2, [r3, #3]
 305:main.c        ****     
 306:main.c        ****     setDate.day = currentIndex;
 1015              		.loc 1 306 0
 1016 014a 0EA9     		add	r1, sp, #56
 1017 014c 0E70     		strb	r6, [r1]
 307:main.c        ****     buttonFlag = 0;
 1018              		.loc 1 307 0
 1019 014e DA70     		strb	r2, [r3, #3]
 308:main.c        ****     setCursor(0,0);
 1020              		.loc 1 308 0
 1021 0150 0021     		movs	r1, #0
 1022 0152 0020     		movs	r0, #0
 1023 0154 FFF7FEFF 		bl	setCursor
 1024              	.LVL99:
 309:main.c        ****     LCD_print("Set Year");
 1025              		.loc 1 309 0
 1026 0158 8548     		ldr	r0, .L70+24
 1027 015a FFF7FEFF 		bl	LCD_print
 1028              	.LVL100:
 310:main.c        ****     currentIndex = currDate.year;
 311:main.c        ****     while(buttonFlag == 0){
 1029              		.loc 1 311 0
 1030 015e 25E0     		b	.L36
 1031              	.LVL101:
 1032              	.L39:
 312:main.c        ****         if(encFlag == 1){
 1033              		.loc 1 312 0
 1034 0160 804B     		ldr	r3, .L70+12
 1035 0162 5B78     		ldrb	r3, [r3, #1]
 1036 0164 012B     		cmp	r3, #1
 1037 0166 21D1     		bne	.L36
 1038              	.LBB3:
 313:main.c        ****             encFlag = 0;
 1039              		.loc 1 313 0
 1040 0168 7E4B     		ldr	r3, .L70+12
 1041 016a 0022     		movs	r2, #0
 1042 016c 5A70     		strb	r2, [r3, #1]
 314:main.c        ****             if(encPos == 1){
 1043              		.loc 1 314 0
 1044 016e 9B78     		ldrb	r3, [r3, #2]
 1045 0170 012B     		cmp	r3, #1
 1046 0172 03D1     		bne	.L37
 315:main.c        ****                 if(currentIndex == 99){
 1047              		.loc 1 315 0
ARM GAS  C:\Users\HELLOK~1.1\AppData\Local\Temp\cciBhXYB.s 			page 25


 1048 0174 632D     		cmp	r5, #99
 1049 0176 09D0     		beq	.L63
 316:main.c        ****                     currentIndex = 0;
 317:main.c        ****                 }
 318:main.c        ****                 else{
 319:main.c        ****                     currentIndex++;
 1050              		.loc 1 319 0
 1051 0178 0135     		adds	r5, r5, #1
 1052              	.LVL102:
 1053 017a 0AE0     		b	.L38
 1054              	.L37:
 320:main.c        ****                 }
 321:main.c        ****             }
 322:main.c        ****             else if(encPos == 2){
 1055              		.loc 1 322 0
 1056 017c 794B     		ldr	r3, .L70+12
 1057 017e 9B78     		ldrb	r3, [r3, #2]
 1058 0180 022B     		cmp	r3, #2
 1059 0182 06D1     		bne	.L38
 323:main.c        ****                 if(currentIndex == 0){
 1060              		.loc 1 323 0
 1061 0184 002D     		cmp	r5, #0
 1062 0186 03D0     		beq	.L64
 324:main.c        ****                     currentIndex = 99;
 325:main.c        ****                 }
 326:main.c        ****                 else{
 327:main.c        ****                     currentIndex--;
 1063              		.loc 1 327 0
 1064 0188 013D     		subs	r5, r5, #1
 1065              	.LVL103:
 1066 018a 02E0     		b	.L38
 1067              	.L63:
 316:main.c        ****                 }
 1068              		.loc 1 316 0
 1069 018c 0025     		movs	r5, #0
 1070              	.LVL104:
 1071 018e 00E0     		b	.L38
 1072              	.LVL105:
 1073              	.L64:
 324:main.c        ****                     currentIndex = 99;
 1074              		.loc 1 324 0
 1075 0190 6325     		movs	r5, #99
 1076              	.LVL106:
 1077              	.L38:
 328:main.c        ****                 }
 329:main.c        ****             }
 330:main.c        ****             setCursor(8,2);
 1078              		.loc 1 330 0 discriminator 2
 1079 0192 0221     		movs	r1, #2
 1080 0194 0820     		movs	r0, #8
 1081 0196 FFF7FEFF 		bl	setCursor
 1082              	.LVL107:
 331:main.c        ****             char printYear[5];
 332:main.c        ****             snprintf(printYear,5,"20%02d",currentIndex);
 1083              		.loc 1 332 0 discriminator 2
 1084 019a 2B00     		movs	r3, r5
 1085 019c 754A     		ldr	r2, .L70+28
ARM GAS  C:\Users\HELLOK~1.1\AppData\Local\Temp\cciBhXYB.s 			page 26


 1086 019e 0521     		movs	r1, #5
 1087 01a0 05A8     		add	r0, sp, #20
 1088 01a2 FFF7FEFF 		bl	snprintf
 1089              	.LVL108:
 333:main.c        ****             LCD_print(printYear);
 1090              		.loc 1 333 0 discriminator 2
 1091 01a6 05A8     		add	r0, sp, #20
 1092 01a8 FFF7FEFF 		bl	LCD_print
 1093              	.LVL109:
 1094              	.L36:
 1095              	.LBE3:
 311:main.c        ****         if(encFlag == 1){
 1096              		.loc 1 311 0
 1097 01ac 6D4B     		ldr	r3, .L70+12
 1098 01ae DB78     		ldrb	r3, [r3, #3]
 1099 01b0 002B     		cmp	r3, #0
 1100 01b2 D5D0     		beq	.L39
 334:main.c        ****         }
 335:main.c        ****     }
 336:main.c        ****     buttonFlag = 0;
 1101              		.loc 1 336 0
 1102 01b4 0022     		movs	r2, #0
 1103 01b6 6B4B     		ldr	r3, .L70+12
 1104 01b8 DA70     		strb	r2, [r3, #3]
 337:main.c        ****     setDate.year = currentIndex;
 1105              		.loc 1 337 0
 1106 01ba 0EAB     		add	r3, sp, #56
 1107 01bc 1D72     		strb	r5, [r3, #8]
 338:main.c        ****     
 339:main.c        ****     uint8 min[1];
 340:main.c        ****     readFromAddr(min,1,RTCAddr,rtc.Minutes);
 1108              		.loc 1 340 0
 1109 01be 674D     		ldr	r5, .L70+4
 1110              	.LVL110:
 1111 01c0 EB78     		ldrb	r3, [r5, #3]
 1112 01c2 5132     		adds	r2, r2, #81
 1113 01c4 0121     		movs	r1, #1
 1114 01c6 0DA8     		add	r0, sp, #52
 1115 01c8 FFF7FEFF 		bl	readFromAddr
 1116              	.LVL111:
 341:main.c        ****     uint8 hour[1];
 342:main.c        ****     readFromAddr(hour,1,RTCAddr,rtc.Hours);
 1117              		.loc 1 342 0
 1118 01cc 2B79     		ldrb	r3, [r5, #4]
 1119 01ce 0CAD     		add	r5, sp, #48
 1120 01d0 5122     		movs	r2, #81
 1121 01d2 0121     		movs	r1, #1
 1122 01d4 2800     		movs	r0, r5
 1123 01d6 FFF7FEFF 		bl	readFromAddr
 1124              	.LVL112:
 343:main.c        ****     struct Time updateTime;
 344:main.c        ****     struct Time setTime;
 345:main.c        ****     if(hour[0] > 0x12){
 1125              		.loc 1 345 0
 1126 01da 2878     		ldrb	r0, [r5]
 1127 01dc 1228     		cmp	r0, #18
 1128 01de 13D9     		bls	.L40
ARM GAS  C:\Users\HELLOK~1.1\AppData\Local\Temp\cciBhXYB.s 			page 27


 1129              	.LBB4:
 346:main.c        ****             volatile struct Time currTime = {bcdToDec(hour[0])-12,bcdToDec(min[0]),"PM"};
 1130              		.loc 1 346 0
 1131 01e0 FFF7FEFF 		bl	bcdToDec
 1132              	.LVL113:
 1133 01e4 1AAD     		add	r5, sp, #104
 1134 01e6 0C38     		subs	r0, r0, #12
 1135 01e8 2870     		strb	r0, [r5]
 1136 01ea 0DAB     		add	r3, sp, #52
 1137 01ec 1878     		ldrb	r0, [r3]
 1138 01ee FFF7FEFF 		bl	bcdToDec
 1139              	.LVL114:
 1140 01f2 6870     		strb	r0, [r5, #1]
 1141 01f4 604B     		ldr	r3, .L70+32
 1142 01f6 6B60     		str	r3, [r5, #4]
 1143 01f8 03AB     		add	r3, sp, #12
 1144 01fa 1A00     		movs	r2, r3
 1145 01fc 03CD     		ldmia	r5!, {r0, r1}
 1146 01fe 03C2     		stmia	r2!, {r0, r1}
 347:main.c        ****             updateTime = currTime;
 1147              		.loc 1 347 0
 1148 0200 0AAA     		add	r2, sp, #40
 1149 0202 03CB     		ldmia	r3!, {r0, r1}
 1150 0204 03C2     		stmia	r2!, {r0, r1}
 1151              	.LBE4:
 1152 0206 11E0     		b	.L41
 1153              	.L40:
 1154              	.LBB5:
 348:main.c        ****         }
 349:main.c        ****         else{
 350:main.c        ****             volatile struct Time currTime = {bcdToDec(hour[0]),bcdToDec(min[0]),"AM"};
 1155              		.loc 1 350 0
 1156 0208 FFF7FEFF 		bl	bcdToDec
 1157              	.LVL115:
 1158 020c 1CAD     		add	r5, sp, #112
 1159 020e 2870     		strb	r0, [r5]
 1160 0210 0DAB     		add	r3, sp, #52
 1161 0212 1878     		ldrb	r0, [r3]
 1162 0214 FFF7FEFF 		bl	bcdToDec
 1163              	.LVL116:
 1164 0218 6870     		strb	r0, [r5, #1]
 1165 021a 584B     		ldr	r3, .L70+36
 1166 021c 6B60     		str	r3, [r5, #4]
 1167 021e 05AB     		add	r3, sp, #20
 1168 0220 1A00     		movs	r2, r3
 1169 0222 03CD     		ldmia	r5!, {r0, r1}
 1170 0224 03C2     		stmia	r2!, {r0, r1}
 351:main.c        ****             updateTime = currTime;
 1171              		.loc 1 351 0
 1172 0226 0AAA     		add	r2, sp, #40
 1173 0228 03CB     		ldmia	r3!, {r0, r1}
 1174 022a 03C2     		stmia	r2!, {r0, r1}
 1175              	.L41:
 1176              	.LBE5:
 352:main.c        ****     }
 353:main.c        ****     setCursor(0,0);
 1177              		.loc 1 353 0
ARM GAS  C:\Users\HELLOK~1.1\AppData\Local\Temp\cciBhXYB.s 			page 28


 1178 022c 0021     		movs	r1, #0
 1179 022e 0020     		movs	r0, #0
 1180 0230 FFF7FEFF 		bl	setCursor
 1181              	.LVL117:
 354:main.c        ****     LCD_print("Set Hour");
 1182              		.loc 1 354 0
 1183 0234 5248     		ldr	r0, .L70+40
 1184 0236 FFF7FEFF 		bl	LCD_print
 1185              	.LVL118:
 355:main.c        ****     setCursor(0,2);
 1186              		.loc 1 355 0
 1187 023a 0221     		movs	r1, #2
 1188 023c 0020     		movs	r0, #0
 1189 023e FFF7FEFF 		bl	setCursor
 1190              	.LVL119:
 356:main.c        ****     snprintf(printMessage,21,"%d:%.2d%s        ",updateTime.hour,updateTime.minute,updateTime.AM);
 1191              		.loc 1 356 0
 1192 0242 0AAB     		add	r3, sp, #40
 1193 0244 1D78     		ldrb	r5, [r3]
 1194 0246 5E78     		ldrb	r6, [r3, #1]
 1195 0248 0B9B     		ldr	r3, [sp, #44]
 1196 024a 0193     		str	r3, [sp, #4]
 1197 024c 0096     		str	r6, [sp]
 1198 024e 2B00     		movs	r3, r5
 1199 0250 4C4A     		ldr	r2, .L70+44
 1200 0252 1521     		movs	r1, #21
 1201 0254 14A8     		add	r0, sp, #80
 1202 0256 FFF7FEFF 		bl	snprintf
 1203              	.LVL120:
 357:main.c        ****     LCD_print(printMessage);
 1204              		.loc 1 357 0
 1205 025a 14A8     		add	r0, sp, #80
 1206 025c FFF7FEFF 		bl	LCD_print
 1207              	.LVL121:
 358:main.c        ****     currentIndex = updateTime.hour;
 359:main.c        ****     while(buttonFlag == 0){
 1208              		.loc 1 359 0
 1209 0260 25E0     		b	.L43
 1210              	.L46:
 360:main.c        ****         if(encFlag == 1){
 1211              		.loc 1 360 0
 1212 0262 404B     		ldr	r3, .L70+12
 1213 0264 5B78     		ldrb	r3, [r3, #1]
 1214 0266 012B     		cmp	r3, #1
 1215 0268 21D1     		bne	.L43
 1216              	.LBB6:
 361:main.c        ****             encFlag = 0;
 1217              		.loc 1 361 0
 1218 026a 3E4B     		ldr	r3, .L70+12
 1219 026c 0022     		movs	r2, #0
 1220 026e 5A70     		strb	r2, [r3, #1]
 362:main.c        ****             if(encPos == 1){
 1221              		.loc 1 362 0
 1222 0270 9B78     		ldrb	r3, [r3, #2]
 1223 0272 012B     		cmp	r3, #1
 1224 0274 03D1     		bne	.L44
 363:main.c        ****                 if(currentIndex == 12){
ARM GAS  C:\Users\HELLOK~1.1\AppData\Local\Temp\cciBhXYB.s 			page 29


 1225              		.loc 1 363 0
 1226 0276 0C2D     		cmp	r5, #12
 1227 0278 09D0     		beq	.L65
 364:main.c        ****                     currentIndex = 1;
 365:main.c        ****                 }
 366:main.c        ****                 else{
 367:main.c        ****                     currentIndex++;
 1228              		.loc 1 367 0
 1229 027a 0135     		adds	r5, r5, #1
 1230              	.LVL122:
 1231 027c 0AE0     		b	.L45
 1232              	.L44:
 368:main.c        ****                 }
 369:main.c        ****             }
 370:main.c        ****             else if(encPos == 2){
 1233              		.loc 1 370 0
 1234 027e 394B     		ldr	r3, .L70+12
 1235 0280 9B78     		ldrb	r3, [r3, #2]
 1236 0282 022B     		cmp	r3, #2
 1237 0284 06D1     		bne	.L45
 371:main.c        ****                 if(currentIndex == 1){
 1238              		.loc 1 371 0
 1239 0286 012D     		cmp	r5, #1
 1240 0288 03D0     		beq	.L66
 372:main.c        ****                     currentIndex = 12;
 373:main.c        ****                 }
 374:main.c        ****                 else{
 375:main.c        ****                     currentIndex--;
 1241              		.loc 1 375 0
 1242 028a 013D     		subs	r5, r5, #1
 1243              	.LVL123:
 1244 028c 02E0     		b	.L45
 1245              	.L65:
 364:main.c        ****                 }
 1246              		.loc 1 364 0
 1247 028e 0125     		movs	r5, #1
 1248              	.LVL124:
 1249 0290 00E0     		b	.L45
 1250              	.LVL125:
 1251              	.L66:
 372:main.c        ****                     currentIndex = 12;
 1252              		.loc 1 372 0
 1253 0292 0C25     		movs	r5, #12
 1254              	.LVL126:
 1255              	.L45:
 376:main.c        ****                 }
 377:main.c        ****             }
 378:main.c        ****             setCursor(0,2);
 1256              		.loc 1 378 0 discriminator 3
 1257 0294 0221     		movs	r1, #2
 1258 0296 0020     		movs	r0, #0
 1259 0298 FFF7FEFF 		bl	setCursor
 1260              	.LVL127:
 379:main.c        ****             char printHour[3];
 380:main.c        ****             snprintf(printHour,3,"%02d",currentIndex);
 1261              		.loc 1 380 0 discriminator 3
 1262 029c 2B00     		movs	r3, r5
ARM GAS  C:\Users\HELLOK~1.1\AppData\Local\Temp\cciBhXYB.s 			page 30


 1263 029e 334A     		ldr	r2, .L70+20
 1264 02a0 0321     		movs	r1, #3
 1265 02a2 02A8     		add	r0, sp, #8
 1266 02a4 FFF7FEFF 		bl	snprintf
 1267              	.LVL128:
 381:main.c        ****             LCD_print(printHour);
 1268              		.loc 1 381 0 discriminator 3
 1269 02a8 02A8     		add	r0, sp, #8
 1270 02aa FFF7FEFF 		bl	LCD_print
 1271              	.LVL129:
 1272              	.L43:
 1273              	.LBE6:
 359:main.c        ****         if(encFlag == 1){
 1274              		.loc 1 359 0
 1275 02ae 2D4B     		ldr	r3, .L70+12
 1276 02b0 DB78     		ldrb	r3, [r3, #3]
 1277 02b2 002B     		cmp	r3, #0
 1278 02b4 D5D0     		beq	.L46
 382:main.c        ****             
 383:main.c        ****         }
 384:main.c        ****     }
 385:main.c        ****     
 386:main.c        ****     setTime.hour = currentIndex;
 1279              		.loc 1 386 0
 1280 02b6 EDB2     		uxtb	r5, r5
 1281              	.LVL130:
 1282 02b8 08AB     		add	r3, sp, #32
 1283 02ba 1D70     		strb	r5, [r3]
 387:main.c        ****     buttonFlag = 0;
 1284              		.loc 1 387 0
 1285 02bc 0022     		movs	r2, #0
 1286 02be 294B     		ldr	r3, .L70+12
 1287 02c0 DA70     		strb	r2, [r3, #3]
 388:main.c        ****     setCursor(0,0);
 1288              		.loc 1 388 0
 1289 02c2 0021     		movs	r1, #0
 1290 02c4 0020     		movs	r0, #0
 1291 02c6 FFF7FEFF 		bl	setCursor
 1292              	.LVL131:
 389:main.c        ****     LCD_print("Set Minute");
 1293              		.loc 1 389 0
 1294 02ca 2F48     		ldr	r0, .L70+48
 1295 02cc FFF7FEFF 		bl	LCD_print
 1296              	.LVL132:
 390:main.c        ****     currentIndex = updateTime.minute;
 391:main.c        ****     while(buttonFlag == 0){
 1297              		.loc 1 391 0
 1298 02d0 25E0     		b	.L48
 1299              	.L51:
 392:main.c        ****         if(encFlag == 1){
 1300              		.loc 1 392 0
 1301 02d2 244B     		ldr	r3, .L70+12
 1302 02d4 5B78     		ldrb	r3, [r3, #1]
 1303 02d6 012B     		cmp	r3, #1
 1304 02d8 21D1     		bne	.L48
 1305              	.LBB7:
 393:main.c        ****             encFlag = 0;
ARM GAS  C:\Users\HELLOK~1.1\AppData\Local\Temp\cciBhXYB.s 			page 31


 1306              		.loc 1 393 0
 1307 02da 224B     		ldr	r3, .L70+12
 1308 02dc 0022     		movs	r2, #0
 1309 02de 5A70     		strb	r2, [r3, #1]
 394:main.c        ****             if(encPos == 1){
 1310              		.loc 1 394 0
 1311 02e0 9B78     		ldrb	r3, [r3, #2]
 1312 02e2 012B     		cmp	r3, #1
 1313 02e4 03D1     		bne	.L49
 395:main.c        ****                 if(currentIndex == 59){
 1314              		.loc 1 395 0
 1315 02e6 3B2E     		cmp	r6, #59
 1316 02e8 09D0     		beq	.L67
 396:main.c        ****                     currentIndex = 0;
 397:main.c        ****                 }
 398:main.c        ****                 else{
 399:main.c        ****                     currentIndex++;
 1317              		.loc 1 399 0
 1318 02ea 0136     		adds	r6, r6, #1
 1319              	.LVL133:
 1320 02ec 0AE0     		b	.L50
 1321              	.L49:
 400:main.c        ****                 }
 401:main.c        ****             }
 402:main.c        ****             else if(encPos == 2){
 1322              		.loc 1 402 0
 1323 02ee 1D4B     		ldr	r3, .L70+12
 1324 02f0 9B78     		ldrb	r3, [r3, #2]
 1325 02f2 022B     		cmp	r3, #2
 1326 02f4 06D1     		bne	.L50
 403:main.c        ****                 if(currentIndex == 0){
 1327              		.loc 1 403 0
 1328 02f6 002E     		cmp	r6, #0
 1329 02f8 03D0     		beq	.L68
 404:main.c        ****                     currentIndex = 59;
 405:main.c        ****                 }
 406:main.c        ****                 else{
 407:main.c        ****                     currentIndex--;
 1330              		.loc 1 407 0
 1331 02fa 013E     		subs	r6, r6, #1
 1332              	.LVL134:
 1333 02fc 02E0     		b	.L50
 1334              	.L67:
 396:main.c        ****                 }
 1335              		.loc 1 396 0
 1336 02fe 0026     		movs	r6, #0
 1337              	.LVL135:
 1338 0300 00E0     		b	.L50
 1339              	.LVL136:
 1340              	.L68:
 404:main.c        ****                     currentIndex = 59;
 1341              		.loc 1 404 0
 1342 0302 3B26     		movs	r6, #59
 1343              	.LVL137:
 1344              	.L50:
 408:main.c        ****                 }
 409:main.c        ****             }
ARM GAS  C:\Users\HELLOK~1.1\AppData\Local\Temp\cciBhXYB.s 			page 32


 410:main.c        ****             setCursor(3,2);
 1345              		.loc 1 410 0 discriminator 4
 1346 0304 0221     		movs	r1, #2
 1347 0306 0320     		movs	r0, #3
 1348 0308 FFF7FEFF 		bl	setCursor
 1349              	.LVL138:
 411:main.c        ****             char printMinute[3];
 412:main.c        ****             snprintf(printMinute,5,"%02d",currentIndex);
 1350              		.loc 1 412 0 discriminator 4
 1351 030c 3300     		movs	r3, r6
 1352 030e 174A     		ldr	r2, .L70+20
 1353 0310 0521     		movs	r1, #5
 1354 0312 02A8     		add	r0, sp, #8
 1355 0314 FFF7FEFF 		bl	snprintf
 1356              	.LVL139:
 413:main.c        ****             LCD_print(printMinute);
 1357              		.loc 1 413 0 discriminator 4
 1358 0318 02A8     		add	r0, sp, #8
 1359 031a FFF7FEFF 		bl	LCD_print
 1360              	.LVL140:
 1361              	.L48:
 1362              	.LBE7:
 391:main.c        ****         if(encFlag == 1){
 1363              		.loc 1 391 0
 1364 031e 114B     		ldr	r3, .L70+12
 1365 0320 DB78     		ldrb	r3, [r3, #3]
 1366 0322 002B     		cmp	r3, #0
 1367 0324 D5D0     		beq	.L51
 414:main.c        ****         }
 415:main.c        ****     }
 416:main.c        ****     
 417:main.c        ****     setTime.minute = currentIndex;
 1368              		.loc 1 417 0
 1369 0326 F6B2     		uxtb	r6, r6
 1370              	.LVL141:
 418:main.c        ****     buttonFlag = 0;
 1371              		.loc 1 418 0
 1372 0328 0022     		movs	r2, #0
 1373 032a 0E4B     		ldr	r3, .L70+12
 1374 032c DA70     		strb	r2, [r3, #3]
 419:main.c        ****     setCursor(0,0);
 1375              		.loc 1 419 0
 1376 032e 0021     		movs	r1, #0
 1377 0330 0020     		movs	r0, #0
 1378 0332 FFF7FEFF 		bl	setCursor
 1379              	.LVL142:
 420:main.c        ****     LCD_print("Set AM/PM    ");
 1380              		.loc 1 420 0
 1381 0336 1548     		ldr	r0, .L70+52
 1382 0338 FFF7FEFF 		bl	LCD_print
 1383              	.LVL143:
 421:main.c        ****     currentIndex = 0;
 1384              		.loc 1 421 0
 1385 033c 0027     		movs	r7, #0
 422:main.c        ****     while(buttonFlag == 0){
 1386              		.loc 1 422 0
 1387 033e 35E0     		b	.L53
ARM GAS  C:\Users\HELLOK~1.1\AppData\Local\Temp\cciBhXYB.s 			page 33


 1388              	.LVL144:
 1389              	.L57:
 423:main.c        ****         if(encFlag == 1){
 1390              		.loc 1 423 0
 1391 0340 084B     		ldr	r3, .L70+12
 1392 0342 5B78     		ldrb	r3, [r3, #1]
 1393 0344 012B     		cmp	r3, #1
 1394 0346 31D1     		bne	.L53
 424:main.c        ****             encFlag = 0;
 1395              		.loc 1 424 0
 1396 0348 0022     		movs	r2, #0
 1397 034a 064B     		ldr	r3, .L70+12
 1398 034c 5A70     		strb	r2, [r3, #1]
 425:main.c        ****             if(currentIndex == 0){
 1399              		.loc 1 425 0
 1400 034e 002F     		cmp	r7, #0
 1401 0350 1ED1     		bne	.L69
 426:main.c        ****                 currentIndex = 1;
 1402              		.loc 1 426 0
 1403 0352 0137     		adds	r7, r7, #1
 1404              	.LVL145:
 1405 0354 1DE0     		b	.L54
 1406              	.L71:
 1407 0356 C046     		.align	2
 1408              	.L70:
 1409 0358 5C000000 		.word	.LC24
 1410 035c 00000000 		.word	.LANCHOR0
 1411 0360 68000000 		.word	.LC27
 1412 0364 00000000 		.word	.LANCHOR1
 1413 0368 74000000 		.word	.LC30
 1414 036c 80000000 		.word	.LC32
 1415 0370 88000000 		.word	.LC34
 1416 0374 94000000 		.word	.LC36
 1417 0378 9C000000 		.word	.LC4
 1418 037c A0000000 		.word	.LC0
 1419 0380 A4000000 		.word	.LC40
 1420 0384 B0000000 		.word	.LC42
 1421 0388 C4000000 		.word	.LC44
 1422 038c D0000000 		.word	.LC46
 1423              	.LVL146:
 1424              	.L69:
 427:main.c        ****             }
 428:main.c        ****             else{
 429:main.c        ****                 currentIndex = 0;
 1425              		.loc 1 429 0
 1426 0390 0027     		movs	r7, #0
 1427              	.LVL147:
 1428              	.L54:
 430:main.c        ****             }
 431:main.c        ****             setCursor(5,2);
 1429              		.loc 1 431 0
 1430 0392 0221     		movs	r1, #2
 1431 0394 0520     		movs	r0, #5
 1432 0396 FFF7FEFF 		bl	setCursor
 1433              	.LVL148:
 432:main.c        ****             if(currentIndex == 0){
 1434              		.loc 1 432 0
ARM GAS  C:\Users\HELLOK~1.1\AppData\Local\Temp\cciBhXYB.s 			page 34


 1435 039a 002F     		cmp	r7, #0
 1436 039c 03D1     		bne	.L55
 433:main.c        ****                 LCD_print("AM");
 1437              		.loc 1 433 0
 1438 039e 2F48     		ldr	r0, .L72
 1439 03a0 FFF7FEFF 		bl	LCD_print
 1440              	.LVL149:
 1441 03a4 02E0     		b	.L53
 1442              	.L55:
 434:main.c        ****             }
 435:main.c        ****             else{
 436:main.c        ****                 LCD_print("PM");
 1443              		.loc 1 436 0
 1444 03a6 2E48     		ldr	r0, .L72+4
 1445 03a8 FFF7FEFF 		bl	LCD_print
 1446              	.LVL150:
 1447              	.L53:
 422:main.c        ****         if(encFlag == 1){
 1448              		.loc 1 422 0
 1449 03ac 2D4B     		ldr	r3, .L72+8
 1450 03ae DB78     		ldrb	r3, [r3, #3]
 1451 03b0 002B     		cmp	r3, #0
 1452 03b2 C5D0     		beq	.L57
 437:main.c        ****             }
 438:main.c        ****         }
 439:main.c        ****     }
 440:main.c        ****     buttonFlag = 0;
 1453              		.loc 1 440 0
 1454 03b4 0022     		movs	r2, #0
 1455 03b6 2B4B     		ldr	r3, .L72+8
 1456 03b8 DA70     		strb	r2, [r3, #3]
 441:main.c        ****     if(currentIndex == 0){
 1457              		.loc 1 441 0
 1458 03ba 002F     		cmp	r7, #0
 1459 03bc 02D0     		beq	.L58
 442:main.c        ****         
 443:main.c        ****     }
 444:main.c        ****     else{
 445:main.c        ****         setTime.hour = setTime.hour + 12;
 1460              		.loc 1 445 0
 1461 03be 0C35     		adds	r5, r5, #12
 1462 03c0 08AB     		add	r3, sp, #32
 1463 03c2 1D70     		strb	r5, [r3]
 1464              	.L58:
 446:main.c        ****     }
 447:main.c        ****     
 448:main.c        ****     uint8 wrBuf[2];
 449:main.c        ****     wrBuf[1] = 0x00;
 1465              		.loc 1 449 0
 1466 03c4 07AD     		add	r5, sp, #28
 1467 03c6 0023     		movs	r3, #0
 1468 03c8 6B70     		strb	r3, [r5, #1]
 450:main.c        ****     writeToAddr(wrBuf,2,RTCAddr,rtc.VL_Sec);
 1469              		.loc 1 450 0
 1470 03ca 274F     		ldr	r7, .L72+12
 1471              	.LVL151:
 1472 03cc BB78     		ldrb	r3, [r7, #2]
ARM GAS  C:\Users\HELLOK~1.1\AppData\Local\Temp\cciBhXYB.s 			page 35


 1473 03ce 5122     		movs	r2, #81
 1474 03d0 0221     		movs	r1, #2
 1475 03d2 2800     		movs	r0, r5
 1476 03d4 FFF7FEFF 		bl	writeToAddr
 1477              	.LVL152:
 451:main.c        ****     wrBuf[1] = decToBcd(setTime.minute);
 1478              		.loc 1 451 0
 1479 03d8 3000     		movs	r0, r6
 1480 03da FFF7FEFF 		bl	decToBcd
 1481              	.LVL153:
 1482 03de 6870     		strb	r0, [r5, #1]
 452:main.c        ****     writeToAddr(wrBuf,2,RTCAddr,rtc.Minutes);
 1483              		.loc 1 452 0
 1484 03e0 FB78     		ldrb	r3, [r7, #3]
 1485 03e2 5122     		movs	r2, #81
 1486 03e4 0221     		movs	r1, #2
 1487 03e6 2800     		movs	r0, r5
 1488 03e8 FFF7FEFF 		bl	writeToAddr
 1489              	.LVL154:
 453:main.c        ****     wrBuf[1] = decToBcd(setTime.hour);
 1490              		.loc 1 453 0
 1491 03ec 08AB     		add	r3, sp, #32
 1492 03ee 1878     		ldrb	r0, [r3]
 1493 03f0 FFF7FEFF 		bl	decToBcd
 1494              	.LVL155:
 1495 03f4 6870     		strb	r0, [r5, #1]
 454:main.c        ****     writeToAddr(wrBuf,2,RTCAddr,rtc.Hours);
 1496              		.loc 1 454 0
 1497 03f6 3B79     		ldrb	r3, [r7, #4]
 1498 03f8 5122     		movs	r2, #81
 1499 03fa 0221     		movs	r1, #2
 1500 03fc 2800     		movs	r0, r5
 1501 03fe FFF7FEFF 		bl	writeToAddr
 1502              	.LVL156:
 455:main.c        ****     wrBuf[1] = decToBcd(setDate.day);
 1503              		.loc 1 455 0
 1504 0402 0EAE     		add	r6, sp, #56
 1505 0404 3078     		ldrb	r0, [r6]
 1506 0406 FFF7FEFF 		bl	decToBcd
 1507              	.LVL157:
 1508 040a 6870     		strb	r0, [r5, #1]
 456:main.c        ****     writeToAddr(wrBuf,2,RTCAddr,rtc.Days);
 1509              		.loc 1 456 0
 1510 040c 7B79     		ldrb	r3, [r7, #5]
 1511 040e 5122     		movs	r2, #81
 1512 0410 0221     		movs	r1, #2
 1513 0412 2800     		movs	r0, r5
 1514 0414 FFF7FEFF 		bl	writeToAddr
 1515              	.LVL158:
 457:main.c        ****     wrBuf[1] = 0x06;
 1516              		.loc 1 457 0
 1517 0418 0623     		movs	r3, #6
 1518 041a 6B70     		strb	r3, [r5, #1]
 458:main.c        ****     writeToAddr(wrBuf,2,RTCAddr,rtc.Weekdays);
 1519              		.loc 1 458 0
 1520 041c BB79     		ldrb	r3, [r7, #6]
 1521 041e 5122     		movs	r2, #81
ARM GAS  C:\Users\HELLOK~1.1\AppData\Local\Temp\cciBhXYB.s 			page 36


 1522 0420 0221     		movs	r1, #2
 1523 0422 2800     		movs	r0, r5
 1524 0424 FFF7FEFF 		bl	writeToAddr
 1525              	.LVL159:
 459:main.c        ****     wrBuf[1] = decToBcd(numberMonth);
 1526              		.loc 1 459 0
 1527 0428 2000     		movs	r0, r4
 1528 042a FFF7FEFF 		bl	decToBcd
 1529              	.LVL160:
 1530 042e 6870     		strb	r0, [r5, #1]
 460:main.c        ****     writeToAddr(wrBuf,2,RTCAddr,rtc.Century_Months);
 1531              		.loc 1 460 0
 1532 0430 FB79     		ldrb	r3, [r7, #7]
 1533 0432 5122     		movs	r2, #81
 1534 0434 0221     		movs	r1, #2
 1535 0436 2800     		movs	r0, r5
 1536 0438 FFF7FEFF 		bl	writeToAddr
 1537              	.LVL161:
 461:main.c        ****     wrBuf[1] = decToBcd(setDate.year);
 1538              		.loc 1 461 0
 1539 043c 307A     		ldrb	r0, [r6, #8]
 1540 043e FFF7FEFF 		bl	decToBcd
 1541              	.LVL162:
 1542 0442 6870     		strb	r0, [r5, #1]
 462:main.c        ****     writeToAddr(wrBuf,2,RTCAddr,rtc.Years);
 1543              		.loc 1 462 0
 1544 0444 3B7A     		ldrb	r3, [r7, #8]
 1545 0446 5122     		movs	r2, #81
 1546 0448 0221     		movs	r1, #2
 1547 044a 2800     		movs	r0, r5
 1548 044c FFF7FEFF 		bl	writeToAddr
 1549              	.LVL163:
 463:main.c        ****     exitLCD();
 1550              		.loc 1 463 0
 1551 0450 FFF7FEFF 		bl	exitLCD
 1552              	.LVL164:
 464:main.c        ****     
 465:main.c        **** }
 1553              		.loc 1 465 0
 1554 0454 1EB0     		add	sp, sp, #120
 1555              		@ sp needed
 1556              	.LVL165:
 1557 0456 04BC     		pop	{r2}
 1558 0458 9146     		mov	r9, r2
 1559 045a F0BD     		pop	{r4, r5, r6, r7, pc}
 1560              	.L73:
 1561              		.align	2
 1562              	.L72:
 1563 045c A0000000 		.word	.LC0
 1564 0460 9C000000 		.word	.LC4
 1565 0464 00000000 		.word	.LANCHOR1
 1566 0468 00000000 		.word	.LANCHOR0
 1567              		.cfi_endproc
 1568              	.LFE45:
 1569              		.size	setGlobalTime, .-setGlobalTime
 1570              		.section	.text.setFeedTimes,"ax",%progbits
 1571              		.align	2
ARM GAS  C:\Users\HELLOK~1.1\AppData\Local\Temp\cciBhXYB.s 			page 37


 1572              		.global	setFeedTimes
 1573              		.code	16
 1574              		.thumb_func
 1575              		.type	setFeedTimes, %function
 1576              	setFeedTimes:
 1577              	.LFB46:
 466:main.c        **** void setFeedTimes(){
 1578              		.loc 1 466 0
 1579              		.cfi_startproc
 1580              		@ args = 0, pretend = 0, frame = 0
 1581              		@ frame_needed = 0, uses_anonymous_args = 0
 1582              		@ link register save eliminated.
 467:main.c        ****     
 468:main.c        **** }
 1583              		.loc 1 468 0
 1584              		@ sp needed
 1585 0000 7047     		bx	lr
 1586              		.cfi_endproc
 1587              	.LFE46:
 1588              		.size	setFeedTimes, .-setFeedTimes
 1589 0002 C046     		.section	.text.setAmountOfFood,"ax",%progbits
 1590              		.align	2
 1591              		.global	setAmountOfFood
 1592              		.code	16
 1593              		.thumb_func
 1594              		.type	setAmountOfFood, %function
 1595              	setAmountOfFood:
 1596              	.LFB47:
 469:main.c        **** void setAmountOfFood(){
 1597              		.loc 1 469 0
 1598              		.cfi_startproc
 1599              		@ args = 0, pretend = 0, frame = 0
 1600              		@ frame_needed = 0, uses_anonymous_args = 0
 1601              		@ link register save eliminated.
 470:main.c        ****     
 471:main.c        **** }
 1602              		.loc 1 471 0
 1603              		@ sp needed
 1604 0000 7047     		bx	lr
 1605              		.cfi_endproc
 1606              	.LFE47:
 1607              		.size	setAmountOfFood, .-setAmountOfFood
 1608 0002 C046     		.section	.text.toggleLEDs,"ax",%progbits
 1609              		.align	2
 1610              		.global	toggleLEDs
 1611              		.code	16
 1612              		.thumb_func
 1613              		.type	toggleLEDs, %function
 1614              	toggleLEDs:
 1615              	.LFB48:
 472:main.c        **** void toggleLEDs(){
 1616              		.loc 1 472 0
 1617              		.cfi_startproc
 1618              		@ args = 0, pretend = 0, frame = 0
 1619              		@ frame_needed = 0, uses_anonymous_args = 0
 1620              		@ link register save eliminated.
 473:main.c        ****     
ARM GAS  C:\Users\HELLOK~1.1\AppData\Local\Temp\cciBhXYB.s 			page 38


 474:main.c        **** }
 1621              		.loc 1 474 0
 1622              		@ sp needed
 1623 0000 7047     		bx	lr
 1624              		.cfi_endproc
 1625              	.LFE48:
 1626              		.size	toggleLEDs, .-toggleLEDs
 1627 0002 C046     		.section	.text.toggleSpeakers,"ax",%progbits
 1628              		.align	2
 1629              		.global	toggleSpeakers
 1630              		.code	16
 1631              		.thumb_func
 1632              		.type	toggleSpeakers, %function
 1633              	toggleSpeakers:
 1634              	.LFB49:
 475:main.c        **** void toggleSpeakers(){
 1635              		.loc 1 475 0
 1636              		.cfi_startproc
 1637              		@ args = 0, pretend = 0, frame = 0
 1638              		@ frame_needed = 0, uses_anonymous_args = 0
 1639              		@ link register save eliminated.
 476:main.c        ****     
 477:main.c        **** }
 1640              		.loc 1 477 0
 1641              		@ sp needed
 1642 0000 7047     		bx	lr
 1643              		.cfi_endproc
 1644              	.LFE49:
 1645              		.size	toggleSpeakers, .-toggleSpeakers
 1646 0002 C046     		.section	.text.startSettings,"ax",%progbits
 1647              		.align	2
 1648              		.global	startSettings
 1649              		.code	16
 1650              		.thumb_func
 1651              		.type	startSettings, %function
 1652              	startSettings:
 1653              	.LFB50:
 478:main.c        **** 
 479:main.c        **** 
 480:main.c        **** void startSettings(){
 1654              		.loc 1 480 0
 1655              		.cfi_startproc
 1656              		@ args = 0, pretend = 0, frame = 0
 1657              		@ frame_needed = 0, uses_anonymous_args = 0
 1658 0000 10B5     		push	{r4, lr}
 1659              		.cfi_def_cfa_offset 8
 1660              		.cfi_offset 4, -8
 1661              		.cfi_offset 14, -4
 481:main.c        ****     clear();
 1662              		.loc 1 481 0
 1663 0002 FFF7FEFF 		bl	clear
 1664              	.LVL166:
 482:main.c        ****     uint8 choice = 0;
 483:main.c        ****     setCursor(0,0);
 1665              		.loc 1 483 0
 1666 0006 0021     		movs	r1, #0
 1667 0008 0020     		movs	r0, #0
ARM GAS  C:\Users\HELLOK~1.1\AppData\Local\Temp\cciBhXYB.s 			page 39


 1668 000a FFF7FEFF 		bl	setCursor
 1669              	.LVL167:
 484:main.c        ****     LCD_print("Button = Select");
 1670              		.loc 1 484 0
 1671 000e 2A48     		ldr	r0, .L88
 1672 0010 FFF7FEFF 		bl	LCD_print
 1673              	.LVL168:
 485:main.c        ****     setCursor(0,1);
 1674              		.loc 1 485 0
 1675 0014 0121     		movs	r1, #1
 1676 0016 0020     		movs	r0, #0
 1677 0018 FFF7FEFF 		bl	setCursor
 1678              	.LVL169:
 486:main.c        ****     LCD_print("Knob = Choice");
 1679              		.loc 1 486 0
 1680 001c 2748     		ldr	r0, .L88+4
 1681 001e FFF7FEFF 		bl	LCD_print
 1682              	.LVL170:
 487:main.c        ****     setCursor(0,2);
 1683              		.loc 1 487 0
 1684 0022 0221     		movs	r1, #2
 1685 0024 0020     		movs	r0, #0
 1686 0026 FFF7FEFF 		bl	setCursor
 1687              	.LVL171:
 488:main.c        ****     LCD_print("--------------------");
 1688              		.loc 1 488 0
 1689 002a 2548     		ldr	r0, .L88+8
 1690 002c FFF7FEFF 		bl	LCD_print
 1691              	.LVL172:
 489:main.c        ****     // Clock Time
 490:main.c        ****     setCursor(0,3);
 1692              		.loc 1 490 0
 1693 0030 0321     		movs	r1, #3
 1694 0032 0020     		movs	r0, #0
 1695 0034 FFF7FEFF 		bl	setCursor
 1696              	.LVL173:
 491:main.c        ****     LCD_print("Set Global Time");
 1697              		.loc 1 491 0
 1698 0038 2248     		ldr	r0, .L88+12
 1699 003a FFF7FEFF 		bl	LCD_print
 1700              	.LVL174:
 492:main.c        ****     CyDelay(1000);
 1701              		.loc 1 492 0
 1702 003e FA20     		movs	r0, #250
 1703 0040 8000     		lsls	r0, r0, #2
 1704 0042 FFF7FEFF 		bl	CyDelay
 1705              	.LVL175:
 482:main.c        ****     setCursor(0,0);
 1706              		.loc 1 482 0
 1707 0046 0024     		movs	r4, #0
 493:main.c        ****     while(buttonFlag == 0){
 1708              		.loc 1 493 0
 1709 0048 24E0     		b	.L79
 1710              	.LVL176:
 1711              	.L82:
 494:main.c        ****         if(encFlag == 1){
 1712              		.loc 1 494 0
ARM GAS  C:\Users\HELLOK~1.1\AppData\Local\Temp\cciBhXYB.s 			page 40


 1713 004a 1F4B     		ldr	r3, .L88+16
 1714 004c 5B78     		ldrb	r3, [r3, #1]
 1715 004e 012B     		cmp	r3, #1
 1716 0050 16D1     		bne	.L80
 495:main.c        ****             encFlag = 0;
 1717              		.loc 1 495 0
 1718 0052 1D4B     		ldr	r3, .L88+16
 1719 0054 0022     		movs	r2, #0
 1720 0056 5A70     		strb	r2, [r3, #1]
 496:main.c        ****             if(encPos == 1){
 1721              		.loc 1 496 0
 1722 0058 9B78     		ldrb	r3, [r3, #2]
 1723 005a 012B     		cmp	r3, #1
 1724 005c 04D1     		bne	.L81
 497:main.c        ****                 if(choice == 5){
 1725              		.loc 1 497 0
 1726 005e 052C     		cmp	r4, #5
 1727 0060 0BD0     		beq	.L86
 498:main.c        ****                     choice = 0;
 499:main.c        ****                 }
 500:main.c        ****                 else{
 501:main.c        ****                     choice++;
 1728              		.loc 1 501 0
 1729 0062 0134     		adds	r4, r4, #1
 1730              	.LVL177:
 1731 0064 E4B2     		uxtb	r4, r4
 1732              	.LVL178:
 1733 0066 0BE0     		b	.L80
 1734              	.L81:
 502:main.c        ****                 }
 503:main.c        ****             }
 504:main.c        ****             else if(encPos == 2){
 1735              		.loc 1 504 0
 1736 0068 174B     		ldr	r3, .L88+16
 1737 006a 9B78     		ldrb	r3, [r3, #2]
 1738 006c 022B     		cmp	r3, #2
 1739 006e 07D1     		bne	.L80
 505:main.c        ****                 if(choice == 0){
 1740              		.loc 1 505 0
 1741 0070 002C     		cmp	r4, #0
 1742 0072 04D0     		beq	.L87
 506:main.c        ****                     choice = 5;
 507:main.c        ****                 }
 508:main.c        ****                 else{
 509:main.c        ****                     choice--;
 1743              		.loc 1 509 0
 1744 0074 013C     		subs	r4, r4, #1
 1745              	.LVL179:
 1746 0076 E4B2     		uxtb	r4, r4
 1747              	.LVL180:
 1748 0078 02E0     		b	.L80
 1749              	.L86:
 498:main.c        ****                 }
 1750              		.loc 1 498 0
 1751 007a 0024     		movs	r4, #0
 1752              	.LVL181:
 1753 007c 00E0     		b	.L80
ARM GAS  C:\Users\HELLOK~1.1\AppData\Local\Temp\cciBhXYB.s 			page 41


 1754              	.LVL182:
 1755              	.L87:
 506:main.c        ****                     choice = 5;
 1756              		.loc 1 506 0
 1757 007e 0524     		movs	r4, #5
 1758              	.LVL183:
 1759              	.L80:
 510:main.c        ****                 }
 511:main.c        ****             }
 512:main.c        ****         }
 513:main.c        ****         setCursor(0,3);
 1760              		.loc 1 513 0
 1761 0080 0321     		movs	r1, #3
 1762 0082 0020     		movs	r0, #0
 1763 0084 FFF7FEFF 		bl	setCursor
 1764              	.LVL184:
 514:main.c        ****         LCD_print(commands[choice]);
 1765              		.loc 1 514 0
 1766 0088 A300     		lsls	r3, r4, #2
 1767 008a 104A     		ldr	r2, .L88+20
 1768 008c D318     		adds	r3, r2, r3
 1769 008e 1869     		ldr	r0, [r3, #16]
 1770 0090 FFF7FEFF 		bl	LCD_print
 1771              	.LVL185:
 1772              	.L79:
 493:main.c        ****         if(encFlag == 1){
 1773              		.loc 1 493 0
 1774 0094 0C4B     		ldr	r3, .L88+16
 1775 0096 DB78     		ldrb	r3, [r3, #3]
 1776 0098 002B     		cmp	r3, #0
 1777 009a D6D0     		beq	.L82
 515:main.c        ****     }
 516:main.c        ****     buttonFlag = 0;
 1778              		.loc 1 516 0
 1779 009c 0022     		movs	r2, #0
 1780 009e 0A4B     		ldr	r3, .L88+16
 1781 00a0 DA70     		strb	r2, [r3, #3]
 517:main.c        ****     switch(choice){
 1782              		.loc 1 517 0
 1783 00a2 002C     		cmp	r4, #0
 1784 00a4 02D0     		beq	.L84
 1785 00a6 052C     		cmp	r4, #5
 1786 00a8 03D0     		beq	.L85
 1787 00aa 04E0     		b	.L78
 1788              	.L84:
 518:main.c        ****         case 0:
 519:main.c        ****             setGlobalTime();
 1789              		.loc 1 519 0
 1790 00ac FFF7FEFF 		bl	setGlobalTime
 1791              	.LVL186:
 520:main.c        ****             break;
 1792              		.loc 1 520 0
 1793 00b0 01E0     		b	.L78
 1794              	.L85:
 521:main.c        ****         case 1:
 522:main.c        ****             setFeedTimes();
 523:main.c        ****             break;
ARM GAS  C:\Users\HELLOK~1.1\AppData\Local\Temp\cciBhXYB.s 			page 42


 524:main.c        ****         case 2:
 525:main.c        ****             setAmountOfFood();
 526:main.c        ****             break;
 527:main.c        ****         case 3:
 528:main.c        ****             toggleLEDs();
 529:main.c        ****             break;
 530:main.c        ****         case 4:
 531:main.c        ****             toggleSpeakers();
 532:main.c        ****             break;
 533:main.c        ****         case 5:
 534:main.c        ****             // Done
 535:main.c        ****             exitLCD();
 1795              		.loc 1 535 0
 1796 00b2 FFF7FEFF 		bl	exitLCD
 1797              	.LVL187:
 1798              	.L78:
 536:main.c        ****             break;
 537:main.c        ****         default:
 538:main.c        ****             choice = 0;
 539:main.c        ****             break;
 540:main.c        ****     }
 541:main.c        ****     // Feed times
 542:main.c        ****     // Amount of food
 543:main.c        ****     // LED's
 544:main.c        ****     // Speakers
 545:main.c        ****     // Exit
 546:main.c        **** }
 1799              		.loc 1 546 0
 1800              		@ sp needed
 1801              	.LVL188:
 1802 00b6 10BD     		pop	{r4, pc}
 1803              	.L89:
 1804              		.align	2
 1805              	.L88:
 1806 00b8 E0000000 		.word	.LC48
 1807 00bc F0000000 		.word	.LC50
 1808 00c0 18000000 		.word	.LC11
 1809 00c4 00010000 		.word	.LC53
 1810 00c8 00000000 		.word	.LANCHOR1
 1811 00cc 80000000 		.word	.LANCHOR2
 1812              		.cfi_endproc
 1813              	.LFE50:
 1814              		.size	startSettings, .-startSettings
 1815              		.section	.text.main,"ax",%progbits
 1816              		.align	2
 1817              		.global	main
 1818              		.code	16
 1819              		.thumb_func
 1820              		.type	main, %function
 1821              	main:
 1822              	.LFB51:
 547:main.c        **** 
 548:main.c        **** 
 549:main.c        **** 
 550:main.c        **** int main(void)
 551:main.c        **** {
 1823              		.loc 1 551 0
ARM GAS  C:\Users\HELLOK~1.1\AppData\Local\Temp\cciBhXYB.s 			page 43


 1824              		.cfi_startproc
 1825              		@ args = 0, pretend = 0, frame = 136
 1826              		@ frame_needed = 0, uses_anonymous_args = 0
 1827 0000 F0B5     		push	{r4, r5, r6, r7, lr}
 1828              		.cfi_def_cfa_offset 20
 1829              		.cfi_offset 4, -20
 1830              		.cfi_offset 5, -16
 1831              		.cfi_offset 6, -12
 1832              		.cfi_offset 7, -8
 1833              		.cfi_offset 14, -4
 1834 0002 A9B0     		sub	sp, sp, #164
 1835              		.cfi_def_cfa_offset 184
 552:main.c        ****     BTN_ISR_Start();
 1836              		.loc 1 552 0
 1837 0004 FFF7FEFF 		bl	BTN_ISR_Start
 1838              	.LVL189:
 553:main.c        ****     ENC_ISR_Start();
 1839              		.loc 1 553 0
 1840 0008 FFF7FEFF 		bl	ENC_ISR_Start
 1841              	.LVL190:
 554:main.c        ****     CyGlobalIntEnable; /* Enable global interrupts. */
 1842              		.loc 1 554 0
 1843              		.syntax divided
 1844              	@ 554 "main.c" 1
 1845 000c 62B6     		CPSIE   i
 1846              	@ 0 "" 2
 555:main.c        ****     I2C_Start();
 1847              		.loc 1 555 0
 1848              		.thumb
 1849              		.syntax unified
 1850 000e FFF7FEFF 		bl	I2C_Start
 1851              	.LVL191:
 556:main.c        ****     LiquidCrystal_I2C_init(LCDAddr, 20,4,0);
 1852              		.loc 1 556 0
 1853 0012 0023     		movs	r3, #0
 1854 0014 0422     		movs	r2, #4
 1855 0016 1421     		movs	r1, #20
 1856 0018 2720     		movs	r0, #39
 1857 001a FFF7FEFF 		bl	LiquidCrystal_I2C_init
 1858              	.LVL192:
 557:main.c        ****     LCDBegin();
 1859              		.loc 1 557 0
 1860 001e FFF7FEFF 		bl	LCDBegin
 1861              	.LVL193:
 558:main.c        ****     struct Time time = {12,45, "AM"};
 1862              		.loc 1 558 0
 1863 0022 22AB     		add	r3, sp, #136
 1864 0024 7749     		ldr	r1, .L98
 1865 0026 0A00     		movs	r2, r1
 1866 0028 11CA     		ldmia	r2!, {r0, r4}
 1867 002a 11C3     		stmia	r3!, {r0, r4}
 559:main.c        ****     struct Date date = {31, "Mar",23};
 1868              		.loc 1 559 0
 1869 002c 1FAB     		add	r3, sp, #124
 1870 002e 9C46     		mov	ip, r3
 1871 0030 1800     		movs	r0, r3
 1872 0032 70CA     		ldmia	r2!, {r4, r5, r6}
ARM GAS  C:\Users\HELLOK~1.1\AppData\Local\Temp\cciBhXYB.s 			page 44


 1873 0034 70C0     		stmia	r0!, {r4, r5, r6}
 560:main.c        ****     struct Time nextTime = {6,00, "PM"};
 1874              		.loc 1 560 0
 1875 0036 1DAC     		add	r4, sp, #116
 1876 0038 0A00     		movs	r2, r1
 1877 003a 1432     		adds	r2, r2, #20
 1878 003c 2000     		movs	r0, r4
 1879 003e 60CA     		ldmia	r2!, {r5, r6}
 1880 0040 60C0     		stmia	r0!, {r5, r6}
 561:main.c        ****     struct Date nextDate = {1, "Apr", 23};
 1881              		.loc 1 561 0
 1882 0042 1AAA     		add	r2, sp, #104
 1883 0044 0800     		movs	r0, r1
 1884 0046 1C30     		adds	r0, r0, #28
 1885 0048 1500     		movs	r5, r2
 1886 004a C8C8     		ldmia	r0!, {r3, r6, r7}
 1887 004c C8C5     		stmia	r5!, {r3, r6, r7}
 562:main.c        ****     LCDInit(time, nextTime, date, nextDate);
 1888              		.loc 1 562 0
 1889 004e 03A8     		add	r0, sp, #12
 1890 0050 68CA     		ldmia	r2!, {r3, r5, r6}
 1891 0052 68C0     		stmia	r0!, {r3, r5, r6}
 1892 0054 6A46     		mov	r2, sp
 1893 0056 6346     		mov	r3, ip
 1894 0058 61CB     		ldmia	r3!, {r0, r5, r6}
 1895 005a 61C2     		stmia	r2!, {r0, r5, r6}
 1896 005c 1D9A     		ldr	r2, [sp, #116]
 1897 005e 1E9B     		ldr	r3, [sp, #120]
 1898 0060 2298     		ldr	r0, [sp, #136]
 1899 0062 4968     		ldr	r1, [r1, #4]
 1900 0064 FFF7FEFF 		bl	LCDInit
 1901              	.LVL194:
 563:main.c        ****     uint8 wrBuf[2];
 564:main.c        ****     wrBuf[1] = 0b0000000;
 1902              		.loc 1 564 0
 1903 0068 19AC     		add	r4, sp, #100
 1904 006a 0026     		movs	r6, #0
 1905 006c 6670     		strb	r6, [r4, #1]
 565:main.c        ****     writeToAddr(wrBuf,2,RTCAddr,rtc.CtrlStat1);
 1906              		.loc 1 565 0
 1907 006e 664D     		ldr	r5, .L98+4
 1908 0070 2B78     		ldrb	r3, [r5]
 1909 0072 5122     		movs	r2, #81
 1910 0074 0221     		movs	r1, #2
 1911 0076 2000     		movs	r0, r4
 1912 0078 FFF7FEFF 		bl	writeToAddr
 1913              	.LVL195:
 566:main.c        ****     wrBuf[1] = 0b0000000;
 1914              		.loc 1 566 0
 1915 007c 6670     		strb	r6, [r4, #1]
 567:main.c        ****     writeToAddr(wrBuf,2,RTCAddr,rtc.CtrlStat2);
 1916              		.loc 1 567 0
 1917 007e 6B78     		ldrb	r3, [r5, #1]
 1918 0080 5122     		movs	r2, #81
 1919 0082 0221     		movs	r1, #2
 1920 0084 2000     		movs	r0, r4
 1921 0086 FFF7FEFF 		bl	writeToAddr
ARM GAS  C:\Users\HELLOK~1.1\AppData\Local\Temp\cciBhXYB.s 			page 45


 1922              	.LVL196:
 1923              	.L97:
 1924              	.LBB8:
 568:main.c        ****     //RTCInit();
 569:main.c        **** 
 570:main.c        ****     /* Place your initialization/startup code here (e.g. MyInst_Start()) */
 571:main.c        **** 
 572:main.c        ****     for(;;)
 573:main.c        ****     {
 574:main.c        ****         struct Time updateTime;
 575:main.c        ****         
 576:main.c        ****         uint8 sec[1];
 577:main.c        ****         readFromAddr(sec,1,RTCAddr,rtc.VL_Sec);
 1925              		.loc 1 577 0
 1926 008a 5F4C     		ldr	r4, .L98+4
 1927 008c A378     		ldrb	r3, [r4, #2]
 1928 008e 5122     		movs	r2, #81
 1929 0090 0121     		movs	r1, #1
 1930 0092 09A8     		add	r0, sp, #36
 1931 0094 FFF7FEFF 		bl	readFromAddr
 1932              	.LVL197:
 578:main.c        ****         uint8 min[1];
 579:main.c        ****         readFromAddr(min,1,RTCAddr,rtc.Minutes);
 1933              		.loc 1 579 0
 1934 0098 E378     		ldrb	r3, [r4, #3]
 1935 009a 5122     		movs	r2, #81
 1936 009c 0121     		movs	r1, #1
 1937 009e 0AA8     		add	r0, sp, #40
 1938 00a0 FFF7FEFF 		bl	readFromAddr
 1939              	.LVL198:
 580:main.c        ****         uint8 hour[1];
 581:main.c        ****         readFromAddr(hour,1,RTCAddr,rtc.Hours);
 1940              		.loc 1 581 0
 1941 00a4 2379     		ldrb	r3, [r4, #4]
 1942 00a6 0BAD     		add	r5, sp, #44
 1943 00a8 5122     		movs	r2, #81
 1944 00aa 0121     		movs	r1, #1
 1945 00ac 2800     		movs	r0, r5
 1946 00ae FFF7FEFF 		bl	readFromAddr
 1947              	.LVL199:
 582:main.c        ****         uint8 day[1];
 583:main.c        ****         readFromAddr(day,1,RTCAddr,rtc.Days);
 1948              		.loc 1 583 0
 1949 00b2 6379     		ldrb	r3, [r4, #5]
 1950 00b4 5122     		movs	r2, #81
 1951 00b6 0121     		movs	r1, #1
 1952 00b8 0CA8     		add	r0, sp, #48
 1953 00ba FFF7FEFF 		bl	readFromAddr
 1954              	.LVL200:
 584:main.c        ****         uint8 month[1];
 585:main.c        ****         readFromAddr(month,1,RTCAddr,rtc.Century_Months);
 1955              		.loc 1 585 0
 1956 00be E379     		ldrb	r3, [r4, #7]
 1957 00c0 5122     		movs	r2, #81
 1958 00c2 0121     		movs	r1, #1
 1959 00c4 0DA8     		add	r0, sp, #52
 1960 00c6 FFF7FEFF 		bl	readFromAddr
ARM GAS  C:\Users\HELLOK~1.1\AppData\Local\Temp\cciBhXYB.s 			page 46


 1961              	.LVL201:
 586:main.c        ****         uint8 year[1];
 587:main.c        ****         readFromAddr(year,1,RTCAddr,rtc.Years);
 1962              		.loc 1 587 0
 1963 00ca 237A     		ldrb	r3, [r4, #8]
 1964 00cc 5122     		movs	r2, #81
 1965 00ce 0121     		movs	r1, #1
 1966 00d0 0EA8     		add	r0, sp, #56
 1967 00d2 FFF7FEFF 		bl	readFromAddr
 1968              	.LVL202:
 588:main.c        ****         if(hour[0] > 0x12){
 1969              		.loc 1 588 0
 1970 00d6 2878     		ldrb	r0, [r5]
 1971 00d8 1228     		cmp	r0, #18
 1972 00da 16D9     		bls	.L91
 1973              	.LBB9:
 589:main.c        ****             volatile struct Time currTime = {bcdToDec(hour[0])-12,bcdToDec(min[0]),"PM"};
 1974              		.loc 1 589 0
 1975 00dc FFF7FEFF 		bl	bcdToDec
 1976              	.LVL203:
 1977 00e0 24AC     		add	r4, sp, #144
 1978 00e2 0C38     		subs	r0, r0, #12
 1979 00e4 2070     		strb	r0, [r4]
 1980 00e6 0AAB     		add	r3, sp, #40
 1981 00e8 1878     		ldrb	r0, [r3]
 1982 00ea FFF7FEFF 		bl	bcdToDec
 1983              	.LVL204:
 1984 00ee 6070     		strb	r0, [r4, #1]
 1985 00f0 464B     		ldr	r3, .L98+8
 1986 00f2 6360     		str	r3, [r4, #4]
 1987 00f4 0822     		movs	r2, #8
 1988 00f6 2100     		movs	r1, r4
 1989 00f8 12A8     		add	r0, sp, #72
 1990 00fa FFF7FEFF 		bl	memcpy
 1991              	.LVL205:
 590:main.c        ****             updateTime = currTime;
 1992              		.loc 1 590 0
 1993 00fe 0822     		movs	r2, #8
 1994 0100 12A9     		add	r1, sp, #72
 1995 0102 10A8     		add	r0, sp, #64
 1996 0104 FFF7FEFF 		bl	memcpy
 1997              	.LVL206:
 1998              	.LBE9:
 1999 0108 14E0     		b	.L92
 2000              	.L91:
 2001              	.LBB10:
 591:main.c        ****         }
 592:main.c        ****         else{
 593:main.c        ****             volatile struct Time currTime = {bcdToDec(hour[0]),bcdToDec(min[0]),"AM"};
 2002              		.loc 1 593 0
 2003 010a FFF7FEFF 		bl	bcdToDec
 2004              	.LVL207:
 2005 010e 26AC     		add	r4, sp, #152
 2006 0110 2070     		strb	r0, [r4]
 2007 0112 0AAB     		add	r3, sp, #40
 2008 0114 1878     		ldrb	r0, [r3]
 2009 0116 FFF7FEFF 		bl	bcdToDec
ARM GAS  C:\Users\HELLOK~1.1\AppData\Local\Temp\cciBhXYB.s 			page 47


 2010              	.LVL208:
 2011 011a 6070     		strb	r0, [r4, #1]
 2012 011c 3C4B     		ldr	r3, .L98+12
 2013 011e 6360     		str	r3, [r4, #4]
 2014 0120 0822     		movs	r2, #8
 2015 0122 2100     		movs	r1, r4
 2016 0124 14A8     		add	r0, sp, #80
 2017 0126 FFF7FEFF 		bl	memcpy
 2018              	.LVL209:
 594:main.c        ****             updateTime = currTime;
 2019              		.loc 1 594 0
 2020 012a 0822     		movs	r2, #8
 2021 012c 14A9     		add	r1, sp, #80
 2022 012e 10A8     		add	r0, sp, #64
 2023 0130 FFF7FEFF 		bl	memcpy
 2024              	.LVL210:
 2025              	.L92:
 2026              	.LBE10:
 595:main.c        ****         }
 596:main.c        ****         
 597:main.c        ****         struct Date updateDate = {bcdToDec(day[0]),months[bcdToDec(month[0])-1],bcdToDec(year[0])};
 2027              		.loc 1 597 0
 2028 0134 0CAB     		add	r3, sp, #48
 2029 0136 1878     		ldrb	r0, [r3]
 2030 0138 FFF7FEFF 		bl	bcdToDec
 2031              	.LVL211:
 2032 013c 16AC     		add	r4, sp, #88
 2033 013e 2070     		strb	r0, [r4]
 2034 0140 0DAB     		add	r3, sp, #52
 2035 0142 1878     		ldrb	r0, [r3]
 2036 0144 FFF7FEFF 		bl	bcdToDec
 2037              	.LVL212:
 2038 0148 0138     		subs	r0, r0, #1
 2039 014a 2F4D     		ldr	r5, .L98+4
 2040 014c 8000     		lsls	r0, r0, #2
 2041 014e 2818     		adds	r0, r5, r0
 2042 0150 076E     		ldr	r7, [r0, #96]
 2043 0152 6760     		str	r7, [r4, #4]
 2044 0154 0EAB     		add	r3, sp, #56
 2045 0156 1878     		ldrb	r0, [r3]
 2046 0158 FFF7FEFF 		bl	bcdToDec
 2047              	.LVL213:
 2048 015c 2072     		strb	r0, [r4, #8]
 598:main.c        ****         updateCurrTime(updateTime, updateDate);
 2049              		.loc 1 598 0
 2050 015e 10AE     		add	r6, sp, #64
 2051 0160 A368     		ldr	r3, [r4, #8]
 2052 0162 0093     		str	r3, [sp]
 2053 0164 169A     		ldr	r2, [sp, #88]
 2054 0166 3B00     		movs	r3, r7
 2055 0168 1098     		ldr	r0, [sp, #64]
 2056 016a 1199     		ldr	r1, [sp, #68]
 2057 016c FFF7FEFF 		bl	updateCurrTime
 2058              	.LVL214:
 599:main.c        ****         if(updateTime.hour == feedTimes[feedCounter].hour && updateTime.minute == feedTimes[feedCou
 2059              		.loc 1 599 0
 2060 0170 3278     		ldrb	r2, [r6]
ARM GAS  C:\Users\HELLOK~1.1\AppData\Local\Temp\cciBhXYB.s 			page 48


 2061 0172 284B     		ldr	r3, .L98+16
 2062 0174 1C78     		ldrb	r4, [r3]
 2063 0176 E300     		lsls	r3, r4, #3
 2064 0178 EB18     		adds	r3, r5, r3
 2065 017a 1B7C     		ldrb	r3, [r3, #16]
 2066 017c 9A42     		cmp	r2, r3
 2067 017e 2DD1     		bne	.L93
 2068              		.loc 1 599 0 is_stmt 0 discriminator 1
 2069 0180 10AB     		add	r3, sp, #64
 2070 0182 5A78     		ldrb	r2, [r3, #1]
 2071 0184 E300     		lsls	r3, r4, #3
 2072 0186 2049     		ldr	r1, .L98+4
 2073 0188 CB18     		adds	r3, r1, r3
 2074 018a 5B7C     		ldrb	r3, [r3, #17]
 2075 018c 9A42     		cmp	r2, r3
 2076 018e 25D1     		bne	.L93
 2077              		.loc 1 599 0 discriminator 2
 2078 0190 E300     		lsls	r3, r4, #3
 2079 0192 CB18     		adds	r3, r1, r3
 2080 0194 5B69     		ldr	r3, [r3, #20]
 2081 0196 119A     		ldr	r2, [sp, #68]
 2082 0198 9A42     		cmp	r2, r3
 2083 019a 1FD1     		bne	.L93
 600:main.c        ****             if(feedCounter == 2 || strncmp(feedTimes[feedCounter+1].AM,"AM",2) != 0 || strncmp(feed
 2084              		.loc 1 600 0 is_stmt 1
 2085 019c 022C     		cmp	r4, #2
 2086 019e 0AD0     		beq	.L94
 2087              		.loc 1 600 0 is_stmt 0 discriminator 1
 2088 01a0 631C     		adds	r3, r4, #1
 2089 01a2 DB00     		lsls	r3, r3, #3
 2090 01a4 CB18     		adds	r3, r1, r3
 2091 01a6 5869     		ldr	r0, [r3, #20]
 2092 01a8 0222     		movs	r2, #2
 2093 01aa 1949     		ldr	r1, .L98+12
 2094 01ac FFF7FEFF 		bl	strncmp
 2095              	.LVL215:
 2096 01b0 0028     		cmp	r0, #0
 2097 01b2 00D1     		bne	.L94
 2098              		.loc 1 600 0 discriminator 2
 2099 01b4 17D0     		beq	.L95
 2100              	.L94:
 2101              	.LBB11:
 601:main.c        ****                 feedCounter++;
 2102              		.loc 1 601 0 is_stmt 1
 2103 01b6 0134     		adds	r4, r4, #1
 2104 01b8 E1B2     		uxtb	r1, r4
 2105 01ba 164B     		ldr	r3, .L98+16
 2106 01bc 1970     		strb	r1, [r3]
 602:main.c        ****                 updateNextFeed(feedTimes[feedCounter],updateDate);
 2107              		.loc 1 602 0
 2108 01be C900     		lsls	r1, r1, #3
 2109 01c0 114B     		ldr	r3, .L98+4
 2110 01c2 5918     		adds	r1, r3, r1
 2111 01c4 189B     		ldr	r3, [sp, #96]
 2112 01c6 0793     		str	r3, [sp, #28]
 2113 01c8 0093     		str	r3, [sp]
 2114 01ca 169A     		ldr	r2, [sp, #88]
ARM GAS  C:\Users\HELLOK~1.1\AppData\Local\Temp\cciBhXYB.s 			page 49


 2115 01cc 179B     		ldr	r3, [sp, #92]
 2116 01ce 0869     		ldr	r0, [r1, #16]
 2117 01d0 4969     		ldr	r1, [r1, #20]
 2118 01d2 FFF7FEFF 		bl	updateNextFeed
 2119              	.LVL216:
 603:main.c        ****                 FEEEEED();
 604:main.c        ****                 volatile int a = 0;
 2120              		.loc 1 604 0
 2121 01d6 0023     		movs	r3, #0
 2122 01d8 0F93     		str	r3, [sp, #60]
 2123 01da 04E0     		b	.L95
 2124              	.L93:
 2125              	.LBE11:
 605:main.c        ****             }
 606:main.c        ****         }
 607:main.c        ****         else if(feedCounter == 2){
 2126              		.loc 1 607 0
 2127 01dc 022C     		cmp	r4, #2
 2128 01de 02D1     		bne	.L95
 608:main.c        ****             feedCounter = 0;
 2129              		.loc 1 608 0
 2130 01e0 0022     		movs	r2, #0
 2131 01e2 0C4B     		ldr	r3, .L98+16
 2132 01e4 1A70     		strb	r2, [r3]
 2133              	.L95:
 609:main.c        ****         }
 610:main.c        ****         if(buttonFlag == 1){
 2134              		.loc 1 610 0
 2135 01e6 0B4B     		ldr	r3, .L98+16
 2136 01e8 DB78     		ldrb	r3, [r3, #3]
 2137 01ea 012B     		cmp	r3, #1
 2138 01ec 04D1     		bne	.L96
 611:main.c        ****             buttonFlag = 0;
 2139              		.loc 1 611 0
 2140 01ee 0022     		movs	r2, #0
 2141 01f0 084B     		ldr	r3, .L98+16
 2142 01f2 DA70     		strb	r2, [r3, #3]
 612:main.c        ****             startSettings();
 2143              		.loc 1 612 0
 2144 01f4 FFF7FEFF 		bl	startSettings
 2145              	.LVL217:
 2146              	.L96:
 613:main.c        ****         }
 614:main.c        ****         CyDelay(1000);
 2147              		.loc 1 614 0
 2148 01f8 FA20     		movs	r0, #250
 2149 01fa 8000     		lsls	r0, r0, #2
 2150 01fc FFF7FEFF 		bl	CyDelay
 2151              	.LVL218:
 2152              	.LBE8:
 615:main.c        ****         
 616:main.c        ****         //CySysPmDeepSleep();
 617:main.c        ****         /* Place your application code here. */
 618:main.c        ****     }
 2153              		.loc 1 618 0
 2154 0200 43E7     		b	.L97
 2155              	.L99:
ARM GAS  C:\Users\HELLOK~1.1\AppData\Local\Temp\cciBhXYB.s 			page 50


 2156 0202 C046     		.align	2
 2157              	.L98:
 2158 0204 00000000 		.word	.LANCHOR3
 2159 0208 00000000 		.word	.LANCHOR0
 2160 020c 9C000000 		.word	.LC4
 2161 0210 A0000000 		.word	.LC0
 2162 0214 00000000 		.word	.LANCHOR1
 2163              		.cfi_endproc
 2164              	.LFE51:
 2165              		.size	main, .-main
 2166              		.global	encPos
 2167              		.global	encFlag
 2168              		.global	buttonFlag
 2169              		.global	feedCounter
 2170              		.global	RTCAddr
 2171              		.global	LCDAddr
 2172              		.global	commands
 2173              		.global	feedTimes
 2174              		.global	months
 2175              		.global	rtc
 2176              		.section	.rodata
 2177              		.align	2
 2178              		.set	.LANCHOR3,. + 0
 2179              	.LC57:
 2180 0000 0C       		.byte	12
 2181 0001 2D       		.byte	45
 2182 0002 0000     		.space	2
 2183 0004 A0000000 		.word	.LC0
 2184              	.LC59:
 2185 0008 1F       		.byte	31
 2186 0009 000000   		.space	3
 2187 000c 14010000 		.word	.LC2
 2188 0010 17       		.byte	23
 2189 0011 000000   		.space	3
 2190              	.LC60:
 2191 0014 06       		.byte	6
 2192 0015 00       		.byte	0
 2193 0016 0000     		.space	2
 2194 0018 9C000000 		.word	.LC4
 2195              	.LC61:
 2196 001c 01       		.byte	1
 2197 001d 000000   		.space	3
 2198 0020 10010000 		.word	.LC6
 2199 0024 17       		.byte	23
 2200 0025 000000   		.space	3
 2201              		.type	RTCAddr, %object
 2202              		.size	RTCAddr, 4
 2203              	RTCAddr:
 2204 0028 51000000 		.word	81
 2205              		.type	LCDAddr, %object
 2206              		.size	LCDAddr, 4
 2207              	LCDAddr:
 2208 002c 27000000 		.word	39
 2209              		.data
 2210              		.align	2
 2211              		.set	.LANCHOR0,. + 0
 2212              		.set	.LANCHOR2,. + 128
ARM GAS  C:\Users\HELLOK~1.1\AppData\Local\Temp\cciBhXYB.s 			page 51


 2213              		.type	rtc, %object
 2214              		.size	rtc, 16
 2215              	rtc:
 2216 0000 00       		.byte	0
 2217 0001 01       		.byte	1
 2218 0002 02       		.byte	2
 2219 0003 03       		.byte	3
 2220 0004 04       		.byte	4
 2221 0005 05       		.byte	5
 2222 0006 06       		.byte	6
 2223 0007 07       		.byte	7
 2224 0008 08       		.byte	8
 2225 0009 09       		.byte	9
 2226 000a 0A       		.byte	10
 2227 000b 0B       		.byte	11
 2228 000c 0C       		.byte	12
 2229 000d 0D       		.byte	13
 2230 000e 0E       		.byte	14
 2231 000f 0F       		.byte	15
 2232              		.type	feedTimes, %object
 2233              		.size	feedTimes, 80
 2234              	feedTimes:
 2235 0010 04       		.byte	4
 2236 0011 19       		.byte	25
 2237 0012 0000     		.space	2
 2238 0014 9C000000 		.word	.LC4
 2239 0018 04       		.byte	4
 2240 0019 1A       		.byte	26
 2241 001a 0000     		.space	2
 2242 001c 9C000000 		.word	.LC4
 2243 0020 05       		.byte	5
 2244 0021 05       		.byte	5
 2245 0022 0000     		.space	2
 2246 0024 9C000000 		.word	.LC4
 2247 0028 00000000 		.space	56
 2247      00000000 
 2247      00000000 
 2247      00000000 
 2247      00000000 
 2248              		.type	months, %object
 2249              		.size	months, 48
 2250              	months:
 2251 0060 A8010000 		.word	.LC72
 2252 0064 AC010000 		.word	.LC73
 2253 0068 14010000 		.word	.LC2
 2254 006c 10010000 		.word	.LC6
 2255 0070 B0010000 		.word	.LC74
 2256 0074 B4010000 		.word	.LC75
 2257 0078 B8010000 		.word	.LC76
 2258 007c BC010000 		.word	.LC77
 2259 0080 C0010000 		.word	.LC78
 2260 0084 C4010000 		.word	.LC79
 2261 0088 C8010000 		.word	.LC80
 2262 008c CC010000 		.word	.LC81
 2263              		.type	commands, %object
 2264              		.size	commands, 24
 2265              	commands:
ARM GAS  C:\Users\HELLOK~1.1\AppData\Local\Temp\cciBhXYB.s 			page 52


 2266 0090 18010000 		.word	.LC66
 2267 0094 30010000 		.word	.LC67
 2268 0098 48010000 		.word	.LC68
 2269 009c 60010000 		.word	.LC69
 2270 00a0 78010000 		.word	.LC70
 2271 00a4 90010000 		.word	.LC71
 2272              		.section	.rodata.str1.4,"aMS",%progbits,1
 2273              		.align	2
 2274              	.LC9:
 2275 0000 25643A25 		.ascii	"%d:%.2d%s %s %d, 20%d \000"
 2275      2E326425 
 2275      73202573 
 2275      2025642C 
 2275      20323025 
 2276 0017 00       		.space	1
 2277              	.LC11:
 2278 0018 2D2D2D2D 		.ascii	"--------------------\000"
 2278      2D2D2D2D 
 2278      2D2D2D2D 
 2278      2D2D2D2D 
 2278      2D2D2D2D 
 2279 002d 000000   		.space	3
 2280              	.LC13:
 2281 0030 54696D65 		.ascii	"Time of Next Feed:\000"
 2281      206F6620 
 2281      4E657874 
 2281      20466565 
 2281      643A00
 2282 0043 00       		.space	1
 2283              	.LC21:
 2284 0044 54696D65 		.ascii	"Time of Next Feed:  \000"
 2284      206F6620 
 2284      4E657874 
 2284      20466565 
 2284      643A2020 
 2285 0059 000000   		.space	3
 2286              	.LC24:
 2287 005c 53657420 		.ascii	"Set Month\000"
 2287      4D6F6E74 
 2287      6800
 2288 0066 0000     		.space	2
 2289              	.LC27:
 2290 0068 25732025 		.ascii	"%s %d, 20%d\000"
 2290      642C2032 
 2290      30256400 
 2291              	.LC30:
 2292 0074 53657420 		.ascii	"Set Day  \000"
 2292      44617920 
 2292      2000
 2293 007e 0000     		.space	2
 2294              	.LC32:
 2295 0080 25303264 		.ascii	"%02d\000"
 2295      00
 2296 0085 000000   		.space	3
 2297              	.LC34:
 2298 0088 53657420 		.ascii	"Set Year\000"
 2298      59656172 
ARM GAS  C:\Users\HELLOK~1.1\AppData\Local\Temp\cciBhXYB.s 			page 53


 2298      00
 2299 0091 000000   		.space	3
 2300              	.LC36:
 2301 0094 32302530 		.ascii	"20%02d\000"
 2301      326400
 2302 009b 00       		.space	1
 2303              	.LC4:
 2304 009c 504D00   		.ascii	"PM\000"
 2305 009f 00       		.space	1
 2306              	.LC0:
 2307 00a0 414D00   		.ascii	"AM\000"
 2308 00a3 00       		.space	1
 2309              	.LC40:
 2310 00a4 53657420 		.ascii	"Set Hour\000"
 2310      486F7572 
 2310      00
 2311 00ad 000000   		.space	3
 2312              	.LC42:
 2313 00b0 25643A25 		.ascii	"%d:%.2d%s        \000"
 2313      2E326425 
 2313      73202020 
 2313      20202020 
 2313      2000
 2314 00c2 0000     		.space	2
 2315              	.LC44:
 2316 00c4 53657420 		.ascii	"Set Minute\000"
 2316      4D696E75 
 2316      746500
 2317 00cf 00       		.space	1
 2318              	.LC46:
 2319 00d0 53657420 		.ascii	"Set AM/PM    \000"
 2319      414D2F50 
 2319      4D202020 
 2319      2000
 2320 00de 0000     		.space	2
 2321              	.LC48:
 2322 00e0 42757474 		.ascii	"Button = Select\000"
 2322      6F6E203D 
 2322      2053656C 
 2322      65637400 
 2323              	.LC50:
 2324 00f0 4B6E6F62 		.ascii	"Knob = Choice\000"
 2324      203D2043 
 2324      686F6963 
 2324      6500
 2325 00fe 0000     		.space	2
 2326              	.LC53:
 2327 0100 53657420 		.ascii	"Set Global Time\000"
 2327      476C6F62 
 2327      616C2054 
 2327      696D6500 
 2328              	.LC6:
 2329 0110 41707200 		.ascii	"Apr\000"
 2330              	.LC2:
 2331 0114 4D617200 		.ascii	"Mar\000"
 2332              	.LC66:
 2333 0118 53657420 		.ascii	"Set Global Time     \000"
ARM GAS  C:\Users\HELLOK~1.1\AppData\Local\Temp\cciBhXYB.s 			page 54


 2333      476C6F62 
 2333      616C2054 
 2333      696D6520 
 2333      20202020 
 2334 012d 000000   		.space	3
 2335              	.LC67:
 2336 0130 4368616E 		.ascii	"Change Feed Times   \000"
 2336      67652046 
 2336      65656420 
 2336      54696D65 
 2336      73202020 
 2337 0145 000000   		.space	3
 2338              	.LC68:
 2339 0148 4368616E 		.ascii	"Change Feed Amount  \000"
 2339      67652046 
 2339      65656420 
 2339      416D6F75 
 2339      6E742020 
 2340 015d 000000   		.space	3
 2341              	.LC69:
 2342 0160 5475726E 		.ascii	"Turn on/off LED's   \000"
 2342      206F6E2F 
 2342      6F666620 
 2342      4C454427 
 2342      73202020 
 2343 0175 000000   		.space	3
 2344              	.LC70:
 2345 0178 5475726E 		.ascii	"Turn on/off Speakers\000"
 2345      206F6E2F 
 2345      6F666620 
 2345      53706561 
 2345      6B657273 
 2346 018d 000000   		.space	3
 2347              	.LC71:
 2348 0190 45786974 		.ascii	"Exit                \000"
 2348      20202020 
 2348      20202020 
 2348      20202020 
 2348      20202020 
 2349 01a5 000000   		.space	3
 2350              	.LC72:
 2351 01a8 4A616E00 		.ascii	"Jan\000"
 2352              	.LC73:
 2353 01ac 46656200 		.ascii	"Feb\000"
 2354              	.LC74:
 2355 01b0 4D617900 		.ascii	"May\000"
 2356              	.LC75:
 2357 01b4 4A756E00 		.ascii	"Jun\000"
 2358              	.LC76:
 2359 01b8 4A756C00 		.ascii	"Jul\000"
 2360              	.LC77:
 2361 01bc 41756700 		.ascii	"Aug\000"
 2362              	.LC78:
 2363 01c0 53657000 		.ascii	"Sep\000"
 2364              	.LC79:
 2365 01c4 4F637400 		.ascii	"Oct\000"
 2366              	.LC80:
ARM GAS  C:\Users\HELLOK~1.1\AppData\Local\Temp\cciBhXYB.s 			page 55


 2367 01c8 4E6F7600 		.ascii	"Nov\000"
 2368              	.LC81:
 2369 01cc 44656300 		.ascii	"Dec\000"
 2370              		.bss
 2371              		.set	.LANCHOR1,. + 0
 2372              		.type	feedCounter, %object
 2373              		.size	feedCounter, 1
 2374              	feedCounter:
 2375 0000 00       		.space	1
 2376              		.type	encFlag, %object
 2377              		.size	encFlag, 1
 2378              	encFlag:
 2379 0001 00       		.space	1
 2380              		.type	encPos, %object
 2381              		.size	encPos, 1
 2382              	encPos:
 2383 0002 00       		.space	1
 2384              		.type	buttonFlag, %object
 2385              		.size	buttonFlag, 1
 2386              	buttonFlag:
 2387 0003 00       		.space	1
 2388              		.text
 2389              	.Letext0:
 2390              		.file 2 "Generated_Source\\PSoC4/cytypes.h"
 2391              		.file 3 "Generated_Source\\PSoC4/I2C_I2C.h"
 2392              		.file 4 "LiquidCrystal_I2C.h"
 2393              		.file 5 "c:\\program files (x86)\\cypress\\psoc creator\\4.4\\psoc creator\\import\\gnu\\arm\\5.4.
 2394              		.file 6 "Generated_Source\\PSoC4/CyLib.h"
 2395              		.file 7 "c:\\program files (x86)\\cypress\\psoc creator\\4.4\\psoc creator\\import\\gnu\\arm\\5.4.
 2396              		.file 8 "Generated_Source\\PSoC4/BTN_ISR.h"
 2397              		.file 9 "Generated_Source\\PSoC4/ENC_ISR.h"
 2398              		.file 10 "Generated_Source\\PSoC4/I2C.h"