ARM GAS  C:\Users\HELLOK~1.1\AppData\Local\Temp\cc5k7xEp.s 			page 1


   1              		.syntax unified
   2              		.cpu cortex-m0
   3              		.fpu softvfp
   4              		.eabi_attribute 20, 1
   5              		.eabi_attribute 21, 1
   6              		.eabi_attribute 23, 3
   7              		.eabi_attribute 24, 1
   8              		.eabi_attribute 25, 1
   9              		.eabi_attribute 26, 1
  10              		.eabi_attribute 30, 1
  11              		.eabi_attribute 34, 0
  12              		.eabi_attribute 18, 4
  13              		.thumb
  14              		.syntax unified
  15              		.file	"main.c"
  16              		.text
  17              	.Ltext0:
  18              		.cfi_sections	.debug_frame
  19              		.section	.text.MVCW,"ax",%progbits
  20              		.align	2
  21              		.global	MVCW
  22              		.code	16
  23              		.thumb_func
  24              		.type	MVCW, %function
  25              	MVCW:
  26              	.LFB35:
  27              		.file 1 "main.c"
   1:main.c        **** /* ========================================
   2:main.c        ****  *
   3:main.c        ****  * Copyright YOUR COMPANY, THE YEAR
   4:main.c        ****  * All Rights Reserved
   5:main.c        ****  * UNPUBLISHED, LICENSED SOFTWARE.
   6:main.c        ****  *
   7:main.c        ****  * CONFIDENTIAL AND PROPRIETARY INFORMATION
   8:main.c        ****  * WHICH IS THE PROPERTY OF your company.
   9:main.c        ****  *
  10:main.c        ****  * ========================================
  11:main.c        **** */
  12:main.c        **** #include "project.h"
  13:main.c        **** #include <stdio.h>
  14:main.c        **** #include "LiquidCrystal_I2C.h"
  15:main.c        **** 
  16:main.c        **** struct MTR{
  17:main.c        ****     unsigned int position : 4;
  18:main.c        **** };
  19:main.c        **** struct MTR motor = {1};
  20:main.c        **** int motorDelay = 5000;
  21:main.c        **** uint32 feedSteps = 500;
  22:main.c        **** 
  23:main.c        **** // Function for moving clockwise
  24:main.c        **** int MVCW(struct MTR motor){
  28              		.loc 1 24 0
  29              		.cfi_startproc
  30              		@ args = 0, pretend = 0, frame = 0
  31              		@ frame_needed = 0, uses_anonymous_args = 0
  32              	.LVL0:
  33 0000 10B5     		push	{r4, lr}
ARM GAS  C:\Users\HELLOK~1.1\AppData\Local\Temp\cc5k7xEp.s 			page 2


  34              		.cfi_def_cfa_offset 8
  35              		.cfi_offset 4, -8
  36              		.cfi_offset 14, -4
  25:main.c        ****     // If motor is at edge, reset, if not, decrement
  26:main.c        ****     if(motor.position <= 1){
  37              		.loc 1 26 0
  38 0002 0307     		lsls	r3, r0, #28
  39 0004 1B0F     		lsrs	r3, r3, #28
  40 0006 012B     		cmp	r3, #1
  41 0008 04DC     		bgt	.L2
  27:main.c        ****         motor.position = 4;
  42              		.loc 1 27 0
  43 000a 0F23     		movs	r3, #15
  44 000c 9843     		bics	r0, r3
  45              	.LVL1:
  46 000e 0B3B     		subs	r3, r3, #11
  47 0010 1843     		orrs	r0, r3
  48 0012 04E0     		b	.L3
  49              	.LVL2:
  50              	.L2:
  28:main.c        ****     }
  29:main.c        ****     else{
  30:main.c        ****         motor.position -= 1;
  51              		.loc 1 30 0
  52 0014 013B     		subs	r3, r3, #1
  53 0016 0F22     		movs	r2, #15
  54 0018 1340     		ands	r3, r2
  55 001a 9043     		bics	r0, r2
  56              	.LVL3:
  57 001c 1843     		orrs	r0, r3
  58              	.L3:
  59              	.LVL4:
  31:main.c        ****     }
  32:main.c        ****     // Write correct motor position
  33:main.c        ****     switch(motor.position){
  60              		.loc 1 33 0
  61 001e 0007     		lsls	r0, r0, #28
  62              	.LVL5:
  63 0020 040F     		lsrs	r4, r0, #28
  64 0022 022C     		cmp	r4, #2
  65 0024 0FD0     		beq	.L5
  66 0026 02D8     		bhi	.L6
  67 0028 012C     		cmp	r4, #1
  68 002a 10D0     		beq	.L7
  69 002c 12E0     		b	.L4
  70              	.L6:
  71 002e 032C     		cmp	r4, #3
  72 0030 05D0     		beq	.L8
  73 0032 042C     		cmp	r4, #4
  74 0034 0ED1     		bne	.L4
  34:main.c        ****         case 4:
  35:main.c        ****             // 1100 -> 1001
  36:main.c        ****             Motor_Write(0x9);
  75              		.loc 1 36 0
  76 0036 0920     		movs	r0, #9
  77 0038 FFF7FEFF 		bl	Motor_Write
  78              	.LVL6:
ARM GAS  C:\Users\HELLOK~1.1\AppData\Local\Temp\cc5k7xEp.s 			page 3


  37:main.c        ****             break;
  79              		.loc 1 37 0
  80 003c 0AE0     		b	.L4
  81              	.L8:
  38:main.c        ****         case 3:
  39:main.c        ****             // 1001 -> 0011
  40:main.c        ****             Motor_Write(0x3);
  82              		.loc 1 40 0
  83 003e 0320     		movs	r0, #3
  84 0040 FFF7FEFF 		bl	Motor_Write
  85              	.LVL7:
  41:main.c        ****             break;
  86              		.loc 1 41 0
  87 0044 06E0     		b	.L4
  88              	.L5:
  42:main.c        ****         case 2:
  43:main.c        ****             // 0011 -> 0110
  44:main.c        ****             Motor_Write(0x6);
  89              		.loc 1 44 0
  90 0046 0620     		movs	r0, #6
  91 0048 FFF7FEFF 		bl	Motor_Write
  92              	.LVL8:
  45:main.c        ****             break;
  93              		.loc 1 45 0
  94 004c 02E0     		b	.L4
  95              	.L7:
  46:main.c        ****         case 1:
  47:main.c        ****             // 0110 -> 1100
  48:main.c        ****             Motor_Write(0xC);
  96              		.loc 1 48 0
  97 004e 0C20     		movs	r0, #12
  98 0050 FFF7FEFF 		bl	Motor_Write
  99              	.LVL9:
 100              	.L4:
  49:main.c        ****             break;
  50:main.c        ****     }
  51:main.c        ****     // Delay
  52:main.c        ****     CyDelayUs(motorDelay);
 101              		.loc 1 52 0
 102 0054 024B     		ldr	r3, .L10
 103 0056 1888     		ldrh	r0, [r3]
 104 0058 FFF7FEFF 		bl	CyDelayUs
 105              	.LVL10:
  53:main.c        ****     // Ground so motor doesn't get hot
  54:main.c        ****     //Motor_Write(0b0000);
  55:main.c        ****     // Return motor position
  56:main.c        ****     return motor.position;
  57:main.c        **** }
 106              		.loc 1 57 0
 107 005c 2000     		movs	r0, r4
 108              		@ sp needed
 109 005e 10BD     		pop	{r4, pc}
 110              	.L11:
 111              		.align	2
 112              	.L10:
 113 0060 00000000 		.word	.LANCHOR0
 114              		.cfi_endproc
ARM GAS  C:\Users\HELLOK~1.1\AppData\Local\Temp\cc5k7xEp.s 			page 4


 115              	.LFE35:
 116              		.size	MVCW, .-MVCW
 117              		.section	.text.bcdToDec,"ax",%progbits
 118              		.align	2
 119              		.global	bcdToDec
 120              		.code	16
 121              		.thumb_func
 122              		.type	bcdToDec, %function
 123              	bcdToDec:
 124              	.LFB36:
  58:main.c        **** 
  59:main.c        **** struct Time{
  60:main.c        ****     uint8 hour;
  61:main.c        ****     uint8 minute;
  62:main.c        ****     uint8* AM;
  63:main.c        **** };
  64:main.c        **** 
  65:main.c        **** struct Date{
  66:main.c        ****     uint8 day;
  67:main.c        ****     char* month;
  68:main.c        ****     uint8 year;
  69:main.c        **** };
  70:main.c        **** struct RTC{
  71:main.c        ****     uint8 CtrlStat1;
  72:main.c        ****     uint8 CtrlStat2;
  73:main.c        ****     uint8 VL_Sec;
  74:main.c        ****     uint8 Minutes;
  75:main.c        ****     uint8 Hours;
  76:main.c        ****     uint8 Days;
  77:main.c        ****     uint8 Weekdays;
  78:main.c        ****     uint8 Century_Months;
  79:main.c        ****     uint8 Years;
  80:main.c        ****     uint8 MinuteAlarm;
  81:main.c        ****     uint8 HourAlarm;
  82:main.c        ****     uint8 DayAlarm;
  83:main.c        ****     uint8 WeekdayAlarm;
  84:main.c        ****     uint8 CLKOUTControl;
  85:main.c        ****     uint8 TimerControl;
  86:main.c        ****     uint8 Timer;
  87:main.c        **** };
  88:main.c        **** 
  89:main.c        **** struct RTC rtc = {
  90:main.c        ****     0x00, //CtrlStat1
  91:main.c        ****     0x01, //CtrlStat2
  92:main.c        ****     0x02, //VL_Sec
  93:main.c        ****     0x03, //Minutes
  94:main.c        ****     0x04, //Hours
  95:main.c        ****     0x05, //Days
  96:main.c        ****     0x06, //Weekdays
  97:main.c        ****     0x07, //Century_Months
  98:main.c        ****     0x08, //Years
  99:main.c        ****     0x09, //MinuteAlarm
 100:main.c        ****     0x0A, //HourAlarm
 101:main.c        ****     0x0B, //DayAlarm
 102:main.c        ****     0x0C, //WeekdayAlarm
 103:main.c        ****     0x0D, //CLKOUTControl
 104:main.c        ****     0x0E, //TimerControl
ARM GAS  C:\Users\HELLOK~1.1\AppData\Local\Temp\cc5k7xEp.s 			page 5


 105:main.c        ****     0x0F //Timer
 106:main.c        **** };
 107:main.c        **** 
 108:main.c        **** const char* months[12] = {
 109:main.c        ****     "Jan",
 110:main.c        ****     "Feb",
 111:main.c        ****     "Mar",
 112:main.c        ****     "Apr",
 113:main.c        ****     "May",
 114:main.c        ****     "Jun",
 115:main.c        ****     "Jul",
 116:main.c        ****     "Aug",
 117:main.c        ****     "Sep",
 118:main.c        ****     "Oct",
 119:main.c        ****     "Nov",
 120:main.c        ****     "Dec"
 121:main.c        **** };
 122:main.c        **** 
 123:main.c        **** struct Time feedTimes[10] = {
 124:main.c        ****     {4,25,"PM"},
 125:main.c        ****     {4,26,"PM"},
 126:main.c        ****     {5,5,"PM"}
 127:main.c        **** };
 128:main.c        **** struct FRAM{
 129:main.c        ****     uint32 feedCounter;
 130:main.c        ****     uint32 speakerToggle;
 131:main.c        ****     uint32 LEDToggle;
 132:main.c        ****     uint32 timesToFeed;
 133:main.c        ****     
 134:main.c        ****     uint32 feedStepsP1;
 135:main.c        ****     uint32 feedStepsP2;
 136:main.c        ****     uint32 feedStepsP3;
 137:main.c        ****     uint32 feedStepsP4;
 138:main.c        ****     
 139:main.c        ****     uint32 feedTime1;
 140:main.c        ****     uint32 feedTime2;
 141:main.c        ****     uint32 feedTime3;
 142:main.c        ****     uint32 feedTime4;
 143:main.c        ****     uint32 feedTime5;
 144:main.c        ****     uint32 feedTime6;
 145:main.c        ****     uint32 feedTime7;
 146:main.c        ****     uint32 feedTime8;
 147:main.c        ****     uint32 feedTime9;
 148:main.c        ****     uint32 feedTime10;
 149:main.c        **** };
 150:main.c        **** 
 151:main.c        **** const struct FRAM ram = {
 152:main.c        ****     0x00,
 153:main.c        ****     0x02,
 154:main.c        ****     0x04,
 155:main.c        ****     0x06,
 156:main.c        ****     
 157:main.c        ****     0x08,
 158:main.c        ****     0x0A,
 159:main.c        ****     0x0C,
 160:main.c        ****     0x0E,
 161:main.c        ****     
ARM GAS  C:\Users\HELLOK~1.1\AppData\Local\Temp\cc5k7xEp.s 			page 6


 162:main.c        ****     
 163:main.c        **** };
 164:main.c        **** 
 165:main.c        **** char* commands[6] = {
 166:main.c        ****     "Set Global Time     ",
 167:main.c        ****     "Change Feed Times   ",
 168:main.c        ****     "Change Feed Amount  ",
 169:main.c        ****     "Turn on/off LED's   ",
 170:main.c        ****     "Turn on/off Speakers",
 171:main.c        ****     "Exit                "
 172:main.c        **** };
 173:main.c        **** // Feed times
 174:main.c        ****     // Amount of food
 175:main.c        ****     // LED's
 176:main.c        ****     // Speakers
 177:main.c        ****     // Exit
 178:main.c        **** 
 179:main.c        **** const uint32 LCDAddr = 0x27;
 180:main.c        **** const uint32 RTCAddr = 0x51;
 181:main.c        **** const uint32 ramAddr = 0x52;
 182:main.c        **** 
 183:main.c        **** uint8 feedCounter = 0;
 184:main.c        **** uint8 speakerToggle = 1;
 185:main.c        **** uint8 LEDToggle = 1;
 186:main.c        **** 
 187:main.c        **** volatile uint8 buttonFlag = 0;
 188:main.c        **** volatile uint8 encFlag = 0;
 189:main.c        **** volatile uint8 encPos = 0;
 190:main.c        **** 
 191:main.c        **** uint8 timesToFeed = 0;
 192:main.c        **** /*
 193:main.c        **** This function simply reads from any I2C device.
 194:main.c        **** readBuf will be the size of readBytes and any read data will be stored here..
 195:main.c        **** readBytes is the number of bytes that the I2C is reading.
 196:main.c        **** devAddr is the I2C address that the microcontroller is talking to.
 197:main.c        **** memAddr is the memory or register address that is inside the I2C device.
 198:main.c        **** */
 199:main.c        **** uint8 bcdToDec(uint8 value)
 200:main.c        **** {
 125              		.loc 1 200 0
 126              		.cfi_startproc
 127              		@ args = 0, pretend = 0, frame = 0
 128              		@ frame_needed = 0, uses_anonymous_args = 0
 129              		@ link register save eliminated.
 130              	.LVL11:
 201:main.c        ****   return (uint8)((value / 16) * 10 + value % 16);
 131              		.loc 1 201 0
 132 0000 0209     		lsrs	r2, r0, #4
 133 0002 9300     		lsls	r3, r2, #2
 134 0004 D318     		adds	r3, r2, r3
 135 0006 5A00     		lsls	r2, r3, #1
 136 0008 0F23     		movs	r3, #15
 137 000a 1840     		ands	r0, r3
 138              	.LVL12:
 139 000c 1018     		adds	r0, r2, r0
 140 000e C0B2     		uxtb	r0, r0
 202:main.c        **** }
ARM GAS  C:\Users\HELLOK~1.1\AppData\Local\Temp\cc5k7xEp.s 			page 7


 141              		.loc 1 202 0
 142              		@ sp needed
 143 0010 7047     		bx	lr
 144              		.cfi_endproc
 145              	.LFE36:
 146              		.size	bcdToDec, .-bcdToDec
 147              		.global	__aeabi_uidiv
 148              		.global	__aeabi_uidivmod
 149 0012 C046     		.section	.text.decToBcd,"ax",%progbits
 150              		.align	2
 151              		.global	decToBcd
 152              		.code	16
 153              		.thumb_func
 154              		.type	decToBcd, %function
 155              	decToBcd:
 156              	.LFB37:
 203:main.c        **** 
 204:main.c        **** uint8 decToBcd(uint8 value){
 157              		.loc 1 204 0
 158              		.cfi_startproc
 159              		@ args = 0, pretend = 0, frame = 0
 160              		@ frame_needed = 0, uses_anonymous_args = 0
 161              	.LVL13:
 162 0000 70B5     		push	{r4, r5, r6, lr}
 163              		.cfi_def_cfa_offset 16
 164              		.cfi_offset 4, -16
 165              		.cfi_offset 5, -12
 166              		.cfi_offset 6, -8
 167              		.cfi_offset 14, -4
 168 0002 0500     		movs	r5, r0
 205:main.c        ****   return (value / 10 * 16 + value % 10);
 169              		.loc 1 205 0
 170 0004 0A21     		movs	r1, #10
 171 0006 FFF7FEFF 		bl	__aeabi_uidiv
 172              	.LVL14:
 173 000a 0401     		lsls	r4, r0, #4
 174 000c 0A21     		movs	r1, #10
 175 000e 2800     		movs	r0, r5
 176 0010 FFF7FEFF 		bl	__aeabi_uidivmod
 177              	.LVL15:
 178 0014 6118     		adds	r1, r4, r1
 179 0016 C8B2     		uxtb	r0, r1
 206:main.c        **** }
 180              		.loc 1 206 0
 181              		@ sp needed
 182 0018 70BD     		pop	{r4, r5, r6, pc}
 183              		.cfi_endproc
 184              	.LFE37:
 185              		.size	decToBcd, .-decToBcd
 186 001a C046     		.section	.text.readFromRam,"ax",%progbits
 187              		.align	2
 188              		.global	readFromRam
 189              		.code	16
 190              		.thumb_func
 191              		.type	readFromRam, %function
 192              	readFromRam:
 193              	.LFB38:
ARM GAS  C:\Users\HELLOK~1.1\AppData\Local\Temp\cc5k7xEp.s 			page 8


 207:main.c        **** 
 208:main.c        **** void readFromRam(uint8* readBuf, int readBytes, uint32 devAddr, uint32 memAddr1, uint32 memAddr2){
 194              		.loc 1 208 0
 195              		.cfi_startproc
 196              		@ args = 4, pretend = 0, frame = 8
 197              		@ frame_needed = 0, uses_anonymous_args = 0
 198              	.LVL16:
 199 0000 70B5     		push	{r4, r5, r6, lr}
 200              		.cfi_def_cfa_offset 16
 201              		.cfi_offset 4, -16
 202              		.cfi_offset 5, -12
 203              		.cfi_offset 6, -8
 204              		.cfi_offset 14, -4
 205 0002 82B0     		sub	sp, sp, #8
 206              		.cfi_def_cfa_offset 24
 207 0004 0500     		movs	r5, r0
 208 0006 0E00     		movs	r6, r1
 209 0008 1400     		movs	r4, r2
 209:main.c        ****     uint8 wrBuf[2];
 210:main.c        ****     wrBuf[0] = memAddr1;
 210              		.loc 1 210 0
 211 000a 01A9     		add	r1, sp, #4
 212              	.LVL17:
 213 000c 0B70     		strb	r3, [r1]
 211:main.c        ****     wrBuf[1] = memAddr2;
 214              		.loc 1 211 0
 215 000e 069B     		ldr	r3, [sp, #24]
 216              	.LVL18:
 217 0010 4B70     		strb	r3, [r1, #1]
 212:main.c        ****     I2C_I2CMasterWriteBuf(devAddr, wrBuf, 2, I2C_I2C_MODE_NO_STOP);
 218              		.loc 1 212 0
 219 0012 0223     		movs	r3, #2
 220 0014 0222     		movs	r2, #2
 221              	.LVL19:
 222 0016 2000     		movs	r0, r4
 223              	.LVL20:
 224 0018 FFF7FEFF 		bl	I2C_I2CMasterWriteBuf
 225              	.LVL21:
 226              	.L15:
 213:main.c        ****     while(!(I2C_I2CMasterStatus() & I2C_I2C_MSTAT_WR_CMPLT));
 227              		.loc 1 213 0 discriminator 1
 228 001c FFF7FEFF 		bl	I2C_I2CMasterStatus
 229              	.LVL22:
 230 0020 8307     		lsls	r3, r0, #30
 231 0022 FBD5     		bpl	.L15
 214:main.c        ****     I2C_I2CMasterClearStatus();
 232              		.loc 1 214 0
 233 0024 FFF7FEFF 		bl	I2C_I2CMasterClearStatus
 234              	.LVL23:
 215:main.c        ****     
 216:main.c        ****     I2C_I2CMasterReadBuf(devAddr, readBuf, readBytes, I2C_I2C_MODE_REPEAT_START);
 235              		.loc 1 216 0
 236 0028 0123     		movs	r3, #1
 237 002a 3200     		movs	r2, r6
 238 002c 2900     		movs	r1, r5
 239 002e 2000     		movs	r0, r4
 240 0030 FFF7FEFF 		bl	I2C_I2CMasterReadBuf
ARM GAS  C:\Users\HELLOK~1.1\AppData\Local\Temp\cc5k7xEp.s 			page 9


 241              	.LVL24:
 242              	.L16:
 217:main.c        ****     while(!(I2C_I2CMasterStatus() & I2C_I2C_MSTAT_RD_CMPLT));
 243              		.loc 1 217 0 discriminator 1
 244 0034 FFF7FEFF 		bl	I2C_I2CMasterStatus
 245              	.LVL25:
 246 0038 C307     		lsls	r3, r0, #31
 247 003a FBD5     		bpl	.L16
 218:main.c        ****     I2C_I2CMasterClearStatus();
 248              		.loc 1 218 0
 249 003c FFF7FEFF 		bl	I2C_I2CMasterClearStatus
 250              	.LVL26:
 219:main.c        ****     
 220:main.c        **** }
 251              		.loc 1 220 0
 252 0040 02B0     		add	sp, sp, #8
 253              		@ sp needed
 254              	.LVL27:
 255              	.LVL28:
 256              	.LVL29:
 257 0042 70BD     		pop	{r4, r5, r6, pc}
 258              		.cfi_endproc
 259              	.LFE38:
 260              		.size	readFromRam, .-readFromRam
 261              		.section	.text.writeToRam,"ax",%progbits
 262              		.align	2
 263              		.global	writeToRam
 264              		.code	16
 265              		.thumb_func
 266              		.type	writeToRam, %function
 267              	writeToRam:
 268              	.LFB39:
 221:main.c        **** void writeToRam(uint8* writeBuf, int writeBytes, uint32 devAddr, uint32 memAddr1, uint32 memAddr2){
 269              		.loc 1 221 0
 270              		.cfi_startproc
 271              		@ args = 4, pretend = 0, frame = 0
 272              		@ frame_needed = 0, uses_anonymous_args = 0
 273              	.LVL30:
 274 0000 10B5     		push	{r4, lr}
 275              		.cfi_def_cfa_offset 8
 276              		.cfi_offset 4, -8
 277              		.cfi_offset 14, -4
 278 0002 1400     		movs	r4, r2
 222:main.c        ****     writeBuf[0] = memAddr1;
 279              		.loc 1 222 0
 280 0004 0370     		strb	r3, [r0]
 223:main.c        ****     writeBuf[1] = memAddr2;
 281              		.loc 1 223 0
 282 0006 029B     		ldr	r3, [sp, #8]
 283              	.LVL31:
 284 0008 4370     		strb	r3, [r0, #1]
 224:main.c        ****     I2C_I2CMasterWriteBuf(devAddr, writeBuf, writeBytes, I2C_I2C_MODE_COMPLETE_XFER);
 285              		.loc 1 224 0
 286 000a 0023     		movs	r3, #0
 287 000c 0A00     		movs	r2, r1
 288              	.LVL32:
 289 000e 0100     		movs	r1, r0
ARM GAS  C:\Users\HELLOK~1.1\AppData\Local\Temp\cc5k7xEp.s 			page 10


 290              	.LVL33:
 291 0010 2000     		movs	r0, r4
 292              	.LVL34:
 293 0012 FFF7FEFF 		bl	I2C_I2CMasterWriteBuf
 294              	.LVL35:
 295              	.L18:
 225:main.c        ****     while(!(I2C_I2CMasterStatus() & I2C_I2C_MSTAT_WR_CMPLT));
 296              		.loc 1 225 0 discriminator 1
 297 0016 FFF7FEFF 		bl	I2C_I2CMasterStatus
 298              	.LVL36:
 299 001a 8307     		lsls	r3, r0, #30
 300 001c FBD5     		bpl	.L18
 226:main.c        ****     I2C_I2CMasterClearStatus();
 301              		.loc 1 226 0
 302 001e FFF7FEFF 		bl	I2C_I2CMasterClearStatus
 303              	.LVL37:
 227:main.c        **** }
 304              		.loc 1 227 0
 305              		@ sp needed
 306              	.LVL38:
 307 0022 10BD     		pop	{r4, pc}
 308              		.cfi_endproc
 309              	.LFE39:
 310              		.size	writeToRam, .-writeToRam
 311              		.section	.text.saveToFRAM,"ax",%progbits
 312              		.align	2
 313              		.global	saveToFRAM
 314              		.code	16
 315              		.thumb_func
 316              		.type	saveToFRAM, %function
 317              	saveToFRAM:
 318              	.LFB40:
 228:main.c        **** 
 229:main.c        **** void saveToFRAM(){
 319              		.loc 1 229 0
 320              		.cfi_startproc
 321              		@ args = 0, pretend = 0, frame = 0
 322              		@ frame_needed = 0, uses_anonymous_args = 0
 323              		@ link register save eliminated.
 230:main.c        ****     
 231:main.c        **** }
 324              		.loc 1 231 0
 325              		@ sp needed
 326 0000 7047     		bx	lr
 327              		.cfi_endproc
 328              	.LFE40:
 329              		.size	saveToFRAM, .-saveToFRAM
 330 0002 C046     		.section	.text.readFromAddr,"ax",%progbits
 331              		.align	2
 332              		.global	readFromAddr
 333              		.code	16
 334              		.thumb_func
 335              		.type	readFromAddr, %function
 336              	readFromAddr:
 337              	.LFB41:
 232:main.c        **** 
 233:main.c        **** void readFromAddr(uint8* readBuf, int readBytes, uint32 devAddr, uint32 memAddr){
ARM GAS  C:\Users\HELLOK~1.1\AppData\Local\Temp\cc5k7xEp.s 			page 11


 338              		.loc 1 233 0
 339              		.cfi_startproc
 340              		@ args = 0, pretend = 0, frame = 8
 341              		@ frame_needed = 0, uses_anonymous_args = 0
 342              	.LVL39:
 343 0000 70B5     		push	{r4, r5, r6, lr}
 344              		.cfi_def_cfa_offset 16
 345              		.cfi_offset 4, -16
 346              		.cfi_offset 5, -12
 347              		.cfi_offset 6, -8
 348              		.cfi_offset 14, -4
 349 0002 82B0     		sub	sp, sp, #8
 350              		.cfi_def_cfa_offset 24
 351 0004 0500     		movs	r5, r0
 352 0006 0E00     		movs	r6, r1
 353 0008 1400     		movs	r4, r2
 234:main.c        ****     // First write the memory address to the I2C bus.
 235:main.c        ****     uint8 wrBuf[1];
 236:main.c        ****     wrBuf[0] = memAddr;
 354              		.loc 1 236 0
 355 000a 01A9     		add	r1, sp, #4
 356              	.LVL40:
 357 000c 0B70     		strb	r3, [r1]
 237:main.c        ****     I2C_I2CMasterWriteBuf(devAddr, wrBuf, 1, I2C_I2C_MODE_NO_STOP);
 358              		.loc 1 237 0
 359 000e 0223     		movs	r3, #2
 360              	.LVL41:
 361 0010 0122     		movs	r2, #1
 362              	.LVL42:
 363 0012 2000     		movs	r0, r4
 364              	.LVL43:
 365 0014 FFF7FEFF 		bl	I2C_I2CMasterWriteBuf
 366              	.LVL44:
 367              	.L21:
 238:main.c        ****     while(!(I2C_I2CMasterStatus() & I2C_I2C_MSTAT_WR_CMPLT));
 368              		.loc 1 238 0 discriminator 1
 369 0018 FFF7FEFF 		bl	I2C_I2CMasterStatus
 370              	.LVL45:
 371 001c 8307     		lsls	r3, r0, #30
 372 001e FBD5     		bpl	.L21
 239:main.c        ****     I2C_I2CMasterClearStatus();
 373              		.loc 1 239 0
 374 0020 FFF7FEFF 		bl	I2C_I2CMasterClearStatus
 375              	.LVL46:
 240:main.c        **** 
 241:main.c        ****     // Then read the output from the I2C bus from that memory address.
 242:main.c        ****     I2C_I2CMasterReadBuf(devAddr, readBuf, readBytes, I2C_I2C_MODE_REPEAT_START);
 376              		.loc 1 242 0
 377 0024 0123     		movs	r3, #1
 378 0026 3200     		movs	r2, r6
 379 0028 2900     		movs	r1, r5
 380 002a 2000     		movs	r0, r4
 381 002c FFF7FEFF 		bl	I2C_I2CMasterReadBuf
 382              	.LVL47:
 383              	.L22:
 243:main.c        ****     while(!(I2C_I2CMasterStatus() & I2C_I2C_MSTAT_RD_CMPLT));
 384              		.loc 1 243 0 discriminator 1
ARM GAS  C:\Users\HELLOK~1.1\AppData\Local\Temp\cc5k7xEp.s 			page 12


 385 0030 FFF7FEFF 		bl	I2C_I2CMasterStatus
 386              	.LVL48:
 387 0034 C307     		lsls	r3, r0, #31
 388 0036 FBD5     		bpl	.L22
 244:main.c        ****     I2C_I2CMasterClearStatus();
 389              		.loc 1 244 0
 390 0038 FFF7FEFF 		bl	I2C_I2CMasterClearStatus
 391              	.LVL49:
 245:main.c        **** }
 392              		.loc 1 245 0
 393 003c 02B0     		add	sp, sp, #8
 394              		@ sp needed
 395              	.LVL50:
 396              	.LVL51:
 397              	.LVL52:
 398 003e 70BD     		pop	{r4, r5, r6, pc}
 399              		.cfi_endproc
 400              	.LFE41:
 401              		.size	readFromAddr, .-readFromAddr
 402              		.section	.text.writeToAddr,"ax",%progbits
 403              		.align	2
 404              		.global	writeToAddr
 405              		.code	16
 406              		.thumb_func
 407              		.type	writeToAddr, %function
 408              	writeToAddr:
 409              	.LFB42:
 246:main.c        **** /*
 247:main.c        **** This function simply writes to any I2C device.
 248:main.c        **** writeBuf will be the size of writeBytes and any data inside here will be written to the I2C bus.
 249:main.c        **** writeBytes is the number of bytes written to the I2C bus.
 250:main.c        ****     NOTE: The first byte of the writeBuf will be overwritten if it is stored, as it is the memory a
 251:main.c        **** devAddr is the I2C address that the microcontroller is talking to.
 252:main.c        **** memAddr is the memory or register address that is inside the I2C device.
 253:main.c        **** */
 254:main.c        **** void writeToAddr(uint8* writeBuf, int writeBytes, uint32 devAddr, uint32 memAddr){
 410              		.loc 1 254 0
 411              		.cfi_startproc
 412              		@ args = 0, pretend = 0, frame = 0
 413              		@ frame_needed = 0, uses_anonymous_args = 0
 414              	.LVL53:
 415 0000 10B5     		push	{r4, lr}
 416              		.cfi_def_cfa_offset 8
 417              		.cfi_offset 4, -8
 418              		.cfi_offset 14, -4
 419 0002 1400     		movs	r4, r2
 255:main.c        ****     // Store the first byte as the memory address we are writing to.
 256:main.c        ****     writeBuf[0] = memAddr;
 420              		.loc 1 256 0
 421 0004 0370     		strb	r3, [r0]
 257:main.c        **** 
 258:main.c        ****     // Write the data to the device.
 259:main.c        ****     I2C_I2CMasterWriteBuf(devAddr, writeBuf, writeBytes, I2C_I2C_MODE_COMPLETE_XFER);
 422              		.loc 1 259 0
 423 0006 0023     		movs	r3, #0
 424              	.LVL54:
 425 0008 0A00     		movs	r2, r1
ARM GAS  C:\Users\HELLOK~1.1\AppData\Local\Temp\cc5k7xEp.s 			page 13


 426              	.LVL55:
 427 000a 0100     		movs	r1, r0
 428              	.LVL56:
 429 000c 2000     		movs	r0, r4
 430              	.LVL57:
 431 000e FFF7FEFF 		bl	I2C_I2CMasterWriteBuf
 432              	.LVL58:
 433              	.L24:
 260:main.c        ****     while(!(I2C_I2CMasterStatus() & I2C_I2C_MSTAT_WR_CMPLT));
 434              		.loc 1 260 0 discriminator 1
 435 0012 FFF7FEFF 		bl	I2C_I2CMasterStatus
 436              	.LVL59:
 437 0016 8307     		lsls	r3, r0, #30
 438 0018 FBD5     		bpl	.L24
 261:main.c        ****     I2C_I2CMasterClearStatus();
 439              		.loc 1 261 0
 440 001a FFF7FEFF 		bl	I2C_I2CMasterClearStatus
 441              	.LVL60:
 262:main.c        **** }
 442              		.loc 1 262 0
 443              		@ sp needed
 444              	.LVL61:
 445 001e 10BD     		pop	{r4, pc}
 446              		.cfi_endproc
 447              	.LFE42:
 448              		.size	writeToAddr, .-writeToAddr
 449              		.section	.text.RTCInit,"ax",%progbits
 450              		.align	2
 451              		.global	RTCInit
 452              		.code	16
 453              		.thumb_func
 454              		.type	RTCInit, %function
 455              	RTCInit:
 456              	.LFB43:
 263:main.c        **** 
 264:main.c        **** void RTCInit(){
 457              		.loc 1 264 0
 458              		.cfi_startproc
 459              		@ args = 0, pretend = 0, frame = 8
 460              		@ frame_needed = 0, uses_anonymous_args = 0
 461 0000 30B5     		push	{r4, r5, lr}
 462              		.cfi_def_cfa_offset 12
 463              		.cfi_offset 4, -12
 464              		.cfi_offset 5, -8
 465              		.cfi_offset 14, -4
 466 0002 83B0     		sub	sp, sp, #12
 467              		.cfi_def_cfa_offset 24
 265:main.c        ****     uint8 wrBuf[2];
 266:main.c        ****     wrBuf[1] = 0x00;
 468              		.loc 1 266 0
 469 0004 01AC     		add	r4, sp, #4
 470 0006 0023     		movs	r3, #0
 471 0008 6370     		strb	r3, [r4, #1]
 267:main.c        ****     writeToAddr(wrBuf,2,RTCAddr,rtc.VL_Sec);
 472              		.loc 1 267 0
 473 000a 1C4D     		ldr	r5, .L26
 474 000c AB79     		ldrb	r3, [r5, #6]
ARM GAS  C:\Users\HELLOK~1.1\AppData\Local\Temp\cc5k7xEp.s 			page 14


 475 000e 5122     		movs	r2, #81
 476 0010 0221     		movs	r1, #2
 477 0012 2000     		movs	r0, r4
 478 0014 FFF7FEFF 		bl	writeToAddr
 479              	.LVL62:
 268:main.c        ****     wrBuf[1] = 0x44;
 480              		.loc 1 268 0
 481 0018 4423     		movs	r3, #68
 482 001a 6370     		strb	r3, [r4, #1]
 269:main.c        ****     writeToAddr(wrBuf,2,RTCAddr,rtc.Minutes);
 483              		.loc 1 269 0
 484 001c EB79     		ldrb	r3, [r5, #7]
 485 001e 5122     		movs	r2, #81
 486 0020 0221     		movs	r1, #2
 487 0022 2000     		movs	r0, r4
 488 0024 FFF7FEFF 		bl	writeToAddr
 489              	.LVL63:
 270:main.c        ****     wrBuf[1] = 0x10;
 490              		.loc 1 270 0
 491 0028 1023     		movs	r3, #16
 492 002a 6370     		strb	r3, [r4, #1]
 271:main.c        ****     writeToAddr(wrBuf,2,RTCAddr,rtc.Hours);
 493              		.loc 1 271 0
 494 002c 2B7A     		ldrb	r3, [r5, #8]
 495 002e 5122     		movs	r2, #81
 496 0030 0221     		movs	r1, #2
 497 0032 2000     		movs	r0, r4
 498 0034 FFF7FEFF 		bl	writeToAddr
 499              	.LVL64:
 272:main.c        ****     wrBuf[1] = 0x16;
 500              		.loc 1 272 0
 501 0038 1623     		movs	r3, #22
 502 003a 6370     		strb	r3, [r4, #1]
 273:main.c        ****     writeToAddr(wrBuf,2,RTCAddr,rtc.Days);
 503              		.loc 1 273 0
 504 003c 6B7A     		ldrb	r3, [r5, #9]
 505 003e 5122     		movs	r2, #81
 506 0040 0221     		movs	r1, #2
 507 0042 2000     		movs	r0, r4
 508 0044 FFF7FEFF 		bl	writeToAddr
 509              	.LVL65:
 274:main.c        ****     wrBuf[1] = 0x06;
 510              		.loc 1 274 0
 511 0048 0623     		movs	r3, #6
 512 004a 6370     		strb	r3, [r4, #1]
 275:main.c        ****     writeToAddr(wrBuf,2,RTCAddr,rtc.Weekdays);
 513              		.loc 1 275 0
 514 004c AB7A     		ldrb	r3, [r5, #10]
 515 004e 5122     		movs	r2, #81
 516 0050 0221     		movs	r1, #2
 517 0052 2000     		movs	r0, r4
 518 0054 FFF7FEFF 		bl	writeToAddr
 519              	.LVL66:
 276:main.c        ****     wrBuf[1] = 0x04;
 520              		.loc 1 276 0
 521 0058 0423     		movs	r3, #4
 522 005a 6370     		strb	r3, [r4, #1]
ARM GAS  C:\Users\HELLOK~1.1\AppData\Local\Temp\cc5k7xEp.s 			page 15


 277:main.c        ****     writeToAddr(wrBuf,2,RTCAddr,rtc.Century_Months);
 523              		.loc 1 277 0
 524 005c EB7A     		ldrb	r3, [r5, #11]
 525 005e 5122     		movs	r2, #81
 526 0060 0221     		movs	r1, #2
 527 0062 2000     		movs	r0, r4
 528 0064 FFF7FEFF 		bl	writeToAddr
 529              	.LVL67:
 278:main.c        ****     wrBuf[1] = 0x23;
 530              		.loc 1 278 0
 531 0068 2323     		movs	r3, #35
 532 006a 6370     		strb	r3, [r4, #1]
 279:main.c        ****     writeToAddr(wrBuf,2,RTCAddr,rtc.Years);
 533              		.loc 1 279 0
 534 006c 2B7B     		ldrb	r3, [r5, #12]
 535 006e 5122     		movs	r2, #81
 536 0070 0221     		movs	r1, #2
 537 0072 2000     		movs	r0, r4
 538 0074 FFF7FEFF 		bl	writeToAddr
 539              	.LVL68:
 280:main.c        **** }
 540              		.loc 1 280 0
 541 0078 03B0     		add	sp, sp, #12
 542              		@ sp needed
 543 007a 30BD     		pop	{r4, r5, pc}
 544              	.L27:
 545              		.align	2
 546              	.L26:
 547 007c 00000000 		.word	.LANCHOR0
 548              		.cfi_endproc
 549              	.LFE43:
 550              		.size	RTCInit, .-RTCInit
 551              		.section	.text.LCDInit,"ax",%progbits
 552              		.align	2
 553              		.global	LCDInit
 554              		.code	16
 555              		.thumb_func
 556              		.type	LCDInit, %function
 557              	LCDInit:
 558              	.LFB44:
 281:main.c        **** 
 282:main.c        **** void LCDInit(struct Time currTime, struct Time nextTime, struct Date currDate, struct Date nextDate
 559              		.loc 1 282 0
 560              		.cfi_startproc
 561              		@ args = 24, pretend = 0, frame = 40
 562              		@ frame_needed = 0, uses_anonymous_args = 0
 563 0000 F0B5     		push	{r4, r5, r6, r7, lr}
 564              		.cfi_def_cfa_offset 20
 565              		.cfi_offset 4, -20
 566              		.cfi_offset 5, -16
 567              		.cfi_offset 6, -12
 568              		.cfi_offset 7, -8
 569              		.cfi_offset 14, -4
 570 0002 4746     		mov	r7, r8
 571 0004 80B4     		push	{r7}
 572              		.cfi_def_cfa_offset 24
 573              		.cfi_offset 8, -24
ARM GAS  C:\Users\HELLOK~1.1\AppData\Local\Temp\cc5k7xEp.s 			page 16


 574 0006 90B0     		sub	sp, sp, #64
 575              		.cfi_def_cfa_offset 88
 576 0008 08AE     		add	r6, sp, #32
 577 000a 0890     		str	r0, [sp, #32]
 578 000c 0991     		str	r1, [sp, #36]
 579 000e 06AD     		add	r5, sp, #24
 580 0010 0692     		str	r2, [sp, #24]
 581 0012 0793     		str	r3, [sp, #28]
 283:main.c        ****     // First line time
 284:main.c        ****     setCursor(0,0);
 582              		.loc 1 284 0
 583 0014 0021     		movs	r1, #0
 584 0016 0020     		movs	r0, #0
 585 0018 FFF7FEFF 		bl	setCursor
 586              	.LVL69:
 285:main.c        ****     char printString[21];
 286:main.c        ****     snprintf(printString, 21, "%d:%.2d%s %s %d, 20%d ",currTime.hour, currTime.minute,currTime.AM, 
 587              		.loc 1 286 0
 588 001c 3378     		ldrb	r3, [r6]
 589 001e 7278     		ldrb	r2, [r6, #1]
 590 0020 16A9     		add	r1, sp, #88
 591 0022 0978     		ldrb	r1, [r1]
 592 0024 16A8     		add	r0, sp, #88
 593 0026 007A     		ldrb	r0, [r0, #8]
 594 0028 1F4F     		ldr	r7, .L29
 595 002a 0AAC     		add	r4, sp, #40
 596 002c 0490     		str	r0, [sp, #16]
 597 002e 0391     		str	r1, [sp, #12]
 598 0030 1799     		ldr	r1, [sp, #92]
 599 0032 0291     		str	r1, [sp, #8]
 600 0034 7168     		ldr	r1, [r6, #4]
 601 0036 0191     		str	r1, [sp, #4]
 602 0038 0092     		str	r2, [sp]
 603 003a 3A00     		movs	r2, r7
 604 003c 1521     		movs	r1, #21
 605 003e 2000     		movs	r0, r4
 606 0040 FFF7FEFF 		bl	snprintf
 607              	.LVL70:
 287:main.c        ****     printString[20] = '\0';
 608              		.loc 1 287 0
 609 0044 0026     		movs	r6, #0
 610 0046 2675     		strb	r6, [r4, #20]
 288:main.c        ****     LCD_print(printString);
 611              		.loc 1 288 0
 612 0048 2000     		movs	r0, r4
 613 004a FFF7FEFF 		bl	LCD_print
 614              	.LVL71:
 289:main.c        ****     setCursor(0,1);
 615              		.loc 1 289 0
 616 004e 0121     		movs	r1, #1
 617 0050 0020     		movs	r0, #0
 618 0052 FFF7FEFF 		bl	setCursor
 619              	.LVL72:
 290:main.c        ****     LCD_print("--------------------");
 620              		.loc 1 290 0
 621 0056 1548     		ldr	r0, .L29+4
 622 0058 FFF7FEFF 		bl	LCD_print
ARM GAS  C:\Users\HELLOK~1.1\AppData\Local\Temp\cc5k7xEp.s 			page 17


 623              	.LVL73:
 291:main.c        ****     setCursor(0,2);
 624              		.loc 1 291 0
 625 005c 0221     		movs	r1, #2
 626 005e 0020     		movs	r0, #0
 627 0060 FFF7FEFF 		bl	setCursor
 628              	.LVL74:
 292:main.c        ****     LCD_print("Time of Next Feed:");
 629              		.loc 1 292 0
 630 0064 1248     		ldr	r0, .L29+8
 631 0066 FFF7FEFF 		bl	LCD_print
 632              	.LVL75:
 293:main.c        ****     setCursor(0,3);
 633              		.loc 1 293 0
 634 006a 0321     		movs	r1, #3
 635 006c 0020     		movs	r0, #0
 636 006e FFF7FEFF 		bl	setCursor
 637              	.LVL76:
 294:main.c        ****     snprintf(printString, 21, "%d:%.2d%s %s %d, 20%d ",nextTime.hour, nextTime.minute,nextTime.AM, 
 638              		.loc 1 294 0
 639 0072 2B78     		ldrb	r3, [r5]
 640 0074 6A78     		ldrb	r2, [r5, #1]
 641 0076 9046     		mov	r8, r2
 642 0078 19AA     		add	r2, sp, #100
 643 007a 1078     		ldrb	r0, [r2]
 644 007c 117A     		ldrb	r1, [r2, #8]
 645 007e 0491     		str	r1, [sp, #16]
 646 0080 0390     		str	r0, [sp, #12]
 647 0082 1A9A     		ldr	r2, [sp, #104]
 648 0084 0292     		str	r2, [sp, #8]
 649 0086 6A68     		ldr	r2, [r5, #4]
 650 0088 0192     		str	r2, [sp, #4]
 651 008a 4246     		mov	r2, r8
 652 008c 0092     		str	r2, [sp]
 653 008e 3A00     		movs	r2, r7
 654 0090 1521     		movs	r1, #21
 655 0092 2000     		movs	r0, r4
 656 0094 FFF7FEFF 		bl	snprintf
 657              	.LVL77:
 295:main.c        ****     printString[20] = '\0';
 658              		.loc 1 295 0
 659 0098 2675     		strb	r6, [r4, #20]
 296:main.c        ****     LCD_print(printString);
 660              		.loc 1 296 0
 661 009a 2000     		movs	r0, r4
 662 009c FFF7FEFF 		bl	LCD_print
 663              	.LVL78:
 297:main.c        **** }
 664              		.loc 1 297 0
 665 00a0 10B0     		add	sp, sp, #64
 666              		@ sp needed
 667 00a2 04BC     		pop	{r2}
 668 00a4 9046     		mov	r8, r2
 669 00a6 F0BD     		pop	{r4, r5, r6, r7, pc}
 670              	.L30:
 671              		.align	2
 672              	.L29:
ARM GAS  C:\Users\HELLOK~1.1\AppData\Local\Temp\cc5k7xEp.s 			page 18


 673 00a8 00000000 		.word	.LC10
 674 00ac 18000000 		.word	.LC12
 675 00b0 30000000 		.word	.LC14
 676              		.cfi_endproc
 677              	.LFE44:
 678              		.size	LCDInit, .-LCDInit
 679              		.section	.text.updateNextFeed,"ax",%progbits
 680              		.align	2
 681              		.global	updateNextFeed
 682              		.code	16
 683              		.thumb_func
 684              		.type	updateNextFeed, %function
 685              	updateNextFeed:
 686              	.LFB45:
 298:main.c        **** 
 299:main.c        **** void updateNextFeed(struct Time nextTime, struct Date nextDate){
 687              		.loc 1 299 0
 688              		.cfi_startproc
 689              		@ args = 12, pretend = 8, frame = 32
 690              		@ frame_needed = 0, uses_anonymous_args = 0
 691 0000 82B0     		sub	sp, sp, #8
 692              		.cfi_def_cfa_offset 8
 693 0002 30B5     		push	{r4, r5, lr}
 694              		.cfi_def_cfa_offset 20
 695              		.cfi_offset 4, -20
 696              		.cfi_offset 5, -16
 697              		.cfi_offset 14, -12
 698 0004 8FB0     		sub	sp, sp, #60
 699              		.cfi_def_cfa_offset 80
 700 0006 06AC     		add	r4, sp, #24
 701 0008 0690     		str	r0, [sp, #24]
 702 000a 0791     		str	r1, [sp, #28]
 703 000c 1292     		str	r2, [sp, #72]
 704 000e 1393     		str	r3, [sp, #76]
 300:main.c        ****     char printString[21];
 301:main.c        ****     setCursor(0,2);
 705              		.loc 1 301 0
 706 0010 0221     		movs	r1, #2
 707 0012 0020     		movs	r0, #0
 708 0014 FFF7FEFF 		bl	setCursor
 709              	.LVL79:
 302:main.c        ****     LCD_print("Time of Next Feed:");
 710              		.loc 1 302 0
 711 0018 1148     		ldr	r0, .L32
 712 001a FFF7FEFF 		bl	LCD_print
 713              	.LVL80:
 303:main.c        ****     setCursor(0,3);
 714              		.loc 1 303 0
 715 001e 0321     		movs	r1, #3
 716 0020 0020     		movs	r0, #0
 717 0022 FFF7FEFF 		bl	setCursor
 718              	.LVL81:
 304:main.c        ****     snprintf(printString, 21, "%d:%.2d%s %s %d, 20%d ",nextTime.hour, nextTime.minute,nextTime.AM, 
 719              		.loc 1 304 0
 720 0026 2378     		ldrb	r3, [r4]
 721 0028 6278     		ldrb	r2, [r4, #1]
 722 002a 12A9     		add	r1, sp, #72
ARM GAS  C:\Users\HELLOK~1.1\AppData\Local\Temp\cc5k7xEp.s 			page 19


 723 002c 0978     		ldrb	r1, [r1]
 724 002e 12A8     		add	r0, sp, #72
 725 0030 007A     		ldrb	r0, [r0, #8]
 726 0032 08AD     		add	r5, sp, #32
 727 0034 0490     		str	r0, [sp, #16]
 728 0036 0391     		str	r1, [sp, #12]
 729 0038 1399     		ldr	r1, [sp, #76]
 730 003a 0291     		str	r1, [sp, #8]
 731 003c 6168     		ldr	r1, [r4, #4]
 732 003e 0191     		str	r1, [sp, #4]
 733 0040 0092     		str	r2, [sp]
 734 0042 084A     		ldr	r2, .L32+4
 735 0044 1521     		movs	r1, #21
 736 0046 2800     		movs	r0, r5
 737 0048 FFF7FEFF 		bl	snprintf
 738              	.LVL82:
 305:main.c        ****     printString[20] = '\0';
 739              		.loc 1 305 0
 740 004c 0023     		movs	r3, #0
 741 004e 2B75     		strb	r3, [r5, #20]
 306:main.c        ****     LCD_print(printString);
 742              		.loc 1 306 0
 743 0050 2800     		movs	r0, r5
 744 0052 FFF7FEFF 		bl	LCD_print
 745              	.LVL83:
 307:main.c        **** }
 746              		.loc 1 307 0
 747 0056 0FB0     		add	sp, sp, #60
 748              		@ sp needed
 749 0058 30BC     		pop	{r4, r5}
 750 005a 08BC     		pop	{r3}
 751 005c 02B0     		add	sp, sp, #8
 752 005e 1847     		bx	r3
 753              	.L33:
 754              		.align	2
 755              	.L32:
 756 0060 30000000 		.word	.LC14
 757 0064 00000000 		.word	.LC10
 758              		.cfi_endproc
 759              	.LFE45:
 760              		.size	updateNextFeed, .-updateNextFeed
 761              		.section	.text.updateCurrTime,"ax",%progbits
 762              		.align	2
 763              		.global	updateCurrTime
 764              		.code	16
 765              		.thumb_func
 766              		.type	updateCurrTime, %function
 767              	updateCurrTime:
 768              	.LFB46:
 308:main.c        **** 
 309:main.c        **** void updateCurrTime(struct Time currTime, struct Date currDate){
 769              		.loc 1 309 0
 770              		.cfi_startproc
 771              		@ args = 12, pretend = 8, frame = 32
 772              		@ frame_needed = 0, uses_anonymous_args = 0
 773 0000 82B0     		sub	sp, sp, #8
 774              		.cfi_def_cfa_offset 8
ARM GAS  C:\Users\HELLOK~1.1\AppData\Local\Temp\cc5k7xEp.s 			page 20


 775 0002 30B5     		push	{r4, r5, lr}
 776              		.cfi_def_cfa_offset 20
 777              		.cfi_offset 4, -20
 778              		.cfi_offset 5, -16
 779              		.cfi_offset 14, -12
 780 0004 8FB0     		sub	sp, sp, #60
 781              		.cfi_def_cfa_offset 80
 782 0006 06AC     		add	r4, sp, #24
 783 0008 0690     		str	r0, [sp, #24]
 784 000a 0791     		str	r1, [sp, #28]
 785 000c 1292     		str	r2, [sp, #72]
 786 000e 1393     		str	r3, [sp, #76]
 310:main.c        ****     setCursor(0,0);
 787              		.loc 1 310 0
 788 0010 0021     		movs	r1, #0
 789 0012 0020     		movs	r0, #0
 790 0014 FFF7FEFF 		bl	setCursor
 791              	.LVL84:
 311:main.c        ****     char printString[21];
 312:main.c        ****     snprintf(printString, 21, "%d:%.2d%s %s %d, 20%d ",currTime.hour, currTime.minute,currTime.AM, 
 792              		.loc 1 312 0
 793 0018 2378     		ldrb	r3, [r4]
 794 001a 6278     		ldrb	r2, [r4, #1]
 795 001c 12A9     		add	r1, sp, #72
 796 001e 0978     		ldrb	r1, [r1]
 797 0020 12A8     		add	r0, sp, #72
 798 0022 007A     		ldrb	r0, [r0, #8]
 799 0024 08AD     		add	r5, sp, #32
 800 0026 0490     		str	r0, [sp, #16]
 801 0028 0391     		str	r1, [sp, #12]
 802 002a 1399     		ldr	r1, [sp, #76]
 803 002c 0291     		str	r1, [sp, #8]
 804 002e 6168     		ldr	r1, [r4, #4]
 805 0030 0191     		str	r1, [sp, #4]
 806 0032 0092     		str	r2, [sp]
 807 0034 094A     		ldr	r2, .L35
 808 0036 1521     		movs	r1, #21
 809 0038 2800     		movs	r0, r5
 810 003a FFF7FEFF 		bl	snprintf
 811              	.LVL85:
 313:main.c        ****     printString[20] = '\0';
 812              		.loc 1 313 0
 813 003e 0023     		movs	r3, #0
 814 0040 2B75     		strb	r3, [r5, #20]
 314:main.c        ****     LCD_print(printString);
 815              		.loc 1 314 0
 816 0042 2800     		movs	r0, r5
 817 0044 FFF7FEFF 		bl	LCD_print
 818              	.LVL86:
 315:main.c        ****     setCursor(0,1);
 819              		.loc 1 315 0
 820 0048 0121     		movs	r1, #1
 821 004a 0020     		movs	r0, #0
 822 004c FFF7FEFF 		bl	setCursor
 823              	.LVL87:
 316:main.c        **** }
 824              		.loc 1 316 0
ARM GAS  C:\Users\HELLOK~1.1\AppData\Local\Temp\cc5k7xEp.s 			page 21


 825 0050 0FB0     		add	sp, sp, #60
 826              		@ sp needed
 827 0052 30BC     		pop	{r4, r5}
 828 0054 08BC     		pop	{r3}
 829 0056 02B0     		add	sp, sp, #8
 830 0058 1847     		bx	r3
 831              	.L36:
 832 005a C046     		.align	2
 833              	.L35:
 834 005c 00000000 		.word	.LC10
 835              		.cfi_endproc
 836              	.LFE46:
 837              		.size	updateCurrTime, .-updateCurrTime
 838              		.section	.text.exitLCD,"ax",%progbits
 839              		.align	2
 840              		.global	exitLCD
 841              		.code	16
 842              		.thumb_func
 843              		.type	exitLCD, %function
 844              	exitLCD:
 845              	.LFB47:
 317:main.c        **** void exitLCD(){
 846              		.loc 1 317 0
 847              		.cfi_startproc
 848              		@ args = 0, pretend = 0, frame = 48
 849              		@ frame_needed = 0, uses_anonymous_args = 0
 850 0000 F0B5     		push	{r4, r5, r6, r7, lr}
 851              		.cfi_def_cfa_offset 20
 852              		.cfi_offset 4, -20
 853              		.cfi_offset 5, -16
 854              		.cfi_offset 6, -12
 855              		.cfi_offset 7, -8
 856              		.cfi_offset 14, -4
 857 0002 4746     		mov	r7, r8
 858 0004 80B4     		push	{r7}
 859              		.cfi_def_cfa_offset 24
 860              		.cfi_offset 8, -24
 861 0006 92B0     		sub	sp, sp, #72
 862              		.cfi_def_cfa_offset 96
 318:main.c        ****     char printString[21];
 319:main.c        ****     struct Time nextTime = feedTimes[feedCounter];
 863              		.loc 1 319 0
 864 0008 2D4B     		ldr	r3, .L38
 865 000a 1B78     		ldrb	r3, [r3]
 866 000c 0AAC     		add	r4, sp, #40
 867 000e 2D4D     		ldr	r5, .L38+4
 868 0010 DB00     		lsls	r3, r3, #3
 869 0012 EB18     		adds	r3, r5, r3
 870 0014 1433     		adds	r3, r3, #20
 871 0016 2200     		movs	r2, r4
 872 0018 03CB     		ldmia	r3!, {r0, r1}
 873 001a 03C2     		stmia	r2!, {r0, r1}
 320:main.c        ****     uint8 day[1];
 321:main.c        ****     readFromAddr(day,1,RTCAddr,rtc.Days);
 874              		.loc 1 321 0
 875 001c 6B7A     		ldrb	r3, [r5, #9]
 876 001e 09AE     		add	r6, sp, #36
ARM GAS  C:\Users\HELLOK~1.1\AppData\Local\Temp\cc5k7xEp.s 			page 22


 877 0020 5122     		movs	r2, #81
 878 0022 0121     		movs	r1, #1
 879 0024 3000     		movs	r0, r6
 880 0026 FFF7FEFF 		bl	readFromAddr
 881              	.LVL88:
 322:main.c        ****     uint8 month[1];
 323:main.c        ****     readFromAddr(month,1,RTCAddr,rtc.Century_Months);
 882              		.loc 1 323 0
 883 002a EB7A     		ldrb	r3, [r5, #11]
 884 002c 08AA     		add	r2, sp, #32
 885 002e 9046     		mov	r8, r2
 886 0030 5122     		movs	r2, #81
 887 0032 0121     		movs	r1, #1
 888 0034 4046     		mov	r0, r8
 889 0036 FFF7FEFF 		bl	readFromAddr
 890              	.LVL89:
 324:main.c        ****     uint8 year[1];
 325:main.c        ****     readFromAddr(year,1,RTCAddr,rtc.Years);
 891              		.loc 1 325 0
 892 003a 2B7B     		ldrb	r3, [r5, #12]
 893 003c 07AF     		add	r7, sp, #28
 894 003e 5122     		movs	r2, #81
 895 0040 0121     		movs	r1, #1
 896 0042 3800     		movs	r0, r7
 897 0044 FFF7FEFF 		bl	readFromAddr
 898              	.LVL90:
 326:main.c        ****     struct Date nextDate = {bcdToDec(day[0]),months[bcdToDec(month[0])-1],bcdToDec(year[0])};
 899              		.loc 1 326 0
 900 0048 3078     		ldrb	r0, [r6]
 901 004a FFF7FEFF 		bl	bcdToDec
 902              	.LVL91:
 903 004e 0600     		movs	r6, r0
 904 0050 4346     		mov	r3, r8
 905 0052 1878     		ldrb	r0, [r3]
 906 0054 FFF7FEFF 		bl	bcdToDec
 907              	.LVL92:
 908 0058 0138     		subs	r0, r0, #1
 909 005a 8000     		lsls	r0, r0, #2
 910 005c 2818     		adds	r0, r5, r0
 911 005e 436E     		ldr	r3, [r0, #100]
 912 0060 9846     		mov	r8, r3
 913 0062 3878     		ldrb	r0, [r7]
 914 0064 FFF7FEFF 		bl	bcdToDec
 915              	.LVL93:
 916 0068 0700     		movs	r7, r0
 327:main.c        ****     setCursor(0,1);
 917              		.loc 1 327 0
 918 006a 0121     		movs	r1, #1
 919 006c 0020     		movs	r0, #0
 920 006e FFF7FEFF 		bl	setCursor
 921              	.LVL94:
 328:main.c        ****     LCD_print("--------------------");
 922              		.loc 1 328 0
 923 0072 1548     		ldr	r0, .L38+8
 924 0074 FFF7FEFF 		bl	LCD_print
 925              	.LVL95:
 329:main.c        ****     setCursor(0,2);
ARM GAS  C:\Users\HELLOK~1.1\AppData\Local\Temp\cc5k7xEp.s 			page 23


 926              		.loc 1 329 0
 927 0078 0221     		movs	r1, #2
 928 007a 0020     		movs	r0, #0
 929 007c FFF7FEFF 		bl	setCursor
 930              	.LVL96:
 330:main.c        ****     LCD_print("Time of Next Feed:  ");
 931              		.loc 1 330 0
 932 0080 1248     		ldr	r0, .L38+12
 933 0082 FFF7FEFF 		bl	LCD_print
 934              	.LVL97:
 331:main.c        ****     setCursor(0,3);
 935              		.loc 1 331 0
 936 0086 0321     		movs	r1, #3
 937 0088 0020     		movs	r0, #0
 938 008a FFF7FEFF 		bl	setCursor
 939              	.LVL98:
 332:main.c        ****     snprintf(printString, 21, "%d:%.2d%s %s %d, 20%d ",nextTime.hour, nextTime.minute,nextTime.AM, 
 940              		.loc 1 332 0
 941 008e 2378     		ldrb	r3, [r4]
 942 0090 6278     		ldrb	r2, [r4, #1]
 943 0092 0CAD     		add	r5, sp, #48
 944 0094 0497     		str	r7, [sp, #16]
 945 0096 0396     		str	r6, [sp, #12]
 946 0098 4146     		mov	r1, r8
 947 009a 0291     		str	r1, [sp, #8]
 948 009c 6168     		ldr	r1, [r4, #4]
 949 009e 0191     		str	r1, [sp, #4]
 950 00a0 0092     		str	r2, [sp]
 951 00a2 0B4A     		ldr	r2, .L38+16
 952 00a4 1521     		movs	r1, #21
 953 00a6 2800     		movs	r0, r5
 954 00a8 FFF7FEFF 		bl	snprintf
 955              	.LVL99:
 333:main.c        ****     printString[20] = '\0';
 956              		.loc 1 333 0
 957 00ac 0023     		movs	r3, #0
 958 00ae 2B75     		strb	r3, [r5, #20]
 334:main.c        ****     LCD_print(printString);
 959              		.loc 1 334 0
 960 00b0 2800     		movs	r0, r5
 961 00b2 FFF7FEFF 		bl	LCD_print
 962              	.LVL100:
 335:main.c        **** }
 963              		.loc 1 335 0
 964 00b6 12B0     		add	sp, sp, #72
 965              		@ sp needed
 966 00b8 04BC     		pop	{r2}
 967 00ba 9046     		mov	r8, r2
 968 00bc F0BD     		pop	{r4, r5, r6, r7, pc}
 969              	.L39:
 970 00be C046     		.align	2
 971              	.L38:
 972 00c0 00000000 		.word	.LANCHOR1
 973 00c4 00000000 		.word	.LANCHOR0
 974 00c8 18000000 		.word	.LC12
 975 00cc 44000000 		.word	.LC22
 976 00d0 00000000 		.word	.LC10
ARM GAS  C:\Users\HELLOK~1.1\AppData\Local\Temp\cc5k7xEp.s 			page 24


 977              		.cfi_endproc
 978              	.LFE47:
 979              		.size	exitLCD, .-exitLCD
 980              		.section	.text.FEEEEED,"ax",%progbits
 981              		.align	2
 982              		.global	FEEEEED
 983              		.code	16
 984              		.thumb_func
 985              		.type	FEEEEED, %function
 986              	FEEEEED:
 987              	.LFB48:
 336:main.c        **** void FEEEEED(){
 988              		.loc 1 336 0
 989              		.cfi_startproc
 990              		@ args = 0, pretend = 0, frame = 0
 991              		@ frame_needed = 0, uses_anonymous_args = 0
 992 0000 70B5     		push	{r4, r5, r6, lr}
 993              		.cfi_def_cfa_offset 16
 994              		.cfi_offset 4, -16
 995              		.cfi_offset 5, -12
 996              		.cfi_offset 6, -8
 997              		.cfi_offset 14, -4
 998              	.LVL101:
 999              	.LBB2:
 337:main.c        ****     for(int i = 0; i < feedSteps; i++){
 1000              		.loc 1 337 0
 1001 0002 0025     		movs	r5, #0
 1002 0004 0BE0     		b	.L41
 1003              	.LVL102:
 1004              	.L42:
 338:main.c        ****         motor.position = MVCW(motor);
 1005              		.loc 1 338 0 discriminator 3
 1006 0006 274C     		ldr	r4, .L51
 1007 0008 6069     		ldr	r0, [r4, #20]
 1008 000a FFF7FEFF 		bl	MVCW
 1009              	.LVL103:
 1010 000e 0F23     		movs	r3, #15
 1011 0010 1840     		ands	r0, r3
 1012 0012 237D     		ldrb	r3, [r4, #20]
 1013 0014 0F22     		movs	r2, #15
 1014 0016 9343     		bics	r3, r2
 1015 0018 0343     		orrs	r3, r0
 1016 001a 2375     		strb	r3, [r4, #20]
 337:main.c        ****     for(int i = 0; i < feedSteps; i++){
 1017              		.loc 1 337 0 discriminator 3
 1018 001c 0135     		adds	r5, r5, #1
 1019              	.LVL104:
 1020              	.L41:
 337:main.c        ****     for(int i = 0; i < feedSteps; i++){
 1021              		.loc 1 337 0 is_stmt 0 discriminator 1
 1022 001e 214B     		ldr	r3, .L51
 1023 0020 9B69     		ldr	r3, [r3, #24]
 1024 0022 9D42     		cmp	r5, r3
 1025 0024 EFD3     		bcc	.L42
 1026              	.LBE2:
 339:main.c        ****         
 340:main.c        ****     }
ARM GAS  C:\Users\HELLOK~1.1\AppData\Local\Temp\cc5k7xEp.s 			page 25


 341:main.c        ****     Motor_Write(0b0000);
 1027              		.loc 1 341 0 is_stmt 1
 1028 0026 0020     		movs	r0, #0
 1029 0028 FFF7FEFF 		bl	Motor_Write
 1030              	.LVL105:
 342:main.c        ****     
 343:main.c        ****     LED_PWM_WritePeriod(1000);
 1031              		.loc 1 343 0
 1032 002c FA24     		movs	r4, #250
 1033 002e A400     		lsls	r4, r4, #2
 1034 0030 2000     		movs	r0, r4
 1035 0032 FFF7FEFF 		bl	LED_PWM_WritePeriod
 1036              	.LVL106:
 344:main.c        ****     LED_PWM_WriteCompare(1000);
 1037              		.loc 1 344 0
 1038 0036 2000     		movs	r0, r4
 1039 0038 FFF7FEFF 		bl	LED_PWM_WriteCompare
 1040              	.LVL107:
 345:main.c        ****     SPEAKER_PWM_Start();
 1041              		.loc 1 345 0
 1042 003c FFF7FEFF 		bl	SPEAKER_PWM_Start
 1043              	.LVL108:
 346:main.c        ****     SPEAKER_PWM_WritePeriod(750);
 1044              		.loc 1 346 0
 1045 0040 1948     		ldr	r0, .L51+4
 1046 0042 FFF7FEFF 		bl	SPEAKER_PWM_WritePeriod
 1047              	.LVL109:
 347:main.c        ****     SPEAKER_PWM_WriteCompare(50);
 1048              		.loc 1 347 0
 1049 0046 3220     		movs	r0, #50
 1050 0048 FFF7FEFF 		bl	SPEAKER_PWM_WriteCompare
 1051              	.LVL110:
 348:main.c        ****     SPEAKER_PWM_Stop();
 1052              		.loc 1 348 0
 1053 004c FFF7FEFF 		bl	SPEAKER_PWM_Stop
 1054              	.LVL111:
 1055              	.LBB3:
 349:main.c        ****     for(int k = 0; k<8; k++){
 1056              		.loc 1 349 0
 1057 0050 0026     		movs	r6, #0
 1058 0052 24E0     		b	.L43
 1059              	.LVL112:
 1060              	.L49:
 350:main.c        ****         if(speakerToggle == 1){
 1061              		.loc 1 350 0
 1062 0054 134B     		ldr	r3, .L51
 1063 0056 1B7F     		ldrb	r3, [r3, #28]
 1064 0058 012B     		cmp	r3, #1
 1065 005a 01D1     		bne	.L44
 351:main.c        ****             SPEAKER_PWM_Start();
 1066              		.loc 1 351 0
 1067 005c FFF7FEFF 		bl	SPEAKER_PWM_Start
 1068              	.LVL113:
 1069              	.L44:
 352:main.c        ****         }
 353:main.c        ****         if(LEDToggle == 1){
 1070              		.loc 1 353 0
ARM GAS  C:\Users\HELLOK~1.1\AppData\Local\Temp\cc5k7xEp.s 			page 26


 1071 0060 104B     		ldr	r3, .L51
 1072 0062 5B7F     		ldrb	r3, [r3, #29]
 1073 0064 012B     		cmp	r3, #1
 1074 0066 01D1     		bne	.L45
 354:main.c        ****             LED_PWM_Start();
 1075              		.loc 1 354 0
 1076 0068 FFF7FEFF 		bl	LED_PWM_Start
 1077              	.LVL114:
 1078              	.L45:
 1079              	.LBB4:
 1080 006c 0025     		movs	r5, #0
 1081 006e 0BE0     		b	.L46
 1082              	.LVL115:
 1083              	.L47:
 1084              	.LBB5:
 355:main.c        ****         }
 356:main.c        ****         for(int i = 0; i<100; i++){
 357:main.c        ****             for(int j = 0; j < 4; j++){
 358:main.c        ****                 LED_SEL_Write(j);
 1085              		.loc 1 358 0 discriminator 3
 1086 0070 E0B2     		uxtb	r0, r4
 1087 0072 FFF7FEFF 		bl	LED_SEL_Write
 1088              	.LVL116:
 359:main.c        ****                 CyDelay(1);
 1089              		.loc 1 359 0 discriminator 3
 1090 0076 0120     		movs	r0, #1
 1091 0078 FFF7FEFF 		bl	CyDelay
 1092              	.LVL117:
 357:main.c        ****                 LED_SEL_Write(j);
 1093              		.loc 1 357 0 discriminator 3
 1094 007c 0134     		adds	r4, r4, #1
 1095              	.LVL118:
 1096 007e 00E0     		b	.L48
 1097              	.LVL119:
 1098              	.L50:
 1099              	.LBE5:
 1100 0080 0024     		movs	r4, #0
 1101              	.L48:
 1102              	.LVL120:
 1103              	.LBB6:
 357:main.c        ****                 LED_SEL_Write(j);
 1104              		.loc 1 357 0 is_stmt 0 discriminator 1
 1105 0082 032C     		cmp	r4, #3
 1106 0084 F4DD     		ble	.L47
 1107              	.LBE6:
 356:main.c        ****             for(int j = 0; j < 4; j++){
 1108              		.loc 1 356 0 is_stmt 1 discriminator 2
 1109 0086 0135     		adds	r5, r5, #1
 1110              	.LVL121:
 1111              	.L46:
 356:main.c        ****             for(int j = 0; j < 4; j++){
 1112              		.loc 1 356 0 is_stmt 0 discriminator 1
 1113 0088 632D     		cmp	r5, #99
 1114 008a F9DD     		ble	.L50
 1115              	.LBE4:
 360:main.c        ****             }
 361:main.c        ****         }
ARM GAS  C:\Users\HELLOK~1.1\AppData\Local\Temp\cc5k7xEp.s 			page 27


 362:main.c        ****         LED_PWM_Stop();
 1116              		.loc 1 362 0 is_stmt 1 discriminator 2
 1117 008c FFF7FEFF 		bl	LED_PWM_Stop
 1118              	.LVL122:
 363:main.c        ****         SPEAKER_PWM_Stop();
 1119              		.loc 1 363 0 discriminator 2
 1120 0090 FFF7FEFF 		bl	SPEAKER_PWM_Stop
 1121              	.LVL123:
 364:main.c        ****         CyDelay(300);
 1122              		.loc 1 364 0 discriminator 2
 1123 0094 9620     		movs	r0, #150
 1124 0096 4000     		lsls	r0, r0, #1
 1125 0098 FFF7FEFF 		bl	CyDelay
 1126              	.LVL124:
 349:main.c        ****         if(speakerToggle == 1){
 1127              		.loc 1 349 0 discriminator 2
 1128 009c 0136     		adds	r6, r6, #1
 1129              	.LVL125:
 1130              	.L43:
 349:main.c        ****         if(speakerToggle == 1){
 1131              		.loc 1 349 0 is_stmt 0 discriminator 1
 1132 009e 072E     		cmp	r6, #7
 1133 00a0 D8DD     		ble	.L49
 1134              	.LBE3:
 365:main.c        ****     }
 366:main.c        **** }
 1135              		.loc 1 366 0 is_stmt 1
 1136              		@ sp needed
 1137              	.LVL126:
 1138 00a2 70BD     		pop	{r4, r5, r6, pc}
 1139              	.L52:
 1140              		.align	2
 1141              	.L51:
 1142 00a4 80000000 		.word	.LANCHOR2
 1143 00a8 EE020000 		.word	750
 1144              		.cfi_endproc
 1145              	.LFE48:
 1146              		.size	FEEEEED, .-FEEEEED
 1147              		.section	.text.setGlobalTime,"ax",%progbits
 1148              		.align	2
 1149              		.global	setGlobalTime
 1150              		.code	16
 1151              		.thumb_func
 1152              		.type	setGlobalTime, %function
 1153              	setGlobalTime:
 1154              	.LFB49:
 367:main.c        **** void setGlobalTime(){
 1155              		.loc 1 367 0
 1156              		.cfi_startproc
 1157              		@ args = 0, pretend = 0, frame = 112
 1158              		@ frame_needed = 0, uses_anonymous_args = 0
 1159 0000 F0B5     		push	{r4, r5, r6, r7, lr}
 1160              		.cfi_def_cfa_offset 20
 1161              		.cfi_offset 4, -20
 1162              		.cfi_offset 5, -16
 1163              		.cfi_offset 6, -12
 1164              		.cfi_offset 7, -8
ARM GAS  C:\Users\HELLOK~1.1\AppData\Local\Temp\cc5k7xEp.s 			page 28


 1165              		.cfi_offset 14, -4
 1166 0002 4F46     		mov	r7, r9
 1167 0004 80B4     		push	{r7}
 1168              		.cfi_def_cfa_offset 24
 1169              		.cfi_offset 9, -24
 1170 0006 9EB0     		sub	sp, sp, #120
 1171              		.cfi_def_cfa_offset 144
 368:main.c        ****     clear();
 1172              		.loc 1 368 0
 1173 0008 FFF7FEFF 		bl	clear
 1174              	.LVL127:
 369:main.c        ****     setCursor(0,0);
 1175              		.loc 1 369 0
 1176 000c 0021     		movs	r1, #0
 1177 000e 0020     		movs	r0, #0
 1178 0010 FFF7FEFF 		bl	setCursor
 1179              	.LVL128:
 370:main.c        ****     LCD_print("Set Month");
 1180              		.loc 1 370 0
 1181 0014 D048     		ldr	r0, .L99
 1182 0016 FFF7FEFF 		bl	LCD_print
 1183              	.LVL129:
 371:main.c        ****     char printMessage[21];
 372:main.c        ****     struct Time nextTime = feedTimes[feedCounter];
 373:main.c        ****     uint8 day[1];
 374:main.c        ****     readFromAddr(day,1,RTCAddr,rtc.Days);
 1184              		.loc 1 374 0
 1185 001a D04D     		ldr	r5, .L99+4
 1186 001c 6B7A     		ldrb	r3, [r5, #9]
 1187 001e 13AF     		add	r7, sp, #76
 1188 0020 5122     		movs	r2, #81
 1189 0022 0121     		movs	r1, #1
 1190 0024 3800     		movs	r0, r7
 1191 0026 FFF7FEFF 		bl	readFromAddr
 1192              	.LVL130:
 375:main.c        ****     uint8 month[1];
 376:main.c        ****     readFromAddr(month,1,RTCAddr,rtc.Century_Months);
 1193              		.loc 1 376 0
 1194 002a EB7A     		ldrb	r3, [r5, #11]
 1195 002c 12AC     		add	r4, sp, #72
 1196 002e 5122     		movs	r2, #81
 1197 0030 0121     		movs	r1, #1
 1198 0032 2000     		movs	r0, r4
 1199 0034 FFF7FEFF 		bl	readFromAddr
 1200              	.LVL131:
 377:main.c        ****     uint8 year[1];
 378:main.c        ****     readFromAddr(year,1,RTCAddr,rtc.Years);
 1201              		.loc 1 378 0
 1202 0038 2B7B     		ldrb	r3, [r5, #12]
 1203 003a 11AE     		add	r6, sp, #68
 1204 003c 5122     		movs	r2, #81
 1205 003e 0121     		movs	r1, #1
 1206 0040 3000     		movs	r0, r6
 1207 0042 FFF7FEFF 		bl	readFromAddr
 1208              	.LVL132:
 379:main.c        ****     struct Date currDate = {bcdToDec(day[0]),months[bcdToDec(month[0])-1],bcdToDec(year[0])};
 1209              		.loc 1 379 0
ARM GAS  C:\Users\HELLOK~1.1\AppData\Local\Temp\cc5k7xEp.s 			page 29


 1210 0046 3878     		ldrb	r0, [r7]
 1211 0048 FFF7FEFF 		bl	bcdToDec
 1212              	.LVL133:
 1213 004c 0700     		movs	r7, r0
 1214 004e 2078     		ldrb	r0, [r4]
 1215 0050 FFF7FEFF 		bl	bcdToDec
 1216              	.LVL134:
 1217 0054 441E     		subs	r4, r0, #1
 1218 0056 A300     		lsls	r3, r4, #2
 1219 0058 ED18     		adds	r5, r5, r3
 1220 005a 6B6E     		ldr	r3, [r5, #100]
 1221 005c 9946     		mov	r9, r3
 1222 005e 3078     		ldrb	r0, [r6]
 1223 0060 FFF7FEFF 		bl	bcdToDec
 1224              	.LVL135:
 1225 0064 0500     		movs	r5, r0
 1226              	.LVL136:
 380:main.c        ****     struct Date setDate;
 381:main.c        ****     int currentIndex = bcdToDec(month[0])-1;
 382:main.c        ****     setCursor(0,2);
 1227              		.loc 1 382 0
 1228 0066 0221     		movs	r1, #2
 1229 0068 0020     		movs	r0, #0
 1230 006a FFF7FEFF 		bl	setCursor
 1231              	.LVL137:
 383:main.c        ****     snprintf(printMessage,21,"%s %d, 20%d",currDate.month,currDate.day,currDate.year);
 1232              		.loc 1 383 0
 1233 006e 3E00     		movs	r6, r7
 1234 0070 0195     		str	r5, [sp, #4]
 1235 0072 0097     		str	r7, [sp]
 1236 0074 4B46     		mov	r3, r9
 1237 0076 BA4A     		ldr	r2, .L99+8
 1238 0078 1521     		movs	r1, #21
 1239 007a 14A8     		add	r0, sp, #80
 1240 007c FFF7FEFF 		bl	snprintf
 1241              	.LVL138:
 384:main.c        ****     LCD_print(printMessage);
 1242              		.loc 1 384 0
 1243 0080 14A8     		add	r0, sp, #80
 1244 0082 FFF7FEFF 		bl	LCD_print
 1245              	.LVL139:
 385:main.c        ****     while(buttonFlag == 0){
 1246              		.loc 1 385 0
 1247 0086 23E0     		b	.L55
 1248              	.L58:
 386:main.c        ****         if(encFlag == 1){
 1249              		.loc 1 386 0
 1250 0088 B64B     		ldr	r3, .L99+12
 1251 008a 5B78     		ldrb	r3, [r3, #1]
 1252 008c 012B     		cmp	r3, #1
 1253 008e 1FD1     		bne	.L55
 387:main.c        ****             encFlag = 0;
 1254              		.loc 1 387 0
 1255 0090 B44B     		ldr	r3, .L99+12
 1256 0092 0022     		movs	r2, #0
 1257 0094 5A70     		strb	r2, [r3, #1]
 388:main.c        ****             if(encPos == 1){
ARM GAS  C:\Users\HELLOK~1.1\AppData\Local\Temp\cc5k7xEp.s 			page 30


 1258              		.loc 1 388 0
 1259 0096 9B78     		ldrb	r3, [r3, #2]
 1260 0098 012B     		cmp	r3, #1
 1261 009a 03D1     		bne	.L56
 389:main.c        ****                 if(currentIndex == 12){
 1262              		.loc 1 389 0
 1263 009c 0C2C     		cmp	r4, #12
 1264 009e 09D0     		beq	.L88
 390:main.c        ****                     currentIndex = 1;
 391:main.c        ****                 }
 392:main.c        ****                 else{
 393:main.c        ****                     currentIndex++;
 1265              		.loc 1 393 0
 1266 00a0 0134     		adds	r4, r4, #1
 1267              	.LVL140:
 1268 00a2 0AE0     		b	.L57
 1269              	.L56:
 394:main.c        ****                 }
 395:main.c        ****             }
 396:main.c        ****             else if(encPos == 2){
 1270              		.loc 1 396 0
 1271 00a4 AF4B     		ldr	r3, .L99+12
 1272 00a6 9B78     		ldrb	r3, [r3, #2]
 1273 00a8 022B     		cmp	r3, #2
 1274 00aa 06D1     		bne	.L57
 397:main.c        ****                 if(currentIndex == 1){
 1275              		.loc 1 397 0
 1276 00ac 012C     		cmp	r4, #1
 1277 00ae 03D0     		beq	.L89
 398:main.c        ****                     currentIndex = 12;
 399:main.c        ****                 }
 400:main.c        ****                 else{
 401:main.c        ****                     currentIndex--;
 1278              		.loc 1 401 0
 1279 00b0 013C     		subs	r4, r4, #1
 1280              	.LVL141:
 1281 00b2 02E0     		b	.L57
 1282              	.L88:
 390:main.c        ****                 }
 1283              		.loc 1 390 0
 1284 00b4 0124     		movs	r4, #1
 1285              	.LVL142:
 1286 00b6 00E0     		b	.L57
 1287              	.LVL143:
 1288              	.L89:
 398:main.c        ****                     currentIndex = 12;
 1289              		.loc 1 398 0
 1290 00b8 0C24     		movs	r4, #12
 1291              	.LVL144:
 1292              	.L57:
 402:main.c        ****                 }
 403:main.c        ****             }
 404:main.c        ****             setCursor(0,2);
 1293              		.loc 1 404 0
 1294 00ba 0221     		movs	r1, #2
 1295 00bc 0020     		movs	r0, #0
 1296 00be FFF7FEFF 		bl	setCursor
ARM GAS  C:\Users\HELLOK~1.1\AppData\Local\Temp\cc5k7xEp.s 			page 31


 1297              	.LVL145:
 405:main.c        ****             LCD_print(months[currentIndex-1]);
 1298              		.loc 1 405 0
 1299 00c2 631E     		subs	r3, r4, #1
 1300 00c4 9B00     		lsls	r3, r3, #2
 1301 00c6 A54A     		ldr	r2, .L99+4
 1302 00c8 D318     		adds	r3, r2, r3
 1303 00ca 586E     		ldr	r0, [r3, #100]
 1304 00cc FFF7FEFF 		bl	LCD_print
 1305              	.LVL146:
 1306              	.L55:
 385:main.c        ****         if(encFlag == 1){
 1307              		.loc 1 385 0
 1308 00d0 A44B     		ldr	r3, .L99+12
 1309 00d2 DB78     		ldrb	r3, [r3, #3]
 1310 00d4 002B     		cmp	r3, #0
 1311 00d6 D7D0     		beq	.L58
 406:main.c        ****         }
 407:main.c        ****     }
 408:main.c        ****     uint8 numberMonth = currentIndex;
 1312              		.loc 1 408 0
 1313 00d8 E4B2     		uxtb	r4, r4
 1314              	.LVL147:
 409:main.c        ****     setDate.month = months[currentIndex-1];
 410:main.c        ****     buttonFlag = 0;
 1315              		.loc 1 410 0
 1316 00da 0022     		movs	r2, #0
 1317 00dc A14B     		ldr	r3, .L99+12
 1318 00de DA70     		strb	r2, [r3, #3]
 411:main.c        ****     setCursor(0,0);
 1319              		.loc 1 411 0
 1320 00e0 0021     		movs	r1, #0
 1321 00e2 0020     		movs	r0, #0
 1322 00e4 FFF7FEFF 		bl	setCursor
 1323              	.LVL148:
 412:main.c        ****     LCD_print("Set Day  ");
 1324              		.loc 1 412 0
 1325 00e8 9F48     		ldr	r0, .L99+16
 1326 00ea FFF7FEFF 		bl	LCD_print
 1327              	.LVL149:
 413:main.c        ****     currentIndex = currDate.day;
 414:main.c        ****     while(buttonFlag == 0){
 1328              		.loc 1 414 0
 1329 00ee 25E0     		b	.L60
 1330              	.LVL150:
 1331              	.L63:
 415:main.c        ****         if(encFlag == 1){
 1332              		.loc 1 415 0
 1333 00f0 9C4B     		ldr	r3, .L99+12
 1334 00f2 5B78     		ldrb	r3, [r3, #1]
 1335 00f4 012B     		cmp	r3, #1
 1336 00f6 21D1     		bne	.L60
 1337              	.LBB7:
 416:main.c        ****             encFlag = 0;
 1338              		.loc 1 416 0
 1339 00f8 9A4B     		ldr	r3, .L99+12
 1340 00fa 0022     		movs	r2, #0
ARM GAS  C:\Users\HELLOK~1.1\AppData\Local\Temp\cc5k7xEp.s 			page 32


 1341 00fc 5A70     		strb	r2, [r3, #1]
 417:main.c        ****             if(encPos == 1){
 1342              		.loc 1 417 0
 1343 00fe 9B78     		ldrb	r3, [r3, #2]
 1344 0100 012B     		cmp	r3, #1
 1345 0102 03D1     		bne	.L61
 418:main.c        ****                 if(currentIndex == 31){
 1346              		.loc 1 418 0
 1347 0104 1F2E     		cmp	r6, #31
 1348 0106 09D0     		beq	.L90
 419:main.c        ****                     currentIndex = 1;
 420:main.c        ****                 }
 421:main.c        ****                 else{
 422:main.c        ****                     currentIndex++;
 1349              		.loc 1 422 0
 1350 0108 0136     		adds	r6, r6, #1
 1351              	.LVL151:
 1352 010a 0AE0     		b	.L62
 1353              	.L61:
 423:main.c        ****                 }
 424:main.c        ****             }
 425:main.c        ****             else if(encPos == 2){
 1354              		.loc 1 425 0
 1355 010c 954B     		ldr	r3, .L99+12
 1356 010e 9B78     		ldrb	r3, [r3, #2]
 1357 0110 022B     		cmp	r3, #2
 1358 0112 06D1     		bne	.L62
 426:main.c        ****                 if(currentIndex == 1){
 1359              		.loc 1 426 0
 1360 0114 012E     		cmp	r6, #1
 1361 0116 03D0     		beq	.L91
 427:main.c        ****                     currentIndex = 31;
 428:main.c        ****                 }
 429:main.c        ****                 else{
 430:main.c        ****                     currentIndex--;
 1362              		.loc 1 430 0
 1363 0118 013E     		subs	r6, r6, #1
 1364              	.LVL152:
 1365 011a 02E0     		b	.L62
 1366              	.L90:
 419:main.c        ****                 }
 1367              		.loc 1 419 0
 1368 011c 0126     		movs	r6, #1
 1369              	.LVL153:
 1370 011e 00E0     		b	.L62
 1371              	.LVL154:
 1372              	.L91:
 427:main.c        ****                     currentIndex = 31;
 1373              		.loc 1 427 0
 1374 0120 1F26     		movs	r6, #31
 1375              	.LVL155:
 1376              	.L62:
 431:main.c        ****                 }
 432:main.c        ****             }
 433:main.c        ****             setCursor(4,2);
 1377              		.loc 1 433 0 discriminator 1
 1378 0122 0221     		movs	r1, #2
ARM GAS  C:\Users\HELLOK~1.1\AppData\Local\Temp\cc5k7xEp.s 			page 33


 1379 0124 0420     		movs	r0, #4
 1380 0126 FFF7FEFF 		bl	setCursor
 1381              	.LVL156:
 434:main.c        ****             char printDay[3];
 435:main.c        ****             snprintf(printDay,3,"%02d",currentIndex);
 1382              		.loc 1 435 0 discriminator 1
 1383 012a 3300     		movs	r3, r6
 1384 012c 8F4A     		ldr	r2, .L99+20
 1385 012e 0321     		movs	r1, #3
 1386 0130 05A8     		add	r0, sp, #20
 1387 0132 FFF7FEFF 		bl	snprintf
 1388              	.LVL157:
 436:main.c        ****             LCD_print(printDay);
 1389              		.loc 1 436 0 discriminator 1
 1390 0136 05A8     		add	r0, sp, #20
 1391 0138 FFF7FEFF 		bl	LCD_print
 1392              	.LVL158:
 1393              	.L60:
 1394              	.LBE7:
 414:main.c        ****         if(encFlag == 1){
 1395              		.loc 1 414 0
 1396 013c 894B     		ldr	r3, .L99+12
 1397 013e DB78     		ldrb	r3, [r3, #3]
 1398 0140 002B     		cmp	r3, #0
 1399 0142 D5D0     		beq	.L63
 437:main.c        ****         }
 438:main.c        ****     }
 439:main.c        ****     buttonFlag = 0;
 1400              		.loc 1 439 0
 1401 0144 874B     		ldr	r3, .L99+12
 1402 0146 0022     		movs	r2, #0
 1403 0148 DA70     		strb	r2, [r3, #3]
 440:main.c        ****     
 441:main.c        ****     setDate.day = currentIndex;
 1404              		.loc 1 441 0
 1405 014a 0EA9     		add	r1, sp, #56
 1406 014c 0E70     		strb	r6, [r1]
 442:main.c        ****     buttonFlag = 0;
 1407              		.loc 1 442 0
 1408 014e DA70     		strb	r2, [r3, #3]
 443:main.c        ****     setCursor(0,0);
 1409              		.loc 1 443 0
 1410 0150 0021     		movs	r1, #0
 1411 0152 0020     		movs	r0, #0
 1412 0154 FFF7FEFF 		bl	setCursor
 1413              	.LVL159:
 444:main.c        ****     LCD_print("Set Year");
 1414              		.loc 1 444 0
 1415 0158 8548     		ldr	r0, .L99+24
 1416 015a FFF7FEFF 		bl	LCD_print
 1417              	.LVL160:
 445:main.c        ****     currentIndex = currDate.year;
 446:main.c        ****     while(buttonFlag == 0){
 1418              		.loc 1 446 0
 1419 015e 25E0     		b	.L65
 1420              	.LVL161:
 1421              	.L68:
ARM GAS  C:\Users\HELLOK~1.1\AppData\Local\Temp\cc5k7xEp.s 			page 34


 447:main.c        ****         if(encFlag == 1){
 1422              		.loc 1 447 0
 1423 0160 804B     		ldr	r3, .L99+12
 1424 0162 5B78     		ldrb	r3, [r3, #1]
 1425 0164 012B     		cmp	r3, #1
 1426 0166 21D1     		bne	.L65
 1427              	.LBB8:
 448:main.c        ****             encFlag = 0;
 1428              		.loc 1 448 0
 1429 0168 7E4B     		ldr	r3, .L99+12
 1430 016a 0022     		movs	r2, #0
 1431 016c 5A70     		strb	r2, [r3, #1]
 449:main.c        ****             if(encPos == 1){
 1432              		.loc 1 449 0
 1433 016e 9B78     		ldrb	r3, [r3, #2]
 1434 0170 012B     		cmp	r3, #1
 1435 0172 03D1     		bne	.L66
 450:main.c        ****                 if(currentIndex == 99){
 1436              		.loc 1 450 0
 1437 0174 632D     		cmp	r5, #99
 1438 0176 09D0     		beq	.L92
 451:main.c        ****                     currentIndex = 0;
 452:main.c        ****                 }
 453:main.c        ****                 else{
 454:main.c        ****                     currentIndex++;
 1439              		.loc 1 454 0
 1440 0178 0135     		adds	r5, r5, #1
 1441              	.LVL162:
 1442 017a 0AE0     		b	.L67
 1443              	.L66:
 455:main.c        ****                 }
 456:main.c        ****             }
 457:main.c        ****             else if(encPos == 2){
 1444              		.loc 1 457 0
 1445 017c 794B     		ldr	r3, .L99+12
 1446 017e 9B78     		ldrb	r3, [r3, #2]
 1447 0180 022B     		cmp	r3, #2
 1448 0182 06D1     		bne	.L67
 458:main.c        ****                 if(currentIndex == 0){
 1449              		.loc 1 458 0
 1450 0184 002D     		cmp	r5, #0
 1451 0186 03D0     		beq	.L93
 459:main.c        ****                     currentIndex = 99;
 460:main.c        ****                 }
 461:main.c        ****                 else{
 462:main.c        ****                     currentIndex--;
 1452              		.loc 1 462 0
 1453 0188 013D     		subs	r5, r5, #1
 1454              	.LVL163:
 1455 018a 02E0     		b	.L67
 1456              	.L92:
 451:main.c        ****                 }
 1457              		.loc 1 451 0
 1458 018c 0025     		movs	r5, #0
 1459              	.LVL164:
 1460 018e 00E0     		b	.L67
 1461              	.LVL165:
ARM GAS  C:\Users\HELLOK~1.1\AppData\Local\Temp\cc5k7xEp.s 			page 35


 1462              	.L93:
 459:main.c        ****                     currentIndex = 99;
 1463              		.loc 1 459 0
 1464 0190 6325     		movs	r5, #99
 1465              	.LVL166:
 1466              	.L67:
 463:main.c        ****                 }
 464:main.c        ****             }
 465:main.c        ****             setCursor(8,2);
 1467              		.loc 1 465 0 discriminator 2
 1468 0192 0221     		movs	r1, #2
 1469 0194 0820     		movs	r0, #8
 1470 0196 FFF7FEFF 		bl	setCursor
 1471              	.LVL167:
 466:main.c        ****             char printYear[5];
 467:main.c        ****             snprintf(printYear,5,"20%02d",currentIndex);
 1472              		.loc 1 467 0 discriminator 2
 1473 019a 2B00     		movs	r3, r5
 1474 019c 754A     		ldr	r2, .L99+28
 1475 019e 0521     		movs	r1, #5
 1476 01a0 05A8     		add	r0, sp, #20
 1477 01a2 FFF7FEFF 		bl	snprintf
 1478              	.LVL168:
 468:main.c        ****             LCD_print(printYear);
 1479              		.loc 1 468 0 discriminator 2
 1480 01a6 05A8     		add	r0, sp, #20
 1481 01a8 FFF7FEFF 		bl	LCD_print
 1482              	.LVL169:
 1483              	.L65:
 1484              	.LBE8:
 446:main.c        ****         if(encFlag == 1){
 1485              		.loc 1 446 0
 1486 01ac 6D4B     		ldr	r3, .L99+12
 1487 01ae DB78     		ldrb	r3, [r3, #3]
 1488 01b0 002B     		cmp	r3, #0
 1489 01b2 D5D0     		beq	.L68
 469:main.c        ****         }
 470:main.c        ****     }
 471:main.c        ****     buttonFlag = 0;
 1490              		.loc 1 471 0
 1491 01b4 0022     		movs	r2, #0
 1492 01b6 6B4B     		ldr	r3, .L99+12
 1493 01b8 DA70     		strb	r2, [r3, #3]
 472:main.c        ****     setDate.year = currentIndex;
 1494              		.loc 1 472 0
 1495 01ba 0EAB     		add	r3, sp, #56
 1496 01bc 1D72     		strb	r5, [r3, #8]
 473:main.c        ****     
 474:main.c        ****     uint8 min[1];
 475:main.c        ****     readFromAddr(min,1,RTCAddr,rtc.Minutes);
 1497              		.loc 1 475 0
 1498 01be 674D     		ldr	r5, .L99+4
 1499              	.LVL170:
 1500 01c0 EB79     		ldrb	r3, [r5, #7]
 1501 01c2 5132     		adds	r2, r2, #81
 1502 01c4 0121     		movs	r1, #1
 1503 01c6 0DA8     		add	r0, sp, #52
ARM GAS  C:\Users\HELLOK~1.1\AppData\Local\Temp\cc5k7xEp.s 			page 36


 1504 01c8 FFF7FEFF 		bl	readFromAddr
 1505              	.LVL171:
 476:main.c        ****     uint8 hour[1];
 477:main.c        ****     readFromAddr(hour,1,RTCAddr,rtc.Hours);
 1506              		.loc 1 477 0
 1507 01cc 2B7A     		ldrb	r3, [r5, #8]
 1508 01ce 0CAD     		add	r5, sp, #48
 1509 01d0 5122     		movs	r2, #81
 1510 01d2 0121     		movs	r1, #1
 1511 01d4 2800     		movs	r0, r5
 1512 01d6 FFF7FEFF 		bl	readFromAddr
 1513              	.LVL172:
 478:main.c        ****     struct Time updateTime;
 479:main.c        ****     struct Time setTime;
 480:main.c        ****     if(hour[0] > 0x12){
 1514              		.loc 1 480 0
 1515 01da 2878     		ldrb	r0, [r5]
 1516 01dc 1228     		cmp	r0, #18
 1517 01de 13D9     		bls	.L69
 1518              	.LBB9:
 481:main.c        ****             volatile struct Time currTime = {bcdToDec(hour[0])-12,bcdToDec(min[0]),"PM"};
 1519              		.loc 1 481 0
 1520 01e0 FFF7FEFF 		bl	bcdToDec
 1521              	.LVL173:
 1522 01e4 1AAD     		add	r5, sp, #104
 1523 01e6 0C38     		subs	r0, r0, #12
 1524 01e8 2870     		strb	r0, [r5]
 1525 01ea 0DAB     		add	r3, sp, #52
 1526 01ec 1878     		ldrb	r0, [r3]
 1527 01ee FFF7FEFF 		bl	bcdToDec
 1528              	.LVL174:
 1529 01f2 6870     		strb	r0, [r5, #1]
 1530 01f4 604B     		ldr	r3, .L99+32
 1531 01f6 6B60     		str	r3, [r5, #4]
 1532 01f8 03AB     		add	r3, sp, #12
 1533 01fa 1A00     		movs	r2, r3
 1534 01fc 03CD     		ldmia	r5!, {r0, r1}
 1535 01fe 03C2     		stmia	r2!, {r0, r1}
 482:main.c        ****             updateTime = currTime;
 1536              		.loc 1 482 0
 1537 0200 0AAA     		add	r2, sp, #40
 1538 0202 03CB     		ldmia	r3!, {r0, r1}
 1539 0204 03C2     		stmia	r2!, {r0, r1}
 1540              	.LBE9:
 1541 0206 11E0     		b	.L70
 1542              	.L69:
 1543              	.LBB10:
 483:main.c        ****         }
 484:main.c        ****         else{
 485:main.c        ****             volatile struct Time currTime = {bcdToDec(hour[0]),bcdToDec(min[0]),"AM"};
 1544              		.loc 1 485 0
 1545 0208 FFF7FEFF 		bl	bcdToDec
 1546              	.LVL175:
 1547 020c 1CAD     		add	r5, sp, #112
 1548 020e 2870     		strb	r0, [r5]
 1549 0210 0DAB     		add	r3, sp, #52
 1550 0212 1878     		ldrb	r0, [r3]
ARM GAS  C:\Users\HELLOK~1.1\AppData\Local\Temp\cc5k7xEp.s 			page 37


 1551 0214 FFF7FEFF 		bl	bcdToDec
 1552              	.LVL176:
 1553 0218 6870     		strb	r0, [r5, #1]
 1554 021a 584B     		ldr	r3, .L99+36
 1555 021c 6B60     		str	r3, [r5, #4]
 1556 021e 05AB     		add	r3, sp, #20
 1557 0220 1A00     		movs	r2, r3
 1558 0222 03CD     		ldmia	r5!, {r0, r1}
 1559 0224 03C2     		stmia	r2!, {r0, r1}
 486:main.c        ****             updateTime = currTime;
 1560              		.loc 1 486 0
 1561 0226 0AAA     		add	r2, sp, #40
 1562 0228 03CB     		ldmia	r3!, {r0, r1}
 1563 022a 03C2     		stmia	r2!, {r0, r1}
 1564              	.L70:
 1565              	.LBE10:
 487:main.c        ****     }
 488:main.c        ****     setCursor(0,0);
 1566              		.loc 1 488 0
 1567 022c 0021     		movs	r1, #0
 1568 022e 0020     		movs	r0, #0
 1569 0230 FFF7FEFF 		bl	setCursor
 1570              	.LVL177:
 489:main.c        ****     LCD_print("Set Hour");
 1571              		.loc 1 489 0
 1572 0234 5248     		ldr	r0, .L99+40
 1573 0236 FFF7FEFF 		bl	LCD_print
 1574              	.LVL178:
 490:main.c        ****     setCursor(0,2);
 1575              		.loc 1 490 0
 1576 023a 0221     		movs	r1, #2
 1577 023c 0020     		movs	r0, #0
 1578 023e FFF7FEFF 		bl	setCursor
 1579              	.LVL179:
 491:main.c        ****     snprintf(printMessage,21,"%d:%.2d%s        ",updateTime.hour,updateTime.minute,updateTime.AM);
 1580              		.loc 1 491 0
 1581 0242 0AAB     		add	r3, sp, #40
 1582 0244 1D78     		ldrb	r5, [r3]
 1583 0246 5E78     		ldrb	r6, [r3, #1]
 1584 0248 0B9B     		ldr	r3, [sp, #44]
 1585 024a 0193     		str	r3, [sp, #4]
 1586 024c 0096     		str	r6, [sp]
 1587 024e 2B00     		movs	r3, r5
 1588 0250 4C4A     		ldr	r2, .L99+44
 1589 0252 1521     		movs	r1, #21
 1590 0254 14A8     		add	r0, sp, #80
 1591 0256 FFF7FEFF 		bl	snprintf
 1592              	.LVL180:
 492:main.c        ****     LCD_print(printMessage);
 1593              		.loc 1 492 0
 1594 025a 14A8     		add	r0, sp, #80
 1595 025c FFF7FEFF 		bl	LCD_print
 1596              	.LVL181:
 493:main.c        ****     currentIndex = updateTime.hour;
 494:main.c        ****     while(buttonFlag == 0){
 1597              		.loc 1 494 0
 1598 0260 25E0     		b	.L72
ARM GAS  C:\Users\HELLOK~1.1\AppData\Local\Temp\cc5k7xEp.s 			page 38


 1599              	.L75:
 495:main.c        ****         if(encFlag == 1){
 1600              		.loc 1 495 0
 1601 0262 404B     		ldr	r3, .L99+12
 1602 0264 5B78     		ldrb	r3, [r3, #1]
 1603 0266 012B     		cmp	r3, #1
 1604 0268 21D1     		bne	.L72
 1605              	.LBB11:
 496:main.c        ****             encFlag = 0;
 1606              		.loc 1 496 0
 1607 026a 3E4B     		ldr	r3, .L99+12
 1608 026c 0022     		movs	r2, #0
 1609 026e 5A70     		strb	r2, [r3, #1]
 497:main.c        ****             if(encPos == 1){
 1610              		.loc 1 497 0
 1611 0270 9B78     		ldrb	r3, [r3, #2]
 1612 0272 012B     		cmp	r3, #1
 1613 0274 03D1     		bne	.L73
 498:main.c        ****                 if(currentIndex == 12){
 1614              		.loc 1 498 0
 1615 0276 0C2D     		cmp	r5, #12
 1616 0278 09D0     		beq	.L94
 499:main.c        ****                     currentIndex = 1;
 500:main.c        ****                 }
 501:main.c        ****                 else{
 502:main.c        ****                     currentIndex++;
 1617              		.loc 1 502 0
 1618 027a 0135     		adds	r5, r5, #1
 1619              	.LVL182:
 1620 027c 0AE0     		b	.L74
 1621              	.L73:
 503:main.c        ****                 }
 504:main.c        ****             }
 505:main.c        ****             else if(encPos == 2){
 1622              		.loc 1 505 0
 1623 027e 394B     		ldr	r3, .L99+12
 1624 0280 9B78     		ldrb	r3, [r3, #2]
 1625 0282 022B     		cmp	r3, #2
 1626 0284 06D1     		bne	.L74
 506:main.c        ****                 if(currentIndex == 1){
 1627              		.loc 1 506 0
 1628 0286 012D     		cmp	r5, #1
 1629 0288 03D0     		beq	.L95
 507:main.c        ****                     currentIndex = 12;
 508:main.c        ****                 }
 509:main.c        ****                 else{
 510:main.c        ****                     currentIndex--;
 1630              		.loc 1 510 0
 1631 028a 013D     		subs	r5, r5, #1
 1632              	.LVL183:
 1633 028c 02E0     		b	.L74
 1634              	.L94:
 499:main.c        ****                 }
 1635              		.loc 1 499 0
 1636 028e 0125     		movs	r5, #1
 1637              	.LVL184:
 1638 0290 00E0     		b	.L74
ARM GAS  C:\Users\HELLOK~1.1\AppData\Local\Temp\cc5k7xEp.s 			page 39


 1639              	.LVL185:
 1640              	.L95:
 507:main.c        ****                     currentIndex = 12;
 1641              		.loc 1 507 0
 1642 0292 0C25     		movs	r5, #12
 1643              	.LVL186:
 1644              	.L74:
 511:main.c        ****                 }
 512:main.c        ****             }
 513:main.c        ****             setCursor(0,2);
 1645              		.loc 1 513 0 discriminator 3
 1646 0294 0221     		movs	r1, #2
 1647 0296 0020     		movs	r0, #0
 1648 0298 FFF7FEFF 		bl	setCursor
 1649              	.LVL187:
 514:main.c        ****             char printHour[3];
 515:main.c        ****             snprintf(printHour,3,"%02d",currentIndex);
 1650              		.loc 1 515 0 discriminator 3
 1651 029c 2B00     		movs	r3, r5
 1652 029e 334A     		ldr	r2, .L99+20
 1653 02a0 0321     		movs	r1, #3
 1654 02a2 02A8     		add	r0, sp, #8
 1655 02a4 FFF7FEFF 		bl	snprintf
 1656              	.LVL188:
 516:main.c        ****             LCD_print(printHour);
 1657              		.loc 1 516 0 discriminator 3
 1658 02a8 02A8     		add	r0, sp, #8
 1659 02aa FFF7FEFF 		bl	LCD_print
 1660              	.LVL189:
 1661              	.L72:
 1662              	.LBE11:
 494:main.c        ****         if(encFlag == 1){
 1663              		.loc 1 494 0
 1664 02ae 2D4B     		ldr	r3, .L99+12
 1665 02b0 DB78     		ldrb	r3, [r3, #3]
 1666 02b2 002B     		cmp	r3, #0
 1667 02b4 D5D0     		beq	.L75
 517:main.c        ****             
 518:main.c        ****         }
 519:main.c        ****     }
 520:main.c        ****     
 521:main.c        ****     setTime.hour = currentIndex;
 1668              		.loc 1 521 0
 1669 02b6 EDB2     		uxtb	r5, r5
 1670              	.LVL190:
 1671 02b8 08AB     		add	r3, sp, #32
 1672 02ba 1D70     		strb	r5, [r3]
 522:main.c        ****     buttonFlag = 0;
 1673              		.loc 1 522 0
 1674 02bc 0022     		movs	r2, #0
 1675 02be 294B     		ldr	r3, .L99+12
 1676 02c0 DA70     		strb	r2, [r3, #3]
 523:main.c        ****     setCursor(0,0);
 1677              		.loc 1 523 0
 1678 02c2 0021     		movs	r1, #0
 1679 02c4 0020     		movs	r0, #0
 1680 02c6 FFF7FEFF 		bl	setCursor
ARM GAS  C:\Users\HELLOK~1.1\AppData\Local\Temp\cc5k7xEp.s 			page 40


 1681              	.LVL191:
 524:main.c        ****     LCD_print("Set Minute");
 1682              		.loc 1 524 0
 1683 02ca 2F48     		ldr	r0, .L99+48
 1684 02cc FFF7FEFF 		bl	LCD_print
 1685              	.LVL192:
 525:main.c        ****     currentIndex = updateTime.minute;
 526:main.c        ****     while(buttonFlag == 0){
 1686              		.loc 1 526 0
 1687 02d0 25E0     		b	.L77
 1688              	.L80:
 527:main.c        ****         if(encFlag == 1){
 1689              		.loc 1 527 0
 1690 02d2 244B     		ldr	r3, .L99+12
 1691 02d4 5B78     		ldrb	r3, [r3, #1]
 1692 02d6 012B     		cmp	r3, #1
 1693 02d8 21D1     		bne	.L77
 1694              	.LBB12:
 528:main.c        ****             encFlag = 0;
 1695              		.loc 1 528 0
 1696 02da 224B     		ldr	r3, .L99+12
 1697 02dc 0022     		movs	r2, #0
 1698 02de 5A70     		strb	r2, [r3, #1]
 529:main.c        ****             if(encPos == 1){
 1699              		.loc 1 529 0
 1700 02e0 9B78     		ldrb	r3, [r3, #2]
 1701 02e2 012B     		cmp	r3, #1
 1702 02e4 03D1     		bne	.L78
 530:main.c        ****                 if(currentIndex == 59){
 1703              		.loc 1 530 0
 1704 02e6 3B2E     		cmp	r6, #59
 1705 02e8 09D0     		beq	.L96
 531:main.c        ****                     currentIndex = 0;
 532:main.c        ****                 }
 533:main.c        ****                 else{
 534:main.c        ****                     currentIndex++;
 1706              		.loc 1 534 0
 1707 02ea 0136     		adds	r6, r6, #1
 1708              	.LVL193:
 1709 02ec 0AE0     		b	.L79
 1710              	.L78:
 535:main.c        ****                 }
 536:main.c        ****             }
 537:main.c        ****             else if(encPos == 2){
 1711              		.loc 1 537 0
 1712 02ee 1D4B     		ldr	r3, .L99+12
 1713 02f0 9B78     		ldrb	r3, [r3, #2]
 1714 02f2 022B     		cmp	r3, #2
 1715 02f4 06D1     		bne	.L79
 538:main.c        ****                 if(currentIndex == 0){
 1716              		.loc 1 538 0
 1717 02f6 002E     		cmp	r6, #0
 1718 02f8 03D0     		beq	.L97
 539:main.c        ****                     currentIndex = 59;
 540:main.c        ****                 }
 541:main.c        ****                 else{
 542:main.c        ****                     currentIndex--;
ARM GAS  C:\Users\HELLOK~1.1\AppData\Local\Temp\cc5k7xEp.s 			page 41


 1719              		.loc 1 542 0
 1720 02fa 013E     		subs	r6, r6, #1
 1721              	.LVL194:
 1722 02fc 02E0     		b	.L79
 1723              	.L96:
 531:main.c        ****                 }
 1724              		.loc 1 531 0
 1725 02fe 0026     		movs	r6, #0
 1726              	.LVL195:
 1727 0300 00E0     		b	.L79
 1728              	.LVL196:
 1729              	.L97:
 539:main.c        ****                     currentIndex = 59;
 1730              		.loc 1 539 0
 1731 0302 3B26     		movs	r6, #59
 1732              	.LVL197:
 1733              	.L79:
 543:main.c        ****                 }
 544:main.c        ****             }
 545:main.c        ****             setCursor(3,2);
 1734              		.loc 1 545 0 discriminator 4
 1735 0304 0221     		movs	r1, #2
 1736 0306 0320     		movs	r0, #3
 1737 0308 FFF7FEFF 		bl	setCursor
 1738              	.LVL198:
 546:main.c        ****             char printMinute[3];
 547:main.c        ****             snprintf(printMinute,5,"%02d",currentIndex);
 1739              		.loc 1 547 0 discriminator 4
 1740 030c 3300     		movs	r3, r6
 1741 030e 174A     		ldr	r2, .L99+20
 1742 0310 0521     		movs	r1, #5
 1743 0312 02A8     		add	r0, sp, #8
 1744 0314 FFF7FEFF 		bl	snprintf
 1745              	.LVL199:
 548:main.c        ****             LCD_print(printMinute);
 1746              		.loc 1 548 0 discriminator 4
 1747 0318 02A8     		add	r0, sp, #8
 1748 031a FFF7FEFF 		bl	LCD_print
 1749              	.LVL200:
 1750              	.L77:
 1751              	.LBE12:
 526:main.c        ****         if(encFlag == 1){
 1752              		.loc 1 526 0
 1753 031e 114B     		ldr	r3, .L99+12
 1754 0320 DB78     		ldrb	r3, [r3, #3]
 1755 0322 002B     		cmp	r3, #0
 1756 0324 D5D0     		beq	.L80
 549:main.c        ****         }
 550:main.c        ****     }
 551:main.c        ****     
 552:main.c        ****     setTime.minute = currentIndex;
 1757              		.loc 1 552 0
 1758 0326 F6B2     		uxtb	r6, r6
 1759              	.LVL201:
 553:main.c        ****     buttonFlag = 0;
 1760              		.loc 1 553 0
 1761 0328 0022     		movs	r2, #0
ARM GAS  C:\Users\HELLOK~1.1\AppData\Local\Temp\cc5k7xEp.s 			page 42


 1762 032a 0E4B     		ldr	r3, .L99+12
 1763 032c DA70     		strb	r2, [r3, #3]
 554:main.c        ****     setCursor(0,0);
 1764              		.loc 1 554 0
 1765 032e 0021     		movs	r1, #0
 1766 0330 0020     		movs	r0, #0
 1767 0332 FFF7FEFF 		bl	setCursor
 1768              	.LVL202:
 555:main.c        ****     LCD_print("Set AM/PM    ");
 1769              		.loc 1 555 0
 1770 0336 1548     		ldr	r0, .L99+52
 1771 0338 FFF7FEFF 		bl	LCD_print
 1772              	.LVL203:
 556:main.c        ****     currentIndex = 0;
 1773              		.loc 1 556 0
 1774 033c 0027     		movs	r7, #0
 557:main.c        ****     while(buttonFlag == 0){
 1775              		.loc 1 557 0
 1776 033e 35E0     		b	.L82
 1777              	.LVL204:
 1778              	.L86:
 558:main.c        ****         if(encFlag == 1){
 1779              		.loc 1 558 0
 1780 0340 084B     		ldr	r3, .L99+12
 1781 0342 5B78     		ldrb	r3, [r3, #1]
 1782 0344 012B     		cmp	r3, #1
 1783 0346 31D1     		bne	.L82
 559:main.c        ****             encFlag = 0;
 1784              		.loc 1 559 0
 1785 0348 0022     		movs	r2, #0
 1786 034a 064B     		ldr	r3, .L99+12
 1787 034c 5A70     		strb	r2, [r3, #1]
 560:main.c        ****             if(currentIndex == 0){
 1788              		.loc 1 560 0
 1789 034e 002F     		cmp	r7, #0
 1790 0350 1ED1     		bne	.L98
 561:main.c        ****                 currentIndex = 1;
 1791              		.loc 1 561 0
 1792 0352 0137     		adds	r7, r7, #1
 1793              	.LVL205:
 1794 0354 1DE0     		b	.L83
 1795              	.L100:
 1796 0356 C046     		.align	2
 1797              	.L99:
 1798 0358 5C000000 		.word	.LC26
 1799 035c 00000000 		.word	.LANCHOR0
 1800 0360 68000000 		.word	.LC29
 1801 0364 00000000 		.word	.LANCHOR1
 1802 0368 74000000 		.word	.LC32
 1803 036c 80000000 		.word	.LC34
 1804 0370 88000000 		.word	.LC36
 1805 0374 94000000 		.word	.LC38
 1806 0378 9C000000 		.word	.LC4
 1807 037c A0000000 		.word	.LC0
 1808 0380 A4000000 		.word	.LC42
 1809 0384 B0000000 		.word	.LC44
 1810 0388 C4000000 		.word	.LC46
ARM GAS  C:\Users\HELLOK~1.1\AppData\Local\Temp\cc5k7xEp.s 			page 43


 1811 038c D0000000 		.word	.LC48
 1812              	.LVL206:
 1813              	.L98:
 562:main.c        ****             }
 563:main.c        ****             else{
 564:main.c        ****                 currentIndex = 0;
 1814              		.loc 1 564 0
 1815 0390 0027     		movs	r7, #0
 1816              	.LVL207:
 1817              	.L83:
 565:main.c        ****             }
 566:main.c        ****             setCursor(5,2);
 1818              		.loc 1 566 0
 1819 0392 0221     		movs	r1, #2
 1820 0394 0520     		movs	r0, #5
 1821 0396 FFF7FEFF 		bl	setCursor
 1822              	.LVL208:
 567:main.c        ****             if(currentIndex == 0){
 1823              		.loc 1 567 0
 1824 039a 002F     		cmp	r7, #0
 1825 039c 03D1     		bne	.L84
 568:main.c        ****                 LCD_print("AM");
 1826              		.loc 1 568 0
 1827 039e 2F48     		ldr	r0, .L101
 1828 03a0 FFF7FEFF 		bl	LCD_print
 1829              	.LVL209:
 1830 03a4 02E0     		b	.L82
 1831              	.L84:
 569:main.c        ****             }
 570:main.c        ****             else{
 571:main.c        ****                 LCD_print("PM");
 1832              		.loc 1 571 0
 1833 03a6 2E48     		ldr	r0, .L101+4
 1834 03a8 FFF7FEFF 		bl	LCD_print
 1835              	.LVL210:
 1836              	.L82:
 557:main.c        ****         if(encFlag == 1){
 1837              		.loc 1 557 0
 1838 03ac 2D4B     		ldr	r3, .L101+8
 1839 03ae DB78     		ldrb	r3, [r3, #3]
 1840 03b0 002B     		cmp	r3, #0
 1841 03b2 C5D0     		beq	.L86
 572:main.c        ****             }
 573:main.c        ****         }
 574:main.c        ****     }
 575:main.c        ****     buttonFlag = 0;
 1842              		.loc 1 575 0
 1843 03b4 0022     		movs	r2, #0
 1844 03b6 2B4B     		ldr	r3, .L101+8
 1845 03b8 DA70     		strb	r2, [r3, #3]
 576:main.c        ****     if(currentIndex == 0){
 1846              		.loc 1 576 0
 1847 03ba 002F     		cmp	r7, #0
 1848 03bc 02D0     		beq	.L87
 577:main.c        ****         
 578:main.c        ****     }
 579:main.c        ****     else{
ARM GAS  C:\Users\HELLOK~1.1\AppData\Local\Temp\cc5k7xEp.s 			page 44


 580:main.c        ****         setTime.hour = setTime.hour + 12;
 1849              		.loc 1 580 0
 1850 03be 0C35     		adds	r5, r5, #12
 1851 03c0 08AB     		add	r3, sp, #32
 1852 03c2 1D70     		strb	r5, [r3]
 1853              	.L87:
 581:main.c        ****     }
 582:main.c        ****     
 583:main.c        ****     uint8 wrBuf[2];
 584:main.c        ****     wrBuf[1] = 0x00;
 1854              		.loc 1 584 0
 1855 03c4 07AD     		add	r5, sp, #28
 1856 03c6 0023     		movs	r3, #0
 1857 03c8 6B70     		strb	r3, [r5, #1]
 585:main.c        ****     writeToAddr(wrBuf,2,RTCAddr,rtc.VL_Sec);
 1858              		.loc 1 585 0
 1859 03ca 274F     		ldr	r7, .L101+12
 1860              	.LVL211:
 1861 03cc BB79     		ldrb	r3, [r7, #6]
 1862 03ce 5122     		movs	r2, #81
 1863 03d0 0221     		movs	r1, #2
 1864 03d2 2800     		movs	r0, r5
 1865 03d4 FFF7FEFF 		bl	writeToAddr
 1866              	.LVL212:
 586:main.c        ****     wrBuf[1] = decToBcd(setTime.minute);
 1867              		.loc 1 586 0
 1868 03d8 3000     		movs	r0, r6
 1869 03da FFF7FEFF 		bl	decToBcd
 1870              	.LVL213:
 1871 03de 6870     		strb	r0, [r5, #1]
 587:main.c        ****     writeToAddr(wrBuf,2,RTCAddr,rtc.Minutes);
 1872              		.loc 1 587 0
 1873 03e0 FB79     		ldrb	r3, [r7, #7]
 1874 03e2 5122     		movs	r2, #81
 1875 03e4 0221     		movs	r1, #2
 1876 03e6 2800     		movs	r0, r5
 1877 03e8 FFF7FEFF 		bl	writeToAddr
 1878              	.LVL214:
 588:main.c        ****     wrBuf[1] = decToBcd(setTime.hour);
 1879              		.loc 1 588 0
 1880 03ec 08AB     		add	r3, sp, #32
 1881 03ee 1878     		ldrb	r0, [r3]
 1882 03f0 FFF7FEFF 		bl	decToBcd
 1883              	.LVL215:
 1884 03f4 6870     		strb	r0, [r5, #1]
 589:main.c        ****     writeToAddr(wrBuf,2,RTCAddr,rtc.Hours);
 1885              		.loc 1 589 0
 1886 03f6 3B7A     		ldrb	r3, [r7, #8]
 1887 03f8 5122     		movs	r2, #81
 1888 03fa 0221     		movs	r1, #2
 1889 03fc 2800     		movs	r0, r5
 1890 03fe FFF7FEFF 		bl	writeToAddr
 1891              	.LVL216:
 590:main.c        ****     wrBuf[1] = decToBcd(setDate.day);
 1892              		.loc 1 590 0
 1893 0402 0EAE     		add	r6, sp, #56
 1894 0404 3078     		ldrb	r0, [r6]
ARM GAS  C:\Users\HELLOK~1.1\AppData\Local\Temp\cc5k7xEp.s 			page 45


 1895 0406 FFF7FEFF 		bl	decToBcd
 1896              	.LVL217:
 1897 040a 6870     		strb	r0, [r5, #1]
 591:main.c        ****     writeToAddr(wrBuf,2,RTCAddr,rtc.Days);
 1898              		.loc 1 591 0
 1899 040c 7B7A     		ldrb	r3, [r7, #9]
 1900 040e 5122     		movs	r2, #81
 1901 0410 0221     		movs	r1, #2
 1902 0412 2800     		movs	r0, r5
 1903 0414 FFF7FEFF 		bl	writeToAddr
 1904              	.LVL218:
 592:main.c        ****     wrBuf[1] = 0x06;
 1905              		.loc 1 592 0
 1906 0418 0623     		movs	r3, #6
 1907 041a 6B70     		strb	r3, [r5, #1]
 593:main.c        ****     writeToAddr(wrBuf,2,RTCAddr,rtc.Weekdays);
 1908              		.loc 1 593 0
 1909 041c BB7A     		ldrb	r3, [r7, #10]
 1910 041e 5122     		movs	r2, #81
 1911 0420 0221     		movs	r1, #2
 1912 0422 2800     		movs	r0, r5
 1913 0424 FFF7FEFF 		bl	writeToAddr
 1914              	.LVL219:
 594:main.c        ****     wrBuf[1] = decToBcd(numberMonth);
 1915              		.loc 1 594 0
 1916 0428 2000     		movs	r0, r4
 1917 042a FFF7FEFF 		bl	decToBcd
 1918              	.LVL220:
 1919 042e 6870     		strb	r0, [r5, #1]
 595:main.c        ****     writeToAddr(wrBuf,2,RTCAddr,rtc.Century_Months);
 1920              		.loc 1 595 0
 1921 0430 FB7A     		ldrb	r3, [r7, #11]
 1922 0432 5122     		movs	r2, #81
 1923 0434 0221     		movs	r1, #2
 1924 0436 2800     		movs	r0, r5
 1925 0438 FFF7FEFF 		bl	writeToAddr
 1926              	.LVL221:
 596:main.c        ****     wrBuf[1] = decToBcd(setDate.year);
 1927              		.loc 1 596 0
 1928 043c 307A     		ldrb	r0, [r6, #8]
 1929 043e FFF7FEFF 		bl	decToBcd
 1930              	.LVL222:
 1931 0442 6870     		strb	r0, [r5, #1]
 597:main.c        ****     writeToAddr(wrBuf,2,RTCAddr,rtc.Years);
 1932              		.loc 1 597 0
 1933 0444 3B7B     		ldrb	r3, [r7, #12]
 1934 0446 5122     		movs	r2, #81
 1935 0448 0221     		movs	r1, #2
 1936 044a 2800     		movs	r0, r5
 1937 044c FFF7FEFF 		bl	writeToAddr
 1938              	.LVL223:
 598:main.c        ****     exitLCD();
 1939              		.loc 1 598 0
 1940 0450 FFF7FEFF 		bl	exitLCD
 1941              	.LVL224:
 599:main.c        ****     
 600:main.c        **** }
ARM GAS  C:\Users\HELLOK~1.1\AppData\Local\Temp\cc5k7xEp.s 			page 46


 1942              		.loc 1 600 0
 1943 0454 1EB0     		add	sp, sp, #120
 1944              		@ sp needed
 1945              	.LVL225:
 1946 0456 04BC     		pop	{r2}
 1947 0458 9146     		mov	r9, r2
 1948 045a F0BD     		pop	{r4, r5, r6, r7, pc}
 1949              	.L102:
 1950              		.align	2
 1951              	.L101:
 1952 045c A0000000 		.word	.LC0
 1953 0460 9C000000 		.word	.LC4
 1954 0464 00000000 		.word	.LANCHOR1
 1955 0468 00000000 		.word	.LANCHOR0
 1956              		.cfi_endproc
 1957              	.LFE49:
 1958              		.size	setGlobalTime, .-setGlobalTime
 1959              		.section	.text.setFeedTimes,"ax",%progbits
 1960              		.align	2
 1961              		.global	setFeedTimes
 1962              		.code	16
 1963              		.thumb_func
 1964              		.type	setFeedTimes, %function
 1965              	setFeedTimes:
 1966              	.LFB50:
 601:main.c        **** void setFeedTimes(){
 1967              		.loc 1 601 0
 1968              		.cfi_startproc
 1969              		@ args = 0, pretend = 0, frame = 112
 1970              		@ frame_needed = 0, uses_anonymous_args = 0
 1971 0000 F0B5     		push	{r4, r5, r6, r7, lr}
 1972              		.cfi_def_cfa_offset 20
 1973              		.cfi_offset 4, -20
 1974              		.cfi_offset 5, -16
 1975              		.cfi_offset 6, -12
 1976              		.cfi_offset 7, -8
 1977              		.cfi_offset 14, -4
 1978 0002 4F46     		mov	r7, r9
 1979 0004 80B4     		push	{r7}
 1980              		.cfi_def_cfa_offset 24
 1981              		.cfi_offset 9, -24
 1982 0006 9EB0     		sub	sp, sp, #120
 1983              		.cfi_def_cfa_offset 144
 602:main.c        ****     clear();
 1984              		.loc 1 602 0
 1985 0008 FFF7FEFF 		bl	clear
 1986              	.LVL226:
 603:main.c        ****     timesToFeed=0;
 1987              		.loc 1 603 0
 1988 000c CD4C     		ldr	r4, .L137
 1989 000e 0025     		movs	r5, #0
 1990 0010 2571     		strb	r5, [r4, #4]
 604:main.c        ****     setCursor(0,0);
 1991              		.loc 1 604 0
 1992 0012 0021     		movs	r1, #0
 1993 0014 0020     		movs	r0, #0
 1994 0016 FFF7FEFF 		bl	setCursor
ARM GAS  C:\Users\HELLOK~1.1\AppData\Local\Temp\cc5k7xEp.s 			page 47


 1995              	.LVL227:
 605:main.c        ****     LCD_print("Set amount of times");
 1996              		.loc 1 605 0
 1997 001a CB48     		ldr	r0, .L137+4
 1998 001c FFF7FEFF 		bl	LCD_print
 1999              	.LVL228:
 606:main.c        ****     setCursor(0,1);
 2000              		.loc 1 606 0
 2001 0020 0121     		movs	r1, #1
 2002 0022 0020     		movs	r0, #0
 2003 0024 FFF7FEFF 		bl	setCursor
 2004              	.LVL229:
 607:main.c        ****     LCD_print("to feed");
 2005              		.loc 1 607 0
 2006 0028 C848     		ldr	r0, .L137+8
 2007 002a FFF7FEFF 		bl	LCD_print
 2008              	.LVL230:
 608:main.c        ****     setCursor(0,2);
 2009              		.loc 1 608 0
 2010 002e 0221     		movs	r1, #2
 2011 0030 0020     		movs	r0, #0
 2012 0032 FFF7FEFF 		bl	setCursor
 2013              	.LVL231:
 609:main.c        ****     char message[21];
 610:main.c        ****     snprintf(message,21,"Number of feeds: %d",timesToFeed);
 2014              		.loc 1 610 0
 2015 0036 2379     		ldrb	r3, [r4, #4]
 2016 0038 14AC     		add	r4, sp, #80
 2017 003a C54A     		ldr	r2, .L137+12
 2018 003c 1521     		movs	r1, #21
 2019 003e 2000     		movs	r0, r4
 2020 0040 FFF7FEFF 		bl	snprintf
 2021              	.LVL232:
 611:main.c        ****     message[20] = '\0';
 2022              		.loc 1 611 0
 2023 0044 2575     		strb	r5, [r4, #20]
 612:main.c        ****     LCD_print(message);
 2024              		.loc 1 612 0
 2025 0046 2000     		movs	r0, r4
 2026 0048 FFF7FEFF 		bl	LCD_print
 2027              	.LVL233:
 613:main.c        ****     
 614:main.c        ****     while(buttonFlag == 0){
 2028              		.loc 1 614 0
 2029 004c 6AE0     		b	.L105
 2030              	.L109:
 615:main.c        ****         if(encFlag == 1){
 2031              		.loc 1 615 0
 2032 004e BD4B     		ldr	r3, .L137
 2033 0050 5B78     		ldrb	r3, [r3, #1]
 2034 0052 012B     		cmp	r3, #1
 2035 0054 66D1     		bne	.L105
 616:main.c        ****             encFlag = 0;
 2036              		.loc 1 616 0
 2037 0056 BB4B     		ldr	r3, .L137
 2038 0058 0022     		movs	r2, #0
 2039 005a 5A70     		strb	r2, [r3, #1]
ARM GAS  C:\Users\HELLOK~1.1\AppData\Local\Temp\cc5k7xEp.s 			page 48


 617:main.c        ****             if(encPos == 1){
 2040              		.loc 1 617 0
 2041 005c 9B78     		ldrb	r3, [r3, #2]
 2042 005e 012B     		cmp	r3, #1
 2043 0060 44D1     		bne	.L106
 618:main.c        ****                 if(timesToFeed == 10){
 2044              		.loc 1 618 0
 2045 0062 B84B     		ldr	r3, .L137
 2046 0064 1B79     		ldrb	r3, [r3, #4]
 2047 0066 0A2B     		cmp	r3, #10
 2048 0068 3CD1     		bne	.L107
 619:main.c        ****                     clear();
 2049              		.loc 1 619 0
 2050 006a FFF7FEFF 		bl	clear
 2051              	.LVL234:
 620:main.c        ****                     setCursor(0,0);
 2052              		.loc 1 620 0
 2053 006e 0021     		movs	r1, #0
 2054 0070 0020     		movs	r0, #0
 2055 0072 FFF7FEFF 		bl	setCursor
 2056              	.LVL235:
 621:main.c        ****                     LCD_print("Your cat doesn't");
 2057              		.loc 1 621 0
 2058 0076 B748     		ldr	r0, .L137+16
 2059 0078 FFF7FEFF 		bl	LCD_print
 2060              	.LVL236:
 622:main.c        ****                     setCursor(0,1);
 2061              		.loc 1 622 0
 2062 007c 0121     		movs	r1, #1
 2063 007e 0020     		movs	r0, #0
 2064 0080 FFF7FEFF 		bl	setCursor
 2065              	.LVL237:
 623:main.c        ****                     LCD_print("need to be fed more");
 2066              		.loc 1 623 0
 2067 0084 B448     		ldr	r0, .L137+20
 2068 0086 FFF7FEFF 		bl	LCD_print
 2069              	.LVL238:
 624:main.c        ****                     setCursor(0,2);
 2070              		.loc 1 624 0
 2071 008a 0221     		movs	r1, #2
 2072 008c 0020     		movs	r0, #0
 2073 008e FFF7FEFF 		bl	setCursor
 2074              	.LVL239:
 625:main.c        ****                     LCD_print("than 10 times.");
 2075              		.loc 1 625 0
 2076 0092 B248     		ldr	r0, .L137+24
 2077 0094 FFF7FEFF 		bl	LCD_print
 2078              	.LVL240:
 626:main.c        ****                     CyDelay(2000);
 2079              		.loc 1 626 0
 2080 0098 FA20     		movs	r0, #250
 2081 009a C000     		lsls	r0, r0, #3
 2082 009c FFF7FEFF 		bl	CyDelay
 2083              	.LVL241:
 627:main.c        ****                     clear();
 2084              		.loc 1 627 0
 2085 00a0 FFF7FEFF 		bl	clear
ARM GAS  C:\Users\HELLOK~1.1\AppData\Local\Temp\cc5k7xEp.s 			page 49


 2086              	.LVL242:
 628:main.c        ****                     setCursor(0,0);
 2087              		.loc 1 628 0
 2088 00a4 0021     		movs	r1, #0
 2089 00a6 0020     		movs	r0, #0
 2090 00a8 FFF7FEFF 		bl	setCursor
 2091              	.LVL243:
 629:main.c        ****                     LCD_print("Set amount of times");
 2092              		.loc 1 629 0
 2093 00ac A648     		ldr	r0, .L137+4
 2094 00ae FFF7FEFF 		bl	LCD_print
 2095              	.LVL244:
 630:main.c        ****                     setCursor(0,1);
 2096              		.loc 1 630 0
 2097 00b2 0121     		movs	r1, #1
 2098 00b4 0020     		movs	r0, #0
 2099 00b6 FFF7FEFF 		bl	setCursor
 2100              	.LVL245:
 631:main.c        ****                     LCD_print("to feed");
 2101              		.loc 1 631 0
 2102 00ba A448     		ldr	r0, .L137+8
 2103 00bc FFF7FEFF 		bl	LCD_print
 2104              	.LVL246:
 632:main.c        ****                     setCursor(0,2);
 2105              		.loc 1 632 0
 2106 00c0 0221     		movs	r1, #2
 2107 00c2 0020     		movs	r0, #0
 2108 00c4 FFF7FEFF 		bl	setCursor
 2109              	.LVL247:
 633:main.c        ****                     snprintf(message,21,"Number of feeds: %d",timesToFeed);
 2110              		.loc 1 633 0
 2111 00c8 9E4B     		ldr	r3, .L137
 2112 00ca 1B79     		ldrb	r3, [r3, #4]
 2113 00cc 14AC     		add	r4, sp, #80
 2114 00ce A04A     		ldr	r2, .L137+12
 2115 00d0 1521     		movs	r1, #21
 2116 00d2 2000     		movs	r0, r4
 2117 00d4 FFF7FEFF 		bl	snprintf
 2118              	.LVL248:
 634:main.c        ****                     message[20] = '\0';
 2119              		.loc 1 634 0
 2120 00d8 0023     		movs	r3, #0
 2121 00da 2375     		strb	r3, [r4, #20]
 635:main.c        ****                     LCD_print(message);
 2122              		.loc 1 635 0
 2123 00dc 2000     		movs	r0, r4
 2124 00de FFF7FEFF 		bl	LCD_print
 2125              	.LVL249:
 2126 00e2 0EE0     		b	.L108
 2127              	.L107:
 636:main.c        ****                 }
 637:main.c        ****                 else{
 638:main.c        ****                     timesToFeed++;
 2128              		.loc 1 638 0
 2129 00e4 0133     		adds	r3, r3, #1
 2130 00e6 974A     		ldr	r2, .L137
 2131 00e8 1371     		strb	r3, [r2, #4]
ARM GAS  C:\Users\HELLOK~1.1\AppData\Local\Temp\cc5k7xEp.s 			page 50


 2132 00ea 0AE0     		b	.L108
 2133              	.L106:
 639:main.c        ****                 }
 640:main.c        ****             }
 641:main.c        ****             else if(encPos == 2){
 2134              		.loc 1 641 0
 2135 00ec 954B     		ldr	r3, .L137
 2136 00ee 9B78     		ldrb	r3, [r3, #2]
 2137 00f0 022B     		cmp	r3, #2
 2138 00f2 06D1     		bne	.L108
 642:main.c        ****                 if(timesToFeed == 0){
 2139              		.loc 1 642 0
 2140 00f4 934B     		ldr	r3, .L137
 2141 00f6 1B79     		ldrb	r3, [r3, #4]
 2142 00f8 002B     		cmp	r3, #0
 2143 00fa 02D0     		beq	.L108
 643:main.c        ****                 }
 644:main.c        ****                 else{
 645:main.c        ****                     timesToFeed--;
 2144              		.loc 1 645 0
 2145 00fc 013B     		subs	r3, r3, #1
 2146 00fe 914A     		ldr	r2, .L137
 2147 0100 1371     		strb	r3, [r2, #4]
 2148              	.L108:
 646:main.c        ****                 }
 647:main.c        ****             }
 648:main.c        ****             setCursor(0,2);
 2149              		.loc 1 648 0
 2150 0102 0221     		movs	r1, #2
 2151 0104 0020     		movs	r0, #0
 2152 0106 FFF7FEFF 		bl	setCursor
 2153              	.LVL250:
 649:main.c        ****             snprintf(message,21,"Number of feeds: %d ",timesToFeed);
 2154              		.loc 1 649 0
 2155 010a 8E4B     		ldr	r3, .L137
 2156 010c 1B79     		ldrb	r3, [r3, #4]
 2157 010e 14AC     		add	r4, sp, #80
 2158 0110 934A     		ldr	r2, .L137+28
 2159 0112 1521     		movs	r1, #21
 2160 0114 2000     		movs	r0, r4
 2161 0116 FFF7FEFF 		bl	snprintf
 2162              	.LVL251:
 650:main.c        ****             message[20] = '\0';
 2163              		.loc 1 650 0
 2164 011a 0023     		movs	r3, #0
 2165 011c 2375     		strb	r3, [r4, #20]
 651:main.c        ****             LCD_print(message);
 2166              		.loc 1 651 0
 2167 011e 2000     		movs	r0, r4
 2168 0120 FFF7FEFF 		bl	LCD_print
 2169              	.LVL252:
 2170              	.L105:
 614:main.c        ****         if(encFlag == 1){
 2171              		.loc 1 614 0
 2172 0124 874B     		ldr	r3, .L137
 2173 0126 DB78     		ldrb	r3, [r3, #3]
 2174 0128 002B     		cmp	r3, #0
ARM GAS  C:\Users\HELLOK~1.1\AppData\Local\Temp\cc5k7xEp.s 			page 51


 2175 012a 90D0     		beq	.L109
 652:main.c        ****         }
 653:main.c        ****     }
 654:main.c        ****     buttonFlag = 0;
 2176              		.loc 1 654 0
 2177 012c 0022     		movs	r2, #0
 2178 012e 854B     		ldr	r3, .L137
 2179 0130 DA70     		strb	r2, [r3, #3]
 655:main.c        ****     clear();
 2180              		.loc 1 655 0
 2181 0132 FFF7FEFF 		bl	clear
 2182              	.LVL253:
 2183              	.LBB13:
 656:main.c        ****     for(int i = 0; i < timesToFeed; i++){
 2184              		.loc 1 656 0
 2185 0136 0025     		movs	r5, #0
 2186 0138 30E1     		b	.L110
 2187              	.LVL254:
 2188              	.L131:
 2189              	.LBB14:
 657:main.c        ****         setCursor(0,0);
 2190              		.loc 1 657 0
 2191 013a 0021     		movs	r1, #0
 2192 013c 0020     		movs	r0, #0
 2193 013e FFF7FEFF 		bl	setCursor
 2194              	.LVL255:
 658:main.c        ****         snprintf(message,21,"Feed #%d",i+1);
 2195              		.loc 1 658 0
 2196 0142 6B1C     		adds	r3, r5, #1
 2197 0144 0393     		str	r3, [sp, #12]
 2198 0146 874A     		ldr	r2, .L137+32
 2199 0148 1521     		movs	r1, #21
 2200 014a 14A8     		add	r0, sp, #80
 2201 014c FFF7FEFF 		bl	snprintf
 2202              	.LVL256:
 659:main.c        ****         LCD_print(message);
 2203              		.loc 1 659 0
 2204 0150 14A8     		add	r0, sp, #80
 2205 0152 FFF7FEFF 		bl	LCD_print
 2206              	.LVL257:
 660:main.c        ****         uint8 min[1];
 661:main.c        ****         readFromAddr(min,1,RTCAddr,rtc.Minutes);
 2207              		.loc 1 661 0
 2208 0156 844E     		ldr	r6, .L137+36
 2209 0158 F379     		ldrb	r3, [r6, #7]
 2210 015a 5122     		movs	r2, #81
 2211 015c 0121     		movs	r1, #1
 2212 015e 04A8     		add	r0, sp, #16
 2213 0160 FFF7FEFF 		bl	readFromAddr
 2214              	.LVL258:
 662:main.c        ****         uint8 hour[1];
 663:main.c        ****         uint8 currentIndex = 0;
 664:main.c        ****         readFromAddr(hour,1,RTCAddr,rtc.Hours);
 2215              		.loc 1 664 0
 2216 0164 337A     		ldrb	r3, [r6, #8]
 2217 0166 05AE     		add	r6, sp, #20
 2218 0168 5122     		movs	r2, #81
ARM GAS  C:\Users\HELLOK~1.1\AppData\Local\Temp\cc5k7xEp.s 			page 52


 2219 016a 0121     		movs	r1, #1
 2220 016c 3000     		movs	r0, r6
 2221 016e FFF7FEFF 		bl	readFromAddr
 2222              	.LVL259:
 665:main.c        ****         struct Time updateTime;
 666:main.c        ****         struct Time setTime;
 667:main.c        ****         if(hour[0] > 0x12){
 2223              		.loc 1 667 0
 2224 0172 3078     		ldrb	r0, [r6]
 2225 0174 1228     		cmp	r0, #18
 2226 0176 16D9     		bls	.L111
 2227              	.LBB15:
 668:main.c        ****                 volatile struct Time currTime = {bcdToDec(hour[0])-12,bcdToDec(min[0]),"PM"};
 2228              		.loc 1 668 0
 2229 0178 FFF7FEFF 		bl	bcdToDec
 2230              	.LVL260:
 2231 017c 1AAE     		add	r6, sp, #104
 2232 017e 0C38     		subs	r0, r0, #12
 2233 0180 3070     		strb	r0, [r6]
 2234 0182 04AB     		add	r3, sp, #16
 2235 0184 1878     		ldrb	r0, [r3]
 2236 0186 FFF7FEFF 		bl	bcdToDec
 2237              	.LVL261:
 2238 018a 7070     		strb	r0, [r6, #1]
 2239 018c 774B     		ldr	r3, .L137+40
 2240 018e 7360     		str	r3, [r6, #4]
 2241 0190 0822     		movs	r2, #8
 2242 0192 3100     		movs	r1, r6
 2243 0194 0AA8     		add	r0, sp, #40
 2244 0196 FFF7FEFF 		bl	memcpy
 2245              	.LVL262:
 669:main.c        ****                 updateTime = currTime;
 2246              		.loc 1 669 0
 2247 019a 0822     		movs	r2, #8
 2248 019c 0AA9     		add	r1, sp, #40
 2249 019e 06A8     		add	r0, sp, #24
 2250 01a0 FFF7FEFF 		bl	memcpy
 2251              	.LVL263:
 2252              	.LBE15:
 2253 01a4 14E0     		b	.L112
 2254              	.L111:
 2255              	.LBB16:
 670:main.c        ****             }
 671:main.c        ****             else{
 672:main.c        ****                 volatile struct Time currTime = {bcdToDec(hour[0]),bcdToDec(min[0]),"AM"};
 2256              		.loc 1 672 0
 2257 01a6 FFF7FEFF 		bl	bcdToDec
 2258              	.LVL264:
 2259 01aa 1CAE     		add	r6, sp, #112
 2260 01ac 3070     		strb	r0, [r6]
 2261 01ae 04AB     		add	r3, sp, #16
 2262 01b0 1878     		ldrb	r0, [r3]
 2263 01b2 FFF7FEFF 		bl	bcdToDec
 2264              	.LVL265:
 2265 01b6 7070     		strb	r0, [r6, #1]
 2266 01b8 6D4B     		ldr	r3, .L137+44
 2267 01ba 7360     		str	r3, [r6, #4]
ARM GAS  C:\Users\HELLOK~1.1\AppData\Local\Temp\cc5k7xEp.s 			page 53


 2268 01bc 0822     		movs	r2, #8
 2269 01be 3100     		movs	r1, r6
 2270 01c0 0CA8     		add	r0, sp, #48
 2271 01c2 FFF7FEFF 		bl	memcpy
 2272              	.LVL266:
 673:main.c        ****                 updateTime = currTime;
 2273              		.loc 1 673 0
 2274 01c6 0822     		movs	r2, #8
 2275 01c8 0CA9     		add	r1, sp, #48
 2276 01ca 06A8     		add	r0, sp, #24
 2277 01cc FFF7FEFF 		bl	memcpy
 2278              	.LVL267:
 2279              	.L112:
 2280              	.LBE16:
 674:main.c        ****         }
 675:main.c        ****         setCursor(0,1);
 2281              		.loc 1 675 0
 2282 01d0 0121     		movs	r1, #1
 2283 01d2 0020     		movs	r0, #0
 2284 01d4 FFF7FEFF 		bl	setCursor
 2285              	.LVL268:
 676:main.c        ****         LCD_print("Set Hour   ");
 2286              		.loc 1 676 0
 2287 01d8 6648     		ldr	r0, .L137+48
 2288 01da FFF7FEFF 		bl	LCD_print
 2289              	.LVL269:
 677:main.c        ****         setCursor(0,2);
 2290              		.loc 1 677 0
 2291 01de 0221     		movs	r1, #2
 2292 01e0 0020     		movs	r0, #0
 2293 01e2 FFF7FEFF 		bl	setCursor
 2294              	.LVL270:
 678:main.c        ****         snprintf(message,21,"%02d:%02d%s        ",updateTime.hour,updateTime.minute,updateTime.AM);
 2295              		.loc 1 678 0
 2296 01e6 06AB     		add	r3, sp, #24
 2297 01e8 1E78     		ldrb	r6, [r3]
 2298 01ea 5F78     		ldrb	r7, [r3, #1]
 2299 01ec B946     		mov	r9, r7
 2300 01ee 079C     		ldr	r4, [sp, #28]
 2301 01f0 0194     		str	r4, [sp, #4]
 2302 01f2 0097     		str	r7, [sp]
 2303 01f4 3300     		movs	r3, r6
 2304 01f6 604A     		ldr	r2, .L137+52
 2305 01f8 1521     		movs	r1, #21
 2306 01fa 14A8     		add	r0, sp, #80
 2307 01fc FFF7FEFF 		bl	snprintf
 2308              	.LVL271:
 679:main.c        ****         LCD_print(message);
 2309              		.loc 1 679 0
 2310 0200 14A8     		add	r0, sp, #80
 2311 0202 FFF7FEFF 		bl	LCD_print
 2312              	.LVL272:
 680:main.c        ****         currentIndex = updateTime.hour;
 681:main.c        ****         while(buttonFlag == 0){
 2313              		.loc 1 681 0
 2314 0206 2AE0     		b	.L114
 2315              	.L117:
ARM GAS  C:\Users\HELLOK~1.1\AppData\Local\Temp\cc5k7xEp.s 			page 54


 682:main.c        ****             if(encFlag == 1){
 2316              		.loc 1 682 0
 2317 0208 4E4B     		ldr	r3, .L137
 2318 020a 5B78     		ldrb	r3, [r3, #1]
 2319 020c 012B     		cmp	r3, #1
 2320 020e 26D1     		bne	.L114
 2321              	.LBB17:
 683:main.c        ****                 encFlag = 0;
 2322              		.loc 1 683 0
 2323 0210 4C4B     		ldr	r3, .L137
 2324 0212 0022     		movs	r2, #0
 2325 0214 5A70     		strb	r2, [r3, #1]
 684:main.c        ****                 if(encPos == 1){
 2326              		.loc 1 684 0
 2327 0216 9B78     		ldrb	r3, [r3, #2]
 2328 0218 012B     		cmp	r3, #1
 2329 021a 04D1     		bne	.L115
 685:main.c        ****                     if(currentIndex == 12){
 2330              		.loc 1 685 0
 2331 021c 0C2E     		cmp	r6, #12
 2332 021e 0BD0     		beq	.L132
 686:main.c        ****                         currentIndex = 1;
 687:main.c        ****                     }
 688:main.c        ****                     else{
 689:main.c        ****                         currentIndex++;
 2333              		.loc 1 689 0
 2334 0220 0136     		adds	r6, r6, #1
 2335              	.LVL273:
 2336 0222 F6B2     		uxtb	r6, r6
 2337              	.LVL274:
 2338 0224 0BE0     		b	.L116
 2339              	.L115:
 690:main.c        ****                     }
 691:main.c        ****                 }
 692:main.c        ****                 else if(encPos == 2){
 2340              		.loc 1 692 0
 2341 0226 474B     		ldr	r3, .L137
 2342 0228 9B78     		ldrb	r3, [r3, #2]
 2343 022a 022B     		cmp	r3, #2
 2344 022c 07D1     		bne	.L116
 693:main.c        ****                     if(currentIndex == 1){
 2345              		.loc 1 693 0
 2346 022e 012E     		cmp	r6, #1
 2347 0230 04D0     		beq	.L133
 694:main.c        ****                         currentIndex = 12;
 695:main.c        ****                     }
 696:main.c        ****                     else{
 697:main.c        ****                         currentIndex--;
 2348              		.loc 1 697 0
 2349 0232 013E     		subs	r6, r6, #1
 2350              	.LVL275:
 2351 0234 F6B2     		uxtb	r6, r6
 2352              	.LVL276:
 2353 0236 02E0     		b	.L116
 2354              	.L132:
 686:main.c        ****                     }
 2355              		.loc 1 686 0
ARM GAS  C:\Users\HELLOK~1.1\AppData\Local\Temp\cc5k7xEp.s 			page 55


 2356 0238 0126     		movs	r6, #1
 2357              	.LVL277:
 2358 023a 00E0     		b	.L116
 2359              	.LVL278:
 2360              	.L133:
 694:main.c        ****                         currentIndex = 12;
 2361              		.loc 1 694 0
 2362 023c 0C26     		movs	r6, #12
 2363              	.LVL279:
 2364              	.L116:
 698:main.c        ****                     }
 699:main.c        ****                 }
 700:main.c        ****                 setCursor(0,2);
 2365              		.loc 1 700 0 discriminator 1
 2366 023e 0221     		movs	r1, #2
 2367 0240 0020     		movs	r0, #0
 2368 0242 FFF7FEFF 		bl	setCursor
 2369              	.LVL280:
 701:main.c        ****                 char printHour[21];
 702:main.c        ****                 snprintf(printHour,21,"%02d:%02d%s        ",currentIndex,updateTime.minute,updateTi
 2370              		.loc 1 702 0 discriminator 1
 2371 0246 0194     		str	r4, [sp, #4]
 2372 0248 4B46     		mov	r3, r9
 2373 024a 0093     		str	r3, [sp]
 2374 024c 3300     		movs	r3, r6
 2375 024e 4A4A     		ldr	r2, .L137+52
 2376 0250 1521     		movs	r1, #21
 2377 0252 0EA8     		add	r0, sp, #56
 2378 0254 FFF7FEFF 		bl	snprintf
 2379              	.LVL281:
 703:main.c        ****                 LCD_print(printHour);
 2380              		.loc 1 703 0 discriminator 1
 2381 0258 0EA8     		add	r0, sp, #56
 2382 025a FFF7FEFF 		bl	LCD_print
 2383              	.LVL282:
 2384              	.L114:
 2385              	.LBE17:
 681:main.c        ****             if(encFlag == 1){
 2386              		.loc 1 681 0
 2387 025e 394B     		ldr	r3, .L137
 2388 0260 DB78     		ldrb	r3, [r3, #3]
 2389 0262 002B     		cmp	r3, #0
 2390 0264 D0D0     		beq	.L117
 704:main.c        ****                 
 705:main.c        ****             }
 706:main.c        ****         }
 707:main.c        ****         
 708:main.c        ****         setTime.hour = currentIndex;
 2391              		.loc 1 708 0
 2392 0266 08AB     		add	r3, sp, #32
 2393 0268 1E70     		strb	r6, [r3]
 709:main.c        ****         buttonFlag = 0;
 2394              		.loc 1 709 0
 2395 026a 0022     		movs	r2, #0
 2396 026c 354B     		ldr	r3, .L137
 2397 026e DA70     		strb	r2, [r3, #3]
 710:main.c        ****         setCursor(0,1);
ARM GAS  C:\Users\HELLOK~1.1\AppData\Local\Temp\cc5k7xEp.s 			page 56


 2398              		.loc 1 710 0
 2399 0270 0121     		movs	r1, #1
 2400 0272 0020     		movs	r0, #0
 2401 0274 FFF7FEFF 		bl	setCursor
 2402              	.LVL283:
 711:main.c        ****         LCD_print("Set Minute");
 2403              		.loc 1 711 0
 2404 0278 4048     		ldr	r0, .L137+56
 2405 027a FFF7FEFF 		bl	LCD_print
 2406              	.LVL284:
 712:main.c        ****         currentIndex = updateTime.minute;
 713:main.c        ****         while(buttonFlag == 0){
 2407              		.loc 1 713 0
 2408 027e 29E0     		b	.L119
 2409              	.L122:
 714:main.c        ****             if(encFlag == 1){
 2410              		.loc 1 714 0
 2411 0280 304B     		ldr	r3, .L137
 2412 0282 5B78     		ldrb	r3, [r3, #1]
 2413 0284 012B     		cmp	r3, #1
 2414 0286 25D1     		bne	.L119
 2415              	.LBB18:
 715:main.c        ****                 encFlag = 0;
 2416              		.loc 1 715 0
 2417 0288 2E4B     		ldr	r3, .L137
 2418 028a 0022     		movs	r2, #0
 2419 028c 5A70     		strb	r2, [r3, #1]
 716:main.c        ****                 if(encPos == 1){
 2420              		.loc 1 716 0
 2421 028e 9B78     		ldrb	r3, [r3, #2]
 2422 0290 012B     		cmp	r3, #1
 2423 0292 04D1     		bne	.L120
 717:main.c        ****                     if(currentIndex == 59){
 2424              		.loc 1 717 0
 2425 0294 3B2F     		cmp	r7, #59
 2426 0296 0BD0     		beq	.L134
 718:main.c        ****                         currentIndex = 0;
 719:main.c        ****                     }
 720:main.c        ****                     else{
 721:main.c        ****                         currentIndex++;
 2427              		.loc 1 721 0
 2428 0298 0137     		adds	r7, r7, #1
 2429              	.LVL285:
 2430 029a FFB2     		uxtb	r7, r7
 2431              	.LVL286:
 2432 029c 0BE0     		b	.L121
 2433              	.L120:
 722:main.c        ****                     }
 723:main.c        ****                 }
 724:main.c        ****                 else if(encPos == 2){
 2434              		.loc 1 724 0
 2435 029e 294B     		ldr	r3, .L137
 2436 02a0 9B78     		ldrb	r3, [r3, #2]
 2437 02a2 022B     		cmp	r3, #2
 2438 02a4 07D1     		bne	.L121
 725:main.c        ****                     if(currentIndex == 0){
 2439              		.loc 1 725 0
ARM GAS  C:\Users\HELLOK~1.1\AppData\Local\Temp\cc5k7xEp.s 			page 57


 2440 02a6 002F     		cmp	r7, #0
 2441 02a8 04D0     		beq	.L135
 726:main.c        ****                         currentIndex = 59;
 727:main.c        ****                     }
 728:main.c        ****                     else{
 729:main.c        ****                         currentIndex--;
 2442              		.loc 1 729 0
 2443 02aa 013F     		subs	r7, r7, #1
 2444              	.LVL287:
 2445 02ac FFB2     		uxtb	r7, r7
 2446              	.LVL288:
 2447 02ae 02E0     		b	.L121
 2448              	.L134:
 718:main.c        ****                     }
 2449              		.loc 1 718 0
 2450 02b0 0027     		movs	r7, #0
 2451              	.LVL289:
 2452 02b2 00E0     		b	.L121
 2453              	.LVL290:
 2454              	.L135:
 726:main.c        ****                         currentIndex = 59;
 2455              		.loc 1 726 0
 2456 02b4 3B27     		movs	r7, #59
 2457              	.LVL291:
 2458              	.L121:
 730:main.c        ****                     }
 731:main.c        ****                 }
 732:main.c        ****                 setCursor(0,2);
 2459              		.loc 1 732 0 discriminator 2
 2460 02b6 0221     		movs	r1, #2
 2461 02b8 0020     		movs	r0, #0
 2462 02ba FFF7FEFF 		bl	setCursor
 2463              	.LVL292:
 733:main.c        ****                 char printMinute[21];
 734:main.c        ****                 snprintf(printMinute,21,"%02d:%02d%s        ",setTime.hour,currentIndex,updateTime.
 2464              		.loc 1 734 0 discriminator 2
 2465 02be 0194     		str	r4, [sp, #4]
 2466 02c0 0097     		str	r7, [sp]
 2467 02c2 3300     		movs	r3, r6
 2468 02c4 2C4A     		ldr	r2, .L137+52
 2469 02c6 1521     		movs	r1, #21
 2470 02c8 0EA8     		add	r0, sp, #56
 2471 02ca FFF7FEFF 		bl	snprintf
 2472              	.LVL293:
 735:main.c        ****                 LCD_print(printMinute);
 2473              		.loc 1 735 0 discriminator 2
 2474 02ce 0EA8     		add	r0, sp, #56
 2475 02d0 FFF7FEFF 		bl	LCD_print
 2476              	.LVL294:
 2477              	.L119:
 2478              	.LBE18:
 713:main.c        ****             if(encFlag == 1){
 2479              		.loc 1 713 0
 2480 02d4 1B4B     		ldr	r3, .L137
 2481 02d6 DB78     		ldrb	r3, [r3, #3]
 2482 02d8 002B     		cmp	r3, #0
 2483 02da D1D0     		beq	.L122
ARM GAS  C:\Users\HELLOK~1.1\AppData\Local\Temp\cc5k7xEp.s 			page 58


 736:main.c        ****             }
 737:main.c        ****         }
 738:main.c        ****         
 739:main.c        ****         setTime.minute = currentIndex;
 2484              		.loc 1 739 0
 2485 02dc 08AB     		add	r3, sp, #32
 2486 02de 5F70     		strb	r7, [r3, #1]
 740:main.c        ****         buttonFlag = 0;
 2487              		.loc 1 740 0
 2488 02e0 0022     		movs	r2, #0
 2489 02e2 184B     		ldr	r3, .L137
 2490 02e4 DA70     		strb	r2, [r3, #3]
 741:main.c        ****         setCursor(0,1);
 2491              		.loc 1 741 0
 2492 02e6 0121     		movs	r1, #1
 2493 02e8 0020     		movs	r0, #0
 2494 02ea FFF7FEFF 		bl	setCursor
 2495              	.LVL295:
 742:main.c        ****         LCD_print("Set AM/PM    ");
 2496              		.loc 1 742 0
 2497 02ee 2448     		ldr	r0, .L137+60
 2498 02f0 FFF7FEFF 		bl	LCD_print
 2499              	.LVL296:
 743:main.c        ****         currentIndex = 0;
 2500              		.loc 1 743 0
 2501 02f4 0026     		movs	r6, #0
 744:main.c        ****         while(buttonFlag == 0){
 2502              		.loc 1 744 0
 2503 02f6 18E0     		b	.L124
 2504              	.LVL297:
 2505              	.L128:
 745:main.c        ****             if(encFlag == 1){
 2506              		.loc 1 745 0
 2507 02f8 124B     		ldr	r3, .L137
 2508 02fa 5B78     		ldrb	r3, [r3, #1]
 2509 02fc 012B     		cmp	r3, #1
 2510 02fe 14D1     		bne	.L124
 746:main.c        ****                 encFlag = 0;
 2511              		.loc 1 746 0
 2512 0300 0022     		movs	r2, #0
 2513 0302 104B     		ldr	r3, .L137
 2514 0304 5A70     		strb	r2, [r3, #1]
 747:main.c        ****                 if(currentIndex == 0){
 2515              		.loc 1 747 0
 2516 0306 002E     		cmp	r6, #0
 2517 0308 01D1     		bne	.L136
 748:main.c        ****                     currentIndex = 1;
 2518              		.loc 1 748 0
 2519 030a 0136     		adds	r6, r6, #1
 2520              	.LVL298:
 2521 030c 00E0     		b	.L125
 2522              	.LVL299:
 2523              	.L136:
 749:main.c        ****                 }
 750:main.c        ****                 else{
 751:main.c        ****                     currentIndex = 0;
 2524              		.loc 1 751 0
ARM GAS  C:\Users\HELLOK~1.1\AppData\Local\Temp\cc5k7xEp.s 			page 59


 2525 030e 0026     		movs	r6, #0
 2526              	.LVL300:
 2527              	.L125:
 752:main.c        ****                 }
 753:main.c        ****                 setCursor(5,2);
 2528              		.loc 1 753 0
 2529 0310 0221     		movs	r1, #2
 2530 0312 0520     		movs	r0, #5
 2531 0314 FFF7FEFF 		bl	setCursor
 2532              	.LVL301:
 754:main.c        ****                 if(currentIndex == 0){
 2533              		.loc 1 754 0
 2534 0318 002E     		cmp	r6, #0
 2535 031a 03D1     		bne	.L126
 755:main.c        ****                     LCD_print("AM");
 2536              		.loc 1 755 0
 2537 031c 1448     		ldr	r0, .L137+44
 2538 031e FFF7FEFF 		bl	LCD_print
 2539              	.LVL302:
 2540 0322 02E0     		b	.L124
 2541              	.L126:
 756:main.c        ****                 }
 757:main.c        ****                 else{
 758:main.c        ****                     LCD_print("PM");
 2542              		.loc 1 758 0
 2543 0324 1148     		ldr	r0, .L137+40
 2544 0326 FFF7FEFF 		bl	LCD_print
 2545              	.LVL303:
 2546              	.L124:
 744:main.c        ****             if(encFlag == 1){
 2547              		.loc 1 744 0
 2548 032a 064B     		ldr	r3, .L137
 2549 032c DB78     		ldrb	r3, [r3, #3]
 2550 032e 002B     		cmp	r3, #0
 2551 0330 E2D0     		beq	.L128
 759:main.c        ****                 }
 760:main.c        ****             }
 761:main.c        ****         }
 762:main.c        ****         buttonFlag = 0;
 2552              		.loc 1 762 0
 2553 0332 0022     		movs	r2, #0
 2554 0334 034B     		ldr	r3, .L137
 2555 0336 DA70     		strb	r2, [r3, #3]
 763:main.c        ****         if(currentIndex == 0){
 2556              		.loc 1 763 0
 2557 0338 002E     		cmp	r6, #0
 2558 033a 23D1     		bne	.L129
 764:main.c        ****             setTime.AM = "PM";
 2559              		.loc 1 764 0
 2560 033c 0B4B     		ldr	r3, .L137+40
 2561 033e 0993     		str	r3, [sp, #36]
 2562 0340 24E0     		b	.L130
 2563              	.L138:
 2564 0342 C046     		.align	2
 2565              	.L137:
 2566 0344 00000000 		.word	.LANCHOR1
 2567 0348 E0000000 		.word	.LC51
ARM GAS  C:\Users\HELLOK~1.1\AppData\Local\Temp\cc5k7xEp.s 			page 60


 2568 034c F4000000 		.word	.LC53
 2569 0350 FC000000 		.word	.LC55
 2570 0354 10010000 		.word	.LC57
 2571 0358 24010000 		.word	.LC59
 2572 035c 38010000 		.word	.LC61
 2573 0360 48010000 		.word	.LC63
 2574 0364 60010000 		.word	.LC65
 2575 0368 00000000 		.word	.LANCHOR0
 2576 036c 9C000000 		.word	.LC4
 2577 0370 A0000000 		.word	.LC0
 2578 0374 6C010000 		.word	.LC70
 2579 0378 78010000 		.word	.LC72
 2580 037c C4000000 		.word	.LC46
 2581 0380 D0000000 		.word	.LC48
 2582              	.L129:
 765:main.c        ****         }
 766:main.c        ****         else if(currentIndex == 1){
 2583              		.loc 1 766 0
 2584 0384 012E     		cmp	r6, #1
 2585 0386 01D1     		bne	.L130
 767:main.c        ****             setTime.AM = "AM";
 2586              		.loc 1 767 0
 2587 0388 0A4B     		ldr	r3, .L139
 2588 038a 0993     		str	r3, [sp, #36]
 2589              	.L130:
 768:main.c        ****         }
 769:main.c        ****         feedTimes[i] = setTime;
 2590              		.loc 1 769 0 discriminator 2
 2591 038c ED00     		lsls	r5, r5, #3
 2592              	.LVL304:
 2593 038e 0A4B     		ldr	r3, .L139+4
 2594 0390 5D19     		adds	r5, r3, r5
 2595 0392 1435     		adds	r5, r5, #20
 2596 0394 08AB     		add	r3, sp, #32
 2597 0396 06CB     		ldmia	r3!, {r1, r2}
 2598 0398 06C5     		stmia	r5!, {r1, r2}
 2599              	.LVL305:
 2600              	.LBE14:
 656:main.c        ****         setCursor(0,0);
 2601              		.loc 1 656 0 discriminator 2
 2602 039a 039D     		ldr	r5, [sp, #12]
 2603              	.LVL306:
 2604              	.L110:
 656:main.c        ****         setCursor(0,0);
 2605              		.loc 1 656 0 is_stmt 0 discriminator 1
 2606 039c 074B     		ldr	r3, .L139+8
 2607 039e 1B79     		ldrb	r3, [r3, #4]
 2608 03a0 9D42     		cmp	r5, r3
 2609 03a2 00DA     		bge	.LCB2454
 2610 03a4 C9E6     		b	.L131	@long jump
 2611              	.LCB2454:
 2612              	.LBE13:
 770:main.c        ****     }
 771:main.c        ****     exitLCD();
 2613              		.loc 1 771 0 is_stmt 1
 2614 03a6 FFF7FEFF 		bl	exitLCD
 2615              	.LVL307:
ARM GAS  C:\Users\HELLOK~1.1\AppData\Local\Temp\cc5k7xEp.s 			page 61


 772:main.c        **** }
 2616              		.loc 1 772 0
 2617 03aa 1EB0     		add	sp, sp, #120
 2618              		@ sp needed
 2619              	.LVL308:
 2620 03ac 04BC     		pop	{r2}
 2621 03ae 9146     		mov	r9, r2
 2622 03b0 F0BD     		pop	{r4, r5, r6, r7, pc}
 2623              	.L140:
 2624 03b2 C046     		.align	2
 2625              	.L139:
 2626 03b4 A0000000 		.word	.LC0
 2627 03b8 00000000 		.word	.LANCHOR0
 2628 03bc 00000000 		.word	.LANCHOR1
 2629              		.cfi_endproc
 2630              	.LFE50:
 2631              		.size	setFeedTimes, .-setFeedTimes
 2632              		.section	.text.setAmountOfFood,"ax",%progbits
 2633              		.align	2
 2634              		.global	setAmountOfFood
 2635              		.code	16
 2636              		.thumb_func
 2637              		.type	setAmountOfFood, %function
 2638              	setAmountOfFood:
 2639              	.LFB51:
 773:main.c        **** void setAmountOfFood(){
 2640              		.loc 1 773 0
 2641              		.cfi_startproc
 2642              		@ args = 0, pretend = 0, frame = 0
 2643              		@ frame_needed = 0, uses_anonymous_args = 0
 2644 0000 10B5     		push	{r4, lr}
 2645              		.cfi_def_cfa_offset 8
 2646              		.cfi_offset 4, -8
 2647              		.cfi_offset 14, -4
 774:main.c        ****     clear();
 2648              		.loc 1 774 0
 2649 0002 FFF7FEFF 		bl	clear
 2650              	.LVL309:
 775:main.c        ****     setCursor(0,0);
 2651              		.loc 1 775 0
 2652 0006 0021     		movs	r1, #0
 2653 0008 0020     		movs	r0, #0
 2654 000a FFF7FEFF 		bl	setCursor
 2655              	.LVL310:
 776:main.c        ****     LCD_print("Hold button to");
 2656              		.loc 1 776 0
 2657 000e 1E48     		ldr	r0, .L145
 2658 0010 FFF7FEFF 		bl	LCD_print
 2659              	.LVL311:
 777:main.c        ****     setCursor(0,1);
 2660              		.loc 1 777 0
 2661 0014 0121     		movs	r1, #1
 2662 0016 0020     		movs	r0, #0
 2663 0018 FFF7FEFF 		bl	setCursor
 2664              	.LVL312:
 778:main.c        ****     LCD_print("adjust amount of");
 2665              		.loc 1 778 0
ARM GAS  C:\Users\HELLOK~1.1\AppData\Local\Temp\cc5k7xEp.s 			page 62


 2666 001c 1B48     		ldr	r0, .L145+4
 2667 001e FFF7FEFF 		bl	LCD_print
 2668              	.LVL313:
 779:main.c        ****     setCursor(0,2);
 2669              		.loc 1 779 0
 2670 0022 0221     		movs	r1, #2
 2671 0024 0020     		movs	r0, #0
 2672 0026 FFF7FEFF 		bl	setCursor
 2673              	.LVL314:
 780:main.c        ****     LCD_print("food. Release when");
 2674              		.loc 1 780 0
 2675 002a 1948     		ldr	r0, .L145+8
 2676 002c FFF7FEFF 		bl	LCD_print
 2677              	.LVL315:
 781:main.c        ****     setCursor(0,3);
 2678              		.loc 1 781 0
 2679 0030 0321     		movs	r1, #3
 2680 0032 0020     		movs	r0, #0
 2681 0034 FFF7FEFF 		bl	setCursor
 2682              	.LVL316:
 782:main.c        ****     LCD_print("satisfied.");
 2683              		.loc 1 782 0
 2684 0038 1648     		ldr	r0, .L145+12
 2685 003a FFF7FEFF 		bl	LCD_print
 2686              	.LVL317:
 2687              	.L142:
 783:main.c        ****     while(buttonFlag == 0){}
 2688              		.loc 1 783 0 discriminator 1
 2689 003e 164B     		ldr	r3, .L145+16
 2690 0040 DB78     		ldrb	r3, [r3, #3]
 2691 0042 002B     		cmp	r3, #0
 2692 0044 FBD0     		beq	.L142
 784:main.c        ****     feedSteps = 0;
 2693              		.loc 1 784 0
 2694 0046 0023     		movs	r3, #0
 2695 0048 144A     		ldr	r2, .L145+20
 2696 004a 9361     		str	r3, [r2, #24]
 785:main.c        ****     buttonFlag = 0;
 2697              		.loc 1 785 0
 2698 004c 124A     		ldr	r2, .L145+16
 2699 004e D370     		strb	r3, [r2, #3]
 786:main.c        ****     while(BTN_Read() == 1){
 2700              		.loc 1 786 0
 2701 0050 0DE0     		b	.L143
 2702              	.L144:
 787:main.c        ****         feedSteps++;
 2703              		.loc 1 787 0
 2704 0052 124C     		ldr	r4, .L145+20
 2705 0054 A369     		ldr	r3, [r4, #24]
 2706 0056 0133     		adds	r3, r3, #1
 2707 0058 A361     		str	r3, [r4, #24]
 788:main.c        ****         motor.position = MVCW(motor);
 2708              		.loc 1 788 0
 2709 005a 6069     		ldr	r0, [r4, #20]
 2710 005c FFF7FEFF 		bl	MVCW
 2711              	.LVL318:
 2712 0060 0F23     		movs	r3, #15
ARM GAS  C:\Users\HELLOK~1.1\AppData\Local\Temp\cc5k7xEp.s 			page 63


 2713 0062 1840     		ands	r0, r3
 2714 0064 237D     		ldrb	r3, [r4, #20]
 2715 0066 0F22     		movs	r2, #15
 2716 0068 9343     		bics	r3, r2
 2717 006a 1843     		orrs	r0, r3
 2718 006c 2075     		strb	r0, [r4, #20]
 2719              	.L143:
 786:main.c        ****     while(BTN_Read() == 1){
 2720              		.loc 1 786 0
 2721 006e FFF7FEFF 		bl	BTN_Read
 2722              	.LVL319:
 2723 0072 0128     		cmp	r0, #1
 2724 0074 EDD0     		beq	.L144
 789:main.c        ****     }
 790:main.c        ****     
 791:main.c        ****     Motor_Write(0b0000);
 2725              		.loc 1 791 0
 2726 0076 0020     		movs	r0, #0
 2727 0078 FFF7FEFF 		bl	Motor_Write
 2728              	.LVL320:
 792:main.c        ****     buttonFlag = 0;
 2729              		.loc 1 792 0
 2730 007c 0022     		movs	r2, #0
 2731 007e 064B     		ldr	r3, .L145+16
 2732 0080 DA70     		strb	r2, [r3, #3]
 793:main.c        ****     exitLCD();
 2733              		.loc 1 793 0
 2734 0082 FFF7FEFF 		bl	exitLCD
 2735              	.LVL321:
 794:main.c        **** }
 2736              		.loc 1 794 0
 2737              		@ sp needed
 2738 0086 10BD     		pop	{r4, pc}
 2739              	.L146:
 2740              		.align	2
 2741              	.L145:
 2742 0088 8C010000 		.word	.LC76
 2743 008c 9C010000 		.word	.LC78
 2744 0090 B0010000 		.word	.LC80
 2745 0094 C4010000 		.word	.LC82
 2746 0098 00000000 		.word	.LANCHOR1
 2747 009c 80000000 		.word	.LANCHOR2
 2748              		.cfi_endproc
 2749              	.LFE51:
 2750              		.size	setAmountOfFood, .-setAmountOfFood
 2751              		.section	.text.toggleLEDs,"ax",%progbits
 2752              		.align	2
 2753              		.global	toggleLEDs
 2754              		.code	16
 2755              		.thumb_func
 2756              		.type	toggleLEDs, %function
 2757              	toggleLEDs:
 2758              	.LFB52:
 795:main.c        **** void toggleLEDs(){
 2759              		.loc 1 795 0
 2760              		.cfi_startproc
 2761              		@ args = 0, pretend = 0, frame = 0
ARM GAS  C:\Users\HELLOK~1.1\AppData\Local\Temp\cc5k7xEp.s 			page 64


 2762              		@ frame_needed = 0, uses_anonymous_args = 0
 2763 0000 10B5     		push	{r4, lr}
 2764              		.cfi_def_cfa_offset 8
 2765              		.cfi_offset 4, -8
 2766              		.cfi_offset 14, -4
 796:main.c        ****     clear();
 2767              		.loc 1 796 0
 2768 0002 FFF7FEFF 		bl	clear
 2769              	.LVL322:
 797:main.c        ****     setCursor(0,0);
 2770              		.loc 1 797 0
 2771 0006 0021     		movs	r1, #0
 2772 0008 0020     		movs	r0, #0
 2773 000a FFF7FEFF 		bl	setCursor
 2774              	.LVL323:
 798:main.c        ****     LCD_print("Turn knob to toggle");
 2775              		.loc 1 798 0
 2776 000e 2848     		ldr	r0, .L158
 2777 0010 FFF7FEFF 		bl	LCD_print
 2778              	.LVL324:
 799:main.c        ****     setCursor(0,2);
 2779              		.loc 1 799 0
 2780 0014 0221     		movs	r1, #2
 2781 0016 0020     		movs	r0, #0
 2782 0018 FFF7FEFF 		bl	setCursor
 2783              	.LVL325:
 800:main.c        ****     if(LEDToggle == 0){
 2784              		.loc 1 800 0
 2785 001c 254B     		ldr	r3, .L158+4
 2786 001e 5B7F     		ldrb	r3, [r3, #29]
 2787 0020 002B     		cmp	r3, #0
 2788 0022 03D1     		bne	.L148
 801:main.c        ****         LCD_print("Off");
 2789              		.loc 1 801 0
 2790 0024 2448     		ldr	r0, .L158+8
 2791 0026 FFF7FEFF 		bl	LCD_print
 2792              	.LVL326:
 2793 002a 37E0     		b	.L149
 2794              	.L148:
 802:main.c        ****     }
 803:main.c        ****     else{
 804:main.c        ****         LCD_print("On");
 2795              		.loc 1 804 0
 2796 002c 2348     		ldr	r0, .L158+12
 2797 002e FFF7FEFF 		bl	LCD_print
 2798              	.LVL327:
 2799 0032 33E0     		b	.L149
 2800              	.L157:
 805:main.c        ****     }
 806:main.c        ****     while(buttonFlag == 0){
 807:main.c        ****         if(encFlag == 1){
 2801              		.loc 1 807 0
 2802 0034 224B     		ldr	r3, .L158+16
 2803 0036 5B78     		ldrb	r3, [r3, #1]
 2804 0038 012B     		cmp	r3, #1
 2805 003a 20D1     		bne	.L151
 808:main.c        ****             encFlag = 0;
ARM GAS  C:\Users\HELLOK~1.1\AppData\Local\Temp\cc5k7xEp.s 			page 65


 2806              		.loc 1 808 0
 2807 003c 204B     		ldr	r3, .L158+16
 2808 003e 0022     		movs	r2, #0
 2809 0040 5A70     		strb	r2, [r3, #1]
 809:main.c        ****             if(encPos == 1){
 2810              		.loc 1 809 0
 2811 0042 9B78     		ldrb	r3, [r3, #2]
 2812 0044 012B     		cmp	r3, #1
 2813 0046 0BD1     		bne	.L152
 810:main.c        ****                 if(LEDToggle == 0){
 2814              		.loc 1 810 0
 2815 0048 1A4B     		ldr	r3, .L158+4
 2816 004a 5B7F     		ldrb	r3, [r3, #29]
 2817 004c 002B     		cmp	r3, #0
 2818 004e 03D1     		bne	.L153
 811:main.c        ****                    LEDToggle = 1;
 2819              		.loc 1 811 0
 2820 0050 0132     		adds	r2, r2, #1
 2821 0052 184B     		ldr	r3, .L158+4
 2822 0054 5A77     		strb	r2, [r3, #29]
 2823 0056 12E0     		b	.L151
 2824              	.L153:
 812:main.c        ****                 }
 813:main.c        ****                 else{
 814:main.c        ****                     LEDToggle = 0;
 2825              		.loc 1 814 0
 2826 0058 0022     		movs	r2, #0
 2827 005a 164B     		ldr	r3, .L158+4
 2828 005c 5A77     		strb	r2, [r3, #29]
 2829 005e 0EE0     		b	.L151
 2830              	.L152:
 815:main.c        ****                 }
 816:main.c        ****             }
 817:main.c        ****             else if(encPos == 2){
 2831              		.loc 1 817 0
 2832 0060 174B     		ldr	r3, .L158+16
 2833 0062 9B78     		ldrb	r3, [r3, #2]
 2834 0064 022B     		cmp	r3, #2
 2835 0066 0AD1     		bne	.L151
 818:main.c        ****                 if(LEDToggle == 0){
 2836              		.loc 1 818 0
 2837 0068 124B     		ldr	r3, .L158+4
 2838 006a 5B7F     		ldrb	r3, [r3, #29]
 2839 006c 002B     		cmp	r3, #0
 2840 006e 03D1     		bne	.L154
 819:main.c        ****                     LEDToggle = 1;
 2841              		.loc 1 819 0
 2842 0070 0122     		movs	r2, #1
 2843 0072 104B     		ldr	r3, .L158+4
 2844 0074 5A77     		strb	r2, [r3, #29]
 2845 0076 02E0     		b	.L151
 2846              	.L154:
 820:main.c        ****                 }
 821:main.c        ****                 else{
 822:main.c        ****                     LEDToggle = 0;
 2847              		.loc 1 822 0
 2848 0078 0022     		movs	r2, #0
ARM GAS  C:\Users\HELLOK~1.1\AppData\Local\Temp\cc5k7xEp.s 			page 66


 2849 007a 0E4B     		ldr	r3, .L158+4
 2850 007c 5A77     		strb	r2, [r3, #29]
 2851              	.L151:
 823:main.c        ****                 }
 824:main.c        ****             }
 825:main.c        ****         }
 826:main.c        ****         setCursor(0,2);
 2852              		.loc 1 826 0
 2853 007e 0221     		movs	r1, #2
 2854 0080 0020     		movs	r0, #0
 2855 0082 FFF7FEFF 		bl	setCursor
 2856              	.LVL328:
 827:main.c        ****         if(LEDToggle == 0){
 2857              		.loc 1 827 0
 2858 0086 0B4B     		ldr	r3, .L158+4
 2859 0088 5B7F     		ldrb	r3, [r3, #29]
 2860 008a 002B     		cmp	r3, #0
 2861 008c 03D1     		bne	.L155
 828:main.c        ****             LCD_print("Off");
 2862              		.loc 1 828 0
 2863 008e 0A48     		ldr	r0, .L158+8
 2864 0090 FFF7FEFF 		bl	LCD_print
 2865              	.LVL329:
 2866 0094 02E0     		b	.L149
 2867              	.L155:
 829:main.c        ****         }
 830:main.c        ****         else{
 831:main.c        ****             LCD_print("On ");
 2868              		.loc 1 831 0
 2869 0096 0B48     		ldr	r0, .L158+20
 2870 0098 FFF7FEFF 		bl	LCD_print
 2871              	.LVL330:
 2872              	.L149:
 806:main.c        ****         if(encFlag == 1){
 2873              		.loc 1 806 0
 2874 009c 084B     		ldr	r3, .L158+16
 2875 009e DB78     		ldrb	r3, [r3, #3]
 2876 00a0 002B     		cmp	r3, #0
 2877 00a2 C7D0     		beq	.L157
 832:main.c        ****         }
 833:main.c        ****     }
 834:main.c        ****     buttonFlag = 0;
 2878              		.loc 1 834 0
 2879 00a4 0022     		movs	r2, #0
 2880 00a6 064B     		ldr	r3, .L158+16
 2881 00a8 DA70     		strb	r2, [r3, #3]
 835:main.c        ****     exitLCD();
 2882              		.loc 1 835 0
 2883 00aa FFF7FEFF 		bl	exitLCD
 2884              	.LVL331:
 836:main.c        **** }
 2885              		.loc 1 836 0
 2886              		@ sp needed
 2887 00ae 10BD     		pop	{r4, pc}
 2888              	.L159:
 2889              		.align	2
 2890              	.L158:
ARM GAS  C:\Users\HELLOK~1.1\AppData\Local\Temp\cc5k7xEp.s 			page 67


 2891 00b0 D0010000 		.word	.LC86
 2892 00b4 80000000 		.word	.LANCHOR2
 2893 00b8 E4010000 		.word	.LC89
 2894 00bc E8010000 		.word	.LC91
 2895 00c0 00000000 		.word	.LANCHOR1
 2896 00c4 EC010000 		.word	.LC94
 2897              		.cfi_endproc
 2898              	.LFE52:
 2899              		.size	toggleLEDs, .-toggleLEDs
 2900              		.section	.text.toggleSpeakers,"ax",%progbits
 2901              		.align	2
 2902              		.global	toggleSpeakers
 2903              		.code	16
 2904              		.thumb_func
 2905              		.type	toggleSpeakers, %function
 2906              	toggleSpeakers:
 2907              	.LFB53:
 837:main.c        **** void toggleSpeakers(){
 2908              		.loc 1 837 0
 2909              		.cfi_startproc
 2910              		@ args = 0, pretend = 0, frame = 0
 2911              		@ frame_needed = 0, uses_anonymous_args = 0
 2912 0000 10B5     		push	{r4, lr}
 2913              		.cfi_def_cfa_offset 8
 2914              		.cfi_offset 4, -8
 2915              		.cfi_offset 14, -4
 838:main.c        ****     clear();
 2916              		.loc 1 838 0
 2917 0002 FFF7FEFF 		bl	clear
 2918              	.LVL332:
 839:main.c        ****     setCursor(0,0);
 2919              		.loc 1 839 0
 2920 0006 0021     		movs	r1, #0
 2921 0008 0020     		movs	r0, #0
 2922 000a FFF7FEFF 		bl	setCursor
 2923              	.LVL333:
 840:main.c        ****     LCD_print("Turn knob to toggle");
 2924              		.loc 1 840 0
 2925 000e 2848     		ldr	r0, .L171
 2926 0010 FFF7FEFF 		bl	LCD_print
 2927              	.LVL334:
 841:main.c        ****     setCursor(0,2);
 2928              		.loc 1 841 0
 2929 0014 0221     		movs	r1, #2
 2930 0016 0020     		movs	r0, #0
 2931 0018 FFF7FEFF 		bl	setCursor
 2932              	.LVL335:
 842:main.c        ****     if(speakerToggle == 0){
 2933              		.loc 1 842 0
 2934 001c 254B     		ldr	r3, .L171+4
 2935 001e 1B7F     		ldrb	r3, [r3, #28]
 2936 0020 002B     		cmp	r3, #0
 2937 0022 03D1     		bne	.L161
 843:main.c        ****         LCD_print("Off");
 2938              		.loc 1 843 0
 2939 0024 2448     		ldr	r0, .L171+8
 2940 0026 FFF7FEFF 		bl	LCD_print
ARM GAS  C:\Users\HELLOK~1.1\AppData\Local\Temp\cc5k7xEp.s 			page 68


 2941              	.LVL336:
 2942 002a 37E0     		b	.L162
 2943              	.L161:
 844:main.c        ****     }
 845:main.c        ****     else{
 846:main.c        ****         LCD_print("On");
 2944              		.loc 1 846 0
 2945 002c 2348     		ldr	r0, .L171+12
 2946 002e FFF7FEFF 		bl	LCD_print
 2947              	.LVL337:
 2948 0032 33E0     		b	.L162
 2949              	.L170:
 847:main.c        ****     }
 848:main.c        ****     while(buttonFlag == 0){
 849:main.c        ****         if(encFlag == 1){
 2950              		.loc 1 849 0
 2951 0034 224B     		ldr	r3, .L171+16
 2952 0036 5B78     		ldrb	r3, [r3, #1]
 2953 0038 012B     		cmp	r3, #1
 2954 003a 20D1     		bne	.L164
 850:main.c        ****             encFlag = 0;
 2955              		.loc 1 850 0
 2956 003c 204B     		ldr	r3, .L171+16
 2957 003e 0022     		movs	r2, #0
 2958 0040 5A70     		strb	r2, [r3, #1]
 851:main.c        ****             if(encPos == 1){
 2959              		.loc 1 851 0
 2960 0042 9B78     		ldrb	r3, [r3, #2]
 2961 0044 012B     		cmp	r3, #1
 2962 0046 0BD1     		bne	.L165
 852:main.c        ****                 if(speakerToggle == 0){
 2963              		.loc 1 852 0
 2964 0048 1A4B     		ldr	r3, .L171+4
 2965 004a 1B7F     		ldrb	r3, [r3, #28]
 2966 004c 002B     		cmp	r3, #0
 2967 004e 03D1     		bne	.L166
 853:main.c        ****                    speakerToggle = 1;
 2968              		.loc 1 853 0
 2969 0050 0132     		adds	r2, r2, #1
 2970 0052 184B     		ldr	r3, .L171+4
 2971 0054 1A77     		strb	r2, [r3, #28]
 2972 0056 12E0     		b	.L164
 2973              	.L166:
 854:main.c        ****                 }
 855:main.c        ****                 else{
 856:main.c        ****                     speakerToggle = 0;
 2974              		.loc 1 856 0
 2975 0058 0022     		movs	r2, #0
 2976 005a 164B     		ldr	r3, .L171+4
 2977 005c 1A77     		strb	r2, [r3, #28]
 2978 005e 0EE0     		b	.L164
 2979              	.L165:
 857:main.c        ****                 }
 858:main.c        ****             }
 859:main.c        ****             else if(encPos == 2){
 2980              		.loc 1 859 0
 2981 0060 174B     		ldr	r3, .L171+16
ARM GAS  C:\Users\HELLOK~1.1\AppData\Local\Temp\cc5k7xEp.s 			page 69


 2982 0062 9B78     		ldrb	r3, [r3, #2]
 2983 0064 022B     		cmp	r3, #2
 2984 0066 0AD1     		bne	.L164
 860:main.c        ****                 if(speakerToggle == 0){
 2985              		.loc 1 860 0
 2986 0068 124B     		ldr	r3, .L171+4
 2987 006a 1B7F     		ldrb	r3, [r3, #28]
 2988 006c 002B     		cmp	r3, #0
 2989 006e 03D1     		bne	.L167
 861:main.c        ****                     speakerToggle = 1;
 2990              		.loc 1 861 0
 2991 0070 0122     		movs	r2, #1
 2992 0072 104B     		ldr	r3, .L171+4
 2993 0074 1A77     		strb	r2, [r3, #28]
 2994 0076 02E0     		b	.L164
 2995              	.L167:
 862:main.c        ****                 }
 863:main.c        ****                 else{
 864:main.c        ****                     speakerToggle = 0;
 2996              		.loc 1 864 0
 2997 0078 0022     		movs	r2, #0
 2998 007a 0E4B     		ldr	r3, .L171+4
 2999 007c 1A77     		strb	r2, [r3, #28]
 3000              	.L164:
 865:main.c        ****                 }
 866:main.c        ****             }
 867:main.c        ****         }
 868:main.c        ****         setCursor(0,2);
 3001              		.loc 1 868 0
 3002 007e 0221     		movs	r1, #2
 3003 0080 0020     		movs	r0, #0
 3004 0082 FFF7FEFF 		bl	setCursor
 3005              	.LVL338:
 869:main.c        ****         if(speakerToggle == 0){
 3006              		.loc 1 869 0
 3007 0086 0B4B     		ldr	r3, .L171+4
 3008 0088 1B7F     		ldrb	r3, [r3, #28]
 3009 008a 002B     		cmp	r3, #0
 3010 008c 03D1     		bne	.L168
 870:main.c        ****             LCD_print("Off");
 3011              		.loc 1 870 0
 3012 008e 0A48     		ldr	r0, .L171+8
 3013 0090 FFF7FEFF 		bl	LCD_print
 3014              	.LVL339:
 3015 0094 02E0     		b	.L162
 3016              	.L168:
 871:main.c        ****         }
 872:main.c        ****         else{
 873:main.c        ****             LCD_print("On ");
 3017              		.loc 1 873 0
 3018 0096 0B48     		ldr	r0, .L171+20
 3019 0098 FFF7FEFF 		bl	LCD_print
 3020              	.LVL340:
 3021              	.L162:
 848:main.c        ****         if(encFlag == 1){
 3022              		.loc 1 848 0
 3023 009c 084B     		ldr	r3, .L171+16
ARM GAS  C:\Users\HELLOK~1.1\AppData\Local\Temp\cc5k7xEp.s 			page 70


 3024 009e DB78     		ldrb	r3, [r3, #3]
 3025 00a0 002B     		cmp	r3, #0
 3026 00a2 C7D0     		beq	.L170
 874:main.c        ****         }
 875:main.c        ****     }
 876:main.c        ****     buttonFlag = 0;
 3027              		.loc 1 876 0
 3028 00a4 0022     		movs	r2, #0
 3029 00a6 064B     		ldr	r3, .L171+16
 3030 00a8 DA70     		strb	r2, [r3, #3]
 877:main.c        ****     exitLCD();
 3031              		.loc 1 877 0
 3032 00aa FFF7FEFF 		bl	exitLCD
 3033              	.LVL341:
 878:main.c        **** }
 3034              		.loc 1 878 0
 3035              		@ sp needed
 3036 00ae 10BD     		pop	{r4, pc}
 3037              	.L172:
 3038              		.align	2
 3039              	.L171:
 3040 00b0 D0010000 		.word	.LC86
 3041 00b4 80000000 		.word	.LANCHOR2
 3042 00b8 E4010000 		.word	.LC89
 3043 00bc E8010000 		.word	.LC91
 3044 00c0 00000000 		.word	.LANCHOR1
 3045 00c4 EC010000 		.word	.LC94
 3046              		.cfi_endproc
 3047              	.LFE53:
 3048              		.size	toggleSpeakers, .-toggleSpeakers
 3049              		.section	.text.startSettings,"ax",%progbits
 3050              		.align	2
 3051              		.global	startSettings
 3052              		.code	16
 3053              		.thumb_func
 3054              		.type	startSettings, %function
 3055              	startSettings:
 3056              	.LFB54:
 879:main.c        **** 
 880:main.c        **** 
 881:main.c        **** void startSettings(){
 3057              		.loc 1 881 0
 3058              		.cfi_startproc
 3059              		@ args = 0, pretend = 0, frame = 0
 3060              		@ frame_needed = 0, uses_anonymous_args = 0
 3061 0000 10B5     		push	{r4, lr}
 3062              		.cfi_def_cfa_offset 8
 3063              		.cfi_offset 4, -8
 3064              		.cfi_offset 14, -4
 882:main.c        ****     clear();
 3065              		.loc 1 882 0
 3066 0002 FFF7FEFF 		bl	clear
 3067              	.LVL342:
 883:main.c        ****     uint8 choice = 0;
 884:main.c        ****     setCursor(0,0);
 3068              		.loc 1 884 0
 3069 0006 0021     		movs	r1, #0
ARM GAS  C:\Users\HELLOK~1.1\AppData\Local\Temp\cc5k7xEp.s 			page 71


 3070 0008 0020     		movs	r0, #0
 3071 000a FFF7FEFF 		bl	setCursor
 3072              	.LVL343:
 885:main.c        ****     LCD_print("Button = Select");
 3073              		.loc 1 885 0
 3074 000e 3148     		ldr	r0, .L188
 3075 0010 FFF7FEFF 		bl	LCD_print
 3076              	.LVL344:
 886:main.c        ****     setCursor(0,1);
 3077              		.loc 1 886 0
 3078 0014 0121     		movs	r1, #1
 3079 0016 0020     		movs	r0, #0
 3080 0018 FFF7FEFF 		bl	setCursor
 3081              	.LVL345:
 887:main.c        ****     LCD_print("Knob = Choice");
 3082              		.loc 1 887 0
 3083 001c 2E48     		ldr	r0, .L188+4
 3084 001e FFF7FEFF 		bl	LCD_print
 3085              	.LVL346:
 888:main.c        ****     setCursor(0,2);
 3086              		.loc 1 888 0
 3087 0022 0221     		movs	r1, #2
 3088 0024 0020     		movs	r0, #0
 3089 0026 FFF7FEFF 		bl	setCursor
 3090              	.LVL347:
 889:main.c        ****     LCD_print("--------------------");
 3091              		.loc 1 889 0
 3092 002a 2C48     		ldr	r0, .L188+8
 3093 002c FFF7FEFF 		bl	LCD_print
 3094              	.LVL348:
 890:main.c        ****     // Clock Time
 891:main.c        ****     setCursor(0,3);
 3095              		.loc 1 891 0
 3096 0030 0321     		movs	r1, #3
 3097 0032 0020     		movs	r0, #0
 3098 0034 FFF7FEFF 		bl	setCursor
 3099              	.LVL349:
 892:main.c        ****     LCD_print("Set Global Time");
 3100              		.loc 1 892 0
 3101 0038 2948     		ldr	r0, .L188+12
 3102 003a FFF7FEFF 		bl	LCD_print
 3103              	.LVL350:
 893:main.c        ****     CyDelay(1000);
 3104              		.loc 1 893 0
 3105 003e FA20     		movs	r0, #250
 3106 0040 8000     		lsls	r0, r0, #2
 3107 0042 FFF7FEFF 		bl	CyDelay
 3108              	.LVL351:
 883:main.c        ****     setCursor(0,0);
 3109              		.loc 1 883 0
 3110 0046 0024     		movs	r4, #0
 894:main.c        ****     while(buttonFlag == 0){
 3111              		.loc 1 894 0
 3112 0048 24E0     		b	.L174
 3113              	.LVL352:
 3114              	.L177:
 895:main.c        ****         if(encFlag == 1){
ARM GAS  C:\Users\HELLOK~1.1\AppData\Local\Temp\cc5k7xEp.s 			page 72


 3115              		.loc 1 895 0
 3116 004a 264B     		ldr	r3, .L188+16
 3117 004c 5B78     		ldrb	r3, [r3, #1]
 3118 004e 012B     		cmp	r3, #1
 3119 0050 16D1     		bne	.L175
 896:main.c        ****             encFlag = 0;
 3120              		.loc 1 896 0
 3121 0052 244B     		ldr	r3, .L188+16
 3122 0054 0022     		movs	r2, #0
 3123 0056 5A70     		strb	r2, [r3, #1]
 897:main.c        ****             if(encPos == 1){
 3124              		.loc 1 897 0
 3125 0058 9B78     		ldrb	r3, [r3, #2]
 3126 005a 012B     		cmp	r3, #1
 3127 005c 04D1     		bne	.L176
 898:main.c        ****                 if(choice == 5){
 3128              		.loc 1 898 0
 3129 005e 052C     		cmp	r4, #5
 3130 0060 0BD0     		beq	.L186
 899:main.c        ****                     choice = 0;
 900:main.c        ****                 }
 901:main.c        ****                 else{
 902:main.c        ****                     choice++;
 3131              		.loc 1 902 0
 3132 0062 0134     		adds	r4, r4, #1
 3133              	.LVL353:
 3134 0064 E4B2     		uxtb	r4, r4
 3135              	.LVL354:
 3136 0066 0BE0     		b	.L175
 3137              	.L176:
 903:main.c        ****                 }
 904:main.c        ****             }
 905:main.c        ****             else if(encPos == 2){
 3138              		.loc 1 905 0
 3139 0068 1E4B     		ldr	r3, .L188+16
 3140 006a 9B78     		ldrb	r3, [r3, #2]
 3141 006c 022B     		cmp	r3, #2
 3142 006e 07D1     		bne	.L175
 906:main.c        ****                 if(choice == 0){
 3143              		.loc 1 906 0
 3144 0070 002C     		cmp	r4, #0
 3145 0072 04D0     		beq	.L187
 907:main.c        ****                     choice = 5;
 908:main.c        ****                 }
 909:main.c        ****                 else{
 910:main.c        ****                     choice--;
 3146              		.loc 1 910 0
 3147 0074 013C     		subs	r4, r4, #1
 3148              	.LVL355:
 3149 0076 E4B2     		uxtb	r4, r4
 3150              	.LVL356:
 3151 0078 02E0     		b	.L175
 3152              	.L186:
 899:main.c        ****                 }
 3153              		.loc 1 899 0
 3154 007a 0024     		movs	r4, #0
 3155              	.LVL357:
ARM GAS  C:\Users\HELLOK~1.1\AppData\Local\Temp\cc5k7xEp.s 			page 73


 3156 007c 00E0     		b	.L175
 3157              	.LVL358:
 3158              	.L187:
 907:main.c        ****                     choice = 5;
 3159              		.loc 1 907 0
 3160 007e 0524     		movs	r4, #5
 3161              	.LVL359:
 3162              	.L175:
 911:main.c        ****                 }
 912:main.c        ****             }
 913:main.c        ****         }
 914:main.c        ****         setCursor(0,3);
 3163              		.loc 1 914 0
 3164 0080 0321     		movs	r1, #3
 3165 0082 0020     		movs	r0, #0
 3166 0084 FFF7FEFF 		bl	setCursor
 3167              	.LVL360:
 915:main.c        ****         LCD_print(commands[choice]);
 3168              		.loc 1 915 0
 3169 0088 A300     		lsls	r3, r4, #2
 3170 008a 174A     		ldr	r2, .L188+20
 3171 008c D318     		adds	r3, r2, r3
 3172 008e 186A     		ldr	r0, [r3, #32]
 3173 0090 FFF7FEFF 		bl	LCD_print
 3174              	.LVL361:
 3175              	.L174:
 894:main.c        ****         if(encFlag == 1){
 3176              		.loc 1 894 0
 3177 0094 134B     		ldr	r3, .L188+16
 3178 0096 DB78     		ldrb	r3, [r3, #3]
 3179 0098 002B     		cmp	r3, #0
 3180 009a D6D0     		beq	.L177
 916:main.c        ****     }
 917:main.c        ****     buttonFlag = 0;
 3181              		.loc 1 917 0
 3182 009c 0022     		movs	r2, #0
 3183 009e 114B     		ldr	r3, .L188+16
 3184 00a0 DA70     		strb	r2, [r3, #3]
 918:main.c        ****     switch(choice){
 3185              		.loc 1 918 0
 3186 00a2 052C     		cmp	r4, #5
 3187 00a4 14D8     		bhi	.L173
 3188 00a6 A400     		lsls	r4, r4, #2
 3189              	.LVL362:
 3190 00a8 104B     		ldr	r3, .L188+24
 3191 00aa 1B59     		ldr	r3, [r3, r4]
 3192 00ac 9F46     		mov	pc, r3
 3193              		.section	.rodata
 3194              		.align	2
 3195              	.L180:
 3196 0000 AE000000 		.word	.L179
 3197 0004 B4000000 		.word	.L181
 3198 0008 BA000000 		.word	.L182
 3199 000c C0000000 		.word	.L183
 3200 0010 C6000000 		.word	.L184
 3201 0014 CC000000 		.word	.L185
 3202              		.section	.text.startSettings
ARM GAS  C:\Users\HELLOK~1.1\AppData\Local\Temp\cc5k7xEp.s 			page 74


 3203              	.L179:
 919:main.c        ****         case 0:
 920:main.c        ****             setGlobalTime();
 3204              		.loc 1 920 0
 3205 00ae FFF7FEFF 		bl	setGlobalTime
 3206              	.LVL363:
 921:main.c        ****             break;
 3207              		.loc 1 921 0
 3208 00b2 0DE0     		b	.L173
 3209              	.L181:
 922:main.c        ****         case 1:
 923:main.c        ****             setFeedTimes();
 3210              		.loc 1 923 0
 3211 00b4 FFF7FEFF 		bl	setFeedTimes
 3212              	.LVL364:
 924:main.c        ****             break;
 3213              		.loc 1 924 0
 3214 00b8 0AE0     		b	.L173
 3215              	.L182:
 925:main.c        ****         case 2:
 926:main.c        ****             setAmountOfFood();
 3216              		.loc 1 926 0
 3217 00ba FFF7FEFF 		bl	setAmountOfFood
 3218              	.LVL365:
 927:main.c        ****             break;
 3219              		.loc 1 927 0
 3220 00be 07E0     		b	.L173
 3221              	.L183:
 928:main.c        ****         case 3:
 929:main.c        ****             toggleLEDs();
 3222              		.loc 1 929 0
 3223 00c0 FFF7FEFF 		bl	toggleLEDs
 3224              	.LVL366:
 930:main.c        ****             break;
 3225              		.loc 1 930 0
 3226 00c4 04E0     		b	.L173
 3227              	.L184:
 931:main.c        ****         case 4:
 932:main.c        ****             toggleSpeakers();
 3228              		.loc 1 932 0
 3229 00c6 FFF7FEFF 		bl	toggleSpeakers
 3230              	.LVL367:
 933:main.c        ****             break;
 3231              		.loc 1 933 0
 3232 00ca 01E0     		b	.L173
 3233              	.L185:
 934:main.c        ****         case 5:
 935:main.c        ****             // Done
 936:main.c        ****             exitLCD();
 3234              		.loc 1 936 0
 3235 00cc FFF7FEFF 		bl	exitLCD
 3236              	.LVL368:
 3237              	.L173:
 937:main.c        ****             break;
 938:main.c        ****         default:
 939:main.c        ****             choice = 0;
 940:main.c        ****             break;
ARM GAS  C:\Users\HELLOK~1.1\AppData\Local\Temp\cc5k7xEp.s 			page 75


 941:main.c        ****     }
 942:main.c        ****     return;
 943:main.c        ****     // Feed times
 944:main.c        ****     // Amount of food
 945:main.c        ****     // LED's
 946:main.c        ****     // Speakers
 947:main.c        ****     // Exit
 948:main.c        **** }
 3238              		.loc 1 948 0
 3239              		@ sp needed
 3240 00d0 10BD     		pop	{r4, pc}
 3241              	.L189:
 3242 00d2 C046     		.align	2
 3243              	.L188:
 3244 00d4 F0010000 		.word	.LC102
 3245 00d8 00020000 		.word	.LC104
 3246 00dc 18000000 		.word	.LC12
 3247 00e0 10020000 		.word	.LC107
 3248 00e4 00000000 		.word	.LANCHOR1
 3249 00e8 80000000 		.word	.LANCHOR2
 3250 00ec 00000000 		.word	.L180
 3251              		.cfi_endproc
 3252              	.LFE54:
 3253              		.size	startSettings, .-startSettings
 3254              		.section	.text.main,"ax",%progbits
 3255              		.align	2
 3256              		.global	main
 3257              		.code	16
 3258              		.thumb_func
 3259              		.type	main, %function
 3260              	main:
 3261              	.LFB55:
 949:main.c        **** 
 950:main.c        **** 
 951:main.c        **** 
 952:main.c        **** int main(void)
 953:main.c        **** {
 3262              		.loc 1 953 0
 3263              		.cfi_startproc
 3264              		@ args = 0, pretend = 0, frame = 128
 3265              		@ frame_needed = 0, uses_anonymous_args = 0
 3266 0000 F0B5     		push	{r4, r5, r6, r7, lr}
 3267              		.cfi_def_cfa_offset 20
 3268              		.cfi_offset 4, -20
 3269              		.cfi_offset 5, -16
 3270              		.cfi_offset 6, -12
 3271              		.cfi_offset 7, -8
 3272              		.cfi_offset 14, -4
 3273 0002 A7B0     		sub	sp, sp, #156
 3274              		.cfi_def_cfa_offset 176
 954:main.c        ****     BTN_ISR_Start();
 3275              		.loc 1 954 0
 3276 0004 FFF7FEFF 		bl	BTN_ISR_Start
 3277              	.LVL369:
 955:main.c        ****     ENC_ISR_Start();
 3278              		.loc 1 955 0
 3279 0008 FFF7FEFF 		bl	ENC_ISR_Start
ARM GAS  C:\Users\HELLOK~1.1\AppData\Local\Temp\cc5k7xEp.s 			page 76


 3280              	.LVL370:
 956:main.c        ****     CyGlobalIntEnable; /* Enable global interrupts. */
 3281              		.loc 1 956 0
 3282              		.syntax divided
 3283              	@ 956 "main.c" 1
 3284 000c 62B6     		CPSIE   i
 3285              	@ 0 "" 2
 957:main.c        ****     I2C_Start();
 3286              		.loc 1 957 0
 3287              		.thumb
 3288              		.syntax unified
 3289 000e FFF7FEFF 		bl	I2C_Start
 3290              	.LVL371:
 958:main.c        ****     LiquidCrystal_I2C_init(LCDAddr, 20,4,0);
 3291              		.loc 1 958 0
 3292 0012 0023     		movs	r3, #0
 3293 0014 0422     		movs	r2, #4
 3294 0016 1421     		movs	r1, #20
 3295 0018 2720     		movs	r0, #39
 3296 001a FFF7FEFF 		bl	LiquidCrystal_I2C_init
 3297              	.LVL372:
 959:main.c        ****     LCDBegin();
 3298              		.loc 1 959 0
 3299 001e FFF7FEFF 		bl	LCDBegin
 3300              	.LVL373:
 960:main.c        ****     //FEEEEED();
 961:main.c        ****     struct Time time = {12,45, "AM"};
 3301              		.loc 1 961 0
 3302 0022 20AB     		add	r3, sp, #128
 3303 0024 7749     		ldr	r1, .L198
 3304 0026 0A00     		movs	r2, r1
 3305 0028 11CA     		ldmia	r2!, {r0, r4}
 3306 002a 11C3     		stmia	r3!, {r0, r4}
 962:main.c        ****     struct Date date = {31, "Mar",23};
 3307              		.loc 1 962 0
 3308 002c 1DAB     		add	r3, sp, #116
 3309 002e 9C46     		mov	ip, r3
 3310 0030 1800     		movs	r0, r3
 3311 0032 70CA     		ldmia	r2!, {r4, r5, r6}
 3312 0034 70C0     		stmia	r0!, {r4, r5, r6}
 963:main.c        ****     struct Time nextTime = {6,00, "PM"};
 3313              		.loc 1 963 0
 3314 0036 1BAC     		add	r4, sp, #108
 3315 0038 0A00     		movs	r2, r1
 3316 003a 1432     		adds	r2, r2, #20
 3317 003c 2000     		movs	r0, r4
 3318 003e 60CA     		ldmia	r2!, {r5, r6}
 3319 0040 60C0     		stmia	r0!, {r5, r6}
 964:main.c        ****     struct Date nextDate = {1, "Apr", 23};
 3320              		.loc 1 964 0
 3321 0042 18AA     		add	r2, sp, #96
 3322 0044 0800     		movs	r0, r1
 3323 0046 1C30     		adds	r0, r0, #28
 3324 0048 1500     		movs	r5, r2
 3325 004a C8C8     		ldmia	r0!, {r3, r6, r7}
 3326 004c C8C5     		stmia	r5!, {r3, r6, r7}
 965:main.c        ****     LCDInit(time, nextTime, date, nextDate);
ARM GAS  C:\Users\HELLOK~1.1\AppData\Local\Temp\cc5k7xEp.s 			page 77


 3327              		.loc 1 965 0
 3328 004e 03A8     		add	r0, sp, #12
 3329 0050 68CA     		ldmia	r2!, {r3, r5, r6}
 3330 0052 68C0     		stmia	r0!, {r3, r5, r6}
 3331 0054 6A46     		mov	r2, sp
 3332 0056 6346     		mov	r3, ip
 3333 0058 61CB     		ldmia	r3!, {r0, r5, r6}
 3334 005a 61C2     		stmia	r2!, {r0, r5, r6}
 3335 005c 1B9A     		ldr	r2, [sp, #108]
 3336 005e 1C9B     		ldr	r3, [sp, #112]
 3337 0060 2098     		ldr	r0, [sp, #128]
 3338 0062 4968     		ldr	r1, [r1, #4]
 3339 0064 FFF7FEFF 		bl	LCDInit
 3340              	.LVL374:
 966:main.c        ****     uint8 wrBuf[2];
 967:main.c        ****     wrBuf[1] = 0b0000000;
 3341              		.loc 1 967 0
 3342 0068 17AC     		add	r4, sp, #92
 3343 006a 0026     		movs	r6, #0
 3344 006c 6670     		strb	r6, [r4, #1]
 968:main.c        ****     writeToAddr(wrBuf,2,RTCAddr,rtc.CtrlStat1);
 3345              		.loc 1 968 0
 3346 006e 664D     		ldr	r5, .L198+4
 3347 0070 2B79     		ldrb	r3, [r5, #4]
 3348 0072 5122     		movs	r2, #81
 3349 0074 0221     		movs	r1, #2
 3350 0076 2000     		movs	r0, r4
 3351 0078 FFF7FEFF 		bl	writeToAddr
 3352              	.LVL375:
 969:main.c        ****     wrBuf[1] = 0b0000000;
 3353              		.loc 1 969 0
 3354 007c 6670     		strb	r6, [r4, #1]
 970:main.c        ****     writeToAddr(wrBuf,2,RTCAddr,rtc.CtrlStat2);
 3355              		.loc 1 970 0
 3356 007e 6B79     		ldrb	r3, [r5, #5]
 3357 0080 5122     		movs	r2, #81
 3358 0082 0221     		movs	r1, #2
 3359 0084 2000     		movs	r0, r4
 3360 0086 FFF7FEFF 		bl	writeToAddr
 3361              	.LVL376:
 3362              	.L197:
 3363              	.LBB19:
 971:main.c        ****     //RTCInit();
 972:main.c        **** 
 973:main.c        ****     /* Place your initialization/startup code here (e.g. MyInst_Start()) */
 974:main.c        **** 
 975:main.c        ****     for(;;)
 976:main.c        ****     {
 977:main.c        ****         struct Time updateTime;
 978:main.c        ****         
 979:main.c        ****         uint8 sec[1];
 980:main.c        ****         readFromAddr(sec,1,RTCAddr,rtc.VL_Sec);
 3364              		.loc 1 980 0
 3365 008a 5F4C     		ldr	r4, .L198+4
 3366 008c A379     		ldrb	r3, [r4, #6]
 3367 008e 5122     		movs	r2, #81
 3368 0090 0121     		movs	r1, #1
ARM GAS  C:\Users\HELLOK~1.1\AppData\Local\Temp\cc5k7xEp.s 			page 78


 3369 0092 08A8     		add	r0, sp, #32
 3370 0094 FFF7FEFF 		bl	readFromAddr
 3371              	.LVL377:
 981:main.c        ****         uint8 min[1];
 982:main.c        ****         readFromAddr(min,1,RTCAddr,rtc.Minutes);
 3372              		.loc 1 982 0
 3373 0098 E379     		ldrb	r3, [r4, #7]
 3374 009a 5122     		movs	r2, #81
 3375 009c 0121     		movs	r1, #1
 3376 009e 09A8     		add	r0, sp, #36
 3377 00a0 FFF7FEFF 		bl	readFromAddr
 3378              	.LVL378:
 983:main.c        ****         uint8 hour[1];
 984:main.c        ****         readFromAddr(hour,1,RTCAddr,rtc.Hours);
 3379              		.loc 1 984 0
 3380 00a4 237A     		ldrb	r3, [r4, #8]
 3381 00a6 0AAD     		add	r5, sp, #40
 3382 00a8 5122     		movs	r2, #81
 3383 00aa 0121     		movs	r1, #1
 3384 00ac 2800     		movs	r0, r5
 3385 00ae FFF7FEFF 		bl	readFromAddr
 3386              	.LVL379:
 985:main.c        ****         uint8 day[1];
 986:main.c        ****         readFromAddr(day,1,RTCAddr,rtc.Days);
 3387              		.loc 1 986 0
 3388 00b2 637A     		ldrb	r3, [r4, #9]
 3389 00b4 5122     		movs	r2, #81
 3390 00b6 0121     		movs	r1, #1
 3391 00b8 0BA8     		add	r0, sp, #44
 3392 00ba FFF7FEFF 		bl	readFromAddr
 3393              	.LVL380:
 987:main.c        ****         uint8 month[1];
 988:main.c        ****         readFromAddr(month,1,RTCAddr,rtc.Century_Months);
 3394              		.loc 1 988 0
 3395 00be E37A     		ldrb	r3, [r4, #11]
 3396 00c0 5122     		movs	r2, #81
 3397 00c2 0121     		movs	r1, #1
 3398 00c4 0CA8     		add	r0, sp, #48
 3399 00c6 FFF7FEFF 		bl	readFromAddr
 3400              	.LVL381:
 989:main.c        ****         uint8 year[1];
 990:main.c        ****         readFromAddr(year,1,RTCAddr,rtc.Years);
 3401              		.loc 1 990 0
 3402 00ca 237B     		ldrb	r3, [r4, #12]
 3403 00cc 5122     		movs	r2, #81
 3404 00ce 0121     		movs	r1, #1
 3405 00d0 0DA8     		add	r0, sp, #52
 3406 00d2 FFF7FEFF 		bl	readFromAddr
 3407              	.LVL382:
 991:main.c        ****         if(hour[0] > 0x12){
 3408              		.loc 1 991 0
 3409 00d6 2878     		ldrb	r0, [r5]
 3410 00d8 1228     		cmp	r0, #18
 3411 00da 16D9     		bls	.L191
 3412              	.LBB20:
 992:main.c        ****             volatile struct Time currTime = {bcdToDec(hour[0])-12,bcdToDec(min[0]),"PM"};
 3413              		.loc 1 992 0
ARM GAS  C:\Users\HELLOK~1.1\AppData\Local\Temp\cc5k7xEp.s 			page 79


 3414 00dc FFF7FEFF 		bl	bcdToDec
 3415              	.LVL383:
 3416 00e0 22AC     		add	r4, sp, #136
 3417 00e2 0C38     		subs	r0, r0, #12
 3418 00e4 2070     		strb	r0, [r4]
 3419 00e6 09AB     		add	r3, sp, #36
 3420 00e8 1878     		ldrb	r0, [r3]
 3421 00ea FFF7FEFF 		bl	bcdToDec
 3422              	.LVL384:
 3423 00ee 6070     		strb	r0, [r4, #1]
 3424 00f0 464B     		ldr	r3, .L198+8
 3425 00f2 6360     		str	r3, [r4, #4]
 3426 00f4 0822     		movs	r2, #8
 3427 00f6 2100     		movs	r1, r4
 3428 00f8 10A8     		add	r0, sp, #64
 3429 00fa FFF7FEFF 		bl	memcpy
 3430              	.LVL385:
 993:main.c        ****             updateTime = currTime;
 3431              		.loc 1 993 0
 3432 00fe 0822     		movs	r2, #8
 3433 0100 10A9     		add	r1, sp, #64
 3434 0102 0EA8     		add	r0, sp, #56
 3435 0104 FFF7FEFF 		bl	memcpy
 3436              	.LVL386:
 3437              	.LBE20:
 3438 0108 14E0     		b	.L192
 3439              	.L191:
 3440              	.LBB21:
 994:main.c        ****         }
 995:main.c        ****         else{
 996:main.c        ****             volatile struct Time currTime = {bcdToDec(hour[0]),bcdToDec(min[0]),"AM"};
 3441              		.loc 1 996 0
 3442 010a FFF7FEFF 		bl	bcdToDec
 3443              	.LVL387:
 3444 010e 24AC     		add	r4, sp, #144
 3445 0110 2070     		strb	r0, [r4]
 3446 0112 09AB     		add	r3, sp, #36
 3447 0114 1878     		ldrb	r0, [r3]
 3448 0116 FFF7FEFF 		bl	bcdToDec
 3449              	.LVL388:
 3450 011a 6070     		strb	r0, [r4, #1]
 3451 011c 3C4B     		ldr	r3, .L198+12
 3452 011e 6360     		str	r3, [r4, #4]
 3453 0120 0822     		movs	r2, #8
 3454 0122 2100     		movs	r1, r4
 3455 0124 12A8     		add	r0, sp, #72
 3456 0126 FFF7FEFF 		bl	memcpy
 3457              	.LVL389:
 997:main.c        ****             updateTime = currTime;
 3458              		.loc 1 997 0
 3459 012a 0822     		movs	r2, #8
 3460 012c 12A9     		add	r1, sp, #72
 3461 012e 0EA8     		add	r0, sp, #56
 3462 0130 FFF7FEFF 		bl	memcpy
 3463              	.LVL390:
 3464              	.L192:
 3465              	.LBE21:
ARM GAS  C:\Users\HELLOK~1.1\AppData\Local\Temp\cc5k7xEp.s 			page 80


 998:main.c        ****         }
 999:main.c        ****         
1000:main.c        ****         struct Date updateDate = {bcdToDec(day[0]),months[bcdToDec(month[0])-1],bcdToDec(year[0])};
 3466              		.loc 1 1000 0
 3467 0134 0BAB     		add	r3, sp, #44
 3468 0136 1878     		ldrb	r0, [r3]
 3469 0138 FFF7FEFF 		bl	bcdToDec
 3470              	.LVL391:
 3471 013c 14AC     		add	r4, sp, #80
 3472 013e 2070     		strb	r0, [r4]
 3473 0140 0CAB     		add	r3, sp, #48
 3474 0142 1878     		ldrb	r0, [r3]
 3475 0144 FFF7FEFF 		bl	bcdToDec
 3476              	.LVL392:
 3477 0148 0138     		subs	r0, r0, #1
 3478 014a 2F4D     		ldr	r5, .L198+4
 3479 014c 8000     		lsls	r0, r0, #2
 3480 014e 2818     		adds	r0, r5, r0
 3481 0150 476E     		ldr	r7, [r0, #100]
 3482 0152 6760     		str	r7, [r4, #4]
 3483 0154 0DAB     		add	r3, sp, #52
 3484 0156 1878     		ldrb	r0, [r3]
 3485 0158 FFF7FEFF 		bl	bcdToDec
 3486              	.LVL393:
 3487 015c 2072     		strb	r0, [r4, #8]
1001:main.c        ****         updateCurrTime(updateTime, updateDate);
 3488              		.loc 1 1001 0
 3489 015e 0EAE     		add	r6, sp, #56
 3490 0160 A368     		ldr	r3, [r4, #8]
 3491 0162 0093     		str	r3, [sp]
 3492 0164 149A     		ldr	r2, [sp, #80]
 3493 0166 3B00     		movs	r3, r7
 3494 0168 0E98     		ldr	r0, [sp, #56]
 3495 016a 0F99     		ldr	r1, [sp, #60]
 3496 016c FFF7FEFF 		bl	updateCurrTime
 3497              	.LVL394:
1002:main.c        ****         if(updateTime.hour == feedTimes[feedCounter].hour && updateTime.minute == feedTimes[feedCou
 3498              		.loc 1 1002 0
 3499 0170 3278     		ldrb	r2, [r6]
 3500 0172 284B     		ldr	r3, .L198+16
 3501 0174 1C78     		ldrb	r4, [r3]
 3502 0176 E300     		lsls	r3, r4, #3
 3503 0178 EB18     		adds	r3, r5, r3
 3504 017a 1B7D     		ldrb	r3, [r3, #20]
 3505 017c 9A42     		cmp	r2, r3
 3506 017e 2DD1     		bne	.L193
 3507              		.loc 1 1002 0 is_stmt 0 discriminator 1
 3508 0180 0EAB     		add	r3, sp, #56
 3509 0182 5A78     		ldrb	r2, [r3, #1]
 3510 0184 E300     		lsls	r3, r4, #3
 3511 0186 2049     		ldr	r1, .L198+4
 3512 0188 CB18     		adds	r3, r1, r3
 3513 018a 5B7D     		ldrb	r3, [r3, #21]
 3514 018c 9A42     		cmp	r2, r3
 3515 018e 25D1     		bne	.L193
 3516              		.loc 1 1002 0 discriminator 2
 3517 0190 E300     		lsls	r3, r4, #3
ARM GAS  C:\Users\HELLOK~1.1\AppData\Local\Temp\cc5k7xEp.s 			page 81


 3518 0192 CB18     		adds	r3, r1, r3
 3519 0194 9B69     		ldr	r3, [r3, #24]
 3520 0196 0F9A     		ldr	r2, [sp, #60]
 3521 0198 9A42     		cmp	r2, r3
 3522 019a 1FD1     		bne	.L193
1003:main.c        ****             if(feedCounter == 2 || strncmp(feedTimes[feedCounter+1].AM,"AM",2) != 0 || strncmp(feed
 3523              		.loc 1 1003 0 is_stmt 1
 3524 019c 022C     		cmp	r4, #2
 3525 019e 0AD0     		beq	.L194
 3526              		.loc 1 1003 0 is_stmt 0 discriminator 1
 3527 01a0 631C     		adds	r3, r4, #1
 3528 01a2 DB00     		lsls	r3, r3, #3
 3529 01a4 CB18     		adds	r3, r1, r3
 3530 01a6 9869     		ldr	r0, [r3, #24]
 3531 01a8 0222     		movs	r2, #2
 3532 01aa 1949     		ldr	r1, .L198+12
 3533 01ac FFF7FEFF 		bl	strncmp
 3534              	.LVL395:
 3535 01b0 0028     		cmp	r0, #0
 3536 01b2 00D1     		bne	.L194
 3537              		.loc 1 1003 0 discriminator 2
 3538 01b4 17D0     		beq	.L195
 3539              	.L194:
1004:main.c        ****                 feedCounter++;
 3540              		.loc 1 1004 0 is_stmt 1
 3541 01b6 0134     		adds	r4, r4, #1
 3542 01b8 E1B2     		uxtb	r1, r4
 3543 01ba 164B     		ldr	r3, .L198+16
 3544 01bc 1970     		strb	r1, [r3]
1005:main.c        ****                 updateNextFeed(feedTimes[feedCounter],updateDate);
 3545              		.loc 1 1005 0
 3546 01be C900     		lsls	r1, r1, #3
 3547 01c0 114B     		ldr	r3, .L198+4
 3548 01c2 5918     		adds	r1, r3, r1
 3549 01c4 169B     		ldr	r3, [sp, #88]
 3550 01c6 0793     		str	r3, [sp, #28]
 3551 01c8 0093     		str	r3, [sp]
 3552 01ca 149A     		ldr	r2, [sp, #80]
 3553 01cc 159B     		ldr	r3, [sp, #84]
 3554 01ce 4869     		ldr	r0, [r1, #20]
 3555 01d0 8969     		ldr	r1, [r1, #24]
 3556 01d2 FFF7FEFF 		bl	updateNextFeed
 3557              	.LVL396:
1006:main.c        ****                 FEEEEED();
 3558              		.loc 1 1006 0
 3559 01d6 FFF7FEFF 		bl	FEEEEED
 3560              	.LVL397:
 3561 01da 04E0     		b	.L195
 3562              	.L193:
1007:main.c        ****             }
1008:main.c        ****         }
1009:main.c        ****         else if(feedCounter == 2){
 3563              		.loc 1 1009 0
 3564 01dc 022C     		cmp	r4, #2
 3565 01de 02D1     		bne	.L195
1010:main.c        ****             feedCounter = 0;
 3566              		.loc 1 1010 0
ARM GAS  C:\Users\HELLOK~1.1\AppData\Local\Temp\cc5k7xEp.s 			page 82


 3567 01e0 0022     		movs	r2, #0
 3568 01e2 0C4B     		ldr	r3, .L198+16
 3569 01e4 1A70     		strb	r2, [r3]
 3570              	.L195:
1011:main.c        ****         }
1012:main.c        ****         if(buttonFlag == 1){
 3571              		.loc 1 1012 0
 3572 01e6 0B4B     		ldr	r3, .L198+16
 3573 01e8 DB78     		ldrb	r3, [r3, #3]
 3574 01ea 012B     		cmp	r3, #1
 3575 01ec 04D1     		bne	.L196
1013:main.c        ****             buttonFlag = 0;
 3576              		.loc 1 1013 0
 3577 01ee 0022     		movs	r2, #0
 3578 01f0 084B     		ldr	r3, .L198+16
 3579 01f2 DA70     		strb	r2, [r3, #3]
1014:main.c        ****             startSettings();
 3580              		.loc 1 1014 0
 3581 01f4 FFF7FEFF 		bl	startSettings
 3582              	.LVL398:
 3583              	.L196:
1015:main.c        ****         }
1016:main.c        ****         CyDelay(1000);
 3584              		.loc 1 1016 0
 3585 01f8 FA20     		movs	r0, #250
 3586 01fa 8000     		lsls	r0, r0, #2
 3587 01fc FFF7FEFF 		bl	CyDelay
 3588              	.LVL399:
 3589              	.LBE19:
1017:main.c        ****         
1018:main.c        ****         //CySysPmDeepSleep();
1019:main.c        ****         /* Place your application code here. */
1020:main.c        ****     }
 3590              		.loc 1 1020 0
 3591 0200 43E7     		b	.L197
 3592              	.L199:
 3593 0202 C046     		.align	2
 3594              	.L198:
 3595 0204 18000000 		.word	.LANCHOR3
 3596 0208 00000000 		.word	.LANCHOR0
 3597 020c 9C000000 		.word	.LC4
 3598 0210 A0000000 		.word	.LC0
 3599 0214 00000000 		.word	.LANCHOR1
 3600              		.cfi_endproc
 3601              	.LFE55:
 3602              		.size	main, .-main
 3603              		.global	timesToFeed
 3604              		.global	encPos
 3605              		.global	encFlag
 3606              		.global	buttonFlag
 3607              		.global	LEDToggle
 3608              		.global	speakerToggle
 3609              		.global	feedCounter
 3610              		.global	ramAddr
 3611              		.global	RTCAddr
 3612              		.global	LCDAddr
 3613              		.global	commands
ARM GAS  C:\Users\HELLOK~1.1\AppData\Local\Temp\cc5k7xEp.s 			page 83


 3614              		.global	ram
 3615              		.global	feedTimes
 3616              		.global	months
 3617              		.global	rtc
 3618              		.global	feedSteps
 3619              		.global	motorDelay
 3620              		.global	motor
 3621              		.section	.rodata
 3622              		.align	2
 3623              		.set	.LANCHOR3,. + 0
 3624              	.LC112:
 3625 0018 0C       		.byte	12
 3626 0019 2D       		.byte	45
 3627 001a 0000     		.space	2
 3628 001c A0000000 		.word	.LC0
 3629              	.LC114:
 3630 0020 1F       		.byte	31
 3631 0021 000000   		.space	3
 3632 0024 24020000 		.word	.LC2
 3633 0028 17       		.byte	23
 3634 0029 000000   		.space	3
 3635              	.LC115:
 3636 002c 06       		.byte	6
 3637 002d 00       		.byte	0
 3638 002e 0000     		.space	2
 3639 0030 9C000000 		.word	.LC4
 3640              	.LC116:
 3641 0034 01       		.byte	1
 3642 0035 000000   		.space	3
 3643 0038 20020000 		.word	.LC6
 3644 003c 17       		.byte	23
 3645 003d 000000   		.space	3
 3646              		.type	ramAddr, %object
 3647              		.size	ramAddr, 4
 3648              	ramAddr:
 3649 0040 52000000 		.word	82
 3650              		.type	RTCAddr, %object
 3651              		.size	RTCAddr, 4
 3652              	RTCAddr:
 3653 0044 51000000 		.word	81
 3654              		.type	LCDAddr, %object
 3655              		.size	LCDAddr, 4
 3656              	LCDAddr:
 3657 0048 27000000 		.word	39
 3658              		.type	ram, %object
 3659              		.size	ram, 72
 3660              	ram:
 3661 004c 00000000 		.word	0
 3662 0050 02000000 		.word	2
 3663 0054 04000000 		.word	4
 3664 0058 06000000 		.word	6
 3665 005c 08000000 		.word	8
 3666 0060 0A000000 		.word	10
 3667 0064 0C000000 		.word	12
 3668 0068 0E000000 		.word	14
 3669 006c 00000000 		.space	40
 3669      00000000 
ARM GAS  C:\Users\HELLOK~1.1\AppData\Local\Temp\cc5k7xEp.s 			page 84


 3669      00000000 
 3669      00000000 
 3669      00000000 
 3670              		.data
 3671              		.align	2
 3672              		.set	.LANCHOR0,. + 0
 3673              		.set	.LANCHOR2,. + 128
 3674              		.type	motorDelay, %object
 3675              		.size	motorDelay, 4
 3676              	motorDelay:
 3677 0000 88130000 		.word	5000
 3678              		.type	rtc, %object
 3679              		.size	rtc, 16
 3680              	rtc:
 3681 0004 00       		.byte	0
 3682 0005 01       		.byte	1
 3683 0006 02       		.byte	2
 3684 0007 03       		.byte	3
 3685 0008 04       		.byte	4
 3686 0009 05       		.byte	5
 3687 000a 06       		.byte	6
 3688 000b 07       		.byte	7
 3689 000c 08       		.byte	8
 3690 000d 09       		.byte	9
 3691 000e 0A       		.byte	10
 3692 000f 0B       		.byte	11
 3693 0010 0C       		.byte	12
 3694 0011 0D       		.byte	13
 3695 0012 0E       		.byte	14
 3696 0013 0F       		.byte	15
 3697              		.type	feedTimes, %object
 3698              		.size	feedTimes, 80
 3699              	feedTimes:
 3700 0014 04       		.byte	4
 3701 0015 19       		.byte	25
 3702 0016 0000     		.space	2
 3703 0018 9C000000 		.word	.LC4
 3704 001c 04       		.byte	4
 3705 001d 1A       		.byte	26
 3706 001e 0000     		.space	2
 3707 0020 9C000000 		.word	.LC4
 3708 0024 05       		.byte	5
 3709 0025 05       		.byte	5
 3710 0026 0000     		.space	2
 3711 0028 9C000000 		.word	.LC4
 3712 002c 00000000 		.space	56
 3712      00000000 
 3712      00000000 
 3712      00000000 
 3712      00000000 
 3713              		.type	months, %object
 3714              		.size	months, 48
 3715              	months:
 3716 0064 B8020000 		.word	.LC127
 3717 0068 BC020000 		.word	.LC128
 3718 006c 24020000 		.word	.LC2
 3719 0070 20020000 		.word	.LC6
ARM GAS  C:\Users\HELLOK~1.1\AppData\Local\Temp\cc5k7xEp.s 			page 85


 3720 0074 C0020000 		.word	.LC129
 3721 0078 C4020000 		.word	.LC130
 3722 007c C8020000 		.word	.LC131
 3723 0080 CC020000 		.word	.LC132
 3724 0084 D0020000 		.word	.LC133
 3725 0088 D4020000 		.word	.LC134
 3726 008c D8020000 		.word	.LC135
 3727 0090 DC020000 		.word	.LC136
 3728              		.type	motor, %object
 3729              		.size	motor, 4
 3730              	motor:
 3731 0094 01       		.byte	1
 3732 0095 000000   		.space	3
 3733              		.type	feedSteps, %object
 3734              		.size	feedSteps, 4
 3735              	feedSteps:
 3736 0098 F4010000 		.word	500
 3737              		.type	speakerToggle, %object
 3738              		.size	speakerToggle, 1
 3739              	speakerToggle:
 3740 009c 01       		.byte	1
 3741              		.type	LEDToggle, %object
 3742              		.size	LEDToggle, 1
 3743              	LEDToggle:
 3744 009d 01       		.byte	1
 3745 009e 0000     		.space	2
 3746              		.type	commands, %object
 3747              		.size	commands, 24
 3748              	commands:
 3749 00a0 28020000 		.word	.LC121
 3750 00a4 40020000 		.word	.LC122
 3751 00a8 58020000 		.word	.LC123
 3752 00ac 70020000 		.word	.LC124
 3753 00b0 88020000 		.word	.LC125
 3754 00b4 A0020000 		.word	.LC126
 3755              		.section	.rodata.str1.4,"aMS",%progbits,1
 3756              		.align	2
 3757              	.LC10:
 3758 0000 25643A25 		.ascii	"%d:%.2d%s %s %d, 20%d \000"
 3758      2E326425 
 3758      73202573 
 3758      2025642C 
 3758      20323025 
 3759 0017 00       		.space	1
 3760              	.LC12:
 3761 0018 2D2D2D2D 		.ascii	"--------------------\000"
 3761      2D2D2D2D 
 3761      2D2D2D2D 
 3761      2D2D2D2D 
 3761      2D2D2D2D 
 3762 002d 000000   		.space	3
 3763              	.LC14:
 3764 0030 54696D65 		.ascii	"Time of Next Feed:\000"
 3764      206F6620 
 3764      4E657874 
 3764      20466565 
 3764      643A00
ARM GAS  C:\Users\HELLOK~1.1\AppData\Local\Temp\cc5k7xEp.s 			page 86


 3765 0043 00       		.space	1
 3766              	.LC22:
 3767 0044 54696D65 		.ascii	"Time of Next Feed:  \000"
 3767      206F6620 
 3767      4E657874 
 3767      20466565 
 3767      643A2020 
 3768 0059 000000   		.space	3
 3769              	.LC26:
 3770 005c 53657420 		.ascii	"Set Month\000"
 3770      4D6F6E74 
 3770      6800
 3771 0066 0000     		.space	2
 3772              	.LC29:
 3773 0068 25732025 		.ascii	"%s %d, 20%d\000"
 3773      642C2032 
 3773      30256400 
 3774              	.LC32:
 3775 0074 53657420 		.ascii	"Set Day  \000"
 3775      44617920 
 3775      2000
 3776 007e 0000     		.space	2
 3777              	.LC34:
 3778 0080 25303264 		.ascii	"%02d\000"
 3778      00
 3779 0085 000000   		.space	3
 3780              	.LC36:
 3781 0088 53657420 		.ascii	"Set Year\000"
 3781      59656172 
 3781      00
 3782 0091 000000   		.space	3
 3783              	.LC38:
 3784 0094 32302530 		.ascii	"20%02d\000"
 3784      326400
 3785 009b 00       		.space	1
 3786              	.LC4:
 3787 009c 504D00   		.ascii	"PM\000"
 3788 009f 00       		.space	1
 3789              	.LC0:
 3790 00a0 414D00   		.ascii	"AM\000"
 3791 00a3 00       		.space	1
 3792              	.LC42:
 3793 00a4 53657420 		.ascii	"Set Hour\000"
 3793      486F7572 
 3793      00
 3794 00ad 000000   		.space	3
 3795              	.LC44:
 3796 00b0 25643A25 		.ascii	"%d:%.2d%s        \000"
 3796      2E326425 
 3796      73202020 
 3796      20202020 
 3796      2000
 3797 00c2 0000     		.space	2
 3798              	.LC46:
 3799 00c4 53657420 		.ascii	"Set Minute\000"
 3799      4D696E75 
 3799      746500
ARM GAS  C:\Users\HELLOK~1.1\AppData\Local\Temp\cc5k7xEp.s 			page 87


 3800 00cf 00       		.space	1
 3801              	.LC48:
 3802 00d0 53657420 		.ascii	"Set AM/PM    \000"
 3802      414D2F50 
 3802      4D202020 
 3802      2000
 3803 00de 0000     		.space	2
 3804              	.LC51:
 3805 00e0 53657420 		.ascii	"Set amount of times\000"
 3805      616D6F75 
 3805      6E74206F 
 3805      66207469 
 3805      6D657300 
 3806              	.LC53:
 3807 00f4 746F2066 		.ascii	"to feed\000"
 3807      65656400 
 3808              	.LC55:
 3809 00fc 4E756D62 		.ascii	"Number of feeds: %d\000"
 3809      6572206F 
 3809      66206665 
 3809      6564733A 
 3809      20256400 
 3810              	.LC57:
 3811 0110 596F7572 		.ascii	"Your cat doesn't\000"
 3811      20636174 
 3811      20646F65 
 3811      736E2774 
 3811      00
 3812 0121 000000   		.space	3
 3813              	.LC59:
 3814 0124 6E656564 		.ascii	"need to be fed more\000"
 3814      20746F20 
 3814      62652066 
 3814      6564206D 
 3814      6F726500 
 3815              	.LC61:
 3816 0138 7468616E 		.ascii	"than 10 times.\000"
 3816      20313020 
 3816      74696D65 
 3816      732E00
 3817 0147 00       		.space	1
 3818              	.LC63:
 3819 0148 4E756D62 		.ascii	"Number of feeds: %d \000"
 3819      6572206F 
 3819      66206665 
 3819      6564733A 
 3819      20256420 
 3820 015d 000000   		.space	3
 3821              	.LC65:
 3822 0160 46656564 		.ascii	"Feed #%d\000"
 3822      20232564 
 3822      00
 3823 0169 000000   		.space	3
 3824              	.LC70:
 3825 016c 53657420 		.ascii	"Set Hour   \000"
 3825      486F7572 
 3825      20202000 
ARM GAS  C:\Users\HELLOK~1.1\AppData\Local\Temp\cc5k7xEp.s 			page 88


 3826              	.LC72:
 3827 0178 25303264 		.ascii	"%02d:%02d%s        \000"
 3827      3A253032 
 3827      64257320 
 3827      20202020 
 3827      20202000 
 3828              	.LC76:
 3829 018c 486F6C64 		.ascii	"Hold button to\000"
 3829      20627574 
 3829      746F6E20 
 3829      746F00
 3830 019b 00       		.space	1
 3831              	.LC78:
 3832 019c 61646A75 		.ascii	"adjust amount of\000"
 3832      73742061 
 3832      6D6F756E 
 3832      74206F66 
 3832      00
 3833 01ad 000000   		.space	3
 3834              	.LC80:
 3835 01b0 666F6F64 		.ascii	"food. Release when\000"
 3835      2E205265 
 3835      6C656173 
 3835      65207768 
 3835      656E00
 3836 01c3 00       		.space	1
 3837              	.LC82:
 3838 01c4 73617469 		.ascii	"satisfied.\000"
 3838      73666965 
 3838      642E00
 3839 01cf 00       		.space	1
 3840              	.LC86:
 3841 01d0 5475726E 		.ascii	"Turn knob to toggle\000"
 3841      206B6E6F 
 3841      6220746F 
 3841      20746F67 
 3841      676C6500 
 3842              	.LC89:
 3843 01e4 4F666600 		.ascii	"Off\000"
 3844              	.LC91:
 3845 01e8 4F6E00   		.ascii	"On\000"
 3846 01eb 00       		.space	1
 3847              	.LC94:
 3848 01ec 4F6E2000 		.ascii	"On \000"
 3849              	.LC102:
 3850 01f0 42757474 		.ascii	"Button = Select\000"
 3850      6F6E203D 
 3850      2053656C 
 3850      65637400 
 3851              	.LC104:
 3852 0200 4B6E6F62 		.ascii	"Knob = Choice\000"
 3852      203D2043 
 3852      686F6963 
 3852      6500
 3853 020e 0000     		.space	2
 3854              	.LC107:
 3855 0210 53657420 		.ascii	"Set Global Time\000"
ARM GAS  C:\Users\HELLOK~1.1\AppData\Local\Temp\cc5k7xEp.s 			page 89


 3855      476C6F62 
 3855      616C2054 
 3855      696D6500 
 3856              	.LC6:
 3857 0220 41707200 		.ascii	"Apr\000"
 3858              	.LC2:
 3859 0224 4D617200 		.ascii	"Mar\000"
 3860              	.LC121:
 3861 0228 53657420 		.ascii	"Set Global Time     \000"
 3861      476C6F62 
 3861      616C2054 
 3861      696D6520 
 3861      20202020 
 3862 023d 000000   		.space	3
 3863              	.LC122:
 3864 0240 4368616E 		.ascii	"Change Feed Times   \000"
 3864      67652046 
 3864      65656420 
 3864      54696D65 
 3864      73202020 
 3865 0255 000000   		.space	3
 3866              	.LC123:
 3867 0258 4368616E 		.ascii	"Change Feed Amount  \000"
 3867      67652046 
 3867      65656420 
 3867      416D6F75 
 3867      6E742020 
 3868 026d 000000   		.space	3
 3869              	.LC124:
 3870 0270 5475726E 		.ascii	"Turn on/off LED's   \000"
 3870      206F6E2F 
 3870      6F666620 
 3870      4C454427 
 3870      73202020 
 3871 0285 000000   		.space	3
 3872              	.LC125:
 3873 0288 5475726E 		.ascii	"Turn on/off Speakers\000"
 3873      206F6E2F 
 3873      6F666620 
 3873      53706561 
 3873      6B657273 
 3874 029d 000000   		.space	3
 3875              	.LC126:
 3876 02a0 45786974 		.ascii	"Exit                \000"
 3876      20202020 
 3876      20202020 
 3876      20202020 
 3876      20202020 
 3877 02b5 000000   		.space	3
 3878              	.LC127:
 3879 02b8 4A616E00 		.ascii	"Jan\000"
 3880              	.LC128:
 3881 02bc 46656200 		.ascii	"Feb\000"
 3882              	.LC129:
 3883 02c0 4D617900 		.ascii	"May\000"
 3884              	.LC130:
 3885 02c4 4A756E00 		.ascii	"Jun\000"
ARM GAS  C:\Users\HELLOK~1.1\AppData\Local\Temp\cc5k7xEp.s 			page 90


 3886              	.LC131:
 3887 02c8 4A756C00 		.ascii	"Jul\000"
 3888              	.LC132:
 3889 02cc 41756700 		.ascii	"Aug\000"
 3890              	.LC133:
 3891 02d0 53657000 		.ascii	"Sep\000"
 3892              	.LC134:
 3893 02d4 4F637400 		.ascii	"Oct\000"
 3894              	.LC135:
 3895 02d8 4E6F7600 		.ascii	"Nov\000"
 3896              	.LC136:
 3897 02dc 44656300 		.ascii	"Dec\000"
 3898              		.bss
 3899              		.set	.LANCHOR1,. + 0
 3900              		.type	feedCounter, %object
 3901              		.size	feedCounter, 1
 3902              	feedCounter:
 3903 0000 00       		.space	1
 3904              		.type	encFlag, %object
 3905              		.size	encFlag, 1
 3906              	encFlag:
 3907 0001 00       		.space	1
 3908              		.type	encPos, %object
 3909              		.size	encPos, 1
 3910              	encPos:
 3911 0002 00       		.space	1
 3912              		.type	buttonFlag, %object
 3913              		.size	buttonFlag, 1
 3914              	buttonFlag:
 3915 0003 00       		.space	1
 3916              		.type	timesToFeed, %object
 3917              		.size	timesToFeed, 1
 3918              	timesToFeed:
 3919 0004 00       		.space	1
 3920              		.text
 3921              	.Letext0:
 3922              		.file 2 "Generated_Source\\PSoC4/cytypes.h"
 3923              		.file 3 "Generated_Source\\PSoC4/Motor.h"
 3924              		.file 4 "Generated_Source\\PSoC4/CyLib.h"
 3925              		.file 5 "Generated_Source\\PSoC4/I2C_I2C.h"
 3926              		.file 6 "LiquidCrystal_I2C.h"
 3927              		.file 7 "c:\\program files (x86)\\cypress\\psoc creator\\4.4\\psoc creator\\import\\gnu\\arm\\5.4.
 3928              		.file 8 "Generated_Source\\PSoC4/LED_SEL.h"
 3929              		.file 9 "Generated_Source\\PSoC4/SPEAKER_PWM.h"
 3930              		.file 10 "Generated_Source\\PSoC4/LED_PWM.h"
 3931              		.file 11 "Generated_Source\\PSoC4/BTN.h"
 3932              		.file 12 "c:\\program files (x86)\\cypress\\psoc creator\\4.4\\psoc creator\\import\\gnu\\arm\\5.4
 3933              		.file 13 "Generated_Source\\PSoC4/BTN_ISR.h"
 3934              		.file 14 "Generated_Source\\PSoC4/ENC_ISR.h"
 3935              		.file 15 "Generated_Source\\PSoC4/I2C.h"
 3936              		.section	.debug_info,"",%progbits
 3937              	.Ldebug_info0:
 3938 0000 C8260000 		.4byte	0x26c8
 3939 0004 0400     		.2byte	0x4
 3940 0006 00000000 		.4byte	.Ldebug_abbrev0
 3941 000a 04       		.byte	0x4
 3942 000b 01       		.uleb128 0x1
ARM GAS  C:\Users\HELLOK~1.1\AppData\Local\Temp\cc5k7xEp.s 			page 91


 3943 000c 1F020000 		.4byte	.LASF146
 3944 0010 0C       		.byte	0xc
 3945 0011 49000000 		.4byte	.LASF147
 3946 0015 E3040000 		.4byte	.LASF148
 3947 0019 18000000 		.4byte	.Ldebug_ranges0+0x18
 3948 001d 00000000 		.4byte	0
 3949 0021 00000000 		.4byte	.Ldebug_line0
 3950 0025 02       		.uleb128 0x2
 3951 0026 01       		.byte	0x1
 3952 0027 06       		.byte	0x6
 3953 0028 A7060000 		.4byte	.LASF0
 3954 002c 02       		.uleb128 0x2
 3955 002d 01       		.byte	0x1
 3956 002e 08       		.byte	0x8
 3957 002f 56060000 		.4byte	.LASF1
 3958 0033 02       		.uleb128 0x2
 3959 0034 02       		.byte	0x2
 3960 0035 05       		.byte	0x5
 3961 0036 80050000 		.4byte	.LASF2
 3962 003a 02       		.uleb128 0x2
 3963 003b 02       		.byte	0x2
 3964 003c 07       		.byte	0x7
 3965 003d B3060000 		.4byte	.LASF3
 3966 0041 02       		.uleb128 0x2
 3967 0042 04       		.byte	0x4
 3968 0043 05       		.byte	0x5
 3969 0044 8A050000 		.4byte	.LASF4
 3970 0048 02       		.uleb128 0x2
 3971 0049 04       		.byte	0x4
 3972 004a 07       		.byte	0x7
 3973 004b FF050000 		.4byte	.LASF5
 3974 004f 02       		.uleb128 0x2
 3975 0050 08       		.byte	0x8
 3976 0051 05       		.byte	0x5
 3977 0052 EC030000 		.4byte	.LASF6
 3978 0056 02       		.uleb128 0x2
 3979 0057 08       		.byte	0x8
 3980 0058 07       		.byte	0x7
 3981 0059 AB010000 		.4byte	.LASF7
 3982 005d 03       		.uleb128 0x3
 3983 005e 04       		.byte	0x4
 3984 005f 05       		.byte	0x5
 3985 0060 696E7400 		.ascii	"int\000"
 3986 0064 02       		.uleb128 0x2
 3987 0065 04       		.byte	0x4
 3988 0066 07       		.byte	0x7
 3989 0067 AB000000 		.4byte	.LASF8
 3990 006b 04       		.uleb128 0x4
 3991 006c E1060000 		.4byte	.LASF9
 3992 0070 02       		.byte	0x2
 3993 0071 FC01     		.2byte	0x1fc
 3994 0073 2C000000 		.4byte	0x2c
 3995 0077 04       		.uleb128 0x4
 3996 0078 84030000 		.4byte	.LASF10
 3997 007c 02       		.byte	0x2
 3998 007d FD01     		.2byte	0x1fd
 3999 007f 3A000000 		.4byte	0x3a
ARM GAS  C:\Users\HELLOK~1.1\AppData\Local\Temp\cc5k7xEp.s 			page 92


 4000 0083 04       		.uleb128 0x4
 4001 0084 63040000 		.4byte	.LASF11
 4002 0088 02       		.byte	0x2
 4003 0089 FE01     		.2byte	0x1fe
 4004 008b 48000000 		.4byte	0x48
 4005 008f 02       		.uleb128 0x2
 4006 0090 04       		.byte	0x4
 4007 0091 04       		.byte	0x4
 4008 0092 7C010000 		.4byte	.LASF12
 4009 0096 02       		.uleb128 0x2
 4010 0097 08       		.byte	0x8
 4011 0098 04       		.byte	0x4
 4012 0099 E7060000 		.4byte	.LASF13
 4013 009d 02       		.uleb128 0x2
 4014 009e 01       		.byte	0x1
 4015 009f 08       		.byte	0x8
 4016 00a0 5A030000 		.4byte	.LASF14
 4017 00a4 05       		.uleb128 0x5
 4018 00a5 6B000000 		.4byte	0x6b
 4019 00a9 02       		.uleb128 0x2
 4020 00aa 08       		.byte	0x8
 4021 00ab 04       		.byte	0x4
 4022 00ac D7040000 		.4byte	.LASF15
 4023 00b0 02       		.uleb128 0x2
 4024 00b1 04       		.byte	0x4
 4025 00b2 07       		.byte	0x7
 4026 00b3 F6050000 		.4byte	.LASF16
 4027 00b7 06       		.uleb128 0x6
 4028 00b8 04       		.byte	0x4
 4029 00b9 9D000000 		.4byte	0x9d
 4030 00bd 06       		.uleb128 0x6
 4031 00be 04       		.byte	0x4
 4032 00bf C3000000 		.4byte	0xc3
 4033 00c3 07       		.uleb128 0x7
 4034 00c4 9D000000 		.4byte	0x9d
 4035 00c8 06       		.uleb128 0x6
 4036 00c9 04       		.byte	0x4
 4037 00ca 6B000000 		.4byte	0x6b
 4038 00ce 08       		.uleb128 0x8
 4039 00cf 4D545200 		.ascii	"MTR\000"
 4040 00d3 04       		.byte	0x4
 4041 00d4 01       		.byte	0x1
 4042 00d5 10       		.byte	0x10
 4043 00d6 EA000000 		.4byte	0xea
 4044 00da 09       		.uleb128 0x9
 4045 00db 30070000 		.4byte	.LASF149
 4046 00df 01       		.byte	0x1
 4047 00e0 11       		.byte	0x11
 4048 00e1 64000000 		.4byte	0x64
 4049 00e5 04       		.byte	0x4
 4050 00e6 04       		.byte	0x4
 4051 00e7 1C       		.byte	0x1c
 4052 00e8 00       		.byte	0
 4053 00e9 00       		.byte	0
 4054 00ea 0A       		.uleb128 0xa
 4055 00eb DC060000 		.4byte	.LASF17
 4056 00ef 08       		.byte	0x8
ARM GAS  C:\Users\HELLOK~1.1\AppData\Local\Temp\cc5k7xEp.s 			page 93


 4057 00f0 01       		.byte	0x1
 4058 00f1 3B       		.byte	0x3b
 4059 00f2 1A010000 		.4byte	0x11a
 4060 00f6 0B       		.uleb128 0xb
 4061 00f7 2D030000 		.4byte	.LASF18
 4062 00fb 01       		.byte	0x1
 4063 00fc 3C       		.byte	0x3c
 4064 00fd 6B000000 		.4byte	0x6b
 4065 0101 00       		.byte	0
 4066 0102 0B       		.uleb128 0xb
 4067 0103 E5030000 		.4byte	.LASF19
 4068 0107 01       		.byte	0x1
 4069 0108 3D       		.byte	0x3d
 4070 0109 6B000000 		.4byte	0x6b
 4071 010d 01       		.byte	0x1
 4072 010e 0C       		.uleb128 0xc
 4073 010f 414D00   		.ascii	"AM\000"
 4074 0112 01       		.byte	0x1
 4075 0113 3E       		.byte	0x3e
 4076 0114 C8000000 		.4byte	0xc8
 4077 0118 04       		.byte	0x4
 4078 0119 00       		.byte	0
 4079 011a 0A       		.uleb128 0xa
 4080 011b 2B070000 		.4byte	.LASF20
 4081 011f 0C       		.byte	0xc
 4082 0120 01       		.byte	0x1
 4083 0121 41       		.byte	0x41
 4084 0122 4B010000 		.4byte	0x14b
 4085 0126 0C       		.uleb128 0xc
 4086 0127 64617900 		.ascii	"day\000"
 4087 012b 01       		.byte	0x1
 4088 012c 42       		.byte	0x42
 4089 012d 6B000000 		.4byte	0x6b
 4090 0131 00       		.byte	0
 4091 0132 0B       		.uleb128 0xb
 4092 0133 F0020000 		.4byte	.LASF21
 4093 0137 01       		.byte	0x1
 4094 0138 43       		.byte	0x43
 4095 0139 B7000000 		.4byte	0xb7
 4096 013d 04       		.byte	0x4
 4097 013e 0B       		.uleb128 0xb
 4098 013f 37060000 		.4byte	.LASF22
 4099 0143 01       		.byte	0x1
 4100 0144 44       		.byte	0x44
 4101 0145 6B000000 		.4byte	0x6b
 4102 0149 08       		.byte	0x8
 4103 014a 00       		.byte	0
 4104 014b 08       		.uleb128 0x8
 4105 014c 52544300 		.ascii	"RTC\000"
 4106 0150 10       		.byte	0x10
 4107 0151 01       		.byte	0x1
 4108 0152 46       		.byte	0x46
 4109 0153 18020000 		.4byte	0x218
 4110 0157 0B       		.uleb128 0xb
 4111 0158 D1030000 		.4byte	.LASF23
 4112 015c 01       		.byte	0x1
 4113 015d 47       		.byte	0x47
ARM GAS  C:\Users\HELLOK~1.1\AppData\Local\Temp\cc5k7xEp.s 			page 94


 4114 015e 6B000000 		.4byte	0x6b
 4115 0162 00       		.byte	0
 4116 0163 0B       		.uleb128 0xb
 4117 0164 DB030000 		.4byte	.LASF24
 4118 0168 01       		.byte	0x1
 4119 0169 48       		.byte	0x48
 4120 016a 6B000000 		.4byte	0x6b
 4121 016e 01       		.byte	0x1
 4122 016f 0B       		.uleb128 0xb
 4123 0170 2F040000 		.4byte	.LASF25
 4124 0174 01       		.byte	0x1
 4125 0175 49       		.byte	0x49
 4126 0176 6B000000 		.4byte	0x6b
 4127 017a 02       		.byte	0x2
 4128 017b 0B       		.uleb128 0xb
 4129 017c 6F060000 		.4byte	.LASF26
 4130 0180 01       		.byte	0x1
 4131 0181 4A       		.byte	0x4a
 4132 0182 6B000000 		.4byte	0x6b
 4133 0186 03       		.byte	0x3
 4134 0187 0B       		.uleb128 0xb
 4135 0188 96060000 		.4byte	.LASF27
 4136 018c 01       		.byte	0x1
 4137 018d 4B       		.byte	0x4b
 4138 018e 6B000000 		.4byte	0x6b
 4139 0192 04       		.byte	0x4
 4140 0193 0B       		.uleb128 0xb
 4141 0194 E2020000 		.4byte	.LASF28
 4142 0198 01       		.byte	0x1
 4143 0199 4C       		.byte	0x4c
 4144 019a 6B000000 		.4byte	0x6b
 4145 019e 05       		.byte	0x5
 4146 019f 0B       		.uleb128 0xb
 4147 01a0 6C030000 		.4byte	.LASF29
 4148 01a4 01       		.byte	0x1
 4149 01a5 4D       		.byte	0x4d
 4150 01a6 6B000000 		.4byte	0x6b
 4151 01aa 06       		.byte	0x6
 4152 01ab 0B       		.uleb128 0xb
 4153 01ac 51010000 		.4byte	.LASF30
 4154 01b0 01       		.byte	0x1
 4155 01b1 4E       		.byte	0x4e
 4156 01b2 6B000000 		.4byte	0x6b
 4157 01b6 07       		.byte	0x7
 4158 01b7 0B       		.uleb128 0xb
 4159 01b8 F2010000 		.4byte	.LASF31
 4160 01bc 01       		.byte	0x1
 4161 01bd 4F       		.byte	0x4f
 4162 01be 6B000000 		.4byte	0x6b
 4163 01c2 08       		.byte	0x8
 4164 01c3 0B       		.uleb128 0xb
 4165 01c4 11070000 		.4byte	.LASF32
 4166 01c8 01       		.byte	0x1
 4167 01c9 50       		.byte	0x50
 4168 01ca 6B000000 		.4byte	0x6b
 4169 01ce 09       		.byte	0x9
 4170 01cf 0B       		.uleb128 0xb
ARM GAS  C:\Users\HELLOK~1.1\AppData\Local\Temp\cc5k7xEp.s 			page 95


 4171 01d0 EE060000 		.4byte	.LASF33
 4172 01d4 01       		.byte	0x1
 4173 01d5 51       		.byte	0x51
 4174 01d6 6B000000 		.4byte	0x6b
 4175 01da 0A       		.byte	0xa
 4176 01db 0B       		.uleb128 0xb
 4177 01dc 16020000 		.4byte	.LASF34
 4178 01e0 01       		.byte	0x1
 4179 01e1 52       		.byte	0x52
 4180 01e2 6B000000 		.4byte	0x6b
 4181 01e6 0B       		.byte	0xb
 4182 01e7 0B       		.uleb128 0xb
 4183 01e8 CB010000 		.4byte	.LASF35
 4184 01ec 01       		.byte	0x1
 4185 01ed 53       		.byte	0x53
 4186 01ee 6B000000 		.4byte	0x6b
 4187 01f2 0C       		.byte	0xc
 4188 01f3 0B       		.uleb128 0xb
 4189 01f4 C9040000 		.4byte	.LASF36
 4190 01f8 01       		.byte	0x1
 4191 01f9 54       		.byte	0x54
 4192 01fa 6B000000 		.4byte	0x6b
 4193 01fe 0D       		.byte	0xd
 4194 01ff 0B       		.uleb128 0xb
 4195 0200 5F030000 		.4byte	.LASF37
 4196 0204 01       		.byte	0x1
 4197 0205 55       		.byte	0x55
 4198 0206 6B000000 		.4byte	0x6b
 4199 020a 0E       		.byte	0xe
 4200 020b 0B       		.uleb128 0xb
 4201 020c 92010000 		.4byte	.LASF38
 4202 0210 01       		.byte	0x1
 4203 0211 56       		.byte	0x56
 4204 0212 6B000000 		.4byte	0x6b
 4205 0216 0F       		.byte	0xf
 4206 0217 00       		.byte	0
 4207 0218 0A       		.uleb128 0xa
 4208 0219 51060000 		.4byte	.LASF39
 4209 021d 48       		.byte	0x48
 4210 021e 01       		.byte	0x1
 4211 021f 80       		.byte	0x80
 4212 0220 FD020000 		.4byte	0x2fd
 4213 0224 0B       		.uleb128 0xb
 4214 0225 3B030000 		.4byte	.LASF40
 4215 0229 01       		.byte	0x1
 4216 022a 81       		.byte	0x81
 4217 022b 83000000 		.4byte	0x83
 4218 022f 00       		.byte	0
 4219 0230 0B       		.uleb128 0xb
 4220 0231 04040000 		.4byte	.LASF41
 4221 0235 01       		.byte	0x1
 4222 0236 82       		.byte	0x82
 4223 0237 83000000 		.4byte	0x83
 4224 023b 04       		.byte	0x4
 4225 023c 0B       		.uleb128 0xb
 4226 023d FA030000 		.4byte	.LASF42
 4227 0241 01       		.byte	0x1
ARM GAS  C:\Users\HELLOK~1.1\AppData\Local\Temp\cc5k7xEp.s 			page 96


 4228 0242 83       		.byte	0x83
 4229 0243 83000000 		.4byte	0x83
 4230 0247 08       		.byte	0x8
 4231 0248 0B       		.uleb128 0xb
 4232 0249 00000000 		.4byte	.LASF43
 4233 024d 01       		.byte	0x1
 4234 024e 84       		.byte	0x84
 4235 024f 83000000 		.4byte	0x83
 4236 0253 0C       		.byte	0xc
 4237 0254 0B       		.uleb128 0xb
 4238 0255 39010000 		.4byte	.LASF44
 4239 0259 01       		.byte	0x1
 4240 025a 86       		.byte	0x86
 4241 025b 83000000 		.4byte	0x83
 4242 025f 10       		.byte	0x10
 4243 0260 0B       		.uleb128 0xb
 4244 0261 45010000 		.4byte	.LASF45
 4245 0265 01       		.byte	0x1
 4246 0266 87       		.byte	0x87
 4247 0267 83000000 		.4byte	0x83
 4248 026b 14       		.byte	0x14
 4249 026c 0B       		.uleb128 0xb
 4250 026d C5030000 		.4byte	.LASF46
 4251 0271 01       		.byte	0x1
 4252 0272 88       		.byte	0x88
 4253 0273 83000000 		.4byte	0x83
 4254 0277 18       		.byte	0x18
 4255 0278 0B       		.uleb128 0xb
 4256 0279 60010000 		.4byte	.LASF47
 4257 027d 01       		.byte	0x1
 4258 027e 89       		.byte	0x89
 4259 027f 83000000 		.4byte	0x83
 4260 0283 1C       		.byte	0x1c
 4261 0284 0B       		.uleb128 0xb
 4262 0285 79000000 		.4byte	.LASF48
 4263 0289 01       		.byte	0x1
 4264 028a 8B       		.byte	0x8b
 4265 028b 83000000 		.4byte	0x83
 4266 028f 20       		.byte	0x20
 4267 0290 0B       		.uleb128 0xb
 4268 0291 83000000 		.4byte	.LASF49
 4269 0295 01       		.byte	0x1
 4270 0296 8C       		.byte	0x8c
 4271 0297 83000000 		.4byte	0x83
 4272 029b 24       		.byte	0x24
 4273 029c 0B       		.uleb128 0xb
 4274 029d 8D000000 		.4byte	.LASF50
 4275 02a1 01       		.byte	0x1
 4276 02a2 8D       		.byte	0x8d
 4277 02a3 83000000 		.4byte	0x83
 4278 02a7 28       		.byte	0x28
 4279 02a8 0B       		.uleb128 0xb
 4280 02a9 97000000 		.4byte	.LASF51
 4281 02ad 01       		.byte	0x1
 4282 02ae 8E       		.byte	0x8e
 4283 02af 83000000 		.4byte	0x83
 4284 02b3 2C       		.byte	0x2c
ARM GAS  C:\Users\HELLOK~1.1\AppData\Local\Temp\cc5k7xEp.s 			page 97


 4285 02b4 0B       		.uleb128 0xb
 4286 02b5 A1000000 		.4byte	.LASF52
 4287 02b9 01       		.byte	0x1
 4288 02ba 8F       		.byte	0x8f
 4289 02bb 83000000 		.4byte	0x83
 4290 02bf 30       		.byte	0x30
 4291 02c0 0B       		.uleb128 0xb
 4292 02c1 39070000 		.4byte	.LASF53
 4293 02c5 01       		.byte	0x1
 4294 02c6 90       		.byte	0x90
 4295 02c7 83000000 		.4byte	0x83
 4296 02cb 34       		.byte	0x34
 4297 02cc 0B       		.uleb128 0xb
 4298 02cd B8000000 		.4byte	.LASF54
 4299 02d1 01       		.byte	0x1
 4300 02d2 91       		.byte	0x91
 4301 02d3 83000000 		.4byte	0x83
 4302 02d7 38       		.byte	0x38
 4303 02d8 0B       		.uleb128 0xb
 4304 02d9 C2000000 		.4byte	.LASF55
 4305 02dd 01       		.byte	0x1
 4306 02de 92       		.byte	0x92
 4307 02df 83000000 		.4byte	0x83
 4308 02e3 3C       		.byte	0x3c
 4309 02e4 0B       		.uleb128 0xb
 4310 02e5 CC000000 		.4byte	.LASF56
 4311 02e9 01       		.byte	0x1
 4312 02ea 93       		.byte	0x93
 4313 02eb 83000000 		.4byte	0x83
 4314 02ef 40       		.byte	0x40
 4315 02f0 0B       		.uleb128 0xb
 4316 02f1 D7020000 		.4byte	.LASF57
 4317 02f5 01       		.byte	0x1
 4318 02f6 94       		.byte	0x94
 4319 02f7 83000000 		.4byte	0x83
 4320 02fb 44       		.byte	0x44
 4321 02fc 00       		.byte	0
 4322 02fd 0D       		.uleb128 0xd
 4323 02fe 9A040000 		.4byte	.LASF58
 4324 0302 01       		.byte	0x1
 4325 0303 18       		.byte	0x18
 4326 0304 5D000000 		.4byte	0x5d
 4327 0308 00000000 		.4byte	.LFB35
 4328 030c 64000000 		.4byte	.LFE35-.LFB35
 4329 0310 01       		.uleb128 0x1
 4330 0311 9C       		.byte	0x9c
 4331 0312 7B030000 		.4byte	0x37b
 4332 0316 0E       		.uleb128 0xe
 4333 0317 47030000 		.4byte	.LASF60
 4334 031b 01       		.byte	0x1
 4335 031c 18       		.byte	0x18
 4336 031d CE000000 		.4byte	0xce
 4337 0321 00000000 		.4byte	.LLST0
 4338 0325 0F       		.uleb128 0xf
 4339 0326 3C000000 		.4byte	.LVL6
 4340 032a 8D250000 		.4byte	0x258d
 4341 032e 38030000 		.4byte	0x338
ARM GAS  C:\Users\HELLOK~1.1\AppData\Local\Temp\cc5k7xEp.s 			page 98


 4342 0332 10       		.uleb128 0x10
 4343 0333 01       		.uleb128 0x1
 4344 0334 50       		.byte	0x50
 4345 0335 01       		.uleb128 0x1
 4346 0336 39       		.byte	0x39
 4347 0337 00       		.byte	0
 4348 0338 0F       		.uleb128 0xf
 4349 0339 44000000 		.4byte	.LVL7
 4350 033d 8D250000 		.4byte	0x258d
 4351 0341 4B030000 		.4byte	0x34b
 4352 0345 10       		.uleb128 0x10
 4353 0346 01       		.uleb128 0x1
 4354 0347 50       		.byte	0x50
 4355 0348 01       		.uleb128 0x1
 4356 0349 33       		.byte	0x33
 4357 034a 00       		.byte	0
 4358 034b 0F       		.uleb128 0xf
 4359 034c 4C000000 		.4byte	.LVL8
 4360 0350 8D250000 		.4byte	0x258d
 4361 0354 5E030000 		.4byte	0x35e
 4362 0358 10       		.uleb128 0x10
 4363 0359 01       		.uleb128 0x1
 4364 035a 50       		.byte	0x50
 4365 035b 01       		.uleb128 0x1
 4366 035c 36       		.byte	0x36
 4367 035d 00       		.byte	0
 4368 035e 0F       		.uleb128 0xf
 4369 035f 54000000 		.4byte	.LVL9
 4370 0363 8D250000 		.4byte	0x258d
 4371 0367 71030000 		.4byte	0x371
 4372 036b 10       		.uleb128 0x10
 4373 036c 01       		.uleb128 0x1
 4374 036d 50       		.byte	0x50
 4375 036e 01       		.uleb128 0x1
 4376 036f 3C       		.byte	0x3c
 4377 0370 00       		.byte	0
 4378 0371 11       		.uleb128 0x11
 4379 0372 5C000000 		.4byte	.LVL10
 4380 0376 98250000 		.4byte	0x2598
 4381 037a 00       		.byte	0
 4382 037b 0D       		.uleb128 0xd
 4383 037c 82010000 		.4byte	.LASF59
 4384 0380 01       		.byte	0x1
 4385 0381 C7       		.byte	0xc7
 4386 0382 6B000000 		.4byte	0x6b
 4387 0386 00000000 		.4byte	.LFB36
 4388 038a 12000000 		.4byte	.LFE36-.LFB36
 4389 038e 01       		.uleb128 0x1
 4390 038f 9C       		.byte	0x9c
 4391 0390 A4030000 		.4byte	0x3a4
 4392 0394 0E       		.uleb128 0xe
 4393 0395 10020000 		.4byte	.LASF61
 4394 0399 01       		.byte	0x1
 4395 039a C7       		.byte	0xc7
 4396 039b 6B000000 		.4byte	0x6b
 4397 039f 29000000 		.4byte	.LLST1
 4398 03a3 00       		.byte	0
ARM GAS  C:\Users\HELLOK~1.1\AppData\Local\Temp\cc5k7xEp.s 			page 99


 4399 03a4 12       		.uleb128 0x12
 4400 03a5 41040000 		.4byte	.LASF62
 4401 03a9 01       		.byte	0x1
 4402 03aa CC       		.byte	0xcc
 4403 03ab 6B000000 		.4byte	0x6b
 4404 03af 00000000 		.4byte	.LFB37
 4405 03b3 1A000000 		.4byte	.LFE37-.LFB37
 4406 03b7 01       		.uleb128 0x1
 4407 03b8 9C       		.byte	0x9c
 4408 03b9 CD030000 		.4byte	0x3cd
 4409 03bd 0E       		.uleb128 0xe
 4410 03be 10020000 		.4byte	.LASF61
 4411 03c2 01       		.byte	0x1
 4412 03c3 CC       		.byte	0xcc
 4413 03c4 6B000000 		.4byte	0x6b
 4414 03c8 4A000000 		.4byte	.LLST2
 4415 03cc 00       		.byte	0
 4416 03cd 13       		.uleb128 0x13
 4417 03ce 65000000 		.4byte	.LASF68
 4418 03d2 01       		.byte	0x1
 4419 03d3 D0       		.byte	0xd0
 4420 03d4 00000000 		.4byte	.LFB38
 4421 03d8 44000000 		.4byte	.LFE38-.LFB38
 4422 03dc 01       		.uleb128 0x1
 4423 03dd 9C       		.byte	0x9c
 4424 03de A8040000 		.4byte	0x4a8
 4425 03e2 0E       		.uleb128 0xe
 4426 03e3 14000000 		.4byte	.LASF63
 4427 03e7 01       		.byte	0x1
 4428 03e8 D0       		.byte	0xd0
 4429 03e9 C8000000 		.4byte	0xc8
 4430 03ed 6B000000 		.4byte	.LLST3
 4431 03f1 0E       		.uleb128 0xe
 4432 03f2 B6040000 		.4byte	.LASF64
 4433 03f6 01       		.byte	0x1
 4434 03f7 D0       		.byte	0xd0
 4435 03f8 5D000000 		.4byte	0x5d
 4436 03fc 97000000 		.4byte	.LLST4
 4437 0400 0E       		.uleb128 0xe
 4438 0401 EF000000 		.4byte	.LASF65
 4439 0405 01       		.byte	0x1
 4440 0406 D0       		.byte	0xd0
 4441 0407 83000000 		.4byte	0x83
 4442 040b C3000000 		.4byte	.LLST5
 4443 040f 0E       		.uleb128 0xe
 4444 0410 88040000 		.4byte	.LASF66
 4445 0414 01       		.byte	0x1
 4446 0415 D0       		.byte	0xd0
 4447 0416 83000000 		.4byte	0x83
 4448 041a EF000000 		.4byte	.LLST6
 4449 041e 14       		.uleb128 0x14
 4450 041f 91040000 		.4byte	.LASF67
 4451 0423 01       		.byte	0x1
 4452 0424 D0       		.byte	0xd0
 4453 0425 83000000 		.4byte	0x83
 4454 0429 02       		.uleb128 0x2
 4455 042a 91       		.byte	0x91
ARM GAS  C:\Users\HELLOK~1.1\AppData\Local\Temp\cc5k7xEp.s 			page 100


 4456 042b 00       		.sleb128 0
 4457 042c 15       		.uleb128 0x15
 4458 042d F7000000 		.4byte	.LASF74
 4459 0431 01       		.byte	0x1
 4460 0432 D1       		.byte	0xd1
 4461 0433 A8040000 		.4byte	0x4a8
 4462 0437 02       		.uleb128 0x2
 4463 0438 91       		.byte	0x91
 4464 0439 6C       		.sleb128 -20
 4465 043a 0F       		.uleb128 0xf
 4466 043b 1C000000 		.4byte	.LVL21
 4467 043f A3250000 		.4byte	0x25a3
 4468 0443 5E040000 		.4byte	0x45e
 4469 0447 10       		.uleb128 0x10
 4470 0448 01       		.uleb128 0x1
 4471 0449 50       		.byte	0x50
 4472 044a 02       		.uleb128 0x2
 4473 044b 74       		.byte	0x74
 4474 044c 00       		.sleb128 0
 4475 044d 10       		.uleb128 0x10
 4476 044e 01       		.uleb128 0x1
 4477 044f 51       		.byte	0x51
 4478 0450 02       		.uleb128 0x2
 4479 0451 91       		.byte	0x91
 4480 0452 6C       		.sleb128 -20
 4481 0453 10       		.uleb128 0x10
 4482 0454 01       		.uleb128 0x1
 4483 0455 52       		.byte	0x52
 4484 0456 01       		.uleb128 0x1
 4485 0457 32       		.byte	0x32
 4486 0458 10       		.uleb128 0x10
 4487 0459 01       		.uleb128 0x1
 4488 045a 53       		.byte	0x53
 4489 045b 01       		.uleb128 0x1
 4490 045c 32       		.byte	0x32
 4491 045d 00       		.byte	0
 4492 045e 11       		.uleb128 0x11
 4493 045f 20000000 		.4byte	.LVL22
 4494 0463 AF250000 		.4byte	0x25af
 4495 0467 11       		.uleb128 0x11
 4496 0468 28000000 		.4byte	.LVL23
 4497 046c BB250000 		.4byte	0x25bb
 4498 0470 0F       		.uleb128 0xf
 4499 0471 34000000 		.4byte	.LVL24
 4500 0475 C7250000 		.4byte	0x25c7
 4501 0479 95040000 		.4byte	0x495
 4502 047d 10       		.uleb128 0x10
 4503 047e 01       		.uleb128 0x1
 4504 047f 50       		.byte	0x50
 4505 0480 02       		.uleb128 0x2
 4506 0481 74       		.byte	0x74
 4507 0482 00       		.sleb128 0
 4508 0483 10       		.uleb128 0x10
 4509 0484 01       		.uleb128 0x1
 4510 0485 51       		.byte	0x51
 4511 0486 02       		.uleb128 0x2
 4512 0487 75       		.byte	0x75
ARM GAS  C:\Users\HELLOK~1.1\AppData\Local\Temp\cc5k7xEp.s 			page 101


 4513 0488 00       		.sleb128 0
 4514 0489 10       		.uleb128 0x10
 4515 048a 01       		.uleb128 0x1
 4516 048b 52       		.byte	0x52
 4517 048c 02       		.uleb128 0x2
 4518 048d 76       		.byte	0x76
 4519 048e 00       		.sleb128 0
 4520 048f 10       		.uleb128 0x10
 4521 0490 01       		.uleb128 0x1
 4522 0491 53       		.byte	0x53
 4523 0492 01       		.uleb128 0x1
 4524 0493 31       		.byte	0x31
 4525 0494 00       		.byte	0
 4526 0495 11       		.uleb128 0x11
 4527 0496 38000000 		.4byte	.LVL25
 4528 049a AF250000 		.4byte	0x25af
 4529 049e 11       		.uleb128 0x11
 4530 049f 40000000 		.4byte	.LVL26
 4531 04a3 BB250000 		.4byte	0x25bb
 4532 04a7 00       		.byte	0
 4533 04a8 16       		.uleb128 0x16
 4534 04a9 6B000000 		.4byte	0x6b
 4535 04ad B8040000 		.4byte	0x4b8
 4536 04b1 17       		.uleb128 0x17
 4537 04b2 B0000000 		.4byte	0xb0
 4538 04b6 01       		.byte	0x1
 4539 04b7 00       		.byte	0
 4540 04b8 13       		.uleb128 0x13
 4541 04b9 EB050000 		.4byte	.LASF69
 4542 04bd 01       		.byte	0x1
 4543 04be DD       		.byte	0xdd
 4544 04bf 00000000 		.4byte	.LFB39
 4545 04c3 24000000 		.4byte	.LFE39-.LFB39
 4546 04c7 01       		.uleb128 0x1
 4547 04c8 9C       		.byte	0x9c
 4548 04c9 51050000 		.4byte	0x551
 4549 04cd 0E       		.uleb128 0xe
 4550 04ce 52040000 		.4byte	.LASF70
 4551 04d2 01       		.byte	0x1
 4552 04d3 DD       		.byte	0xdd
 4553 04d4 C8000000 		.4byte	0xc8
 4554 04d8 10010000 		.4byte	.LLST7
 4555 04dc 0E       		.uleb128 0xe
 4556 04dd 9F050000 		.4byte	.LASF71
 4557 04e1 01       		.byte	0x1
 4558 04e2 DD       		.byte	0xdd
 4559 04e3 5D000000 		.4byte	0x5d
 4560 04e7 3C010000 		.4byte	.LLST8
 4561 04eb 0E       		.uleb128 0xe
 4562 04ec EF000000 		.4byte	.LASF65
 4563 04f0 01       		.byte	0x1
 4564 04f1 DD       		.byte	0xdd
 4565 04f2 83000000 		.4byte	0x83
 4566 04f6 68010000 		.4byte	.LLST9
 4567 04fa 0E       		.uleb128 0xe
 4568 04fb 88040000 		.4byte	.LASF66
 4569 04ff 01       		.byte	0x1
ARM GAS  C:\Users\HELLOK~1.1\AppData\Local\Temp\cc5k7xEp.s 			page 102


 4570 0500 DD       		.byte	0xdd
 4571 0501 83000000 		.4byte	0x83
 4572 0505 94010000 		.4byte	.LLST10
 4573 0509 14       		.uleb128 0x14
 4574 050a 91040000 		.4byte	.LASF67
 4575 050e 01       		.byte	0x1
 4576 050f DD       		.byte	0xdd
 4577 0510 83000000 		.4byte	0x83
 4578 0514 02       		.uleb128 0x2
 4579 0515 91       		.byte	0x91
 4580 0516 00       		.sleb128 0
 4581 0517 0F       		.uleb128 0xf
 4582 0518 16000000 		.4byte	.LVL35
 4583 051c A3250000 		.4byte	0x25a3
 4584 0520 3E050000 		.4byte	0x53e
 4585 0524 10       		.uleb128 0x10
 4586 0525 01       		.uleb128 0x1
 4587 0526 50       		.byte	0x50
 4588 0527 02       		.uleb128 0x2
 4589 0528 74       		.byte	0x74
 4590 0529 00       		.sleb128 0
 4591 052a 10       		.uleb128 0x10
 4592 052b 01       		.uleb128 0x1
 4593 052c 51       		.byte	0x51
 4594 052d 03       		.uleb128 0x3
 4595 052e F3       		.byte	0xf3
 4596 052f 01       		.uleb128 0x1
 4597 0530 50       		.byte	0x50
 4598 0531 10       		.uleb128 0x10
 4599 0532 01       		.uleb128 0x1
 4600 0533 52       		.byte	0x52
 4601 0534 03       		.uleb128 0x3
 4602 0535 F3       		.byte	0xf3
 4603 0536 01       		.uleb128 0x1
 4604 0537 51       		.byte	0x51
 4605 0538 10       		.uleb128 0x10
 4606 0539 01       		.uleb128 0x1
 4607 053a 53       		.byte	0x53
 4608 053b 01       		.uleb128 0x1
 4609 053c 30       		.byte	0x30
 4610 053d 00       		.byte	0
 4611 053e 11       		.uleb128 0x11
 4612 053f 1A000000 		.4byte	.LVL36
 4613 0543 AF250000 		.4byte	0x25af
 4614 0547 11       		.uleb128 0x11
 4615 0548 22000000 		.4byte	.LVL37
 4616 054c BB250000 		.4byte	0x25bb
 4617 0550 00       		.byte	0
 4618 0551 18       		.uleb128 0x18
 4619 0552 36040000 		.4byte	.LASF150
 4620 0556 01       		.byte	0x1
 4621 0557 E5       		.byte	0xe5
 4622 0558 00000000 		.4byte	.LFB40
 4623 055c 02000000 		.4byte	.LFE40-.LFB40
 4624 0560 01       		.uleb128 0x1
 4625 0561 9C       		.byte	0x9c
 4626 0562 13       		.uleb128 0x13
ARM GAS  C:\Users\HELLOK~1.1\AppData\Local\Temp\cc5k7xEp.s 			page 103


 4627 0563 98030000 		.4byte	.LASF72
 4628 0567 01       		.byte	0x1
 4629 0568 E9       		.byte	0xe9
 4630 0569 00000000 		.4byte	.LFB41
 4631 056d 40000000 		.4byte	.LFE41-.LFB41
 4632 0571 01       		.uleb128 0x1
 4633 0572 9C       		.byte	0x9c
 4634 0573 2F060000 		.4byte	0x62f
 4635 0577 0E       		.uleb128 0xe
 4636 0578 14000000 		.4byte	.LASF63
 4637 057c 01       		.byte	0x1
 4638 057d E9       		.byte	0xe9
 4639 057e C8000000 		.4byte	0xc8
 4640 0582 B5010000 		.4byte	.LLST11
 4641 0586 0E       		.uleb128 0xe
 4642 0587 B6040000 		.4byte	.LASF64
 4643 058b 01       		.byte	0x1
 4644 058c E9       		.byte	0xe9
 4645 058d 5D000000 		.4byte	0x5d
 4646 0591 E1010000 		.4byte	.LLST12
 4647 0595 0E       		.uleb128 0xe
 4648 0596 EF000000 		.4byte	.LASF65
 4649 059a 01       		.byte	0x1
 4650 059b E9       		.byte	0xe9
 4651 059c 83000000 		.4byte	0x83
 4652 05a0 0D020000 		.4byte	.LLST13
 4653 05a4 0E       		.uleb128 0xe
 4654 05a5 C7020000 		.4byte	.LASF73
 4655 05a9 01       		.byte	0x1
 4656 05aa E9       		.byte	0xe9
 4657 05ab 83000000 		.4byte	0x83
 4658 05af 39020000 		.4byte	.LLST14
 4659 05b3 15       		.uleb128 0x15
 4660 05b4 F7000000 		.4byte	.LASF74
 4661 05b8 01       		.byte	0x1
 4662 05b9 EB       		.byte	0xeb
 4663 05ba 2F060000 		.4byte	0x62f
 4664 05be 02       		.uleb128 0x2
 4665 05bf 91       		.byte	0x91
 4666 05c0 6C       		.sleb128 -20
 4667 05c1 0F       		.uleb128 0xf
 4668 05c2 18000000 		.4byte	.LVL44
 4669 05c6 A3250000 		.4byte	0x25a3
 4670 05ca E5050000 		.4byte	0x5e5
 4671 05ce 10       		.uleb128 0x10
 4672 05cf 01       		.uleb128 0x1
 4673 05d0 50       		.byte	0x50
 4674 05d1 02       		.uleb128 0x2
 4675 05d2 74       		.byte	0x74
 4676 05d3 00       		.sleb128 0
 4677 05d4 10       		.uleb128 0x10
 4678 05d5 01       		.uleb128 0x1
 4679 05d6 51       		.byte	0x51
 4680 05d7 02       		.uleb128 0x2
 4681 05d8 91       		.byte	0x91
 4682 05d9 6C       		.sleb128 -20
 4683 05da 10       		.uleb128 0x10
ARM GAS  C:\Users\HELLOK~1.1\AppData\Local\Temp\cc5k7xEp.s 			page 104


 4684 05db 01       		.uleb128 0x1
 4685 05dc 52       		.byte	0x52
 4686 05dd 01       		.uleb128 0x1
 4687 05de 31       		.byte	0x31
 4688 05df 10       		.uleb128 0x10
 4689 05e0 01       		.uleb128 0x1
 4690 05e1 53       		.byte	0x53
 4691 05e2 01       		.uleb128 0x1
 4692 05e3 32       		.byte	0x32
 4693 05e4 00       		.byte	0
 4694 05e5 11       		.uleb128 0x11
 4695 05e6 1C000000 		.4byte	.LVL45
 4696 05ea AF250000 		.4byte	0x25af
 4697 05ee 11       		.uleb128 0x11
 4698 05ef 24000000 		.4byte	.LVL46
 4699 05f3 BB250000 		.4byte	0x25bb
 4700 05f7 0F       		.uleb128 0xf
 4701 05f8 30000000 		.4byte	.LVL47
 4702 05fc C7250000 		.4byte	0x25c7
 4703 0600 1C060000 		.4byte	0x61c
 4704 0604 10       		.uleb128 0x10
 4705 0605 01       		.uleb128 0x1
 4706 0606 50       		.byte	0x50
 4707 0607 02       		.uleb128 0x2
 4708 0608 74       		.byte	0x74
 4709 0609 00       		.sleb128 0
 4710 060a 10       		.uleb128 0x10
 4711 060b 01       		.uleb128 0x1
 4712 060c 51       		.byte	0x51
 4713 060d 02       		.uleb128 0x2
 4714 060e 75       		.byte	0x75
 4715 060f 00       		.sleb128 0
 4716 0610 10       		.uleb128 0x10
 4717 0611 01       		.uleb128 0x1
 4718 0612 52       		.byte	0x52
 4719 0613 02       		.uleb128 0x2
 4720 0614 76       		.byte	0x76
 4721 0615 00       		.sleb128 0
 4722 0616 10       		.uleb128 0x10
 4723 0617 01       		.uleb128 0x1
 4724 0618 53       		.byte	0x53
 4725 0619 01       		.uleb128 0x1
 4726 061a 31       		.byte	0x31
 4727 061b 00       		.byte	0
 4728 061c 11       		.uleb128 0x11
 4729 061d 34000000 		.4byte	.LVL48
 4730 0621 AF250000 		.4byte	0x25af
 4731 0625 11       		.uleb128 0x11
 4732 0626 3C000000 		.4byte	.LVL49
 4733 062a BB250000 		.4byte	0x25bb
 4734 062e 00       		.byte	0
 4735 062f 16       		.uleb128 0x16
 4736 0630 6B000000 		.4byte	0x6b
 4737 0634 3F060000 		.4byte	0x63f
 4738 0638 17       		.uleb128 0x17
 4739 0639 B0000000 		.4byte	0xb0
 4740 063d 00       		.byte	0
ARM GAS  C:\Users\HELLOK~1.1\AppData\Local\Temp\cc5k7xEp.s 			page 105


 4741 063e 00       		.byte	0
 4742 063f 13       		.uleb128 0x13
 4743 0640 DF050000 		.4byte	.LASF75
 4744 0644 01       		.byte	0x1
 4745 0645 FE       		.byte	0xfe
 4746 0646 00000000 		.4byte	.LFB42
 4747 064a 20000000 		.4byte	.LFE42-.LFB42
 4748 064e 01       		.uleb128 0x1
 4749 064f 9C       		.byte	0x9c
 4750 0650 CA060000 		.4byte	0x6ca
 4751 0654 0E       		.uleb128 0xe
 4752 0655 52040000 		.4byte	.LASF70
 4753 0659 01       		.byte	0x1
 4754 065a FE       		.byte	0xfe
 4755 065b C8000000 		.4byte	0xc8
 4756 065f 5A020000 		.4byte	.LLST15
 4757 0663 0E       		.uleb128 0xe
 4758 0664 9F050000 		.4byte	.LASF71
 4759 0668 01       		.byte	0x1
 4760 0669 FE       		.byte	0xfe
 4761 066a 5D000000 		.4byte	0x5d
 4762 066e 86020000 		.4byte	.LLST16
 4763 0672 0E       		.uleb128 0xe
 4764 0673 EF000000 		.4byte	.LASF65
 4765 0677 01       		.byte	0x1
 4766 0678 FE       		.byte	0xfe
 4767 0679 83000000 		.4byte	0x83
 4768 067d B2020000 		.4byte	.LLST17
 4769 0681 0E       		.uleb128 0xe
 4770 0682 C7020000 		.4byte	.LASF73
 4771 0686 01       		.byte	0x1
 4772 0687 FE       		.byte	0xfe
 4773 0688 83000000 		.4byte	0x83
 4774 068c DE020000 		.4byte	.LLST18
 4775 0690 0F       		.uleb128 0xf
 4776 0691 12000000 		.4byte	.LVL58
 4777 0695 A3250000 		.4byte	0x25a3
 4778 0699 B7060000 		.4byte	0x6b7
 4779 069d 10       		.uleb128 0x10
 4780 069e 01       		.uleb128 0x1
 4781 069f 50       		.byte	0x50
 4782 06a0 02       		.uleb128 0x2
 4783 06a1 74       		.byte	0x74
 4784 06a2 00       		.sleb128 0
 4785 06a3 10       		.uleb128 0x10
 4786 06a4 01       		.uleb128 0x1
 4787 06a5 51       		.byte	0x51
 4788 06a6 03       		.uleb128 0x3
 4789 06a7 F3       		.byte	0xf3
 4790 06a8 01       		.uleb128 0x1
 4791 06a9 50       		.byte	0x50
 4792 06aa 10       		.uleb128 0x10
 4793 06ab 01       		.uleb128 0x1
 4794 06ac 52       		.byte	0x52
 4795 06ad 03       		.uleb128 0x3
 4796 06ae F3       		.byte	0xf3
 4797 06af 01       		.uleb128 0x1
ARM GAS  C:\Users\HELLOK~1.1\AppData\Local\Temp\cc5k7xEp.s 			page 106


 4798 06b0 51       		.byte	0x51
 4799 06b1 10       		.uleb128 0x10
 4800 06b2 01       		.uleb128 0x1
 4801 06b3 53       		.byte	0x53
 4802 06b4 01       		.uleb128 0x1
 4803 06b5 30       		.byte	0x30
 4804 06b6 00       		.byte	0
 4805 06b7 11       		.uleb128 0x11
 4806 06b8 16000000 		.4byte	.LVL59
 4807 06bc AF250000 		.4byte	0x25af
 4808 06c0 11       		.uleb128 0x11
 4809 06c1 1E000000 		.4byte	.LVL60
 4810 06c5 BB250000 		.4byte	0x25bb
 4811 06c9 00       		.byte	0
 4812 06ca 19       		.uleb128 0x19
 4813 06cb 19040000 		.4byte	.LASF84
 4814 06cf 01       		.byte	0x1
 4815 06d0 0801     		.2byte	0x108
 4816 06d2 00000000 		.4byte	.LFB43
 4817 06d6 80000000 		.4byte	.LFE43-.LFB43
 4818 06da 01       		.uleb128 0x1
 4819 06db 9C       		.byte	0x9c
 4820 06dc C5070000 		.4byte	0x7c5
 4821 06e0 1A       		.uleb128 0x1a
 4822 06e1 F7000000 		.4byte	.LASF74
 4823 06e5 01       		.byte	0x1
 4824 06e6 0901     		.2byte	0x109
 4825 06e8 A8040000 		.4byte	0x4a8
 4826 06ec 02       		.uleb128 0x2
 4827 06ed 91       		.byte	0x91
 4828 06ee 6C       		.sleb128 -20
 4829 06ef 0F       		.uleb128 0xf
 4830 06f0 18000000 		.4byte	.LVL62
 4831 06f4 3F060000 		.4byte	0x63f
 4832 06f8 0E070000 		.4byte	0x70e
 4833 06fc 10       		.uleb128 0x10
 4834 06fd 01       		.uleb128 0x1
 4835 06fe 50       		.byte	0x50
 4836 06ff 02       		.uleb128 0x2
 4837 0700 74       		.byte	0x74
 4838 0701 00       		.sleb128 0
 4839 0702 10       		.uleb128 0x10
 4840 0703 01       		.uleb128 0x1
 4841 0704 51       		.byte	0x51
 4842 0705 01       		.uleb128 0x1
 4843 0706 32       		.byte	0x32
 4844 0707 10       		.uleb128 0x10
 4845 0708 01       		.uleb128 0x1
 4846 0709 52       		.byte	0x52
 4847 070a 02       		.uleb128 0x2
 4848 070b 08       		.byte	0x8
 4849 070c 51       		.byte	0x51
 4850 070d 00       		.byte	0
 4851 070e 0F       		.uleb128 0xf
 4852 070f 28000000 		.4byte	.LVL63
 4853 0713 3F060000 		.4byte	0x63f
 4854 0717 2D070000 		.4byte	0x72d
ARM GAS  C:\Users\HELLOK~1.1\AppData\Local\Temp\cc5k7xEp.s 			page 107


 4855 071b 10       		.uleb128 0x10
 4856 071c 01       		.uleb128 0x1
 4857 071d 50       		.byte	0x50
 4858 071e 02       		.uleb128 0x2
 4859 071f 74       		.byte	0x74
 4860 0720 00       		.sleb128 0
 4861 0721 10       		.uleb128 0x10
 4862 0722 01       		.uleb128 0x1
 4863 0723 51       		.byte	0x51
 4864 0724 01       		.uleb128 0x1
 4865 0725 32       		.byte	0x32
 4866 0726 10       		.uleb128 0x10
 4867 0727 01       		.uleb128 0x1
 4868 0728 52       		.byte	0x52
 4869 0729 02       		.uleb128 0x2
 4870 072a 08       		.byte	0x8
 4871 072b 51       		.byte	0x51
 4872 072c 00       		.byte	0
 4873 072d 0F       		.uleb128 0xf
 4874 072e 38000000 		.4byte	.LVL64
 4875 0732 3F060000 		.4byte	0x63f
 4876 0736 4C070000 		.4byte	0x74c
 4877 073a 10       		.uleb128 0x10
 4878 073b 01       		.uleb128 0x1
 4879 073c 50       		.byte	0x50
 4880 073d 02       		.uleb128 0x2
 4881 073e 74       		.byte	0x74
 4882 073f 00       		.sleb128 0
 4883 0740 10       		.uleb128 0x10
 4884 0741 01       		.uleb128 0x1
 4885 0742 51       		.byte	0x51
 4886 0743 01       		.uleb128 0x1
 4887 0744 32       		.byte	0x32
 4888 0745 10       		.uleb128 0x10
 4889 0746 01       		.uleb128 0x1
 4890 0747 52       		.byte	0x52
 4891 0748 02       		.uleb128 0x2
 4892 0749 08       		.byte	0x8
 4893 074a 51       		.byte	0x51
 4894 074b 00       		.byte	0
 4895 074c 0F       		.uleb128 0xf
 4896 074d 48000000 		.4byte	.LVL65
 4897 0751 3F060000 		.4byte	0x63f
 4898 0755 6B070000 		.4byte	0x76b
 4899 0759 10       		.uleb128 0x10
 4900 075a 01       		.uleb128 0x1
 4901 075b 50       		.byte	0x50
 4902 075c 02       		.uleb128 0x2
 4903 075d 74       		.byte	0x74
 4904 075e 00       		.sleb128 0
 4905 075f 10       		.uleb128 0x10
 4906 0760 01       		.uleb128 0x1
 4907 0761 51       		.byte	0x51
 4908 0762 01       		.uleb128 0x1
 4909 0763 32       		.byte	0x32
 4910 0764 10       		.uleb128 0x10
 4911 0765 01       		.uleb128 0x1
ARM GAS  C:\Users\HELLOK~1.1\AppData\Local\Temp\cc5k7xEp.s 			page 108


 4912 0766 52       		.byte	0x52
 4913 0767 02       		.uleb128 0x2
 4914 0768 08       		.byte	0x8
 4915 0769 51       		.byte	0x51
 4916 076a 00       		.byte	0
 4917 076b 0F       		.uleb128 0xf
 4918 076c 58000000 		.4byte	.LVL66
 4919 0770 3F060000 		.4byte	0x63f
 4920 0774 8A070000 		.4byte	0x78a
 4921 0778 10       		.uleb128 0x10
 4922 0779 01       		.uleb128 0x1
 4923 077a 50       		.byte	0x50
 4924 077b 02       		.uleb128 0x2
 4925 077c 74       		.byte	0x74
 4926 077d 00       		.sleb128 0
 4927 077e 10       		.uleb128 0x10
 4928 077f 01       		.uleb128 0x1
 4929 0780 51       		.byte	0x51
 4930 0781 01       		.uleb128 0x1
 4931 0782 32       		.byte	0x32
 4932 0783 10       		.uleb128 0x10
 4933 0784 01       		.uleb128 0x1
 4934 0785 52       		.byte	0x52
 4935 0786 02       		.uleb128 0x2
 4936 0787 08       		.byte	0x8
 4937 0788 51       		.byte	0x51
 4938 0789 00       		.byte	0
 4939 078a 0F       		.uleb128 0xf
 4940 078b 68000000 		.4byte	.LVL67
 4941 078f 3F060000 		.4byte	0x63f
 4942 0793 A9070000 		.4byte	0x7a9
 4943 0797 10       		.uleb128 0x10
 4944 0798 01       		.uleb128 0x1
 4945 0799 50       		.byte	0x50
 4946 079a 02       		.uleb128 0x2
 4947 079b 74       		.byte	0x74
 4948 079c 00       		.sleb128 0
 4949 079d 10       		.uleb128 0x10
 4950 079e 01       		.uleb128 0x1
 4951 079f 51       		.byte	0x51
 4952 07a0 01       		.uleb128 0x1
 4953 07a1 32       		.byte	0x32
 4954 07a2 10       		.uleb128 0x10
 4955 07a3 01       		.uleb128 0x1
 4956 07a4 52       		.byte	0x52
 4957 07a5 02       		.uleb128 0x2
 4958 07a6 08       		.byte	0x8
 4959 07a7 51       		.byte	0x51
 4960 07a8 00       		.byte	0
 4961 07a9 1B       		.uleb128 0x1b
 4962 07aa 78000000 		.4byte	.LVL68
 4963 07ae 3F060000 		.4byte	0x63f
 4964 07b2 10       		.uleb128 0x10
 4965 07b3 01       		.uleb128 0x1
 4966 07b4 50       		.byte	0x50
 4967 07b5 02       		.uleb128 0x2
 4968 07b6 74       		.byte	0x74
ARM GAS  C:\Users\HELLOK~1.1\AppData\Local\Temp\cc5k7xEp.s 			page 109


 4969 07b7 00       		.sleb128 0
 4970 07b8 10       		.uleb128 0x10
 4971 07b9 01       		.uleb128 0x1
 4972 07ba 51       		.byte	0x51
 4973 07bb 01       		.uleb128 0x1
 4974 07bc 32       		.byte	0x32
 4975 07bd 10       		.uleb128 0x10
 4976 07be 01       		.uleb128 0x1
 4977 07bf 52       		.byte	0x52
 4978 07c0 02       		.uleb128 0x2
 4979 07c1 08       		.byte	0x8
 4980 07c2 51       		.byte	0x51
 4981 07c3 00       		.byte	0
 4982 07c4 00       		.byte	0
 4983 07c5 1C       		.uleb128 0x1c
 4984 07c6 90030000 		.4byte	.LASF76
 4985 07ca 01       		.byte	0x1
 4986 07cb 1A01     		.2byte	0x11a
 4987 07cd 00000000 		.4byte	.LFB44
 4988 07d1 B4000000 		.4byte	.LFE44-.LFB44
 4989 07d5 01       		.uleb128 0x1
 4990 07d6 9C       		.byte	0x9c
 4991 07d7 6F090000 		.4byte	0x96f
 4992 07db 1D       		.uleb128 0x1d
 4993 07dc E7020000 		.4byte	.LASF77
 4994 07e0 01       		.byte	0x1
 4995 07e1 1A01     		.2byte	0x11a
 4996 07e3 EA000000 		.4byte	0xea
 4997 07e7 02       		.uleb128 0x2
 4998 07e8 91       		.byte	0x91
 4999 07e9 48       		.sleb128 -56
 5000 07ea 1D       		.uleb128 0x1d
 5001 07eb C2010000 		.4byte	.LASF78
 5002 07ef 01       		.byte	0x1
 5003 07f0 1A01     		.2byte	0x11a
 5004 07f2 EA000000 		.4byte	0xea
 5005 07f6 02       		.uleb128 0x2
 5006 07f7 91       		.byte	0x91
 5007 07f8 40       		.sleb128 -64
 5008 07f9 1D       		.uleb128 0x1d
 5009 07fa 32030000 		.4byte	.LASF79
 5010 07fe 01       		.byte	0x1
 5011 07ff 1A01     		.2byte	0x11a
 5012 0801 1A010000 		.4byte	0x11a
 5013 0805 02       		.uleb128 0x2
 5014 0806 91       		.byte	0x91
 5015 0807 00       		.sleb128 0
 5016 0808 1D       		.uleb128 0x1d
 5017 0809 AD020000 		.4byte	.LASF80
 5018 080d 01       		.byte	0x1
 5019 080e 1A01     		.2byte	0x11a
 5020 0810 1A010000 		.4byte	0x11a
 5021 0814 02       		.uleb128 0x2
 5022 0815 91       		.byte	0x91
 5023 0816 0C       		.sleb128 12
 5024 0817 1A       		.uleb128 0x1a
 5025 0818 93050000 		.4byte	.LASF81
ARM GAS  C:\Users\HELLOK~1.1\AppData\Local\Temp\cc5k7xEp.s 			page 110


 5026 081c 01       		.byte	0x1
 5027 081d 1D01     		.2byte	0x11d
 5028 081f 6F090000 		.4byte	0x96f
 5029 0823 02       		.uleb128 0x2
 5030 0824 91       		.byte	0x91
 5031 0825 50       		.sleb128 -48
 5032 0826 0F       		.uleb128 0xf
 5033 0827 1C000000 		.4byte	.LVL69
 5034 082b D3250000 		.4byte	0x25d3
 5035 082f 3E080000 		.4byte	0x83e
 5036 0833 10       		.uleb128 0x10
 5037 0834 01       		.uleb128 0x1
 5038 0835 50       		.byte	0x50
 5039 0836 01       		.uleb128 0x1
 5040 0837 30       		.byte	0x30
 5041 0838 10       		.uleb128 0x10
 5042 0839 01       		.uleb128 0x1
 5043 083a 51       		.byte	0x51
 5044 083b 01       		.uleb128 0x1
 5045 083c 30       		.byte	0x30
 5046 083d 00       		.byte	0
 5047 083e 0F       		.uleb128 0xf
 5048 083f 44000000 		.4byte	.LVL70
 5049 0843 DE250000 		.4byte	0x25de
 5050 0847 84080000 		.4byte	0x884
 5051 084b 10       		.uleb128 0x10
 5052 084c 01       		.uleb128 0x1
 5053 084d 50       		.byte	0x50
 5054 084e 02       		.uleb128 0x2
 5055 084f 74       		.byte	0x74
 5056 0850 00       		.sleb128 0
 5057 0851 10       		.uleb128 0x10
 5058 0852 01       		.uleb128 0x1
 5059 0853 51       		.byte	0x51
 5060 0854 01       		.uleb128 0x1
 5061 0855 45       		.byte	0x45
 5062 0856 10       		.uleb128 0x10
 5063 0857 01       		.uleb128 0x1
 5064 0858 52       		.byte	0x52
 5065 0859 02       		.uleb128 0x2
 5066 085a 77       		.byte	0x77
 5067 085b 00       		.sleb128 0
 5068 085c 10       		.uleb128 0x10
 5069 085d 01       		.uleb128 0x1
 5070 085e 53       		.byte	0x53
 5071 085f 07       		.uleb128 0x7
 5072 0860 76       		.byte	0x76
 5073 0861 00       		.sleb128 0
 5074 0862 94       		.byte	0x94
 5075 0863 01       		.byte	0x1
 5076 0864 08       		.byte	0x8
 5077 0865 FF       		.byte	0xff
 5078 0866 1A       		.byte	0x1a
 5079 0867 10       		.uleb128 0x10
 5080 0868 02       		.uleb128 0x2
 5081 0869 7D       		.byte	0x7d
 5082 086a 04       		.sleb128 4
ARM GAS  C:\Users\HELLOK~1.1\AppData\Local\Temp\cc5k7xEp.s 			page 111


 5083 086b 03       		.uleb128 0x3
 5084 086c 76       		.byte	0x76
 5085 086d 04       		.sleb128 4
 5086 086e 06       		.byte	0x6
 5087 086f 10       		.uleb128 0x10
 5088 0870 02       		.uleb128 0x2
 5089 0871 7D       		.byte	0x7d
 5090 0872 08       		.sleb128 8
 5091 0873 03       		.uleb128 0x3
 5092 0874 91       		.byte	0x91
 5093 0875 04       		.sleb128 4
 5094 0876 06       		.byte	0x6
 5095 0877 10       		.uleb128 0x10
 5096 0878 02       		.uleb128 0x2
 5097 0879 7D       		.byte	0x7d
 5098 087a 0C       		.sleb128 12
 5099 087b 07       		.uleb128 0x7
 5100 087c 91       		.byte	0x91
 5101 087d 00       		.sleb128 0
 5102 087e 94       		.byte	0x94
 5103 087f 01       		.byte	0x1
 5104 0880 08       		.byte	0x8
 5105 0881 FF       		.byte	0xff
 5106 0882 1A       		.byte	0x1a
 5107 0883 00       		.byte	0
 5108 0884 0F       		.uleb128 0xf
 5109 0885 4E000000 		.4byte	.LVL71
 5110 0889 E9250000 		.4byte	0x25e9
 5111 088d 98080000 		.4byte	0x898
 5112 0891 10       		.uleb128 0x10
 5113 0892 01       		.uleb128 0x1
 5114 0893 50       		.byte	0x50
 5115 0894 02       		.uleb128 0x2
 5116 0895 74       		.byte	0x74
 5117 0896 00       		.sleb128 0
 5118 0897 00       		.byte	0
 5119 0898 0F       		.uleb128 0xf
 5120 0899 56000000 		.4byte	.LVL72
 5121 089d D3250000 		.4byte	0x25d3
 5122 08a1 B1080000 		.4byte	0x8b1
 5123 08a5 10       		.uleb128 0x10
 5124 08a6 01       		.uleb128 0x1
 5125 08a7 50       		.byte	0x50
 5126 08a8 02       		.uleb128 0x2
 5127 08a9 76       		.byte	0x76
 5128 08aa 00       		.sleb128 0
 5129 08ab 10       		.uleb128 0x10
 5130 08ac 01       		.uleb128 0x1
 5131 08ad 51       		.byte	0x51
 5132 08ae 01       		.uleb128 0x1
 5133 08af 31       		.byte	0x31
 5134 08b0 00       		.byte	0
 5135 08b1 0F       		.uleb128 0xf
 5136 08b2 5C000000 		.4byte	.LVL73
 5137 08b6 E9250000 		.4byte	0x25e9
 5138 08ba C8080000 		.4byte	0x8c8
 5139 08be 10       		.uleb128 0x10
ARM GAS  C:\Users\HELLOK~1.1\AppData\Local\Temp\cc5k7xEp.s 			page 112


 5140 08bf 01       		.uleb128 0x1
 5141 08c0 50       		.byte	0x50
 5142 08c1 05       		.uleb128 0x5
 5143 08c2 03       		.byte	0x3
 5144 08c3 18000000 		.4byte	.LC12
 5145 08c7 00       		.byte	0
 5146 08c8 0F       		.uleb128 0xf
 5147 08c9 64000000 		.4byte	.LVL74
 5148 08cd D3250000 		.4byte	0x25d3
 5149 08d1 E1080000 		.4byte	0x8e1
 5150 08d5 10       		.uleb128 0x10
 5151 08d6 01       		.uleb128 0x1
 5152 08d7 50       		.byte	0x50
 5153 08d8 02       		.uleb128 0x2
 5154 08d9 76       		.byte	0x76
 5155 08da 00       		.sleb128 0
 5156 08db 10       		.uleb128 0x10
 5157 08dc 01       		.uleb128 0x1
 5158 08dd 51       		.byte	0x51
 5159 08de 01       		.uleb128 0x1
 5160 08df 32       		.byte	0x32
 5161 08e0 00       		.byte	0
 5162 08e1 0F       		.uleb128 0xf
 5163 08e2 6A000000 		.4byte	.LVL75
 5164 08e6 E9250000 		.4byte	0x25e9
 5165 08ea F8080000 		.4byte	0x8f8
 5166 08ee 10       		.uleb128 0x10
 5167 08ef 01       		.uleb128 0x1
 5168 08f0 50       		.byte	0x50
 5169 08f1 05       		.uleb128 0x5
 5170 08f2 03       		.byte	0x3
 5171 08f3 30000000 		.4byte	.LC14
 5172 08f7 00       		.byte	0
 5173 08f8 0F       		.uleb128 0xf
 5174 08f9 72000000 		.4byte	.LVL76
 5175 08fd D3250000 		.4byte	0x25d3
 5176 0901 11090000 		.4byte	0x911
 5177 0905 10       		.uleb128 0x10
 5178 0906 01       		.uleb128 0x1
 5179 0907 50       		.byte	0x50
 5180 0908 02       		.uleb128 0x2
 5181 0909 76       		.byte	0x76
 5182 090a 00       		.sleb128 0
 5183 090b 10       		.uleb128 0x10
 5184 090c 01       		.uleb128 0x1
 5185 090d 51       		.byte	0x51
 5186 090e 01       		.uleb128 0x1
 5187 090f 33       		.byte	0x33
 5188 0910 00       		.byte	0
 5189 0911 0F       		.uleb128 0xf
 5190 0912 98000000 		.4byte	.LVL77
 5191 0916 DE250000 		.4byte	0x25de
 5192 091a 5E090000 		.4byte	0x95e
 5193 091e 10       		.uleb128 0x10
 5194 091f 01       		.uleb128 0x1
 5195 0920 50       		.byte	0x50
 5196 0921 02       		.uleb128 0x2
ARM GAS  C:\Users\HELLOK~1.1\AppData\Local\Temp\cc5k7xEp.s 			page 113


 5197 0922 74       		.byte	0x74
 5198 0923 00       		.sleb128 0
 5199 0924 10       		.uleb128 0x10
 5200 0925 01       		.uleb128 0x1
 5201 0926 51       		.byte	0x51
 5202 0927 01       		.uleb128 0x1
 5203 0928 45       		.byte	0x45
 5204 0929 10       		.uleb128 0x10
 5205 092a 01       		.uleb128 0x1
 5206 092b 52       		.byte	0x52
 5207 092c 02       		.uleb128 0x2
 5208 092d 77       		.byte	0x77
 5209 092e 00       		.sleb128 0
 5210 092f 10       		.uleb128 0x10
 5211 0930 01       		.uleb128 0x1
 5212 0931 53       		.byte	0x53
 5213 0932 07       		.uleb128 0x7
 5214 0933 75       		.byte	0x75
 5215 0934 00       		.sleb128 0
 5216 0935 94       		.byte	0x94
 5217 0936 01       		.byte	0x1
 5218 0937 08       		.byte	0x8
 5219 0938 FF       		.byte	0xff
 5220 0939 1A       		.byte	0x1a
 5221 093a 10       		.uleb128 0x10
 5222 093b 02       		.uleb128 0x2
 5223 093c 7D       		.byte	0x7d
 5224 093d 00       		.sleb128 0
 5225 093e 02       		.uleb128 0x2
 5226 093f 78       		.byte	0x78
 5227 0940 00       		.sleb128 0
 5228 0941 10       		.uleb128 0x10
 5229 0942 02       		.uleb128 0x2
 5230 0943 7D       		.byte	0x7d
 5231 0944 04       		.sleb128 4
 5232 0945 03       		.uleb128 0x3
 5233 0946 75       		.byte	0x75
 5234 0947 04       		.sleb128 4
 5235 0948 06       		.byte	0x6
 5236 0949 10       		.uleb128 0x10
 5237 094a 02       		.uleb128 0x2
 5238 094b 7D       		.byte	0x7d
 5239 094c 08       		.sleb128 8
 5240 094d 03       		.uleb128 0x3
 5241 094e 91       		.byte	0x91
 5242 094f 10       		.sleb128 16
 5243 0950 06       		.byte	0x6
 5244 0951 10       		.uleb128 0x10
 5245 0952 02       		.uleb128 0x2
 5246 0953 7D       		.byte	0x7d
 5247 0954 0C       		.sleb128 12
 5248 0955 07       		.uleb128 0x7
 5249 0956 91       		.byte	0x91
 5250 0957 0C       		.sleb128 12
 5251 0958 94       		.byte	0x94
 5252 0959 01       		.byte	0x1
 5253 095a 08       		.byte	0x8
ARM GAS  C:\Users\HELLOK~1.1\AppData\Local\Temp\cc5k7xEp.s 			page 114


 5254 095b FF       		.byte	0xff
 5255 095c 1A       		.byte	0x1a
 5256 095d 00       		.byte	0
 5257 095e 1B       		.uleb128 0x1b
 5258 095f A0000000 		.4byte	.LVL78
 5259 0963 E9250000 		.4byte	0x25e9
 5260 0967 10       		.uleb128 0x10
 5261 0968 01       		.uleb128 0x1
 5262 0969 50       		.byte	0x50
 5263 096a 02       		.uleb128 0x2
 5264 096b 74       		.byte	0x74
 5265 096c 00       		.sleb128 0
 5266 096d 00       		.byte	0
 5267 096e 00       		.byte	0
 5268 096f 16       		.uleb128 0x16
 5269 0970 9D000000 		.4byte	0x9d
 5270 0974 7F090000 		.4byte	0x97f
 5271 0978 17       		.uleb128 0x17
 5272 0979 B0000000 		.4byte	0xb0
 5273 097d 14       		.byte	0x14
 5274 097e 00       		.byte	0
 5275 097f 1C       		.uleb128 0x1c
 5276 0980 75030000 		.4byte	.LASF82
 5277 0984 01       		.byte	0x1
 5278 0985 2B01     		.2byte	0x12b
 5279 0987 00000000 		.4byte	.LFB45
 5280 098b 68000000 		.4byte	.LFE45-.LFB45
 5281 098f 01       		.uleb128 0x1
 5282 0990 9C       		.byte	0x9c
 5283 0991 630A0000 		.4byte	0xa63
 5284 0995 1D       		.uleb128 0x1d
 5285 0996 C2010000 		.4byte	.LASF78
 5286 099a 01       		.byte	0x1
 5287 099b 2B01     		.2byte	0x12b
 5288 099d EA000000 		.4byte	0xea
 5289 09a1 02       		.uleb128 0x2
 5290 09a2 91       		.byte	0x91
 5291 09a3 48       		.sleb128 -56
 5292 09a4 1D       		.uleb128 0x1d
 5293 09a5 AD020000 		.4byte	.LASF80
 5294 09a9 01       		.byte	0x1
 5295 09aa 2B01     		.2byte	0x12b
 5296 09ac 1A010000 		.4byte	0x11a
 5297 09b0 02       		.uleb128 0x2
 5298 09b1 91       		.byte	0x91
 5299 09b2 78       		.sleb128 -8
 5300 09b3 1A       		.uleb128 0x1a
 5301 09b4 93050000 		.4byte	.LASF81
 5302 09b8 01       		.byte	0x1
 5303 09b9 2C01     		.2byte	0x12c
 5304 09bb 6F090000 		.4byte	0x96f
 5305 09bf 02       		.uleb128 0x2
 5306 09c0 91       		.byte	0x91
 5307 09c1 50       		.sleb128 -48
 5308 09c2 0F       		.uleb128 0xf
 5309 09c3 18000000 		.4byte	.LVL79
 5310 09c7 D3250000 		.4byte	0x25d3
ARM GAS  C:\Users\HELLOK~1.1\AppData\Local\Temp\cc5k7xEp.s 			page 115


 5311 09cb DA090000 		.4byte	0x9da
 5312 09cf 10       		.uleb128 0x10
 5313 09d0 01       		.uleb128 0x1
 5314 09d1 50       		.byte	0x50
 5315 09d2 01       		.uleb128 0x1
 5316 09d3 30       		.byte	0x30
 5317 09d4 10       		.uleb128 0x10
 5318 09d5 01       		.uleb128 0x1
 5319 09d6 51       		.byte	0x51
 5320 09d7 01       		.uleb128 0x1
 5321 09d8 32       		.byte	0x32
 5322 09d9 00       		.byte	0
 5323 09da 0F       		.uleb128 0xf
 5324 09db 1E000000 		.4byte	.LVL80
 5325 09df E9250000 		.4byte	0x25e9
 5326 09e3 F1090000 		.4byte	0x9f1
 5327 09e7 10       		.uleb128 0x10
 5328 09e8 01       		.uleb128 0x1
 5329 09e9 50       		.byte	0x50
 5330 09ea 05       		.uleb128 0x5
 5331 09eb 03       		.byte	0x3
 5332 09ec 30000000 		.4byte	.LC14
 5333 09f0 00       		.byte	0
 5334 09f1 0F       		.uleb128 0xf
 5335 09f2 26000000 		.4byte	.LVL81
 5336 09f6 D3250000 		.4byte	0x25d3
 5337 09fa 090A0000 		.4byte	0xa09
 5338 09fe 10       		.uleb128 0x10
 5339 09ff 01       		.uleb128 0x1
 5340 0a00 50       		.byte	0x50
 5341 0a01 01       		.uleb128 0x1
 5342 0a02 30       		.byte	0x30
 5343 0a03 10       		.uleb128 0x10
 5344 0a04 01       		.uleb128 0x1
 5345 0a05 51       		.byte	0x51
 5346 0a06 01       		.uleb128 0x1
 5347 0a07 33       		.byte	0x33
 5348 0a08 00       		.byte	0
 5349 0a09 0F       		.uleb128 0xf
 5350 0a0a 4C000000 		.4byte	.LVL82
 5351 0a0e DE250000 		.4byte	0x25de
 5352 0a12 520A0000 		.4byte	0xa52
 5353 0a16 10       		.uleb128 0x10
 5354 0a17 01       		.uleb128 0x1
 5355 0a18 50       		.byte	0x50
 5356 0a19 02       		.uleb128 0x2
 5357 0a1a 75       		.byte	0x75
 5358 0a1b 00       		.sleb128 0
 5359 0a1c 10       		.uleb128 0x10
 5360 0a1d 01       		.uleb128 0x1
 5361 0a1e 51       		.byte	0x51
 5362 0a1f 01       		.uleb128 0x1
 5363 0a20 45       		.byte	0x45
 5364 0a21 10       		.uleb128 0x10
 5365 0a22 01       		.uleb128 0x1
 5366 0a23 52       		.byte	0x52
 5367 0a24 05       		.uleb128 0x5
ARM GAS  C:\Users\HELLOK~1.1\AppData\Local\Temp\cc5k7xEp.s 			page 116


 5368 0a25 03       		.byte	0x3
 5369 0a26 00000000 		.4byte	.LC10
 5370 0a2a 10       		.uleb128 0x10
 5371 0a2b 01       		.uleb128 0x1
 5372 0a2c 53       		.byte	0x53
 5373 0a2d 07       		.uleb128 0x7
 5374 0a2e 74       		.byte	0x74
 5375 0a2f 00       		.sleb128 0
 5376 0a30 94       		.byte	0x94
 5377 0a31 01       		.byte	0x1
 5378 0a32 08       		.byte	0x8
 5379 0a33 FF       		.byte	0xff
 5380 0a34 1A       		.byte	0x1a
 5381 0a35 10       		.uleb128 0x10
 5382 0a36 02       		.uleb128 0x2
 5383 0a37 7D       		.byte	0x7d
 5384 0a38 04       		.sleb128 4
 5385 0a39 03       		.uleb128 0x3
 5386 0a3a 74       		.byte	0x74
 5387 0a3b 04       		.sleb128 4
 5388 0a3c 06       		.byte	0x6
 5389 0a3d 10       		.uleb128 0x10
 5390 0a3e 02       		.uleb128 0x2
 5391 0a3f 7D       		.byte	0x7d
 5392 0a40 08       		.sleb128 8
 5393 0a41 03       		.uleb128 0x3
 5394 0a42 91       		.byte	0x91
 5395 0a43 6C       		.sleb128 -20
 5396 0a44 06       		.byte	0x6
 5397 0a45 10       		.uleb128 0x10
 5398 0a46 02       		.uleb128 0x2
 5399 0a47 7D       		.byte	0x7d
 5400 0a48 0C       		.sleb128 12
 5401 0a49 07       		.uleb128 0x7
 5402 0a4a 91       		.byte	0x91
 5403 0a4b 68       		.sleb128 -24
 5404 0a4c 94       		.byte	0x94
 5405 0a4d 01       		.byte	0x1
 5406 0a4e 08       		.byte	0x8
 5407 0a4f FF       		.byte	0xff
 5408 0a50 1A       		.byte	0x1a
 5409 0a51 00       		.byte	0
 5410 0a52 1B       		.uleb128 0x1b
 5411 0a53 56000000 		.4byte	.LVL83
 5412 0a57 E9250000 		.4byte	0x25e9
 5413 0a5b 10       		.uleb128 0x10
 5414 0a5c 01       		.uleb128 0x1
 5415 0a5d 50       		.byte	0x50
 5416 0a5e 02       		.uleb128 0x2
 5417 0a5f 75       		.byte	0x75
 5418 0a60 00       		.sleb128 0
 5419 0a61 00       		.byte	0
 5420 0a62 00       		.byte	0
 5421 0a63 1C       		.uleb128 0x1c
 5422 0a64 A7040000 		.4byte	.LASF83
 5423 0a68 01       		.byte	0x1
 5424 0a69 3501     		.2byte	0x135
ARM GAS  C:\Users\HELLOK~1.1\AppData\Local\Temp\cc5k7xEp.s 			page 117


 5425 0a6b 00000000 		.4byte	.LFB46
 5426 0a6f 60000000 		.4byte	.LFE46-.LFB46
 5427 0a73 01       		.uleb128 0x1
 5428 0a74 9C       		.byte	0x9c
 5429 0a75 300B0000 		.4byte	0xb30
 5430 0a79 1D       		.uleb128 0x1d
 5431 0a7a E7020000 		.4byte	.LASF77
 5432 0a7e 01       		.byte	0x1
 5433 0a7f 3501     		.2byte	0x135
 5434 0a81 EA000000 		.4byte	0xea
 5435 0a85 02       		.uleb128 0x2
 5436 0a86 91       		.byte	0x91
 5437 0a87 48       		.sleb128 -56
 5438 0a88 1D       		.uleb128 0x1d
 5439 0a89 32030000 		.4byte	.LASF79
 5440 0a8d 01       		.byte	0x1
 5441 0a8e 3501     		.2byte	0x135
 5442 0a90 1A010000 		.4byte	0x11a
 5443 0a94 02       		.uleb128 0x2
 5444 0a95 91       		.byte	0x91
 5445 0a96 78       		.sleb128 -8
 5446 0a97 1A       		.uleb128 0x1a
 5447 0a98 93050000 		.4byte	.LASF81
 5448 0a9c 01       		.byte	0x1
 5449 0a9d 3701     		.2byte	0x137
 5450 0a9f 6F090000 		.4byte	0x96f
 5451 0aa3 02       		.uleb128 0x2
 5452 0aa4 91       		.byte	0x91
 5453 0aa5 50       		.sleb128 -48
 5454 0aa6 0F       		.uleb128 0xf
 5455 0aa7 18000000 		.4byte	.LVL84
 5456 0aab D3250000 		.4byte	0x25d3
 5457 0aaf BE0A0000 		.4byte	0xabe
 5458 0ab3 10       		.uleb128 0x10
 5459 0ab4 01       		.uleb128 0x1
 5460 0ab5 50       		.byte	0x50
 5461 0ab6 01       		.uleb128 0x1
 5462 0ab7 30       		.byte	0x30
 5463 0ab8 10       		.uleb128 0x10
 5464 0ab9 01       		.uleb128 0x1
 5465 0aba 51       		.byte	0x51
 5466 0abb 01       		.uleb128 0x1
 5467 0abc 30       		.byte	0x30
 5468 0abd 00       		.byte	0
 5469 0abe 0F       		.uleb128 0xf
 5470 0abf 3E000000 		.4byte	.LVL85
 5471 0ac3 DE250000 		.4byte	0x25de
 5472 0ac7 070B0000 		.4byte	0xb07
 5473 0acb 10       		.uleb128 0x10
 5474 0acc 01       		.uleb128 0x1
 5475 0acd 50       		.byte	0x50
 5476 0ace 02       		.uleb128 0x2
 5477 0acf 75       		.byte	0x75
 5478 0ad0 00       		.sleb128 0
 5479 0ad1 10       		.uleb128 0x10
 5480 0ad2 01       		.uleb128 0x1
 5481 0ad3 51       		.byte	0x51
ARM GAS  C:\Users\HELLOK~1.1\AppData\Local\Temp\cc5k7xEp.s 			page 118


 5482 0ad4 01       		.uleb128 0x1
 5483 0ad5 45       		.byte	0x45
 5484 0ad6 10       		.uleb128 0x10
 5485 0ad7 01       		.uleb128 0x1
 5486 0ad8 52       		.byte	0x52
 5487 0ad9 05       		.uleb128 0x5
 5488 0ada 03       		.byte	0x3
 5489 0adb 00000000 		.4byte	.LC10
 5490 0adf 10       		.uleb128 0x10
 5491 0ae0 01       		.uleb128 0x1
 5492 0ae1 53       		.byte	0x53
 5493 0ae2 07       		.uleb128 0x7
 5494 0ae3 74       		.byte	0x74
 5495 0ae4 00       		.sleb128 0
 5496 0ae5 94       		.byte	0x94
 5497 0ae6 01       		.byte	0x1
 5498 0ae7 08       		.byte	0x8
 5499 0ae8 FF       		.byte	0xff
 5500 0ae9 1A       		.byte	0x1a
 5501 0aea 10       		.uleb128 0x10
 5502 0aeb 02       		.uleb128 0x2
 5503 0aec 7D       		.byte	0x7d
 5504 0aed 04       		.sleb128 4
 5505 0aee 03       		.uleb128 0x3
 5506 0aef 74       		.byte	0x74
 5507 0af0 04       		.sleb128 4
 5508 0af1 06       		.byte	0x6
 5509 0af2 10       		.uleb128 0x10
 5510 0af3 02       		.uleb128 0x2
 5511 0af4 7D       		.byte	0x7d
 5512 0af5 08       		.sleb128 8
 5513 0af6 03       		.uleb128 0x3
 5514 0af7 91       		.byte	0x91
 5515 0af8 6C       		.sleb128 -20
 5516 0af9 06       		.byte	0x6
 5517 0afa 10       		.uleb128 0x10
 5518 0afb 02       		.uleb128 0x2
 5519 0afc 7D       		.byte	0x7d
 5520 0afd 0C       		.sleb128 12
 5521 0afe 07       		.uleb128 0x7
 5522 0aff 91       		.byte	0x91
 5523 0b00 68       		.sleb128 -24
 5524 0b01 94       		.byte	0x94
 5525 0b02 01       		.byte	0x1
 5526 0b03 08       		.byte	0x8
 5527 0b04 FF       		.byte	0xff
 5528 0b05 1A       		.byte	0x1a
 5529 0b06 00       		.byte	0
 5530 0b07 0F       		.uleb128 0xf
 5531 0b08 48000000 		.4byte	.LVL86
 5532 0b0c E9250000 		.4byte	0x25e9
 5533 0b10 1B0B0000 		.4byte	0xb1b
 5534 0b14 10       		.uleb128 0x10
 5535 0b15 01       		.uleb128 0x1
 5536 0b16 50       		.byte	0x50
 5537 0b17 02       		.uleb128 0x2
 5538 0b18 75       		.byte	0x75
ARM GAS  C:\Users\HELLOK~1.1\AppData\Local\Temp\cc5k7xEp.s 			page 119


 5539 0b19 00       		.sleb128 0
 5540 0b1a 00       		.byte	0
 5541 0b1b 1B       		.uleb128 0x1b
 5542 0b1c 50000000 		.4byte	.LVL87
 5543 0b20 D3250000 		.4byte	0x25d3
 5544 0b24 10       		.uleb128 0x10
 5545 0b25 01       		.uleb128 0x1
 5546 0b26 50       		.byte	0x50
 5547 0b27 01       		.uleb128 0x1
 5548 0b28 30       		.byte	0x30
 5549 0b29 10       		.uleb128 0x10
 5550 0b2a 01       		.uleb128 0x1
 5551 0b2b 51       		.byte	0x51
 5552 0b2c 01       		.uleb128 0x1
 5553 0b2d 31       		.byte	0x31
 5554 0b2e 00       		.byte	0
 5555 0b2f 00       		.byte	0
 5556 0b30 19       		.uleb128 0x19
 5557 0b31 10030000 		.4byte	.LASF85
 5558 0b35 01       		.byte	0x1
 5559 0b36 3D01     		.2byte	0x13d
 5560 0b38 00000000 		.4byte	.LFB47
 5561 0b3c D4000000 		.4byte	.LFE47-.LFB47
 5562 0b40 01       		.uleb128 0x1
 5563 0b41 9C       		.byte	0x9c
 5564 0b42 E70C0000 		.4byte	0xce7
 5565 0b46 1A       		.uleb128 0x1a
 5566 0b47 93050000 		.4byte	.LASF81
 5567 0b4b 01       		.byte	0x1
 5568 0b4c 3E01     		.2byte	0x13e
 5569 0b4e 6F090000 		.4byte	0x96f
 5570 0b52 02       		.uleb128 0x2
 5571 0b53 91       		.byte	0x91
 5572 0b54 50       		.sleb128 -48
 5573 0b55 1A       		.uleb128 0x1a
 5574 0b56 C2010000 		.4byte	.LASF78
 5575 0b5a 01       		.byte	0x1
 5576 0b5b 3F01     		.2byte	0x13f
 5577 0b5d EA000000 		.4byte	0xea
 5578 0b61 02       		.uleb128 0x2
 5579 0b62 91       		.byte	0x91
 5580 0b63 48       		.sleb128 -56
 5581 0b64 1E       		.uleb128 0x1e
 5582 0b65 64617900 		.ascii	"day\000"
 5583 0b69 01       		.byte	0x1
 5584 0b6a 4001     		.2byte	0x140
 5585 0b6c 2F060000 		.4byte	0x62f
 5586 0b70 02       		.uleb128 0x2
 5587 0b71 91       		.byte	0x91
 5588 0b72 44       		.sleb128 -60
 5589 0b73 1A       		.uleb128 0x1a
 5590 0b74 F0020000 		.4byte	.LASF21
 5591 0b78 01       		.byte	0x1
 5592 0b79 4201     		.2byte	0x142
 5593 0b7b 2F060000 		.4byte	0x62f
 5594 0b7f 02       		.uleb128 0x2
 5595 0b80 91       		.byte	0x91
ARM GAS  C:\Users\HELLOK~1.1\AppData\Local\Temp\cc5k7xEp.s 			page 120


 5596 0b81 40       		.sleb128 -64
 5597 0b82 1A       		.uleb128 0x1a
 5598 0b83 37060000 		.4byte	.LASF22
 5599 0b87 01       		.byte	0x1
 5600 0b88 4401     		.2byte	0x144
 5601 0b8a 2F060000 		.4byte	0x62f
 5602 0b8e 03       		.uleb128 0x3
 5603 0b8f 91       		.byte	0x91
 5604 0b90 BC7F     		.sleb128 -68
 5605 0b92 1F       		.uleb128 0x1f
 5606 0b93 AD020000 		.4byte	.LASF80
 5607 0b97 01       		.byte	0x1
 5608 0b98 4601     		.2byte	0x146
 5609 0b9a 1A010000 		.4byte	0x11a
 5610 0b9e 0F       		.uleb128 0xf
 5611 0b9f 2A000000 		.4byte	.LVL88
 5612 0ba3 62050000 		.4byte	0x562
 5613 0ba7 BD0B0000 		.4byte	0xbbd
 5614 0bab 10       		.uleb128 0x10
 5615 0bac 01       		.uleb128 0x1
 5616 0bad 50       		.byte	0x50
 5617 0bae 02       		.uleb128 0x2
 5618 0baf 76       		.byte	0x76
 5619 0bb0 00       		.sleb128 0
 5620 0bb1 10       		.uleb128 0x10
 5621 0bb2 01       		.uleb128 0x1
 5622 0bb3 51       		.byte	0x51
 5623 0bb4 01       		.uleb128 0x1
 5624 0bb5 31       		.byte	0x31
 5625 0bb6 10       		.uleb128 0x10
 5626 0bb7 01       		.uleb128 0x1
 5627 0bb8 52       		.byte	0x52
 5628 0bb9 02       		.uleb128 0x2
 5629 0bba 08       		.byte	0x8
 5630 0bbb 51       		.byte	0x51
 5631 0bbc 00       		.byte	0
 5632 0bbd 0F       		.uleb128 0xf
 5633 0bbe 3A000000 		.4byte	.LVL89
 5634 0bc2 62050000 		.4byte	0x562
 5635 0bc6 DC0B0000 		.4byte	0xbdc
 5636 0bca 10       		.uleb128 0x10
 5637 0bcb 01       		.uleb128 0x1
 5638 0bcc 50       		.byte	0x50
 5639 0bcd 02       		.uleb128 0x2
 5640 0bce 78       		.byte	0x78
 5641 0bcf 00       		.sleb128 0
 5642 0bd0 10       		.uleb128 0x10
 5643 0bd1 01       		.uleb128 0x1
 5644 0bd2 51       		.byte	0x51
 5645 0bd3 01       		.uleb128 0x1
 5646 0bd4 31       		.byte	0x31
 5647 0bd5 10       		.uleb128 0x10
 5648 0bd6 01       		.uleb128 0x1
 5649 0bd7 52       		.byte	0x52
 5650 0bd8 02       		.uleb128 0x2
 5651 0bd9 08       		.byte	0x8
 5652 0bda 51       		.byte	0x51
ARM GAS  C:\Users\HELLOK~1.1\AppData\Local\Temp\cc5k7xEp.s 			page 121


 5653 0bdb 00       		.byte	0
 5654 0bdc 0F       		.uleb128 0xf
 5655 0bdd 48000000 		.4byte	.LVL90
 5656 0be1 62050000 		.4byte	0x562
 5657 0be5 FB0B0000 		.4byte	0xbfb
 5658 0be9 10       		.uleb128 0x10
 5659 0bea 01       		.uleb128 0x1
 5660 0beb 50       		.byte	0x50
 5661 0bec 02       		.uleb128 0x2
 5662 0bed 77       		.byte	0x77
 5663 0bee 00       		.sleb128 0
 5664 0bef 10       		.uleb128 0x10
 5665 0bf0 01       		.uleb128 0x1
 5666 0bf1 51       		.byte	0x51
 5667 0bf2 01       		.uleb128 0x1
 5668 0bf3 31       		.byte	0x31
 5669 0bf4 10       		.uleb128 0x10
 5670 0bf5 01       		.uleb128 0x1
 5671 0bf6 52       		.byte	0x52
 5672 0bf7 02       		.uleb128 0x2
 5673 0bf8 08       		.byte	0x8
 5674 0bf9 51       		.byte	0x51
 5675 0bfa 00       		.byte	0
 5676 0bfb 11       		.uleb128 0x11
 5677 0bfc 4E000000 		.4byte	.LVL91
 5678 0c00 7B030000 		.4byte	0x37b
 5679 0c04 11       		.uleb128 0x11
 5680 0c05 58000000 		.4byte	.LVL92
 5681 0c09 7B030000 		.4byte	0x37b
 5682 0c0d 11       		.uleb128 0x11
 5683 0c0e 68000000 		.4byte	.LVL93
 5684 0c12 7B030000 		.4byte	0x37b
 5685 0c16 0F       		.uleb128 0xf
 5686 0c17 72000000 		.4byte	.LVL94
 5687 0c1b D3250000 		.4byte	0x25d3
 5688 0c1f 2E0C0000 		.4byte	0xc2e
 5689 0c23 10       		.uleb128 0x10
 5690 0c24 01       		.uleb128 0x1
 5691 0c25 50       		.byte	0x50
 5692 0c26 01       		.uleb128 0x1
 5693 0c27 30       		.byte	0x30
 5694 0c28 10       		.uleb128 0x10
 5695 0c29 01       		.uleb128 0x1
 5696 0c2a 51       		.byte	0x51
 5697 0c2b 01       		.uleb128 0x1
 5698 0c2c 31       		.byte	0x31
 5699 0c2d 00       		.byte	0
 5700 0c2e 0F       		.uleb128 0xf
 5701 0c2f 78000000 		.4byte	.LVL95
 5702 0c33 E9250000 		.4byte	0x25e9
 5703 0c37 450C0000 		.4byte	0xc45
 5704 0c3b 10       		.uleb128 0x10
 5705 0c3c 01       		.uleb128 0x1
 5706 0c3d 50       		.byte	0x50
 5707 0c3e 05       		.uleb128 0x5
 5708 0c3f 03       		.byte	0x3
 5709 0c40 18000000 		.4byte	.LC12
ARM GAS  C:\Users\HELLOK~1.1\AppData\Local\Temp\cc5k7xEp.s 			page 122


 5710 0c44 00       		.byte	0
 5711 0c45 0F       		.uleb128 0xf
 5712 0c46 80000000 		.4byte	.LVL96
 5713 0c4a D3250000 		.4byte	0x25d3
 5714 0c4e 5D0C0000 		.4byte	0xc5d
 5715 0c52 10       		.uleb128 0x10
 5716 0c53 01       		.uleb128 0x1
 5717 0c54 50       		.byte	0x50
 5718 0c55 01       		.uleb128 0x1
 5719 0c56 30       		.byte	0x30
 5720 0c57 10       		.uleb128 0x10
 5721 0c58 01       		.uleb128 0x1
 5722 0c59 51       		.byte	0x51
 5723 0c5a 01       		.uleb128 0x1
 5724 0c5b 32       		.byte	0x32
 5725 0c5c 00       		.byte	0
 5726 0c5d 0F       		.uleb128 0xf
 5727 0c5e 86000000 		.4byte	.LVL97
 5728 0c62 E9250000 		.4byte	0x25e9
 5729 0c66 740C0000 		.4byte	0xc74
 5730 0c6a 10       		.uleb128 0x10
 5731 0c6b 01       		.uleb128 0x1
 5732 0c6c 50       		.byte	0x50
 5733 0c6d 05       		.uleb128 0x5
 5734 0c6e 03       		.byte	0x3
 5735 0c6f 44000000 		.4byte	.LC22
 5736 0c73 00       		.byte	0
 5737 0c74 0F       		.uleb128 0xf
 5738 0c75 8E000000 		.4byte	.LVL98
 5739 0c79 D3250000 		.4byte	0x25d3
 5740 0c7d 8C0C0000 		.4byte	0xc8c
 5741 0c81 10       		.uleb128 0x10
 5742 0c82 01       		.uleb128 0x1
 5743 0c83 50       		.byte	0x50
 5744 0c84 01       		.uleb128 0x1
 5745 0c85 30       		.byte	0x30
 5746 0c86 10       		.uleb128 0x10
 5747 0c87 01       		.uleb128 0x1
 5748 0c88 51       		.byte	0x51
 5749 0c89 01       		.uleb128 0x1
 5750 0c8a 33       		.byte	0x33
 5751 0c8b 00       		.byte	0
 5752 0c8c 0F       		.uleb128 0xf
 5753 0c8d AC000000 		.4byte	.LVL99
 5754 0c91 DE250000 		.4byte	0x25de
 5755 0c95 D60C0000 		.4byte	0xcd6
 5756 0c99 10       		.uleb128 0x10
 5757 0c9a 01       		.uleb128 0x1
 5758 0c9b 50       		.byte	0x50
 5759 0c9c 02       		.uleb128 0x2
 5760 0c9d 75       		.byte	0x75
 5761 0c9e 00       		.sleb128 0
 5762 0c9f 10       		.uleb128 0x10
 5763 0ca0 01       		.uleb128 0x1
 5764 0ca1 51       		.byte	0x51
 5765 0ca2 01       		.uleb128 0x1
 5766 0ca3 45       		.byte	0x45
ARM GAS  C:\Users\HELLOK~1.1\AppData\Local\Temp\cc5k7xEp.s 			page 123


 5767 0ca4 10       		.uleb128 0x10
 5768 0ca5 01       		.uleb128 0x1
 5769 0ca6 52       		.byte	0x52
 5770 0ca7 05       		.uleb128 0x5
 5771 0ca8 03       		.byte	0x3
 5772 0ca9 00000000 		.4byte	.LC10
 5773 0cad 10       		.uleb128 0x10
 5774 0cae 01       		.uleb128 0x1
 5775 0caf 53       		.byte	0x53
 5776 0cb0 07       		.uleb128 0x7
 5777 0cb1 74       		.byte	0x74
 5778 0cb2 00       		.sleb128 0
 5779 0cb3 94       		.byte	0x94
 5780 0cb4 01       		.byte	0x1
 5781 0cb5 08       		.byte	0x8
 5782 0cb6 FF       		.byte	0xff
 5783 0cb7 1A       		.byte	0x1a
 5784 0cb8 10       		.uleb128 0x10
 5785 0cb9 02       		.uleb128 0x2
 5786 0cba 7D       		.byte	0x7d
 5787 0cbb 04       		.sleb128 4
 5788 0cbc 03       		.uleb128 0x3
 5789 0cbd 74       		.byte	0x74
 5790 0cbe 04       		.sleb128 4
 5791 0cbf 06       		.byte	0x6
 5792 0cc0 10       		.uleb128 0x10
 5793 0cc1 02       		.uleb128 0x2
 5794 0cc2 7D       		.byte	0x7d
 5795 0cc3 08       		.sleb128 8
 5796 0cc4 02       		.uleb128 0x2
 5797 0cc5 78       		.byte	0x78
 5798 0cc6 00       		.sleb128 0
 5799 0cc7 10       		.uleb128 0x10
 5800 0cc8 02       		.uleb128 0x2
 5801 0cc9 7D       		.byte	0x7d
 5802 0cca 0C       		.sleb128 12
 5803 0ccb 02       		.uleb128 0x2
 5804 0ccc 76       		.byte	0x76
 5805 0ccd 00       		.sleb128 0
 5806 0cce 10       		.uleb128 0x10
 5807 0ccf 02       		.uleb128 0x2
 5808 0cd0 7D       		.byte	0x7d
 5809 0cd1 10       		.sleb128 16
 5810 0cd2 02       		.uleb128 0x2
 5811 0cd3 77       		.byte	0x77
 5812 0cd4 00       		.sleb128 0
 5813 0cd5 00       		.byte	0
 5814 0cd6 1B       		.uleb128 0x1b
 5815 0cd7 B6000000 		.4byte	.LVL100
 5816 0cdb E9250000 		.4byte	0x25e9
 5817 0cdf 10       		.uleb128 0x10
 5818 0ce0 01       		.uleb128 0x1
 5819 0ce1 50       		.byte	0x50
 5820 0ce2 02       		.uleb128 0x2
 5821 0ce3 75       		.byte	0x75
 5822 0ce4 00       		.sleb128 0
 5823 0ce5 00       		.byte	0
ARM GAS  C:\Users\HELLOK~1.1\AppData\Local\Temp\cc5k7xEp.s 			page 124


 5824 0ce6 00       		.byte	0
 5825 0ce7 19       		.uleb128 0x19
 5826 0ce8 1C000000 		.4byte	.LASF86
 5827 0cec 01       		.byte	0x1
 5828 0ced 5001     		.2byte	0x150
 5829 0cef 00000000 		.4byte	.LFB48
 5830 0cf3 AC000000 		.4byte	.LFE48-.LFB48
 5831 0cf7 01       		.uleb128 0x1
 5832 0cf8 9C       		.byte	0x9c
 5833 0cf9 3D0E0000 		.4byte	0xe3d
 5834 0cfd 20       		.uleb128 0x20
 5835 0cfe 02000000 		.4byte	.LBB2
 5836 0d02 24000000 		.4byte	.LBE2-.LBB2
 5837 0d06 220D0000 		.4byte	0xd22
 5838 0d0a 21       		.uleb128 0x21
 5839 0d0b 6900     		.ascii	"i\000"
 5840 0d0d 01       		.byte	0x1
 5841 0d0e 5101     		.2byte	0x151
 5842 0d10 5D000000 		.4byte	0x5d
 5843 0d14 FF020000 		.4byte	.LLST19
 5844 0d18 11       		.uleb128 0x11
 5845 0d19 0E000000 		.4byte	.LVL103
 5846 0d1d FD020000 		.4byte	0x2fd
 5847 0d21 00       		.byte	0
 5848 0d22 20       		.uleb128 0x20
 5849 0d23 50000000 		.4byte	.LBB3
 5850 0d27 52000000 		.4byte	.LBE3-.LBB3
 5851 0d2b C60D0000 		.4byte	0xdc6
 5852 0d2f 21       		.uleb128 0x21
 5853 0d30 6B00     		.ascii	"k\000"
 5854 0d32 01       		.byte	0x1
 5855 0d33 5D01     		.2byte	0x15d
 5856 0d35 5D000000 		.4byte	0x5d
 5857 0d39 1E030000 		.4byte	.LLST20
 5858 0d3d 20       		.uleb128 0x20
 5859 0d3e 6C000000 		.4byte	.LBB4
 5860 0d42 20000000 		.4byte	.LBE4-.LBB4
 5861 0d46 900D0000 		.4byte	0xd90
 5862 0d4a 21       		.uleb128 0x21
 5863 0d4b 6900     		.ascii	"i\000"
 5864 0d4d 01       		.byte	0x1
 5865 0d4e 6401     		.2byte	0x164
 5866 0d50 5D000000 		.4byte	0x5d
 5867 0d54 3D030000 		.4byte	.LLST21
 5868 0d58 22       		.uleb128 0x22
 5869 0d59 00000000 		.4byte	.Ldebug_ranges0+0
 5870 0d5d 21       		.uleb128 0x21
 5871 0d5e 6A00     		.ascii	"j\000"
 5872 0d60 01       		.byte	0x1
 5873 0d61 6501     		.2byte	0x165
 5874 0d63 5D000000 		.4byte	0x5d
 5875 0d67 50030000 		.4byte	.LLST22
 5876 0d6b 0F       		.uleb128 0xf
 5877 0d6c 76000000 		.4byte	.LVL116
 5878 0d70 F4250000 		.4byte	0x25f4
 5879 0d74 7F0D0000 		.4byte	0xd7f
 5880 0d78 10       		.uleb128 0x10
ARM GAS  C:\Users\HELLOK~1.1\AppData\Local\Temp\cc5k7xEp.s 			page 125


 5881 0d79 01       		.uleb128 0x1
 5882 0d7a 50       		.byte	0x50
 5883 0d7b 02       		.uleb128 0x2
 5884 0d7c 74       		.byte	0x74
 5885 0d7d 00       		.sleb128 0
 5886 0d7e 00       		.byte	0
 5887 0d7f 1B       		.uleb128 0x1b
 5888 0d80 7C000000 		.4byte	.LVL117
 5889 0d84 FF250000 		.4byte	0x25ff
 5890 0d88 10       		.uleb128 0x10
 5891 0d89 01       		.uleb128 0x1
 5892 0d8a 50       		.byte	0x50
 5893 0d8b 01       		.uleb128 0x1
 5894 0d8c 31       		.byte	0x31
 5895 0d8d 00       		.byte	0
 5896 0d8e 00       		.byte	0
 5897 0d8f 00       		.byte	0
 5898 0d90 11       		.uleb128 0x11
 5899 0d91 60000000 		.4byte	.LVL113
 5900 0d95 0A260000 		.4byte	0x260a
 5901 0d99 11       		.uleb128 0x11
 5902 0d9a 6C000000 		.4byte	.LVL114
 5903 0d9e 16260000 		.4byte	0x2616
 5904 0da2 11       		.uleb128 0x11
 5905 0da3 90000000 		.4byte	.LVL122
 5906 0da7 22260000 		.4byte	0x2622
 5907 0dab 11       		.uleb128 0x11
 5908 0dac 94000000 		.4byte	.LVL123
 5909 0db0 2E260000 		.4byte	0x262e
 5910 0db4 1B       		.uleb128 0x1b
 5911 0db5 9C000000 		.4byte	.LVL124
 5912 0db9 FF250000 		.4byte	0x25ff
 5913 0dbd 10       		.uleb128 0x10
 5914 0dbe 01       		.uleb128 0x1
 5915 0dbf 50       		.byte	0x50
 5916 0dc0 03       		.uleb128 0x3
 5917 0dc1 0A       		.byte	0xa
 5918 0dc2 2C01     		.2byte	0x12c
 5919 0dc4 00       		.byte	0
 5920 0dc5 00       		.byte	0
 5921 0dc6 0F       		.uleb128 0xf
 5922 0dc7 2C000000 		.4byte	.LVL105
 5923 0dcb 8D250000 		.4byte	0x258d
 5924 0dcf D90D0000 		.4byte	0xdd9
 5925 0dd3 10       		.uleb128 0x10
 5926 0dd4 01       		.uleb128 0x1
 5927 0dd5 50       		.byte	0x50
 5928 0dd6 01       		.uleb128 0x1
 5929 0dd7 30       		.byte	0x30
 5930 0dd8 00       		.byte	0
 5931 0dd9 0F       		.uleb128 0xf
 5932 0dda 36000000 		.4byte	.LVL106
 5933 0dde 3A260000 		.4byte	0x263a
 5934 0de2 ED0D0000 		.4byte	0xded
 5935 0de6 10       		.uleb128 0x10
 5936 0de7 01       		.uleb128 0x1
 5937 0de8 50       		.byte	0x50
ARM GAS  C:\Users\HELLOK~1.1\AppData\Local\Temp\cc5k7xEp.s 			page 126


 5938 0de9 02       		.uleb128 0x2
 5939 0dea 74       		.byte	0x74
 5940 0deb 00       		.sleb128 0
 5941 0dec 00       		.byte	0
 5942 0ded 0F       		.uleb128 0xf
 5943 0dee 3C000000 		.4byte	.LVL107
 5944 0df2 46260000 		.4byte	0x2646
 5945 0df6 010E0000 		.4byte	0xe01
 5946 0dfa 10       		.uleb128 0x10
 5947 0dfb 01       		.uleb128 0x1
 5948 0dfc 50       		.byte	0x50
 5949 0dfd 02       		.uleb128 0x2
 5950 0dfe 74       		.byte	0x74
 5951 0dff 00       		.sleb128 0
 5952 0e00 00       		.byte	0
 5953 0e01 11       		.uleb128 0x11
 5954 0e02 40000000 		.4byte	.LVL108
 5955 0e06 0A260000 		.4byte	0x260a
 5956 0e0a 0F       		.uleb128 0xf
 5957 0e0b 46000000 		.4byte	.LVL109
 5958 0e0f 52260000 		.4byte	0x2652
 5959 0e13 1F0E0000 		.4byte	0xe1f
 5960 0e17 10       		.uleb128 0x10
 5961 0e18 01       		.uleb128 0x1
 5962 0e19 50       		.byte	0x50
 5963 0e1a 03       		.uleb128 0x3
 5964 0e1b 0A       		.byte	0xa
 5965 0e1c EE02     		.2byte	0x2ee
 5966 0e1e 00       		.byte	0
 5967 0e1f 0F       		.uleb128 0xf
 5968 0e20 4C000000 		.4byte	.LVL110
 5969 0e24 5E260000 		.4byte	0x265e
 5970 0e28 330E0000 		.4byte	0xe33
 5971 0e2c 10       		.uleb128 0x10
 5972 0e2d 01       		.uleb128 0x1
 5973 0e2e 50       		.byte	0x50
 5974 0e2f 02       		.uleb128 0x2
 5975 0e30 08       		.byte	0x8
 5976 0e31 32       		.byte	0x32
 5977 0e32 00       		.byte	0
 5978 0e33 11       		.uleb128 0x11
 5979 0e34 50000000 		.4byte	.LVL111
 5980 0e38 2E260000 		.4byte	0x262e
 5981 0e3c 00       		.byte	0
 5982 0e3d 19       		.uleb128 0x19
 5983 0e3e B8050000 		.4byte	.LASF87
 5984 0e42 01       		.byte	0x1
 5985 0e43 6F01     		.2byte	0x16f
 5986 0e45 00000000 		.4byte	.LFB49
 5987 0e49 6C040000 		.4byte	.LFE49-.LFB49
 5988 0e4d 01       		.uleb128 0x1
 5989 0e4e 9C       		.byte	0x9c
 5990 0e4f 92150000 		.4byte	0x1592
 5991 0e53 1A       		.uleb128 0x1a
 5992 0e54 04070000 		.4byte	.LASF88
 5993 0e58 01       		.byte	0x1
 5994 0e59 7301     		.2byte	0x173
ARM GAS  C:\Users\HELLOK~1.1\AppData\Local\Temp\cc5k7xEp.s 			page 127


 5995 0e5b 6F090000 		.4byte	0x96f
 5996 0e5f 02       		.uleb128 0x2
 5997 0e60 91       		.byte	0x91
 5998 0e61 40       		.sleb128 -64
 5999 0e62 1F       		.uleb128 0x1f
 6000 0e63 C2010000 		.4byte	.LASF78
 6001 0e67 01       		.byte	0x1
 6002 0e68 7401     		.2byte	0x174
 6003 0e6a EA000000 		.4byte	0xea
 6004 0e6e 1E       		.uleb128 0x1e
 6005 0e6f 64617900 		.ascii	"day\000"
 6006 0e73 01       		.byte	0x1
 6007 0e74 7501     		.2byte	0x175
 6008 0e76 2F060000 		.4byte	0x62f
 6009 0e7a 03       		.uleb128 0x3
 6010 0e7b 91       		.byte	0x91
 6011 0e7c BC7F     		.sleb128 -68
 6012 0e7e 1A       		.uleb128 0x1a
 6013 0e7f F0020000 		.4byte	.LASF21
 6014 0e83 01       		.byte	0x1
 6015 0e84 7701     		.2byte	0x177
 6016 0e86 2F060000 		.4byte	0x62f
 6017 0e8a 03       		.uleb128 0x3
 6018 0e8b 91       		.byte	0x91
 6019 0e8c B87F     		.sleb128 -72
 6020 0e8e 1A       		.uleb128 0x1a
 6021 0e8f 37060000 		.4byte	.LASF22
 6022 0e93 01       		.byte	0x1
 6023 0e94 7901     		.2byte	0x179
 6024 0e96 2F060000 		.4byte	0x62f
 6025 0e9a 03       		.uleb128 0x3
 6026 0e9b 91       		.byte	0x91
 6027 0e9c B47F     		.sleb128 -76
 6028 0e9e 1F       		.uleb128 0x1f
 6029 0e9f 32030000 		.4byte	.LASF79
 6030 0ea3 01       		.byte	0x1
 6031 0ea4 7B01     		.2byte	0x17b
 6032 0ea6 1A010000 		.4byte	0x11a
 6033 0eaa 1A       		.uleb128 0x1a
 6034 0eab CF020000 		.4byte	.LASF89
 6035 0eaf 01       		.byte	0x1
 6036 0eb0 7C01     		.2byte	0x17c
 6037 0eb2 1A010000 		.4byte	0x11a
 6038 0eb6 03       		.uleb128 0x3
 6039 0eb7 91       		.byte	0x91
 6040 0eb8 A87F     		.sleb128 -88
 6041 0eba 23       		.uleb128 0x23
 6042 0ebb 50000000 		.4byte	.LASF90
 6043 0ebf 01       		.byte	0x1
 6044 0ec0 7D01     		.2byte	0x17d
 6045 0ec2 5D000000 		.4byte	0x5d
 6046 0ec6 6E030000 		.4byte	.LLST23
 6047 0eca 23       		.uleb128 0x23
 6048 0ecb F8060000 		.4byte	.LASF91
 6049 0ecf 01       		.byte	0x1
 6050 0ed0 9801     		.2byte	0x198
 6051 0ed2 6B000000 		.4byte	0x6b
ARM GAS  C:\Users\HELLOK~1.1\AppData\Local\Temp\cc5k7xEp.s 			page 128


 6052 0ed6 13040000 		.4byte	.LLST24
 6053 0eda 1E       		.uleb128 0x1e
 6054 0edb 6D696E00 		.ascii	"min\000"
 6055 0edf 01       		.byte	0x1
 6056 0ee0 DA01     		.2byte	0x1da
 6057 0ee2 2F060000 		.4byte	0x62f
 6058 0ee6 03       		.uleb128 0x3
 6059 0ee7 91       		.byte	0x91
 6060 0ee8 A47F     		.sleb128 -92
 6061 0eea 1A       		.uleb128 0x1a
 6062 0eeb 2D030000 		.4byte	.LASF18
 6063 0eef 01       		.byte	0x1
 6064 0ef0 DC01     		.2byte	0x1dc
 6065 0ef2 2F060000 		.4byte	0x62f
 6066 0ef6 03       		.uleb128 0x3
 6067 0ef7 91       		.byte	0x91
 6068 0ef8 A07F     		.sleb128 -96
 6069 0efa 1A       		.uleb128 0x1a
 6070 0efb 64060000 		.4byte	.LASF92
 6071 0eff 01       		.byte	0x1
 6072 0f00 DE01     		.2byte	0x1de
 6073 0f02 EA000000 		.4byte	0xea
 6074 0f06 03       		.uleb128 0x3
 6075 0f07 91       		.byte	0x91
 6076 0f08 987F     		.sleb128 -104
 6077 0f0a 1A       		.uleb128 0x1a
 6078 0f0b 78050000 		.4byte	.LASF93
 6079 0f0f 01       		.byte	0x1
 6080 0f10 DF01     		.2byte	0x1df
 6081 0f12 EA000000 		.4byte	0xea
 6082 0f16 03       		.uleb128 0x3
 6083 0f17 91       		.byte	0x91
 6084 0f18 907F     		.sleb128 -112
 6085 0f1a 1A       		.uleb128 0x1a
 6086 0f1b F7000000 		.4byte	.LASF74
 6087 0f1f 01       		.byte	0x1
 6088 0f20 4702     		.2byte	0x247
 6089 0f22 A8040000 		.4byte	0x4a8
 6090 0f26 03       		.uleb128 0x3
 6091 0f27 91       		.byte	0x91
 6092 0f28 8C7F     		.sleb128 -116
 6093 0f2a 20       		.uleb128 0x20
 6094 0f2b F8000000 		.4byte	.LBB7
 6095 0f2f 44000000 		.4byte	.LBE7-.LBB7
 6096 0f33 9A0F0000 		.4byte	0xf9a
 6097 0f37 1A       		.uleb128 0x1a
 6098 0f38 F8010000 		.4byte	.LASF94
 6099 0f3c 01       		.byte	0x1
 6100 0f3d B201     		.2byte	0x1b2
 6101 0f3f 92150000 		.4byte	0x1592
 6102 0f43 03       		.uleb128 0x3
 6103 0f44 91       		.byte	0x91
 6104 0f45 847F     		.sleb128 -124
 6105 0f47 0F       		.uleb128 0xf
 6106 0f48 2A010000 		.4byte	.LVL156
 6107 0f4c D3250000 		.4byte	0x25d3
 6108 0f50 5F0F0000 		.4byte	0xf5f
ARM GAS  C:\Users\HELLOK~1.1\AppData\Local\Temp\cc5k7xEp.s 			page 129


 6109 0f54 10       		.uleb128 0x10
 6110 0f55 01       		.uleb128 0x1
 6111 0f56 50       		.byte	0x50
 6112 0f57 01       		.uleb128 0x1
 6113 0f58 34       		.byte	0x34
 6114 0f59 10       		.uleb128 0x10
 6115 0f5a 01       		.uleb128 0x1
 6116 0f5b 51       		.byte	0x51
 6117 0f5c 01       		.uleb128 0x1
 6118 0f5d 32       		.byte	0x32
 6119 0f5e 00       		.byte	0
 6120 0f5f 0F       		.uleb128 0xf
 6121 0f60 36010000 		.4byte	.LVL157
 6122 0f64 DE250000 		.4byte	0x25de
 6123 0f68 880F0000 		.4byte	0xf88
 6124 0f6c 10       		.uleb128 0x10
 6125 0f6d 01       		.uleb128 0x1
 6126 0f6e 50       		.byte	0x50
 6127 0f6f 03       		.uleb128 0x3
 6128 0f70 91       		.byte	0x91
 6129 0f71 847F     		.sleb128 -124
 6130 0f73 10       		.uleb128 0x10
 6131 0f74 01       		.uleb128 0x1
 6132 0f75 51       		.byte	0x51
 6133 0f76 01       		.uleb128 0x1
 6134 0f77 33       		.byte	0x33
 6135 0f78 10       		.uleb128 0x10
 6136 0f79 01       		.uleb128 0x1
 6137 0f7a 52       		.byte	0x52
 6138 0f7b 05       		.uleb128 0x5
 6139 0f7c 03       		.byte	0x3
 6140 0f7d 80000000 		.4byte	.LC34
 6141 0f81 10       		.uleb128 0x10
 6142 0f82 01       		.uleb128 0x1
 6143 0f83 53       		.byte	0x53
 6144 0f84 02       		.uleb128 0x2
 6145 0f85 76       		.byte	0x76
 6146 0f86 00       		.sleb128 0
 6147 0f87 00       		.byte	0
 6148 0f88 1B       		.uleb128 0x1b
 6149 0f89 3C010000 		.4byte	.LVL158
 6150 0f8d E9250000 		.4byte	0x25e9
 6151 0f91 10       		.uleb128 0x10
 6152 0f92 01       		.uleb128 0x1
 6153 0f93 50       		.byte	0x50
 6154 0f94 03       		.uleb128 0x3
 6155 0f95 91       		.byte	0x91
 6156 0f96 847F     		.sleb128 -124
 6157 0f98 00       		.byte	0
 6158 0f99 00       		.byte	0
 6159 0f9a 20       		.uleb128 0x20
 6160 0f9b 68010000 		.4byte	.LBB8
 6161 0f9f 44000000 		.4byte	.LBE8-.LBB8
 6162 0fa3 0A100000 		.4byte	0x100a
 6163 0fa7 1A       		.uleb128 0x1a
 6164 0fa8 2F010000 		.4byte	.LASF95
 6165 0fac 01       		.byte	0x1
ARM GAS  C:\Users\HELLOK~1.1\AppData\Local\Temp\cc5k7xEp.s 			page 130


 6166 0fad D201     		.2byte	0x1d2
 6167 0faf A2150000 		.4byte	0x15a2
 6168 0fb3 03       		.uleb128 0x3
 6169 0fb4 91       		.byte	0x91
 6170 0fb5 847F     		.sleb128 -124
 6171 0fb7 0F       		.uleb128 0xf
 6172 0fb8 9A010000 		.4byte	.LVL167
 6173 0fbc D3250000 		.4byte	0x25d3
 6174 0fc0 CF0F0000 		.4byte	0xfcf
 6175 0fc4 10       		.uleb128 0x10
 6176 0fc5 01       		.uleb128 0x1
 6177 0fc6 50       		.byte	0x50
 6178 0fc7 01       		.uleb128 0x1
 6179 0fc8 38       		.byte	0x38
 6180 0fc9 10       		.uleb128 0x10
 6181 0fca 01       		.uleb128 0x1
 6182 0fcb 51       		.byte	0x51
 6183 0fcc 01       		.uleb128 0x1
 6184 0fcd 32       		.byte	0x32
 6185 0fce 00       		.byte	0
 6186 0fcf 0F       		.uleb128 0xf
 6187 0fd0 A6010000 		.4byte	.LVL168
 6188 0fd4 DE250000 		.4byte	0x25de
 6189 0fd8 F80F0000 		.4byte	0xff8
 6190 0fdc 10       		.uleb128 0x10
 6191 0fdd 01       		.uleb128 0x1
 6192 0fde 50       		.byte	0x50
 6193 0fdf 03       		.uleb128 0x3
 6194 0fe0 91       		.byte	0x91
 6195 0fe1 847F     		.sleb128 -124
 6196 0fe3 10       		.uleb128 0x10
 6197 0fe4 01       		.uleb128 0x1
 6198 0fe5 51       		.byte	0x51
 6199 0fe6 01       		.uleb128 0x1
 6200 0fe7 35       		.byte	0x35
 6201 0fe8 10       		.uleb128 0x10
 6202 0fe9 01       		.uleb128 0x1
 6203 0fea 52       		.byte	0x52
 6204 0feb 05       		.uleb128 0x5
 6205 0fec 03       		.byte	0x3
 6206 0fed 94000000 		.4byte	.LC38
 6207 0ff1 10       		.uleb128 0x10
 6208 0ff2 01       		.uleb128 0x1
 6209 0ff3 53       		.byte	0x53
 6210 0ff4 02       		.uleb128 0x2
 6211 0ff5 75       		.byte	0x75
 6212 0ff6 00       		.sleb128 0
 6213 0ff7 00       		.byte	0
 6214 0ff8 1B       		.uleb128 0x1b
 6215 0ff9 AC010000 		.4byte	.LVL169
 6216 0ffd E9250000 		.4byte	0x25e9
 6217 1001 10       		.uleb128 0x10
 6218 1002 01       		.uleb128 0x1
 6219 1003 50       		.byte	0x50
 6220 1004 03       		.uleb128 0x3
 6221 1005 91       		.byte	0x91
 6222 1006 847F     		.sleb128 -124
ARM GAS  C:\Users\HELLOK~1.1\AppData\Local\Temp\cc5k7xEp.s 			page 131


 6223 1008 00       		.byte	0
 6224 1009 00       		.byte	0
 6225 100a 20       		.uleb128 0x20
 6226 100b E0010000 		.4byte	.LBB9
 6227 100f 26000000 		.4byte	.LBE9-.LBB9
 6228 1013 3A100000 		.4byte	0x103a
 6229 1017 1A       		.uleb128 0x1a
 6230 1018 E7020000 		.4byte	.LASF77
 6231 101c 01       		.byte	0x1
 6232 101d E101     		.2byte	0x1e1
 6233 101f B2150000 		.4byte	0x15b2
 6234 1023 03       		.uleb128 0x3
 6235 1024 91       		.byte	0x91
 6236 1025 FC7E     		.sleb128 -132
 6237 1027 11       		.uleb128 0x11
 6238 1028 E4010000 		.4byte	.LVL173
 6239 102c 7B030000 		.4byte	0x37b
 6240 1030 11       		.uleb128 0x11
 6241 1031 F2010000 		.4byte	.LVL174
 6242 1035 7B030000 		.4byte	0x37b
 6243 1039 00       		.byte	0
 6244 103a 20       		.uleb128 0x20
 6245 103b 08020000 		.4byte	.LBB10
 6246 103f 24000000 		.4byte	.LBE10-.LBB10
 6247 1043 6A100000 		.4byte	0x106a
 6248 1047 1A       		.uleb128 0x1a
 6249 1048 E7020000 		.4byte	.LASF77
 6250 104c 01       		.byte	0x1
 6251 104d E501     		.2byte	0x1e5
 6252 104f B2150000 		.4byte	0x15b2
 6253 1053 03       		.uleb128 0x3
 6254 1054 91       		.byte	0x91
 6255 1055 847F     		.sleb128 -124
 6256 1057 11       		.uleb128 0x11
 6257 1058 0C020000 		.4byte	.LVL175
 6258 105c 7B030000 		.4byte	0x37b
 6259 1060 11       		.uleb128 0x11
 6260 1061 18020000 		.4byte	.LVL176
 6261 1065 7B030000 		.4byte	0x37b
 6262 1069 00       		.byte	0
 6263 106a 20       		.uleb128 0x20
 6264 106b 6A020000 		.4byte	.LBB11
 6265 106f 44000000 		.4byte	.LBE11-.LBB11
 6266 1073 DA100000 		.4byte	0x10da
 6267 1077 1A       		.uleb128 0x1a
 6268 1078 47050000 		.4byte	.LASF96
 6269 107c 01       		.byte	0x1
 6270 107d 0202     		.2byte	0x202
 6271 107f 92150000 		.4byte	0x1592
 6272 1083 03       		.uleb128 0x3
 6273 1084 91       		.byte	0x91
 6274 1085 F87E     		.sleb128 -136
 6275 1087 0F       		.uleb128 0xf
 6276 1088 9C020000 		.4byte	.LVL187
 6277 108c D3250000 		.4byte	0x25d3
 6278 1090 9F100000 		.4byte	0x109f
 6279 1094 10       		.uleb128 0x10
ARM GAS  C:\Users\HELLOK~1.1\AppData\Local\Temp\cc5k7xEp.s 			page 132


 6280 1095 01       		.uleb128 0x1
 6281 1096 50       		.byte	0x50
 6282 1097 01       		.uleb128 0x1
 6283 1098 30       		.byte	0x30
 6284 1099 10       		.uleb128 0x10
 6285 109a 01       		.uleb128 0x1
 6286 109b 51       		.byte	0x51
 6287 109c 01       		.uleb128 0x1
 6288 109d 32       		.byte	0x32
 6289 109e 00       		.byte	0
 6290 109f 0F       		.uleb128 0xf
 6291 10a0 A8020000 		.4byte	.LVL188
 6292 10a4 DE250000 		.4byte	0x25de
 6293 10a8 C8100000 		.4byte	0x10c8
 6294 10ac 10       		.uleb128 0x10
 6295 10ad 01       		.uleb128 0x1
 6296 10ae 50       		.byte	0x50
 6297 10af 03       		.uleb128 0x3
 6298 10b0 91       		.byte	0x91
 6299 10b1 F87E     		.sleb128 -136
 6300 10b3 10       		.uleb128 0x10
 6301 10b4 01       		.uleb128 0x1
 6302 10b5 51       		.byte	0x51
 6303 10b6 01       		.uleb128 0x1
 6304 10b7 33       		.byte	0x33
 6305 10b8 10       		.uleb128 0x10
 6306 10b9 01       		.uleb128 0x1
 6307 10ba 52       		.byte	0x52
 6308 10bb 05       		.uleb128 0x5
 6309 10bc 03       		.byte	0x3
 6310 10bd 80000000 		.4byte	.LC34
 6311 10c1 10       		.uleb128 0x10
 6312 10c2 01       		.uleb128 0x1
 6313 10c3 53       		.byte	0x53
 6314 10c4 02       		.uleb128 0x2
 6315 10c5 75       		.byte	0x75
 6316 10c6 00       		.sleb128 0
 6317 10c7 00       		.byte	0
 6318 10c8 1B       		.uleb128 0x1b
 6319 10c9 AE020000 		.4byte	.LVL189
 6320 10cd E9250000 		.4byte	0x25e9
 6321 10d1 10       		.uleb128 0x10
 6322 10d2 01       		.uleb128 0x1
 6323 10d3 50       		.byte	0x50
 6324 10d4 03       		.uleb128 0x3
 6325 10d5 91       		.byte	0x91
 6326 10d6 F87E     		.sleb128 -136
 6327 10d8 00       		.byte	0
 6328 10d9 00       		.byte	0
 6329 10da 20       		.uleb128 0x20
 6330 10db DA020000 		.4byte	.LBB12
 6331 10df 44000000 		.4byte	.LBE12-.LBB12
 6332 10e3 4A110000 		.4byte	0x114a
 6333 10e7 1A       		.uleb128 0x1a
 6334 10e8 D3050000 		.4byte	.LASF97
 6335 10ec 01       		.byte	0x1
 6336 10ed 2202     		.2byte	0x222
ARM GAS  C:\Users\HELLOK~1.1\AppData\Local\Temp\cc5k7xEp.s 			page 133


 6337 10ef 92150000 		.4byte	0x1592
 6338 10f3 03       		.uleb128 0x3
 6339 10f4 91       		.byte	0x91
 6340 10f5 F87E     		.sleb128 -136
 6341 10f7 0F       		.uleb128 0xf
 6342 10f8 0C030000 		.4byte	.LVL198
 6343 10fc D3250000 		.4byte	0x25d3
 6344 1100 0F110000 		.4byte	0x110f
 6345 1104 10       		.uleb128 0x10
 6346 1105 01       		.uleb128 0x1
 6347 1106 50       		.byte	0x50
 6348 1107 01       		.uleb128 0x1
 6349 1108 33       		.byte	0x33
 6350 1109 10       		.uleb128 0x10
 6351 110a 01       		.uleb128 0x1
 6352 110b 51       		.byte	0x51
 6353 110c 01       		.uleb128 0x1
 6354 110d 32       		.byte	0x32
 6355 110e 00       		.byte	0
 6356 110f 0F       		.uleb128 0xf
 6357 1110 18030000 		.4byte	.LVL199
 6358 1114 DE250000 		.4byte	0x25de
 6359 1118 38110000 		.4byte	0x1138
 6360 111c 10       		.uleb128 0x10
 6361 111d 01       		.uleb128 0x1
 6362 111e 50       		.byte	0x50
 6363 111f 03       		.uleb128 0x3
 6364 1120 91       		.byte	0x91
 6365 1121 F87E     		.sleb128 -136
 6366 1123 10       		.uleb128 0x10
 6367 1124 01       		.uleb128 0x1
 6368 1125 51       		.byte	0x51
 6369 1126 01       		.uleb128 0x1
 6370 1127 35       		.byte	0x35
 6371 1128 10       		.uleb128 0x10
 6372 1129 01       		.uleb128 0x1
 6373 112a 52       		.byte	0x52
 6374 112b 05       		.uleb128 0x5
 6375 112c 03       		.byte	0x3
 6376 112d 80000000 		.4byte	.LC34
 6377 1131 10       		.uleb128 0x10
 6378 1132 01       		.uleb128 0x1
 6379 1133 53       		.byte	0x53
 6380 1134 02       		.uleb128 0x2
 6381 1135 76       		.byte	0x76
 6382 1136 00       		.sleb128 0
 6383 1137 00       		.byte	0
 6384 1138 1B       		.uleb128 0x1b
 6385 1139 1E030000 		.4byte	.LVL200
 6386 113d E9250000 		.4byte	0x25e9
 6387 1141 10       		.uleb128 0x10
 6388 1142 01       		.uleb128 0x1
 6389 1143 50       		.byte	0x50
 6390 1144 03       		.uleb128 0x3
 6391 1145 91       		.byte	0x91
 6392 1146 F87E     		.sleb128 -136
 6393 1148 00       		.byte	0
ARM GAS  C:\Users\HELLOK~1.1\AppData\Local\Temp\cc5k7xEp.s 			page 134


 6394 1149 00       		.byte	0
 6395 114a 11       		.uleb128 0x11
 6396 114b 0C000000 		.4byte	.LVL127
 6397 114f 6A260000 		.4byte	0x266a
 6398 1153 0F       		.uleb128 0xf
 6399 1154 14000000 		.4byte	.LVL128
 6400 1158 D3250000 		.4byte	0x25d3
 6401 115c 6B110000 		.4byte	0x116b
 6402 1160 10       		.uleb128 0x10
 6403 1161 01       		.uleb128 0x1
 6404 1162 50       		.byte	0x50
 6405 1163 01       		.uleb128 0x1
 6406 1164 30       		.byte	0x30
 6407 1165 10       		.uleb128 0x10
 6408 1166 01       		.uleb128 0x1
 6409 1167 51       		.byte	0x51
 6410 1168 01       		.uleb128 0x1
 6411 1169 30       		.byte	0x30
 6412 116a 00       		.byte	0
 6413 116b 0F       		.uleb128 0xf
 6414 116c 1A000000 		.4byte	.LVL129
 6415 1170 E9250000 		.4byte	0x25e9
 6416 1174 82110000 		.4byte	0x1182
 6417 1178 10       		.uleb128 0x10
 6418 1179 01       		.uleb128 0x1
 6419 117a 50       		.byte	0x50
 6420 117b 05       		.uleb128 0x5
 6421 117c 03       		.byte	0x3
 6422 117d 5C000000 		.4byte	.LC26
 6423 1181 00       		.byte	0
 6424 1182 0F       		.uleb128 0xf
 6425 1183 2A000000 		.4byte	.LVL130
 6426 1187 62050000 		.4byte	0x562
 6427 118b A1110000 		.4byte	0x11a1
 6428 118f 10       		.uleb128 0x10
 6429 1190 01       		.uleb128 0x1
 6430 1191 50       		.byte	0x50
 6431 1192 02       		.uleb128 0x2
 6432 1193 77       		.byte	0x77
 6433 1194 00       		.sleb128 0
 6434 1195 10       		.uleb128 0x10
 6435 1196 01       		.uleb128 0x1
 6436 1197 51       		.byte	0x51
 6437 1198 01       		.uleb128 0x1
 6438 1199 31       		.byte	0x31
 6439 119a 10       		.uleb128 0x10
 6440 119b 01       		.uleb128 0x1
 6441 119c 52       		.byte	0x52
 6442 119d 02       		.uleb128 0x2
 6443 119e 08       		.byte	0x8
 6444 119f 51       		.byte	0x51
 6445 11a0 00       		.byte	0
 6446 11a1 0F       		.uleb128 0xf
 6447 11a2 38000000 		.4byte	.LVL131
 6448 11a6 62050000 		.4byte	0x562
 6449 11aa C0110000 		.4byte	0x11c0
 6450 11ae 10       		.uleb128 0x10
ARM GAS  C:\Users\HELLOK~1.1\AppData\Local\Temp\cc5k7xEp.s 			page 135


 6451 11af 01       		.uleb128 0x1
 6452 11b0 50       		.byte	0x50
 6453 11b1 02       		.uleb128 0x2
 6454 11b2 74       		.byte	0x74
 6455 11b3 00       		.sleb128 0
 6456 11b4 10       		.uleb128 0x10
 6457 11b5 01       		.uleb128 0x1
 6458 11b6 51       		.byte	0x51
 6459 11b7 01       		.uleb128 0x1
 6460 11b8 31       		.byte	0x31
 6461 11b9 10       		.uleb128 0x10
 6462 11ba 01       		.uleb128 0x1
 6463 11bb 52       		.byte	0x52
 6464 11bc 02       		.uleb128 0x2
 6465 11bd 08       		.byte	0x8
 6466 11be 51       		.byte	0x51
 6467 11bf 00       		.byte	0
 6468 11c0 0F       		.uleb128 0xf
 6469 11c1 46000000 		.4byte	.LVL132
 6470 11c5 62050000 		.4byte	0x562
 6471 11c9 DF110000 		.4byte	0x11df
 6472 11cd 10       		.uleb128 0x10
 6473 11ce 01       		.uleb128 0x1
 6474 11cf 50       		.byte	0x50
 6475 11d0 02       		.uleb128 0x2
 6476 11d1 76       		.byte	0x76
 6477 11d2 00       		.sleb128 0
 6478 11d3 10       		.uleb128 0x10
 6479 11d4 01       		.uleb128 0x1
 6480 11d5 51       		.byte	0x51
 6481 11d6 01       		.uleb128 0x1
 6482 11d7 31       		.byte	0x31
 6483 11d8 10       		.uleb128 0x10
 6484 11d9 01       		.uleb128 0x1
 6485 11da 52       		.byte	0x52
 6486 11db 02       		.uleb128 0x2
 6487 11dc 08       		.byte	0x8
 6488 11dd 51       		.byte	0x51
 6489 11de 00       		.byte	0
 6490 11df 11       		.uleb128 0x11
 6491 11e0 4C000000 		.4byte	.LVL133
 6492 11e4 7B030000 		.4byte	0x37b
 6493 11e8 11       		.uleb128 0x11
 6494 11e9 54000000 		.4byte	.LVL134
 6495 11ed 7B030000 		.4byte	0x37b
 6496 11f1 11       		.uleb128 0x11
 6497 11f2 64000000 		.4byte	.LVL135
 6498 11f6 7B030000 		.4byte	0x37b
 6499 11fa 0F       		.uleb128 0xf
 6500 11fb 6E000000 		.4byte	.LVL137
 6501 11ff D3250000 		.4byte	0x25d3
 6502 1203 12120000 		.4byte	0x1212
 6503 1207 10       		.uleb128 0x10
 6504 1208 01       		.uleb128 0x1
 6505 1209 50       		.byte	0x50
 6506 120a 01       		.uleb128 0x1
 6507 120b 30       		.byte	0x30
ARM GAS  C:\Users\HELLOK~1.1\AppData\Local\Temp\cc5k7xEp.s 			page 136


 6508 120c 10       		.uleb128 0x10
 6509 120d 01       		.uleb128 0x1
 6510 120e 51       		.byte	0x51
 6511 120f 01       		.uleb128 0x1
 6512 1210 32       		.byte	0x32
 6513 1211 00       		.byte	0
 6514 1212 0F       		.uleb128 0xf
 6515 1213 80000000 		.4byte	.LVL138
 6516 1217 DE250000 		.4byte	0x25de
 6517 121b 48120000 		.4byte	0x1248
 6518 121f 10       		.uleb128 0x10
 6519 1220 01       		.uleb128 0x1
 6520 1221 50       		.byte	0x50
 6521 1222 02       		.uleb128 0x2
 6522 1223 91       		.byte	0x91
 6523 1224 40       		.sleb128 -64
 6524 1225 10       		.uleb128 0x10
 6525 1226 01       		.uleb128 0x1
 6526 1227 51       		.byte	0x51
 6527 1228 01       		.uleb128 0x1
 6528 1229 45       		.byte	0x45
 6529 122a 10       		.uleb128 0x10
 6530 122b 01       		.uleb128 0x1
 6531 122c 52       		.byte	0x52
 6532 122d 05       		.uleb128 0x5
 6533 122e 03       		.byte	0x3
 6534 122f 68000000 		.4byte	.LC29
 6535 1233 10       		.uleb128 0x10
 6536 1234 01       		.uleb128 0x1
 6537 1235 53       		.byte	0x53
 6538 1236 02       		.uleb128 0x2
 6539 1237 79       		.byte	0x79
 6540 1238 00       		.sleb128 0
 6541 1239 10       		.uleb128 0x10
 6542 123a 02       		.uleb128 0x2
 6543 123b 7D       		.byte	0x7d
 6544 123c 00       		.sleb128 0
 6545 123d 02       		.uleb128 0x2
 6546 123e 76       		.byte	0x76
 6547 123f 00       		.sleb128 0
 6548 1240 10       		.uleb128 0x10
 6549 1241 02       		.uleb128 0x2
 6550 1242 7D       		.byte	0x7d
 6551 1243 04       		.sleb128 4
 6552 1244 02       		.uleb128 0x2
 6553 1245 75       		.byte	0x75
 6554 1246 00       		.sleb128 0
 6555 1247 00       		.byte	0
 6556 1248 0F       		.uleb128 0xf
 6557 1249 86000000 		.4byte	.LVL139
 6558 124d E9250000 		.4byte	0x25e9
 6559 1251 5C120000 		.4byte	0x125c
 6560 1255 10       		.uleb128 0x10
 6561 1256 01       		.uleb128 0x1
 6562 1257 50       		.byte	0x50
 6563 1258 02       		.uleb128 0x2
 6564 1259 91       		.byte	0x91
ARM GAS  C:\Users\HELLOK~1.1\AppData\Local\Temp\cc5k7xEp.s 			page 137


 6565 125a 40       		.sleb128 -64
 6566 125b 00       		.byte	0
 6567 125c 0F       		.uleb128 0xf
 6568 125d C2000000 		.4byte	.LVL145
 6569 1261 D3250000 		.4byte	0x25d3
 6570 1265 74120000 		.4byte	0x1274
 6571 1269 10       		.uleb128 0x10
 6572 126a 01       		.uleb128 0x1
 6573 126b 50       		.byte	0x50
 6574 126c 01       		.uleb128 0x1
 6575 126d 30       		.byte	0x30
 6576 126e 10       		.uleb128 0x10
 6577 126f 01       		.uleb128 0x1
 6578 1270 51       		.byte	0x51
 6579 1271 01       		.uleb128 0x1
 6580 1272 32       		.byte	0x32
 6581 1273 00       		.byte	0
 6582 1274 11       		.uleb128 0x11
 6583 1275 D0000000 		.4byte	.LVL146
 6584 1279 E9250000 		.4byte	0x25e9
 6585 127d 0F       		.uleb128 0xf
 6586 127e E8000000 		.4byte	.LVL148
 6587 1282 D3250000 		.4byte	0x25d3
 6588 1286 95120000 		.4byte	0x1295
 6589 128a 10       		.uleb128 0x10
 6590 128b 01       		.uleb128 0x1
 6591 128c 50       		.byte	0x50
 6592 128d 01       		.uleb128 0x1
 6593 128e 30       		.byte	0x30
 6594 128f 10       		.uleb128 0x10
 6595 1290 01       		.uleb128 0x1
 6596 1291 51       		.byte	0x51
 6597 1292 01       		.uleb128 0x1
 6598 1293 30       		.byte	0x30
 6599 1294 00       		.byte	0
 6600 1295 0F       		.uleb128 0xf
 6601 1296 EE000000 		.4byte	.LVL149
 6602 129a E9250000 		.4byte	0x25e9
 6603 129e AC120000 		.4byte	0x12ac
 6604 12a2 10       		.uleb128 0x10
 6605 12a3 01       		.uleb128 0x1
 6606 12a4 50       		.byte	0x50
 6607 12a5 05       		.uleb128 0x5
 6608 12a6 03       		.byte	0x3
 6609 12a7 74000000 		.4byte	.LC32
 6610 12ab 00       		.byte	0
 6611 12ac 0F       		.uleb128 0xf
 6612 12ad 58010000 		.4byte	.LVL159
 6613 12b1 D3250000 		.4byte	0x25d3
 6614 12b5 C4120000 		.4byte	0x12c4
 6615 12b9 10       		.uleb128 0x10
 6616 12ba 01       		.uleb128 0x1
 6617 12bb 50       		.byte	0x50
 6618 12bc 01       		.uleb128 0x1
 6619 12bd 30       		.byte	0x30
 6620 12be 10       		.uleb128 0x10
 6621 12bf 01       		.uleb128 0x1
ARM GAS  C:\Users\HELLOK~1.1\AppData\Local\Temp\cc5k7xEp.s 			page 138


 6622 12c0 51       		.byte	0x51
 6623 12c1 01       		.uleb128 0x1
 6624 12c2 30       		.byte	0x30
 6625 12c3 00       		.byte	0
 6626 12c4 0F       		.uleb128 0xf
 6627 12c5 5E010000 		.4byte	.LVL160
 6628 12c9 E9250000 		.4byte	0x25e9
 6629 12cd DB120000 		.4byte	0x12db
 6630 12d1 10       		.uleb128 0x10
 6631 12d2 01       		.uleb128 0x1
 6632 12d3 50       		.byte	0x50
 6633 12d4 05       		.uleb128 0x5
 6634 12d5 03       		.byte	0x3
 6635 12d6 88000000 		.4byte	.LC36
 6636 12da 00       		.byte	0
 6637 12db 0F       		.uleb128 0xf
 6638 12dc CC010000 		.4byte	.LVL171
 6639 12e0 62050000 		.4byte	0x562
 6640 12e4 FB120000 		.4byte	0x12fb
 6641 12e8 10       		.uleb128 0x10
 6642 12e9 01       		.uleb128 0x1
 6643 12ea 50       		.byte	0x50
 6644 12eb 03       		.uleb128 0x3
 6645 12ec 91       		.byte	0x91
 6646 12ed A47F     		.sleb128 -92
 6647 12ef 10       		.uleb128 0x10
 6648 12f0 01       		.uleb128 0x1
 6649 12f1 51       		.byte	0x51
 6650 12f2 01       		.uleb128 0x1
 6651 12f3 31       		.byte	0x31
 6652 12f4 10       		.uleb128 0x10
 6653 12f5 01       		.uleb128 0x1
 6654 12f6 52       		.byte	0x52
 6655 12f7 02       		.uleb128 0x2
 6656 12f8 08       		.byte	0x8
 6657 12f9 51       		.byte	0x51
 6658 12fa 00       		.byte	0
 6659 12fb 0F       		.uleb128 0xf
 6660 12fc DA010000 		.4byte	.LVL172
 6661 1300 62050000 		.4byte	0x562
 6662 1304 1A130000 		.4byte	0x131a
 6663 1308 10       		.uleb128 0x10
 6664 1309 01       		.uleb128 0x1
 6665 130a 50       		.byte	0x50
 6666 130b 02       		.uleb128 0x2
 6667 130c 75       		.byte	0x75
 6668 130d 00       		.sleb128 0
 6669 130e 10       		.uleb128 0x10
 6670 130f 01       		.uleb128 0x1
 6671 1310 51       		.byte	0x51
 6672 1311 01       		.uleb128 0x1
 6673 1312 31       		.byte	0x31
 6674 1313 10       		.uleb128 0x10
 6675 1314 01       		.uleb128 0x1
 6676 1315 52       		.byte	0x52
 6677 1316 02       		.uleb128 0x2
 6678 1317 08       		.byte	0x8
ARM GAS  C:\Users\HELLOK~1.1\AppData\Local\Temp\cc5k7xEp.s 			page 139


 6679 1318 51       		.byte	0x51
 6680 1319 00       		.byte	0
 6681 131a 0F       		.uleb128 0xf
 6682 131b 34020000 		.4byte	.LVL177
 6683 131f D3250000 		.4byte	0x25d3
 6684 1323 32130000 		.4byte	0x1332
 6685 1327 10       		.uleb128 0x10
 6686 1328 01       		.uleb128 0x1
 6687 1329 50       		.byte	0x50
 6688 132a 01       		.uleb128 0x1
 6689 132b 30       		.byte	0x30
 6690 132c 10       		.uleb128 0x10
 6691 132d 01       		.uleb128 0x1
 6692 132e 51       		.byte	0x51
 6693 132f 01       		.uleb128 0x1
 6694 1330 30       		.byte	0x30
 6695 1331 00       		.byte	0
 6696 1332 0F       		.uleb128 0xf
 6697 1333 3A020000 		.4byte	.LVL178
 6698 1337 E9250000 		.4byte	0x25e9
 6699 133b 49130000 		.4byte	0x1349
 6700 133f 10       		.uleb128 0x10
 6701 1340 01       		.uleb128 0x1
 6702 1341 50       		.byte	0x50
 6703 1342 05       		.uleb128 0x5
 6704 1343 03       		.byte	0x3
 6705 1344 A4000000 		.4byte	.LC42
 6706 1348 00       		.byte	0
 6707 1349 0F       		.uleb128 0xf
 6708 134a 42020000 		.4byte	.LVL179
 6709 134e D3250000 		.4byte	0x25d3
 6710 1352 61130000 		.4byte	0x1361
 6711 1356 10       		.uleb128 0x10
 6712 1357 01       		.uleb128 0x1
 6713 1358 50       		.byte	0x50
 6714 1359 01       		.uleb128 0x1
 6715 135a 30       		.byte	0x30
 6716 135b 10       		.uleb128 0x10
 6717 135c 01       		.uleb128 0x1
 6718 135d 51       		.byte	0x51
 6719 135e 01       		.uleb128 0x1
 6720 135f 32       		.byte	0x32
 6721 1360 00       		.byte	0
 6722 1361 0F       		.uleb128 0xf
 6723 1362 5A020000 		.4byte	.LVL180
 6724 1366 DE250000 		.4byte	0x25de
 6725 136a 99130000 		.4byte	0x1399
 6726 136e 10       		.uleb128 0x10
 6727 136f 01       		.uleb128 0x1
 6728 1370 50       		.byte	0x50
 6729 1371 02       		.uleb128 0x2
 6730 1372 91       		.byte	0x91
 6731 1373 40       		.sleb128 -64
 6732 1374 10       		.uleb128 0x10
 6733 1375 01       		.uleb128 0x1
 6734 1376 51       		.byte	0x51
 6735 1377 01       		.uleb128 0x1
ARM GAS  C:\Users\HELLOK~1.1\AppData\Local\Temp\cc5k7xEp.s 			page 140


 6736 1378 45       		.byte	0x45
 6737 1379 10       		.uleb128 0x10
 6738 137a 01       		.uleb128 0x1
 6739 137b 52       		.byte	0x52
 6740 137c 05       		.uleb128 0x5
 6741 137d 03       		.byte	0x3
 6742 137e B0000000 		.4byte	.LC44
 6743 1382 10       		.uleb128 0x10
 6744 1383 01       		.uleb128 0x1
 6745 1384 53       		.byte	0x53
 6746 1385 02       		.uleb128 0x2
 6747 1386 75       		.byte	0x75
 6748 1387 00       		.sleb128 0
 6749 1388 10       		.uleb128 0x10
 6750 1389 02       		.uleb128 0x2
 6751 138a 7D       		.byte	0x7d
 6752 138b 00       		.sleb128 0
 6753 138c 02       		.uleb128 0x2
 6754 138d 76       		.byte	0x76
 6755 138e 00       		.sleb128 0
 6756 138f 10       		.uleb128 0x10
 6757 1390 02       		.uleb128 0x2
 6758 1391 7D       		.byte	0x7d
 6759 1392 04       		.sleb128 4
 6760 1393 04       		.uleb128 0x4
 6761 1394 91       		.byte	0x91
 6762 1395 9C7F     		.sleb128 -100
 6763 1397 06       		.byte	0x6
 6764 1398 00       		.byte	0
 6765 1399 0F       		.uleb128 0xf
 6766 139a 60020000 		.4byte	.LVL181
 6767 139e E9250000 		.4byte	0x25e9
 6768 13a2 AD130000 		.4byte	0x13ad
 6769 13a6 10       		.uleb128 0x10
 6770 13a7 01       		.uleb128 0x1
 6771 13a8 50       		.byte	0x50
 6772 13a9 02       		.uleb128 0x2
 6773 13aa 91       		.byte	0x91
 6774 13ab 40       		.sleb128 -64
 6775 13ac 00       		.byte	0
 6776 13ad 0F       		.uleb128 0xf
 6777 13ae CA020000 		.4byte	.LVL191
 6778 13b2 D3250000 		.4byte	0x25d3
 6779 13b6 C5130000 		.4byte	0x13c5
 6780 13ba 10       		.uleb128 0x10
 6781 13bb 01       		.uleb128 0x1
 6782 13bc 50       		.byte	0x50
 6783 13bd 01       		.uleb128 0x1
 6784 13be 30       		.byte	0x30
 6785 13bf 10       		.uleb128 0x10
 6786 13c0 01       		.uleb128 0x1
 6787 13c1 51       		.byte	0x51
 6788 13c2 01       		.uleb128 0x1
 6789 13c3 30       		.byte	0x30
 6790 13c4 00       		.byte	0
 6791 13c5 0F       		.uleb128 0xf
 6792 13c6 D0020000 		.4byte	.LVL192
ARM GAS  C:\Users\HELLOK~1.1\AppData\Local\Temp\cc5k7xEp.s 			page 141


 6793 13ca E9250000 		.4byte	0x25e9
 6794 13ce DC130000 		.4byte	0x13dc
 6795 13d2 10       		.uleb128 0x10
 6796 13d3 01       		.uleb128 0x1
 6797 13d4 50       		.byte	0x50
 6798 13d5 05       		.uleb128 0x5
 6799 13d6 03       		.byte	0x3
 6800 13d7 C4000000 		.4byte	.LC46
 6801 13db 00       		.byte	0
 6802 13dc 0F       		.uleb128 0xf
 6803 13dd 36030000 		.4byte	.LVL202
 6804 13e1 D3250000 		.4byte	0x25d3
 6805 13e5 F4130000 		.4byte	0x13f4
 6806 13e9 10       		.uleb128 0x10
 6807 13ea 01       		.uleb128 0x1
 6808 13eb 50       		.byte	0x50
 6809 13ec 01       		.uleb128 0x1
 6810 13ed 30       		.byte	0x30
 6811 13ee 10       		.uleb128 0x10
 6812 13ef 01       		.uleb128 0x1
 6813 13f0 51       		.byte	0x51
 6814 13f1 01       		.uleb128 0x1
 6815 13f2 30       		.byte	0x30
 6816 13f3 00       		.byte	0
 6817 13f4 0F       		.uleb128 0xf
 6818 13f5 3C030000 		.4byte	.LVL203
 6819 13f9 E9250000 		.4byte	0x25e9
 6820 13fd 0B140000 		.4byte	0x140b
 6821 1401 10       		.uleb128 0x10
 6822 1402 01       		.uleb128 0x1
 6823 1403 50       		.byte	0x50
 6824 1404 05       		.uleb128 0x5
 6825 1405 03       		.byte	0x3
 6826 1406 D0000000 		.4byte	.LC48
 6827 140a 00       		.byte	0
 6828 140b 0F       		.uleb128 0xf
 6829 140c 9A030000 		.4byte	.LVL208
 6830 1410 D3250000 		.4byte	0x25d3
 6831 1414 23140000 		.4byte	0x1423
 6832 1418 10       		.uleb128 0x10
 6833 1419 01       		.uleb128 0x1
 6834 141a 50       		.byte	0x50
 6835 141b 01       		.uleb128 0x1
 6836 141c 35       		.byte	0x35
 6837 141d 10       		.uleb128 0x10
 6838 141e 01       		.uleb128 0x1
 6839 141f 51       		.byte	0x51
 6840 1420 01       		.uleb128 0x1
 6841 1421 32       		.byte	0x32
 6842 1422 00       		.byte	0
 6843 1423 0F       		.uleb128 0xf
 6844 1424 A4030000 		.4byte	.LVL209
 6845 1428 E9250000 		.4byte	0x25e9
 6846 142c 3A140000 		.4byte	0x143a
 6847 1430 10       		.uleb128 0x10
 6848 1431 01       		.uleb128 0x1
 6849 1432 50       		.byte	0x50
ARM GAS  C:\Users\HELLOK~1.1\AppData\Local\Temp\cc5k7xEp.s 			page 142


 6850 1433 05       		.uleb128 0x5
 6851 1434 03       		.byte	0x3
 6852 1435 A0000000 		.4byte	.LC0
 6853 1439 00       		.byte	0
 6854 143a 0F       		.uleb128 0xf
 6855 143b AC030000 		.4byte	.LVL210
 6856 143f E9250000 		.4byte	0x25e9
 6857 1443 51140000 		.4byte	0x1451
 6858 1447 10       		.uleb128 0x10
 6859 1448 01       		.uleb128 0x1
 6860 1449 50       		.byte	0x50
 6861 144a 05       		.uleb128 0x5
 6862 144b 03       		.byte	0x3
 6863 144c 9C000000 		.4byte	.LC4
 6864 1450 00       		.byte	0
 6865 1451 0F       		.uleb128 0xf
 6866 1452 D8030000 		.4byte	.LVL212
 6867 1456 3F060000 		.4byte	0x63f
 6868 145a 70140000 		.4byte	0x1470
 6869 145e 10       		.uleb128 0x10
 6870 145f 01       		.uleb128 0x1
 6871 1460 50       		.byte	0x50
 6872 1461 02       		.uleb128 0x2
 6873 1462 75       		.byte	0x75
 6874 1463 00       		.sleb128 0
 6875 1464 10       		.uleb128 0x10
 6876 1465 01       		.uleb128 0x1
 6877 1466 51       		.byte	0x51
 6878 1467 01       		.uleb128 0x1
 6879 1468 32       		.byte	0x32
 6880 1469 10       		.uleb128 0x10
 6881 146a 01       		.uleb128 0x1
 6882 146b 52       		.byte	0x52
 6883 146c 02       		.uleb128 0x2
 6884 146d 08       		.byte	0x8
 6885 146e 51       		.byte	0x51
 6886 146f 00       		.byte	0
 6887 1470 0F       		.uleb128 0xf
 6888 1471 DE030000 		.4byte	.LVL213
 6889 1475 A4030000 		.4byte	0x3a4
 6890 1479 84140000 		.4byte	0x1484
 6891 147d 10       		.uleb128 0x10
 6892 147e 01       		.uleb128 0x1
 6893 147f 50       		.byte	0x50
 6894 1480 02       		.uleb128 0x2
 6895 1481 76       		.byte	0x76
 6896 1482 00       		.sleb128 0
 6897 1483 00       		.byte	0
 6898 1484 0F       		.uleb128 0xf
 6899 1485 EC030000 		.4byte	.LVL214
 6900 1489 3F060000 		.4byte	0x63f
 6901 148d A3140000 		.4byte	0x14a3
 6902 1491 10       		.uleb128 0x10
 6903 1492 01       		.uleb128 0x1
 6904 1493 50       		.byte	0x50
 6905 1494 02       		.uleb128 0x2
 6906 1495 75       		.byte	0x75
ARM GAS  C:\Users\HELLOK~1.1\AppData\Local\Temp\cc5k7xEp.s 			page 143


 6907 1496 00       		.sleb128 0
 6908 1497 10       		.uleb128 0x10
 6909 1498 01       		.uleb128 0x1
 6910 1499 51       		.byte	0x51
 6911 149a 01       		.uleb128 0x1
 6912 149b 32       		.byte	0x32
 6913 149c 10       		.uleb128 0x10
 6914 149d 01       		.uleb128 0x1
 6915 149e 52       		.byte	0x52
 6916 149f 02       		.uleb128 0x2
 6917 14a0 08       		.byte	0x8
 6918 14a1 51       		.byte	0x51
 6919 14a2 00       		.byte	0
 6920 14a3 0F       		.uleb128 0xf
 6921 14a4 F4030000 		.4byte	.LVL215
 6922 14a8 A4030000 		.4byte	0x3a4
 6923 14ac BA140000 		.4byte	0x14ba
 6924 14b0 10       		.uleb128 0x10
 6925 14b1 01       		.uleb128 0x1
 6926 14b2 50       		.byte	0x50
 6927 14b3 05       		.uleb128 0x5
 6928 14b4 91       		.byte	0x91
 6929 14b5 907F     		.sleb128 -112
 6930 14b7 94       		.byte	0x94
 6931 14b8 01       		.byte	0x1
 6932 14b9 00       		.byte	0
 6933 14ba 0F       		.uleb128 0xf
 6934 14bb 02040000 		.4byte	.LVL216
 6935 14bf 3F060000 		.4byte	0x63f
 6936 14c3 D9140000 		.4byte	0x14d9
 6937 14c7 10       		.uleb128 0x10
 6938 14c8 01       		.uleb128 0x1
 6939 14c9 50       		.byte	0x50
 6940 14ca 02       		.uleb128 0x2
 6941 14cb 75       		.byte	0x75
 6942 14cc 00       		.sleb128 0
 6943 14cd 10       		.uleb128 0x10
 6944 14ce 01       		.uleb128 0x1
 6945 14cf 51       		.byte	0x51
 6946 14d0 01       		.uleb128 0x1
 6947 14d1 32       		.byte	0x32
 6948 14d2 10       		.uleb128 0x10
 6949 14d3 01       		.uleb128 0x1
 6950 14d4 52       		.byte	0x52
 6951 14d5 02       		.uleb128 0x2
 6952 14d6 08       		.byte	0x8
 6953 14d7 51       		.byte	0x51
 6954 14d8 00       		.byte	0
 6955 14d9 0F       		.uleb128 0xf
 6956 14da 0A040000 		.4byte	.LVL217
 6957 14de A4030000 		.4byte	0x3a4
 6958 14e2 EF140000 		.4byte	0x14ef
 6959 14e6 10       		.uleb128 0x10
 6960 14e7 01       		.uleb128 0x1
 6961 14e8 50       		.byte	0x50
 6962 14e9 04       		.uleb128 0x4
 6963 14ea 76       		.byte	0x76
ARM GAS  C:\Users\HELLOK~1.1\AppData\Local\Temp\cc5k7xEp.s 			page 144


 6964 14eb 00       		.sleb128 0
 6965 14ec 94       		.byte	0x94
 6966 14ed 01       		.byte	0x1
 6967 14ee 00       		.byte	0
 6968 14ef 0F       		.uleb128 0xf
 6969 14f0 18040000 		.4byte	.LVL218
 6970 14f4 3F060000 		.4byte	0x63f
 6971 14f8 0E150000 		.4byte	0x150e
 6972 14fc 10       		.uleb128 0x10
 6973 14fd 01       		.uleb128 0x1
 6974 14fe 50       		.byte	0x50
 6975 14ff 02       		.uleb128 0x2
 6976 1500 75       		.byte	0x75
 6977 1501 00       		.sleb128 0
 6978 1502 10       		.uleb128 0x10
 6979 1503 01       		.uleb128 0x1
 6980 1504 51       		.byte	0x51
 6981 1505 01       		.uleb128 0x1
 6982 1506 32       		.byte	0x32
 6983 1507 10       		.uleb128 0x10
 6984 1508 01       		.uleb128 0x1
 6985 1509 52       		.byte	0x52
 6986 150a 02       		.uleb128 0x2
 6987 150b 08       		.byte	0x8
 6988 150c 51       		.byte	0x51
 6989 150d 00       		.byte	0
 6990 150e 0F       		.uleb128 0xf
 6991 150f 28040000 		.4byte	.LVL219
 6992 1513 3F060000 		.4byte	0x63f
 6993 1517 2D150000 		.4byte	0x152d
 6994 151b 10       		.uleb128 0x10
 6995 151c 01       		.uleb128 0x1
 6996 151d 50       		.byte	0x50
 6997 151e 02       		.uleb128 0x2
 6998 151f 75       		.byte	0x75
 6999 1520 00       		.sleb128 0
 7000 1521 10       		.uleb128 0x10
 7001 1522 01       		.uleb128 0x1
 7002 1523 51       		.byte	0x51
 7003 1524 01       		.uleb128 0x1
 7004 1525 32       		.byte	0x32
 7005 1526 10       		.uleb128 0x10
 7006 1527 01       		.uleb128 0x1
 7007 1528 52       		.byte	0x52
 7008 1529 02       		.uleb128 0x2
 7009 152a 08       		.byte	0x8
 7010 152b 51       		.byte	0x51
 7011 152c 00       		.byte	0
 7012 152d 0F       		.uleb128 0xf
 7013 152e 2E040000 		.4byte	.LVL220
 7014 1532 A4030000 		.4byte	0x3a4
 7015 1536 41150000 		.4byte	0x1541
 7016 153a 10       		.uleb128 0x10
 7017 153b 01       		.uleb128 0x1
 7018 153c 50       		.byte	0x50
 7019 153d 02       		.uleb128 0x2
 7020 153e 74       		.byte	0x74
ARM GAS  C:\Users\HELLOK~1.1\AppData\Local\Temp\cc5k7xEp.s 			page 145


 7021 153f 00       		.sleb128 0
 7022 1540 00       		.byte	0
 7023 1541 0F       		.uleb128 0xf
 7024 1542 3C040000 		.4byte	.LVL221
 7025 1546 3F060000 		.4byte	0x63f
 7026 154a 60150000 		.4byte	0x1560
 7027 154e 10       		.uleb128 0x10
 7028 154f 01       		.uleb128 0x1
 7029 1550 50       		.byte	0x50
 7030 1551 02       		.uleb128 0x2
 7031 1552 75       		.byte	0x75
 7032 1553 00       		.sleb128 0
 7033 1554 10       		.uleb128 0x10
 7034 1555 01       		.uleb128 0x1
 7035 1556 51       		.byte	0x51
 7036 1557 01       		.uleb128 0x1
 7037 1558 32       		.byte	0x32
 7038 1559 10       		.uleb128 0x10
 7039 155a 01       		.uleb128 0x1
 7040 155b 52       		.byte	0x52
 7041 155c 02       		.uleb128 0x2
 7042 155d 08       		.byte	0x8
 7043 155e 51       		.byte	0x51
 7044 155f 00       		.byte	0
 7045 1560 11       		.uleb128 0x11
 7046 1561 42040000 		.4byte	.LVL222
 7047 1565 A4030000 		.4byte	0x3a4
 7048 1569 0F       		.uleb128 0xf
 7049 156a 50040000 		.4byte	.LVL223
 7050 156e 3F060000 		.4byte	0x63f
 7051 1572 88150000 		.4byte	0x1588
 7052 1576 10       		.uleb128 0x10
 7053 1577 01       		.uleb128 0x1
 7054 1578 50       		.byte	0x50
 7055 1579 02       		.uleb128 0x2
 7056 157a 75       		.byte	0x75
 7057 157b 00       		.sleb128 0
 7058 157c 10       		.uleb128 0x10
 7059 157d 01       		.uleb128 0x1
 7060 157e 51       		.byte	0x51
 7061 157f 01       		.uleb128 0x1
 7062 1580 32       		.byte	0x32
 7063 1581 10       		.uleb128 0x10
 7064 1582 01       		.uleb128 0x1
 7065 1583 52       		.byte	0x52
 7066 1584 02       		.uleb128 0x2
 7067 1585 08       		.byte	0x8
 7068 1586 51       		.byte	0x51
 7069 1587 00       		.byte	0
 7070 1588 11       		.uleb128 0x11
 7071 1589 54040000 		.4byte	.LVL224
 7072 158d 300B0000 		.4byte	0xb30
 7073 1591 00       		.byte	0
 7074 1592 16       		.uleb128 0x16
 7075 1593 9D000000 		.4byte	0x9d
 7076 1597 A2150000 		.4byte	0x15a2
 7077 159b 17       		.uleb128 0x17
ARM GAS  C:\Users\HELLOK~1.1\AppData\Local\Temp\cc5k7xEp.s 			page 146


 7078 159c B0000000 		.4byte	0xb0
 7079 15a0 02       		.byte	0x2
 7080 15a1 00       		.byte	0
 7081 15a2 16       		.uleb128 0x16
 7082 15a3 9D000000 		.4byte	0x9d
 7083 15a7 B2150000 		.4byte	0x15b2
 7084 15ab 17       		.uleb128 0x17
 7085 15ac B0000000 		.4byte	0xb0
 7086 15b0 04       		.byte	0x4
 7087 15b1 00       		.byte	0
 7088 15b2 05       		.uleb128 0x5
 7089 15b3 EA000000 		.4byte	0xea
 7090 15b7 19       		.uleb128 0x19
 7091 15b8 4D030000 		.4byte	.LASF98
 7092 15bc 01       		.byte	0x1
 7093 15bd 5902     		.2byte	0x259
 7094 15bf 00000000 		.4byte	.LFB50
 7095 15c3 C0030000 		.4byte	.LFE50-.LFB50
 7096 15c7 01       		.uleb128 0x1
 7097 15c8 9C       		.byte	0x9c
 7098 15c9 711C0000 		.4byte	0x1c71
 7099 15cd 1A       		.uleb128 0x1a
 7100 15ce 71000000 		.4byte	.LASF99
 7101 15d2 01       		.byte	0x1
 7102 15d3 6102     		.2byte	0x261
 7103 15d5 6F090000 		.4byte	0x96f
 7104 15d9 02       		.uleb128 0x2
 7105 15da 91       		.byte	0x91
 7106 15db 40       		.sleb128 -64
 7107 15dc 20       		.uleb128 0x20
 7108 15dd 36010000 		.4byte	.LBB13
 7109 15e1 70020000 		.4byte	.LBE13-.LBB13
 7110 15e5 EE190000 		.4byte	0x19ee
 7111 15e9 21       		.uleb128 0x21
 7112 15ea 6900     		.ascii	"i\000"
 7113 15ec 01       		.byte	0x1
 7114 15ed 9002     		.2byte	0x290
 7115 15ef 5D000000 		.4byte	0x5d
 7116 15f3 26040000 		.4byte	.LLST25
 7117 15f7 24       		.uleb128 0x24
 7118 15f8 3A010000 		.4byte	.LBB14
 7119 15fc 60020000 		.4byte	.LBE14-.LBB14
 7120 1600 1E       		.uleb128 0x1e
 7121 1601 6D696E00 		.ascii	"min\000"
 7122 1605 01       		.byte	0x1
 7123 1606 9402     		.2byte	0x294
 7124 1608 2F060000 		.4byte	0x62f
 7125 160c 03       		.uleb128 0x3
 7126 160d 91       		.byte	0x91
 7127 160e 807F     		.sleb128 -128
 7128 1610 1A       		.uleb128 0x1a
 7129 1611 2D030000 		.4byte	.LASF18
 7130 1615 01       		.byte	0x1
 7131 1616 9602     		.2byte	0x296
 7132 1618 2F060000 		.4byte	0x62f
 7133 161c 03       		.uleb128 0x3
 7134 161d 91       		.byte	0x91
ARM GAS  C:\Users\HELLOK~1.1\AppData\Local\Temp\cc5k7xEp.s 			page 147


 7135 161e 847F     		.sleb128 -124
 7136 1620 23       		.uleb128 0x23
 7137 1621 50000000 		.4byte	.LASF90
 7138 1625 01       		.byte	0x1
 7139 1626 9702     		.2byte	0x297
 7140 1628 6B000000 		.4byte	0x6b
 7141 162c 6E040000 		.4byte	.LLST26
 7142 1630 1A       		.uleb128 0x1a
 7143 1631 64060000 		.4byte	.LASF92
 7144 1635 01       		.byte	0x1
 7145 1636 9902     		.2byte	0x299
 7146 1638 EA000000 		.4byte	0xea
 7147 163c 03       		.uleb128 0x3
 7148 163d 91       		.byte	0x91
 7149 163e 887F     		.sleb128 -120
 7150 1640 1A       		.uleb128 0x1a
 7151 1641 78050000 		.4byte	.LASF93
 7152 1645 01       		.byte	0x1
 7153 1646 9A02     		.2byte	0x29a
 7154 1648 EA000000 		.4byte	0xea
 7155 164c 03       		.uleb128 0x3
 7156 164d 91       		.byte	0x91
 7157 164e 907F     		.sleb128 -112
 7158 1650 20       		.uleb128 0x20
 7159 1651 78010000 		.4byte	.LBB15
 7160 1655 2C000000 		.4byte	.LBE15-.LBB15
 7161 1659 BD160000 		.4byte	0x16bd
 7162 165d 1A       		.uleb128 0x1a
 7163 165e E7020000 		.4byte	.LASF77
 7164 1662 01       		.byte	0x1
 7165 1663 9C02     		.2byte	0x29c
 7166 1665 B2150000 		.4byte	0x15b2
 7167 1669 03       		.uleb128 0x3
 7168 166a 91       		.byte	0x91
 7169 166b 987F     		.sleb128 -104
 7170 166d 11       		.uleb128 0x11
 7171 166e 7C010000 		.4byte	.LVL260
 7172 1672 7B030000 		.4byte	0x37b
 7173 1676 11       		.uleb128 0x11
 7174 1677 8A010000 		.4byte	.LVL261
 7175 167b 7B030000 		.4byte	0x37b
 7176 167f 0F       		.uleb128 0xf
 7177 1680 9A010000 		.4byte	.LVL262
 7178 1684 75260000 		.4byte	0x2675
 7179 1688 9F160000 		.4byte	0x169f
 7180 168c 10       		.uleb128 0x10
 7181 168d 01       		.uleb128 0x1
 7182 168e 50       		.byte	0x50
 7183 168f 03       		.uleb128 0x3
 7184 1690 91       		.byte	0x91
 7185 1691 987F     		.sleb128 -104
 7186 1693 10       		.uleb128 0x10
 7187 1694 01       		.uleb128 0x1
 7188 1695 51       		.byte	0x51
 7189 1696 02       		.uleb128 0x2
 7190 1697 76       		.byte	0x76
 7191 1698 00       		.sleb128 0
ARM GAS  C:\Users\HELLOK~1.1\AppData\Local\Temp\cc5k7xEp.s 			page 148


 7192 1699 10       		.uleb128 0x10
 7193 169a 01       		.uleb128 0x1
 7194 169b 52       		.byte	0x52
 7195 169c 01       		.uleb128 0x1
 7196 169d 38       		.byte	0x38
 7197 169e 00       		.byte	0
 7198 169f 1B       		.uleb128 0x1b
 7199 16a0 A4010000 		.4byte	.LVL263
 7200 16a4 75260000 		.4byte	0x2675
 7201 16a8 10       		.uleb128 0x10
 7202 16a9 01       		.uleb128 0x1
 7203 16aa 50       		.byte	0x50
 7204 16ab 03       		.uleb128 0x3
 7205 16ac 91       		.byte	0x91
 7206 16ad 887F     		.sleb128 -120
 7207 16af 10       		.uleb128 0x10
 7208 16b0 01       		.uleb128 0x1
 7209 16b1 51       		.byte	0x51
 7210 16b2 03       		.uleb128 0x3
 7211 16b3 91       		.byte	0x91
 7212 16b4 987F     		.sleb128 -104
 7213 16b6 10       		.uleb128 0x10
 7214 16b7 01       		.uleb128 0x1
 7215 16b8 52       		.byte	0x52
 7216 16b9 01       		.uleb128 0x1
 7217 16ba 38       		.byte	0x38
 7218 16bb 00       		.byte	0
 7219 16bc 00       		.byte	0
 7220 16bd 20       		.uleb128 0x20
 7221 16be A6010000 		.4byte	.LBB16
 7222 16c2 2A000000 		.4byte	.LBE16-.LBB16
 7223 16c6 2A170000 		.4byte	0x172a
 7224 16ca 1A       		.uleb128 0x1a
 7225 16cb E7020000 		.4byte	.LASF77
 7226 16cf 01       		.byte	0x1
 7227 16d0 A002     		.2byte	0x2a0
 7228 16d2 B2150000 		.4byte	0x15b2
 7229 16d6 03       		.uleb128 0x3
 7230 16d7 91       		.byte	0x91
 7231 16d8 A07F     		.sleb128 -96
 7232 16da 11       		.uleb128 0x11
 7233 16db AA010000 		.4byte	.LVL264
 7234 16df 7B030000 		.4byte	0x37b
 7235 16e3 11       		.uleb128 0x11
 7236 16e4 B6010000 		.4byte	.LVL265
 7237 16e8 7B030000 		.4byte	0x37b
 7238 16ec 0F       		.uleb128 0xf
 7239 16ed C6010000 		.4byte	.LVL266
 7240 16f1 75260000 		.4byte	0x2675
 7241 16f5 0C170000 		.4byte	0x170c
 7242 16f9 10       		.uleb128 0x10
 7243 16fa 01       		.uleb128 0x1
 7244 16fb 50       		.byte	0x50
 7245 16fc 03       		.uleb128 0x3
 7246 16fd 91       		.byte	0x91
 7247 16fe A07F     		.sleb128 -96
 7248 1700 10       		.uleb128 0x10
ARM GAS  C:\Users\HELLOK~1.1\AppData\Local\Temp\cc5k7xEp.s 			page 149


 7249 1701 01       		.uleb128 0x1
 7250 1702 51       		.byte	0x51
 7251 1703 02       		.uleb128 0x2
 7252 1704 76       		.byte	0x76
 7253 1705 00       		.sleb128 0
 7254 1706 10       		.uleb128 0x10
 7255 1707 01       		.uleb128 0x1
 7256 1708 52       		.byte	0x52
 7257 1709 01       		.uleb128 0x1
 7258 170a 38       		.byte	0x38
 7259 170b 00       		.byte	0
 7260 170c 1B       		.uleb128 0x1b
 7261 170d D0010000 		.4byte	.LVL267
 7262 1711 75260000 		.4byte	0x2675
 7263 1715 10       		.uleb128 0x10
 7264 1716 01       		.uleb128 0x1
 7265 1717 50       		.byte	0x50
 7266 1718 03       		.uleb128 0x3
 7267 1719 91       		.byte	0x91
 7268 171a 887F     		.sleb128 -120
 7269 171c 10       		.uleb128 0x10
 7270 171d 01       		.uleb128 0x1
 7271 171e 51       		.byte	0x51
 7272 171f 03       		.uleb128 0x3
 7273 1720 91       		.byte	0x91
 7274 1721 A07F     		.sleb128 -96
 7275 1723 10       		.uleb128 0x10
 7276 1724 01       		.uleb128 0x1
 7277 1725 52       		.byte	0x52
 7278 1726 01       		.uleb128 0x1
 7279 1727 38       		.byte	0x38
 7280 1728 00       		.byte	0
 7281 1729 00       		.byte	0
 7282 172a 20       		.uleb128 0x20
 7283 172b 10020000 		.4byte	.LBB17
 7284 172f 4E000000 		.4byte	.LBE17-.LBB17
 7285 1733 A8170000 		.4byte	0x17a8
 7286 1737 1A       		.uleb128 0x1a
 7287 1738 47050000 		.4byte	.LASF96
 7288 173c 01       		.byte	0x1
 7289 173d BD02     		.2byte	0x2bd
 7290 173f 6F090000 		.4byte	0x96f
 7291 1743 03       		.uleb128 0x3
 7292 1744 91       		.byte	0x91
 7293 1745 A87F     		.sleb128 -88
 7294 1747 0F       		.uleb128 0xf
 7295 1748 46020000 		.4byte	.LVL280
 7296 174c D3250000 		.4byte	0x25d3
 7297 1750 5F170000 		.4byte	0x175f
 7298 1754 10       		.uleb128 0x10
 7299 1755 01       		.uleb128 0x1
 7300 1756 50       		.byte	0x50
 7301 1757 01       		.uleb128 0x1
 7302 1758 30       		.byte	0x30
 7303 1759 10       		.uleb128 0x10
 7304 175a 01       		.uleb128 0x1
 7305 175b 51       		.byte	0x51
ARM GAS  C:\Users\HELLOK~1.1\AppData\Local\Temp\cc5k7xEp.s 			page 150


 7306 175c 01       		.uleb128 0x1
 7307 175d 32       		.byte	0x32
 7308 175e 00       		.byte	0
 7309 175f 0F       		.uleb128 0xf
 7310 1760 58020000 		.4byte	.LVL281
 7311 1764 DE250000 		.4byte	0x25de
 7312 1768 96170000 		.4byte	0x1796
 7313 176c 10       		.uleb128 0x10
 7314 176d 01       		.uleb128 0x1
 7315 176e 50       		.byte	0x50
 7316 176f 03       		.uleb128 0x3
 7317 1770 91       		.byte	0x91
 7318 1771 A87F     		.sleb128 -88
 7319 1773 10       		.uleb128 0x10
 7320 1774 01       		.uleb128 0x1
 7321 1775 51       		.byte	0x51
 7322 1776 01       		.uleb128 0x1
 7323 1777 45       		.byte	0x45
 7324 1778 10       		.uleb128 0x10
 7325 1779 01       		.uleb128 0x1
 7326 177a 52       		.byte	0x52
 7327 177b 05       		.uleb128 0x5
 7328 177c 03       		.byte	0x3
 7329 177d 78010000 		.4byte	.LC72
 7330 1781 10       		.uleb128 0x10
 7331 1782 01       		.uleb128 0x1
 7332 1783 53       		.byte	0x53
 7333 1784 02       		.uleb128 0x2
 7334 1785 76       		.byte	0x76
 7335 1786 00       		.sleb128 0
 7336 1787 10       		.uleb128 0x10
 7337 1788 02       		.uleb128 0x2
 7338 1789 7D       		.byte	0x7d
 7339 178a 00       		.sleb128 0
 7340 178b 02       		.uleb128 0x2
 7341 178c 77       		.byte	0x77
 7342 178d 00       		.sleb128 0
 7343 178e 10       		.uleb128 0x10
 7344 178f 02       		.uleb128 0x2
 7345 1790 7D       		.byte	0x7d
 7346 1791 04       		.sleb128 4
 7347 1792 02       		.uleb128 0x2
 7348 1793 74       		.byte	0x74
 7349 1794 00       		.sleb128 0
 7350 1795 00       		.byte	0
 7351 1796 1B       		.uleb128 0x1b
 7352 1797 5E020000 		.4byte	.LVL282
 7353 179b E9250000 		.4byte	0x25e9
 7354 179f 10       		.uleb128 0x10
 7355 17a0 01       		.uleb128 0x1
 7356 17a1 50       		.byte	0x50
 7357 17a2 03       		.uleb128 0x3
 7358 17a3 91       		.byte	0x91
 7359 17a4 A87F     		.sleb128 -88
 7360 17a6 00       		.byte	0
 7361 17a7 00       		.byte	0
 7362 17a8 20       		.uleb128 0x20
ARM GAS  C:\Users\HELLOK~1.1\AppData\Local\Temp\cc5k7xEp.s 			page 151


 7363 17a9 88020000 		.4byte	.LBB18
 7364 17ad 4C000000 		.4byte	.LBE18-.LBB18
 7365 17b1 26180000 		.4byte	0x1826
 7366 17b5 1A       		.uleb128 0x1a
 7367 17b6 D3050000 		.4byte	.LASF97
 7368 17ba 01       		.byte	0x1
 7369 17bb DD02     		.2byte	0x2dd
 7370 17bd 6F090000 		.4byte	0x96f
 7371 17c1 03       		.uleb128 0x3
 7372 17c2 91       		.byte	0x91
 7373 17c3 A87F     		.sleb128 -88
 7374 17c5 0F       		.uleb128 0xf
 7375 17c6 BE020000 		.4byte	.LVL292
 7376 17ca D3250000 		.4byte	0x25d3
 7377 17ce DD170000 		.4byte	0x17dd
 7378 17d2 10       		.uleb128 0x10
 7379 17d3 01       		.uleb128 0x1
 7380 17d4 50       		.byte	0x50
 7381 17d5 01       		.uleb128 0x1
 7382 17d6 30       		.byte	0x30
 7383 17d7 10       		.uleb128 0x10
 7384 17d8 01       		.uleb128 0x1
 7385 17d9 51       		.byte	0x51
 7386 17da 01       		.uleb128 0x1
 7387 17db 32       		.byte	0x32
 7388 17dc 00       		.byte	0
 7389 17dd 0F       		.uleb128 0xf
 7390 17de CE020000 		.4byte	.LVL293
 7391 17e2 DE250000 		.4byte	0x25de
 7392 17e6 14180000 		.4byte	0x1814
 7393 17ea 10       		.uleb128 0x10
 7394 17eb 01       		.uleb128 0x1
 7395 17ec 50       		.byte	0x50
 7396 17ed 03       		.uleb128 0x3
 7397 17ee 91       		.byte	0x91
 7398 17ef A87F     		.sleb128 -88
 7399 17f1 10       		.uleb128 0x10
 7400 17f2 01       		.uleb128 0x1
 7401 17f3 51       		.byte	0x51
 7402 17f4 01       		.uleb128 0x1
 7403 17f5 45       		.byte	0x45
 7404 17f6 10       		.uleb128 0x10
 7405 17f7 01       		.uleb128 0x1
 7406 17f8 52       		.byte	0x52
 7407 17f9 05       		.uleb128 0x5
 7408 17fa 03       		.byte	0x3
 7409 17fb 78010000 		.4byte	.LC72
 7410 17ff 10       		.uleb128 0x10
 7411 1800 01       		.uleb128 0x1
 7412 1801 53       		.byte	0x53
 7413 1802 02       		.uleb128 0x2
 7414 1803 76       		.byte	0x76
 7415 1804 00       		.sleb128 0
 7416 1805 10       		.uleb128 0x10
 7417 1806 02       		.uleb128 0x2
 7418 1807 7D       		.byte	0x7d
 7419 1808 00       		.sleb128 0
ARM GAS  C:\Users\HELLOK~1.1\AppData\Local\Temp\cc5k7xEp.s 			page 152


 7420 1809 02       		.uleb128 0x2
 7421 180a 77       		.byte	0x77
 7422 180b 00       		.sleb128 0
 7423 180c 10       		.uleb128 0x10
 7424 180d 02       		.uleb128 0x2
 7425 180e 7D       		.byte	0x7d
 7426 180f 04       		.sleb128 4
 7427 1810 02       		.uleb128 0x2
 7428 1811 74       		.byte	0x74
 7429 1812 00       		.sleb128 0
 7430 1813 00       		.byte	0
 7431 1814 1B       		.uleb128 0x1b
 7432 1815 D4020000 		.4byte	.LVL294
 7433 1819 E9250000 		.4byte	0x25e9
 7434 181d 10       		.uleb128 0x10
 7435 181e 01       		.uleb128 0x1
 7436 181f 50       		.byte	0x50
 7437 1820 03       		.uleb128 0x3
 7438 1821 91       		.byte	0x91
 7439 1822 A87F     		.sleb128 -88
 7440 1824 00       		.byte	0
 7441 1825 00       		.byte	0
 7442 1826 0F       		.uleb128 0xf
 7443 1827 42010000 		.4byte	.LVL255
 7444 182b D3250000 		.4byte	0x25d3
 7445 182f 3E180000 		.4byte	0x183e
 7446 1833 10       		.uleb128 0x10
 7447 1834 01       		.uleb128 0x1
 7448 1835 50       		.byte	0x50
 7449 1836 01       		.uleb128 0x1
 7450 1837 30       		.byte	0x30
 7451 1838 10       		.uleb128 0x10
 7452 1839 01       		.uleb128 0x1
 7453 183a 51       		.byte	0x51
 7454 183b 01       		.uleb128 0x1
 7455 183c 30       		.byte	0x30
 7456 183d 00       		.byte	0
 7457 183e 0F       		.uleb128 0xf
 7458 183f 50010000 		.4byte	.LVL256
 7459 1843 DE250000 		.4byte	0x25de
 7460 1847 68180000 		.4byte	0x1868
 7461 184b 10       		.uleb128 0x10
 7462 184c 01       		.uleb128 0x1
 7463 184d 50       		.byte	0x50
 7464 184e 02       		.uleb128 0x2
 7465 184f 91       		.byte	0x91
 7466 1850 40       		.sleb128 -64
 7467 1851 10       		.uleb128 0x10
 7468 1852 01       		.uleb128 0x1
 7469 1853 51       		.byte	0x51
 7470 1854 01       		.uleb128 0x1
 7471 1855 45       		.byte	0x45
 7472 1856 10       		.uleb128 0x10
 7473 1857 01       		.uleb128 0x1
 7474 1858 52       		.byte	0x52
 7475 1859 05       		.uleb128 0x5
 7476 185a 03       		.byte	0x3
ARM GAS  C:\Users\HELLOK~1.1\AppData\Local\Temp\cc5k7xEp.s 			page 153


 7477 185b 60010000 		.4byte	.LC65
 7478 185f 10       		.uleb128 0x10
 7479 1860 01       		.uleb128 0x1
 7480 1861 53       		.byte	0x53
 7481 1862 04       		.uleb128 0x4
 7482 1863 91       		.byte	0x91
 7483 1864 FC7E     		.sleb128 -132
 7484 1866 06       		.byte	0x6
 7485 1867 00       		.byte	0
 7486 1868 0F       		.uleb128 0xf
 7487 1869 56010000 		.4byte	.LVL257
 7488 186d E9250000 		.4byte	0x25e9
 7489 1871 7C180000 		.4byte	0x187c
 7490 1875 10       		.uleb128 0x10
 7491 1876 01       		.uleb128 0x1
 7492 1877 50       		.byte	0x50
 7493 1878 02       		.uleb128 0x2
 7494 1879 91       		.byte	0x91
 7495 187a 40       		.sleb128 -64
 7496 187b 00       		.byte	0
 7497 187c 0F       		.uleb128 0xf
 7498 187d 64010000 		.4byte	.LVL258
 7499 1881 62050000 		.4byte	0x562
 7500 1885 9C180000 		.4byte	0x189c
 7501 1889 10       		.uleb128 0x10
 7502 188a 01       		.uleb128 0x1
 7503 188b 50       		.byte	0x50
 7504 188c 03       		.uleb128 0x3
 7505 188d 91       		.byte	0x91
 7506 188e 807F     		.sleb128 -128
 7507 1890 10       		.uleb128 0x10
 7508 1891 01       		.uleb128 0x1
 7509 1892 51       		.byte	0x51
 7510 1893 01       		.uleb128 0x1
 7511 1894 31       		.byte	0x31
 7512 1895 10       		.uleb128 0x10
 7513 1896 01       		.uleb128 0x1
 7514 1897 52       		.byte	0x52
 7515 1898 02       		.uleb128 0x2
 7516 1899 08       		.byte	0x8
 7517 189a 51       		.byte	0x51
 7518 189b 00       		.byte	0
 7519 189c 0F       		.uleb128 0xf
 7520 189d 72010000 		.4byte	.LVL259
 7521 18a1 62050000 		.4byte	0x562
 7522 18a5 BB180000 		.4byte	0x18bb
 7523 18a9 10       		.uleb128 0x10
 7524 18aa 01       		.uleb128 0x1
 7525 18ab 50       		.byte	0x50
 7526 18ac 02       		.uleb128 0x2
 7527 18ad 76       		.byte	0x76
 7528 18ae 00       		.sleb128 0
 7529 18af 10       		.uleb128 0x10
 7530 18b0 01       		.uleb128 0x1
 7531 18b1 51       		.byte	0x51
 7532 18b2 01       		.uleb128 0x1
 7533 18b3 31       		.byte	0x31
ARM GAS  C:\Users\HELLOK~1.1\AppData\Local\Temp\cc5k7xEp.s 			page 154


 7534 18b4 10       		.uleb128 0x10
 7535 18b5 01       		.uleb128 0x1
 7536 18b6 52       		.byte	0x52
 7537 18b7 02       		.uleb128 0x2
 7538 18b8 08       		.byte	0x8
 7539 18b9 51       		.byte	0x51
 7540 18ba 00       		.byte	0
 7541 18bb 0F       		.uleb128 0xf
 7542 18bc D8010000 		.4byte	.LVL268
 7543 18c0 D3250000 		.4byte	0x25d3
 7544 18c4 D3180000 		.4byte	0x18d3
 7545 18c8 10       		.uleb128 0x10
 7546 18c9 01       		.uleb128 0x1
 7547 18ca 50       		.byte	0x50
 7548 18cb 01       		.uleb128 0x1
 7549 18cc 30       		.byte	0x30
 7550 18cd 10       		.uleb128 0x10
 7551 18ce 01       		.uleb128 0x1
 7552 18cf 51       		.byte	0x51
 7553 18d0 01       		.uleb128 0x1
 7554 18d1 31       		.byte	0x31
 7555 18d2 00       		.byte	0
 7556 18d3 0F       		.uleb128 0xf
 7557 18d4 DE010000 		.4byte	.LVL269
 7558 18d8 E9250000 		.4byte	0x25e9
 7559 18dc EA180000 		.4byte	0x18ea
 7560 18e0 10       		.uleb128 0x10
 7561 18e1 01       		.uleb128 0x1
 7562 18e2 50       		.byte	0x50
 7563 18e3 05       		.uleb128 0x5
 7564 18e4 03       		.byte	0x3
 7565 18e5 6C010000 		.4byte	.LC70
 7566 18e9 00       		.byte	0
 7567 18ea 0F       		.uleb128 0xf
 7568 18eb E6010000 		.4byte	.LVL270
 7569 18ef D3250000 		.4byte	0x25d3
 7570 18f3 02190000 		.4byte	0x1902
 7571 18f7 10       		.uleb128 0x10
 7572 18f8 01       		.uleb128 0x1
 7573 18f9 50       		.byte	0x50
 7574 18fa 01       		.uleb128 0x1
 7575 18fb 30       		.byte	0x30
 7576 18fc 10       		.uleb128 0x10
 7577 18fd 01       		.uleb128 0x1
 7578 18fe 51       		.byte	0x51
 7579 18ff 01       		.uleb128 0x1
 7580 1900 32       		.byte	0x32
 7581 1901 00       		.byte	0
 7582 1902 0F       		.uleb128 0xf
 7583 1903 00020000 		.4byte	.LVL271
 7584 1907 DE250000 		.4byte	0x25de
 7585 190b 38190000 		.4byte	0x1938
 7586 190f 10       		.uleb128 0x10
 7587 1910 01       		.uleb128 0x1
 7588 1911 50       		.byte	0x50
 7589 1912 02       		.uleb128 0x2
 7590 1913 91       		.byte	0x91
ARM GAS  C:\Users\HELLOK~1.1\AppData\Local\Temp\cc5k7xEp.s 			page 155


 7591 1914 40       		.sleb128 -64
 7592 1915 10       		.uleb128 0x10
 7593 1916 01       		.uleb128 0x1
 7594 1917 51       		.byte	0x51
 7595 1918 01       		.uleb128 0x1
 7596 1919 45       		.byte	0x45
 7597 191a 10       		.uleb128 0x10
 7598 191b 01       		.uleb128 0x1
 7599 191c 52       		.byte	0x52
 7600 191d 05       		.uleb128 0x5
 7601 191e 03       		.byte	0x3
 7602 191f 78010000 		.4byte	.LC72
 7603 1923 10       		.uleb128 0x10
 7604 1924 01       		.uleb128 0x1
 7605 1925 53       		.byte	0x53
 7606 1926 02       		.uleb128 0x2
 7607 1927 76       		.byte	0x76
 7608 1928 00       		.sleb128 0
 7609 1929 10       		.uleb128 0x10
 7610 192a 02       		.uleb128 0x2
 7611 192b 7D       		.byte	0x7d
 7612 192c 00       		.sleb128 0
 7613 192d 02       		.uleb128 0x2
 7614 192e 77       		.byte	0x77
 7615 192f 00       		.sleb128 0
 7616 1930 10       		.uleb128 0x10
 7617 1931 02       		.uleb128 0x2
 7618 1932 7D       		.byte	0x7d
 7619 1933 04       		.sleb128 4
 7620 1934 02       		.uleb128 0x2
 7621 1935 74       		.byte	0x74
 7622 1936 00       		.sleb128 0
 7623 1937 00       		.byte	0
 7624 1938 0F       		.uleb128 0xf
 7625 1939 06020000 		.4byte	.LVL272
 7626 193d E9250000 		.4byte	0x25e9
 7627 1941 4C190000 		.4byte	0x194c
 7628 1945 10       		.uleb128 0x10
 7629 1946 01       		.uleb128 0x1
 7630 1947 50       		.byte	0x50
 7631 1948 02       		.uleb128 0x2
 7632 1949 91       		.byte	0x91
 7633 194a 40       		.sleb128 -64
 7634 194b 00       		.byte	0
 7635 194c 0F       		.uleb128 0xf
 7636 194d 78020000 		.4byte	.LVL283
 7637 1951 D3250000 		.4byte	0x25d3
 7638 1955 64190000 		.4byte	0x1964
 7639 1959 10       		.uleb128 0x10
 7640 195a 01       		.uleb128 0x1
 7641 195b 50       		.byte	0x50
 7642 195c 01       		.uleb128 0x1
 7643 195d 30       		.byte	0x30
 7644 195e 10       		.uleb128 0x10
 7645 195f 01       		.uleb128 0x1
 7646 1960 51       		.byte	0x51
 7647 1961 01       		.uleb128 0x1
ARM GAS  C:\Users\HELLOK~1.1\AppData\Local\Temp\cc5k7xEp.s 			page 156


 7648 1962 31       		.byte	0x31
 7649 1963 00       		.byte	0
 7650 1964 0F       		.uleb128 0xf
 7651 1965 7E020000 		.4byte	.LVL284
 7652 1969 E9250000 		.4byte	0x25e9
 7653 196d 7B190000 		.4byte	0x197b
 7654 1971 10       		.uleb128 0x10
 7655 1972 01       		.uleb128 0x1
 7656 1973 50       		.byte	0x50
 7657 1974 05       		.uleb128 0x5
 7658 1975 03       		.byte	0x3
 7659 1976 C4000000 		.4byte	.LC46
 7660 197a 00       		.byte	0
 7661 197b 0F       		.uleb128 0xf
 7662 197c EE020000 		.4byte	.LVL295
 7663 1980 D3250000 		.4byte	0x25d3
 7664 1984 93190000 		.4byte	0x1993
 7665 1988 10       		.uleb128 0x10
 7666 1989 01       		.uleb128 0x1
 7667 198a 50       		.byte	0x50
 7668 198b 01       		.uleb128 0x1
 7669 198c 30       		.byte	0x30
 7670 198d 10       		.uleb128 0x10
 7671 198e 01       		.uleb128 0x1
 7672 198f 51       		.byte	0x51
 7673 1990 01       		.uleb128 0x1
 7674 1991 31       		.byte	0x31
 7675 1992 00       		.byte	0
 7676 1993 0F       		.uleb128 0xf
 7677 1994 F4020000 		.4byte	.LVL296
 7678 1998 E9250000 		.4byte	0x25e9
 7679 199c AA190000 		.4byte	0x19aa
 7680 19a0 10       		.uleb128 0x10
 7681 19a1 01       		.uleb128 0x1
 7682 19a2 50       		.byte	0x50
 7683 19a3 05       		.uleb128 0x5
 7684 19a4 03       		.byte	0x3
 7685 19a5 D0000000 		.4byte	.LC48
 7686 19a9 00       		.byte	0
 7687 19aa 0F       		.uleb128 0xf
 7688 19ab 18030000 		.4byte	.LVL301
 7689 19af D3250000 		.4byte	0x25d3
 7690 19b3 C2190000 		.4byte	0x19c2
 7691 19b7 10       		.uleb128 0x10
 7692 19b8 01       		.uleb128 0x1
 7693 19b9 50       		.byte	0x50
 7694 19ba 01       		.uleb128 0x1
 7695 19bb 35       		.byte	0x35
 7696 19bc 10       		.uleb128 0x10
 7697 19bd 01       		.uleb128 0x1
 7698 19be 51       		.byte	0x51
 7699 19bf 01       		.uleb128 0x1
 7700 19c0 32       		.byte	0x32
 7701 19c1 00       		.byte	0
 7702 19c2 0F       		.uleb128 0xf
 7703 19c3 22030000 		.4byte	.LVL302
 7704 19c7 E9250000 		.4byte	0x25e9
ARM GAS  C:\Users\HELLOK~1.1\AppData\Local\Temp\cc5k7xEp.s 			page 157


 7705 19cb D9190000 		.4byte	0x19d9
 7706 19cf 10       		.uleb128 0x10
 7707 19d0 01       		.uleb128 0x1
 7708 19d1 50       		.byte	0x50
 7709 19d2 05       		.uleb128 0x5
 7710 19d3 03       		.byte	0x3
 7711 19d4 A0000000 		.4byte	.LC0
 7712 19d8 00       		.byte	0
 7713 19d9 1B       		.uleb128 0x1b
 7714 19da 2A030000 		.4byte	.LVL303
 7715 19de E9250000 		.4byte	0x25e9
 7716 19e2 10       		.uleb128 0x10
 7717 19e3 01       		.uleb128 0x1
 7718 19e4 50       		.byte	0x50
 7719 19e5 05       		.uleb128 0x5
 7720 19e6 03       		.byte	0x3
 7721 19e7 9C000000 		.4byte	.LC4
 7722 19eb 00       		.byte	0
 7723 19ec 00       		.byte	0
 7724 19ed 00       		.byte	0
 7725 19ee 11       		.uleb128 0x11
 7726 19ef 0C000000 		.4byte	.LVL226
 7727 19f3 6A260000 		.4byte	0x266a
 7728 19f7 0F       		.uleb128 0xf
 7729 19f8 1A000000 		.4byte	.LVL227
 7730 19fc D3250000 		.4byte	0x25d3
 7731 1a00 111A0000 		.4byte	0x1a11
 7732 1a04 10       		.uleb128 0x10
 7733 1a05 01       		.uleb128 0x1
 7734 1a06 50       		.byte	0x50
 7735 1a07 02       		.uleb128 0x2
 7736 1a08 75       		.byte	0x75
 7737 1a09 00       		.sleb128 0
 7738 1a0a 10       		.uleb128 0x10
 7739 1a0b 01       		.uleb128 0x1
 7740 1a0c 51       		.byte	0x51
 7741 1a0d 02       		.uleb128 0x2
 7742 1a0e 75       		.byte	0x75
 7743 1a0f 00       		.sleb128 0
 7744 1a10 00       		.byte	0
 7745 1a11 0F       		.uleb128 0xf
 7746 1a12 20000000 		.4byte	.LVL228
 7747 1a16 E9250000 		.4byte	0x25e9
 7748 1a1a 281A0000 		.4byte	0x1a28
 7749 1a1e 10       		.uleb128 0x10
 7750 1a1f 01       		.uleb128 0x1
 7751 1a20 50       		.byte	0x50
 7752 1a21 05       		.uleb128 0x5
 7753 1a22 03       		.byte	0x3
 7754 1a23 E0000000 		.4byte	.LC51
 7755 1a27 00       		.byte	0
 7756 1a28 0F       		.uleb128 0xf
 7757 1a29 28000000 		.4byte	.LVL229
 7758 1a2d D3250000 		.4byte	0x25d3
 7759 1a31 411A0000 		.4byte	0x1a41
 7760 1a35 10       		.uleb128 0x10
 7761 1a36 01       		.uleb128 0x1
ARM GAS  C:\Users\HELLOK~1.1\AppData\Local\Temp\cc5k7xEp.s 			page 158


 7762 1a37 50       		.byte	0x50
 7763 1a38 02       		.uleb128 0x2
 7764 1a39 75       		.byte	0x75
 7765 1a3a 00       		.sleb128 0
 7766 1a3b 10       		.uleb128 0x10
 7767 1a3c 01       		.uleb128 0x1
 7768 1a3d 51       		.byte	0x51
 7769 1a3e 01       		.uleb128 0x1
 7770 1a3f 31       		.byte	0x31
 7771 1a40 00       		.byte	0
 7772 1a41 0F       		.uleb128 0xf
 7773 1a42 2E000000 		.4byte	.LVL230
 7774 1a46 E9250000 		.4byte	0x25e9
 7775 1a4a 581A0000 		.4byte	0x1a58
 7776 1a4e 10       		.uleb128 0x10
 7777 1a4f 01       		.uleb128 0x1
 7778 1a50 50       		.byte	0x50
 7779 1a51 05       		.uleb128 0x5
 7780 1a52 03       		.byte	0x3
 7781 1a53 F4000000 		.4byte	.LC53
 7782 1a57 00       		.byte	0
 7783 1a58 0F       		.uleb128 0xf
 7784 1a59 36000000 		.4byte	.LVL231
 7785 1a5d D3250000 		.4byte	0x25d3
 7786 1a61 711A0000 		.4byte	0x1a71
 7787 1a65 10       		.uleb128 0x10
 7788 1a66 01       		.uleb128 0x1
 7789 1a67 50       		.byte	0x50
 7790 1a68 02       		.uleb128 0x2
 7791 1a69 75       		.byte	0x75
 7792 1a6a 00       		.sleb128 0
 7793 1a6b 10       		.uleb128 0x10
 7794 1a6c 01       		.uleb128 0x1
 7795 1a6d 51       		.byte	0x51
 7796 1a6e 01       		.uleb128 0x1
 7797 1a6f 32       		.byte	0x32
 7798 1a70 00       		.byte	0
 7799 1a71 0F       		.uleb128 0xf
 7800 1a72 44000000 		.4byte	.LVL232
 7801 1a76 DE250000 		.4byte	0x25de
 7802 1a7a 931A0000 		.4byte	0x1a93
 7803 1a7e 10       		.uleb128 0x10
 7804 1a7f 01       		.uleb128 0x1
 7805 1a80 50       		.byte	0x50
 7806 1a81 02       		.uleb128 0x2
 7807 1a82 74       		.byte	0x74
 7808 1a83 00       		.sleb128 0
 7809 1a84 10       		.uleb128 0x10
 7810 1a85 01       		.uleb128 0x1
 7811 1a86 51       		.byte	0x51
 7812 1a87 01       		.uleb128 0x1
 7813 1a88 45       		.byte	0x45
 7814 1a89 10       		.uleb128 0x10
 7815 1a8a 01       		.uleb128 0x1
 7816 1a8b 52       		.byte	0x52
 7817 1a8c 05       		.uleb128 0x5
 7818 1a8d 03       		.byte	0x3
ARM GAS  C:\Users\HELLOK~1.1\AppData\Local\Temp\cc5k7xEp.s 			page 159


 7819 1a8e FC000000 		.4byte	.LC55
 7820 1a92 00       		.byte	0
 7821 1a93 0F       		.uleb128 0xf
 7822 1a94 4C000000 		.4byte	.LVL233
 7823 1a98 E9250000 		.4byte	0x25e9
 7824 1a9c A71A0000 		.4byte	0x1aa7
 7825 1aa0 10       		.uleb128 0x10
 7826 1aa1 01       		.uleb128 0x1
 7827 1aa2 50       		.byte	0x50
 7828 1aa3 02       		.uleb128 0x2
 7829 1aa4 74       		.byte	0x74
 7830 1aa5 00       		.sleb128 0
 7831 1aa6 00       		.byte	0
 7832 1aa7 11       		.uleb128 0x11
 7833 1aa8 6E000000 		.4byte	.LVL234
 7834 1aac 6A260000 		.4byte	0x266a
 7835 1ab0 0F       		.uleb128 0xf
 7836 1ab1 76000000 		.4byte	.LVL235
 7837 1ab5 D3250000 		.4byte	0x25d3
 7838 1ab9 CA1A0000 		.4byte	0x1aca
 7839 1abd 10       		.uleb128 0x10
 7840 1abe 01       		.uleb128 0x1
 7841 1abf 50       		.byte	0x50
 7842 1ac0 02       		.uleb128 0x2
 7843 1ac1 75       		.byte	0x75
 7844 1ac2 00       		.sleb128 0
 7845 1ac3 10       		.uleb128 0x10
 7846 1ac4 01       		.uleb128 0x1
 7847 1ac5 51       		.byte	0x51
 7848 1ac6 02       		.uleb128 0x2
 7849 1ac7 75       		.byte	0x75
 7850 1ac8 00       		.sleb128 0
 7851 1ac9 00       		.byte	0
 7852 1aca 0F       		.uleb128 0xf
 7853 1acb 7C000000 		.4byte	.LVL236
 7854 1acf E9250000 		.4byte	0x25e9
 7855 1ad3 E11A0000 		.4byte	0x1ae1
 7856 1ad7 10       		.uleb128 0x10
 7857 1ad8 01       		.uleb128 0x1
 7858 1ad9 50       		.byte	0x50
 7859 1ada 05       		.uleb128 0x5
 7860 1adb 03       		.byte	0x3
 7861 1adc 10010000 		.4byte	.LC57
 7862 1ae0 00       		.byte	0
 7863 1ae1 0F       		.uleb128 0xf
 7864 1ae2 84000000 		.4byte	.LVL237
 7865 1ae6 D3250000 		.4byte	0x25d3
 7866 1aea FA1A0000 		.4byte	0x1afa
 7867 1aee 10       		.uleb128 0x10
 7868 1aef 01       		.uleb128 0x1
 7869 1af0 50       		.byte	0x50
 7870 1af1 02       		.uleb128 0x2
 7871 1af2 75       		.byte	0x75
 7872 1af3 00       		.sleb128 0
 7873 1af4 10       		.uleb128 0x10
 7874 1af5 01       		.uleb128 0x1
 7875 1af6 51       		.byte	0x51
ARM GAS  C:\Users\HELLOK~1.1\AppData\Local\Temp\cc5k7xEp.s 			page 160


 7876 1af7 01       		.uleb128 0x1
 7877 1af8 31       		.byte	0x31
 7878 1af9 00       		.byte	0
 7879 1afa 0F       		.uleb128 0xf
 7880 1afb 8A000000 		.4byte	.LVL238
 7881 1aff E9250000 		.4byte	0x25e9
 7882 1b03 111B0000 		.4byte	0x1b11
 7883 1b07 10       		.uleb128 0x10
 7884 1b08 01       		.uleb128 0x1
 7885 1b09 50       		.byte	0x50
 7886 1b0a 05       		.uleb128 0x5
 7887 1b0b 03       		.byte	0x3
 7888 1b0c 24010000 		.4byte	.LC59
 7889 1b10 00       		.byte	0
 7890 1b11 0F       		.uleb128 0xf
 7891 1b12 92000000 		.4byte	.LVL239
 7892 1b16 D3250000 		.4byte	0x25d3
 7893 1b1a 2A1B0000 		.4byte	0x1b2a
 7894 1b1e 10       		.uleb128 0x10
 7895 1b1f 01       		.uleb128 0x1
 7896 1b20 50       		.byte	0x50
 7897 1b21 02       		.uleb128 0x2
 7898 1b22 75       		.byte	0x75
 7899 1b23 00       		.sleb128 0
 7900 1b24 10       		.uleb128 0x10
 7901 1b25 01       		.uleb128 0x1
 7902 1b26 51       		.byte	0x51
 7903 1b27 01       		.uleb128 0x1
 7904 1b28 32       		.byte	0x32
 7905 1b29 00       		.byte	0
 7906 1b2a 0F       		.uleb128 0xf
 7907 1b2b 98000000 		.4byte	.LVL240
 7908 1b2f E9250000 		.4byte	0x25e9
 7909 1b33 411B0000 		.4byte	0x1b41
 7910 1b37 10       		.uleb128 0x10
 7911 1b38 01       		.uleb128 0x1
 7912 1b39 50       		.byte	0x50
 7913 1b3a 05       		.uleb128 0x5
 7914 1b3b 03       		.byte	0x3
 7915 1b3c 38010000 		.4byte	.LC61
 7916 1b40 00       		.byte	0
 7917 1b41 0F       		.uleb128 0xf
 7918 1b42 A0000000 		.4byte	.LVL241
 7919 1b46 FF250000 		.4byte	0x25ff
 7920 1b4a 561B0000 		.4byte	0x1b56
 7921 1b4e 10       		.uleb128 0x10
 7922 1b4f 01       		.uleb128 0x1
 7923 1b50 50       		.byte	0x50
 7924 1b51 03       		.uleb128 0x3
 7925 1b52 0A       		.byte	0xa
 7926 1b53 D007     		.2byte	0x7d0
 7927 1b55 00       		.byte	0
 7928 1b56 11       		.uleb128 0x11
 7929 1b57 A4000000 		.4byte	.LVL242
 7930 1b5b 6A260000 		.4byte	0x266a
 7931 1b5f 0F       		.uleb128 0xf
 7932 1b60 AC000000 		.4byte	.LVL243
ARM GAS  C:\Users\HELLOK~1.1\AppData\Local\Temp\cc5k7xEp.s 			page 161


 7933 1b64 D3250000 		.4byte	0x25d3
 7934 1b68 791B0000 		.4byte	0x1b79
 7935 1b6c 10       		.uleb128 0x10
 7936 1b6d 01       		.uleb128 0x1
 7937 1b6e 50       		.byte	0x50
 7938 1b6f 02       		.uleb128 0x2
 7939 1b70 75       		.byte	0x75
 7940 1b71 00       		.sleb128 0
 7941 1b72 10       		.uleb128 0x10
 7942 1b73 01       		.uleb128 0x1
 7943 1b74 51       		.byte	0x51
 7944 1b75 02       		.uleb128 0x2
 7945 1b76 75       		.byte	0x75
 7946 1b77 00       		.sleb128 0
 7947 1b78 00       		.byte	0
 7948 1b79 0F       		.uleb128 0xf
 7949 1b7a B2000000 		.4byte	.LVL244
 7950 1b7e E9250000 		.4byte	0x25e9
 7951 1b82 901B0000 		.4byte	0x1b90
 7952 1b86 10       		.uleb128 0x10
 7953 1b87 01       		.uleb128 0x1
 7954 1b88 50       		.byte	0x50
 7955 1b89 05       		.uleb128 0x5
 7956 1b8a 03       		.byte	0x3
 7957 1b8b E0000000 		.4byte	.LC51
 7958 1b8f 00       		.byte	0
 7959 1b90 0F       		.uleb128 0xf
 7960 1b91 BA000000 		.4byte	.LVL245
 7961 1b95 D3250000 		.4byte	0x25d3
 7962 1b99 A91B0000 		.4byte	0x1ba9
 7963 1b9d 10       		.uleb128 0x10
 7964 1b9e 01       		.uleb128 0x1
 7965 1b9f 50       		.byte	0x50
 7966 1ba0 02       		.uleb128 0x2
 7967 1ba1 75       		.byte	0x75
 7968 1ba2 00       		.sleb128 0
 7969 1ba3 10       		.uleb128 0x10
 7970 1ba4 01       		.uleb128 0x1
 7971 1ba5 51       		.byte	0x51
 7972 1ba6 01       		.uleb128 0x1
 7973 1ba7 31       		.byte	0x31
 7974 1ba8 00       		.byte	0
 7975 1ba9 0F       		.uleb128 0xf
 7976 1baa C0000000 		.4byte	.LVL246
 7977 1bae E9250000 		.4byte	0x25e9
 7978 1bb2 C01B0000 		.4byte	0x1bc0
 7979 1bb6 10       		.uleb128 0x10
 7980 1bb7 01       		.uleb128 0x1
 7981 1bb8 50       		.byte	0x50
 7982 1bb9 05       		.uleb128 0x5
 7983 1bba 03       		.byte	0x3
 7984 1bbb F4000000 		.4byte	.LC53
 7985 1bbf 00       		.byte	0
 7986 1bc0 0F       		.uleb128 0xf
 7987 1bc1 C8000000 		.4byte	.LVL247
 7988 1bc5 D3250000 		.4byte	0x25d3
 7989 1bc9 D91B0000 		.4byte	0x1bd9
ARM GAS  C:\Users\HELLOK~1.1\AppData\Local\Temp\cc5k7xEp.s 			page 162


 7990 1bcd 10       		.uleb128 0x10
 7991 1bce 01       		.uleb128 0x1
 7992 1bcf 50       		.byte	0x50
 7993 1bd0 02       		.uleb128 0x2
 7994 1bd1 75       		.byte	0x75
 7995 1bd2 00       		.sleb128 0
 7996 1bd3 10       		.uleb128 0x10
 7997 1bd4 01       		.uleb128 0x1
 7998 1bd5 51       		.byte	0x51
 7999 1bd6 01       		.uleb128 0x1
 8000 1bd7 32       		.byte	0x32
 8001 1bd8 00       		.byte	0
 8002 1bd9 0F       		.uleb128 0xf
 8003 1bda D8000000 		.4byte	.LVL248
 8004 1bde DE250000 		.4byte	0x25de
 8005 1be2 FB1B0000 		.4byte	0x1bfb
 8006 1be6 10       		.uleb128 0x10
 8007 1be7 01       		.uleb128 0x1
 8008 1be8 50       		.byte	0x50
 8009 1be9 02       		.uleb128 0x2
 8010 1bea 74       		.byte	0x74
 8011 1beb 00       		.sleb128 0
 8012 1bec 10       		.uleb128 0x10
 8013 1bed 01       		.uleb128 0x1
 8014 1bee 51       		.byte	0x51
 8015 1bef 01       		.uleb128 0x1
 8016 1bf0 45       		.byte	0x45
 8017 1bf1 10       		.uleb128 0x10
 8018 1bf2 01       		.uleb128 0x1
 8019 1bf3 52       		.byte	0x52
 8020 1bf4 05       		.uleb128 0x5
 8021 1bf5 03       		.byte	0x3
 8022 1bf6 FC000000 		.4byte	.LC55
 8023 1bfa 00       		.byte	0
 8024 1bfb 0F       		.uleb128 0xf
 8025 1bfc E2000000 		.4byte	.LVL249
 8026 1c00 E9250000 		.4byte	0x25e9
 8027 1c04 0F1C0000 		.4byte	0x1c0f
 8028 1c08 10       		.uleb128 0x10
 8029 1c09 01       		.uleb128 0x1
 8030 1c0a 50       		.byte	0x50
 8031 1c0b 02       		.uleb128 0x2
 8032 1c0c 74       		.byte	0x74
 8033 1c0d 00       		.sleb128 0
 8034 1c0e 00       		.byte	0
 8035 1c0f 0F       		.uleb128 0xf
 8036 1c10 0A010000 		.4byte	.LVL250
 8037 1c14 D3250000 		.4byte	0x25d3
 8038 1c18 281C0000 		.4byte	0x1c28
 8039 1c1c 10       		.uleb128 0x10
 8040 1c1d 01       		.uleb128 0x1
 8041 1c1e 50       		.byte	0x50
 8042 1c1f 02       		.uleb128 0x2
 8043 1c20 75       		.byte	0x75
 8044 1c21 00       		.sleb128 0
 8045 1c22 10       		.uleb128 0x10
 8046 1c23 01       		.uleb128 0x1
ARM GAS  C:\Users\HELLOK~1.1\AppData\Local\Temp\cc5k7xEp.s 			page 163


 8047 1c24 51       		.byte	0x51
 8048 1c25 01       		.uleb128 0x1
 8049 1c26 32       		.byte	0x32
 8050 1c27 00       		.byte	0
 8051 1c28 0F       		.uleb128 0xf
 8052 1c29 1A010000 		.4byte	.LVL251
 8053 1c2d DE250000 		.4byte	0x25de
 8054 1c31 4A1C0000 		.4byte	0x1c4a
 8055 1c35 10       		.uleb128 0x10
 8056 1c36 01       		.uleb128 0x1
 8057 1c37 50       		.byte	0x50
 8058 1c38 02       		.uleb128 0x2
 8059 1c39 74       		.byte	0x74
 8060 1c3a 00       		.sleb128 0
 8061 1c3b 10       		.uleb128 0x10
 8062 1c3c 01       		.uleb128 0x1
 8063 1c3d 51       		.byte	0x51
 8064 1c3e 01       		.uleb128 0x1
 8065 1c3f 45       		.byte	0x45
 8066 1c40 10       		.uleb128 0x10
 8067 1c41 01       		.uleb128 0x1
 8068 1c42 52       		.byte	0x52
 8069 1c43 05       		.uleb128 0x5
 8070 1c44 03       		.byte	0x3
 8071 1c45 48010000 		.4byte	.LC63
 8072 1c49 00       		.byte	0
 8073 1c4a 0F       		.uleb128 0xf
 8074 1c4b 24010000 		.4byte	.LVL252
 8075 1c4f E9250000 		.4byte	0x25e9
 8076 1c53 5E1C0000 		.4byte	0x1c5e
 8077 1c57 10       		.uleb128 0x10
 8078 1c58 01       		.uleb128 0x1
 8079 1c59 50       		.byte	0x50
 8080 1c5a 02       		.uleb128 0x2
 8081 1c5b 74       		.byte	0x74
 8082 1c5c 00       		.sleb128 0
 8083 1c5d 00       		.byte	0
 8084 1c5e 11       		.uleb128 0x11
 8085 1c5f 36010000 		.4byte	.LVL253
 8086 1c63 6A260000 		.4byte	0x266a
 8087 1c67 11       		.uleb128 0x11
 8088 1c68 AA030000 		.4byte	.LVL307
 8089 1c6c 300B0000 		.4byte	0xb30
 8090 1c70 00       		.byte	0
 8091 1c71 19       		.uleb128 0x19
 8092 1c72 6C010000 		.4byte	.LASF100
 8093 1c76 01       		.byte	0x1
 8094 1c77 0503     		.2byte	0x305
 8095 1c79 00000000 		.4byte	.LFB51
 8096 1c7d A0000000 		.4byte	.LFE51-.LFB51
 8097 1c81 01       		.uleb128 0x1
 8098 1c82 9C       		.byte	0x9c
 8099 1c83 7B1D0000 		.4byte	0x1d7b
 8100 1c87 11       		.uleb128 0x11
 8101 1c88 06000000 		.4byte	.LVL309
 8102 1c8c 6A260000 		.4byte	0x266a
 8103 1c90 0F       		.uleb128 0xf
ARM GAS  C:\Users\HELLOK~1.1\AppData\Local\Temp\cc5k7xEp.s 			page 164


 8104 1c91 0E000000 		.4byte	.LVL310
 8105 1c95 D3250000 		.4byte	0x25d3
 8106 1c99 A81C0000 		.4byte	0x1ca8
 8107 1c9d 10       		.uleb128 0x10
 8108 1c9e 01       		.uleb128 0x1
 8109 1c9f 50       		.byte	0x50
 8110 1ca0 01       		.uleb128 0x1
 8111 1ca1 30       		.byte	0x30
 8112 1ca2 10       		.uleb128 0x10
 8113 1ca3 01       		.uleb128 0x1
 8114 1ca4 51       		.byte	0x51
 8115 1ca5 01       		.uleb128 0x1
 8116 1ca6 30       		.byte	0x30
 8117 1ca7 00       		.byte	0
 8118 1ca8 0F       		.uleb128 0xf
 8119 1ca9 14000000 		.4byte	.LVL311
 8120 1cad E9250000 		.4byte	0x25e9
 8121 1cb1 BF1C0000 		.4byte	0x1cbf
 8122 1cb5 10       		.uleb128 0x10
 8123 1cb6 01       		.uleb128 0x1
 8124 1cb7 50       		.byte	0x50
 8125 1cb8 05       		.uleb128 0x5
 8126 1cb9 03       		.byte	0x3
 8127 1cba 8C010000 		.4byte	.LC76
 8128 1cbe 00       		.byte	0
 8129 1cbf 0F       		.uleb128 0xf
 8130 1cc0 1C000000 		.4byte	.LVL312
 8131 1cc4 D3250000 		.4byte	0x25d3
 8132 1cc8 D71C0000 		.4byte	0x1cd7
 8133 1ccc 10       		.uleb128 0x10
 8134 1ccd 01       		.uleb128 0x1
 8135 1cce 50       		.byte	0x50
 8136 1ccf 01       		.uleb128 0x1
 8137 1cd0 30       		.byte	0x30
 8138 1cd1 10       		.uleb128 0x10
 8139 1cd2 01       		.uleb128 0x1
 8140 1cd3 51       		.byte	0x51
 8141 1cd4 01       		.uleb128 0x1
 8142 1cd5 31       		.byte	0x31
 8143 1cd6 00       		.byte	0
 8144 1cd7 0F       		.uleb128 0xf
 8145 1cd8 22000000 		.4byte	.LVL313
 8146 1cdc E9250000 		.4byte	0x25e9
 8147 1ce0 EE1C0000 		.4byte	0x1cee
 8148 1ce4 10       		.uleb128 0x10
 8149 1ce5 01       		.uleb128 0x1
 8150 1ce6 50       		.byte	0x50
 8151 1ce7 05       		.uleb128 0x5
 8152 1ce8 03       		.byte	0x3
 8153 1ce9 9C010000 		.4byte	.LC78
 8154 1ced 00       		.byte	0
 8155 1cee 0F       		.uleb128 0xf
 8156 1cef 2A000000 		.4byte	.LVL314
 8157 1cf3 D3250000 		.4byte	0x25d3
 8158 1cf7 061D0000 		.4byte	0x1d06
 8159 1cfb 10       		.uleb128 0x10
 8160 1cfc 01       		.uleb128 0x1
ARM GAS  C:\Users\HELLOK~1.1\AppData\Local\Temp\cc5k7xEp.s 			page 165


 8161 1cfd 50       		.byte	0x50
 8162 1cfe 01       		.uleb128 0x1
 8163 1cff 30       		.byte	0x30
 8164 1d00 10       		.uleb128 0x10
 8165 1d01 01       		.uleb128 0x1
 8166 1d02 51       		.byte	0x51
 8167 1d03 01       		.uleb128 0x1
 8168 1d04 32       		.byte	0x32
 8169 1d05 00       		.byte	0
 8170 1d06 0F       		.uleb128 0xf
 8171 1d07 30000000 		.4byte	.LVL315
 8172 1d0b E9250000 		.4byte	0x25e9
 8173 1d0f 1D1D0000 		.4byte	0x1d1d
 8174 1d13 10       		.uleb128 0x10
 8175 1d14 01       		.uleb128 0x1
 8176 1d15 50       		.byte	0x50
 8177 1d16 05       		.uleb128 0x5
 8178 1d17 03       		.byte	0x3
 8179 1d18 B0010000 		.4byte	.LC80
 8180 1d1c 00       		.byte	0
 8181 1d1d 0F       		.uleb128 0xf
 8182 1d1e 38000000 		.4byte	.LVL316
 8183 1d22 D3250000 		.4byte	0x25d3
 8184 1d26 351D0000 		.4byte	0x1d35
 8185 1d2a 10       		.uleb128 0x10
 8186 1d2b 01       		.uleb128 0x1
 8187 1d2c 50       		.byte	0x50
 8188 1d2d 01       		.uleb128 0x1
 8189 1d2e 30       		.byte	0x30
 8190 1d2f 10       		.uleb128 0x10
 8191 1d30 01       		.uleb128 0x1
 8192 1d31 51       		.byte	0x51
 8193 1d32 01       		.uleb128 0x1
 8194 1d33 33       		.byte	0x33
 8195 1d34 00       		.byte	0
 8196 1d35 0F       		.uleb128 0xf
 8197 1d36 3E000000 		.4byte	.LVL317
 8198 1d3a E9250000 		.4byte	0x25e9
 8199 1d3e 4C1D0000 		.4byte	0x1d4c
 8200 1d42 10       		.uleb128 0x10
 8201 1d43 01       		.uleb128 0x1
 8202 1d44 50       		.byte	0x50
 8203 1d45 05       		.uleb128 0x5
 8204 1d46 03       		.byte	0x3
 8205 1d47 C4010000 		.4byte	.LC82
 8206 1d4b 00       		.byte	0
 8207 1d4c 11       		.uleb128 0x11
 8208 1d4d 60000000 		.4byte	.LVL318
 8209 1d51 FD020000 		.4byte	0x2fd
 8210 1d55 11       		.uleb128 0x11
 8211 1d56 72000000 		.4byte	.LVL319
 8212 1d5a 7E260000 		.4byte	0x267e
 8213 1d5e 0F       		.uleb128 0xf
 8214 1d5f 7C000000 		.4byte	.LVL320
 8215 1d63 8D250000 		.4byte	0x258d
 8216 1d67 711D0000 		.4byte	0x1d71
 8217 1d6b 10       		.uleb128 0x10
ARM GAS  C:\Users\HELLOK~1.1\AppData\Local\Temp\cc5k7xEp.s 			page 166


 8218 1d6c 01       		.uleb128 0x1
 8219 1d6d 50       		.byte	0x50
 8220 1d6e 01       		.uleb128 0x1
 8221 1d6f 30       		.byte	0x30
 8222 1d70 00       		.byte	0
 8223 1d71 11       		.uleb128 0x11
 8224 1d72 86000000 		.4byte	.LVL321
 8225 1d76 300B0000 		.4byte	0xb30
 8226 1d7a 00       		.byte	0
 8227 1d7b 19       		.uleb128 0x19
 8228 1d7c 22030000 		.4byte	.LASF101
 8229 1d80 01       		.byte	0x1
 8230 1d81 1B03     		.2byte	0x31b
 8231 1d83 00000000 		.4byte	.LFB52
 8232 1d87 C8000000 		.4byte	.LFE52-.LFB52
 8233 1d8b 01       		.uleb128 0x1
 8234 1d8c 9C       		.byte	0x9c
 8235 1d8d 5F1E0000 		.4byte	0x1e5f
 8236 1d91 11       		.uleb128 0x11
 8237 1d92 06000000 		.4byte	.LVL322
 8238 1d96 6A260000 		.4byte	0x266a
 8239 1d9a 0F       		.uleb128 0xf
 8240 1d9b 0E000000 		.4byte	.LVL323
 8241 1d9f D3250000 		.4byte	0x25d3
 8242 1da3 B21D0000 		.4byte	0x1db2
 8243 1da7 10       		.uleb128 0x10
 8244 1da8 01       		.uleb128 0x1
 8245 1da9 50       		.byte	0x50
 8246 1daa 01       		.uleb128 0x1
 8247 1dab 30       		.byte	0x30
 8248 1dac 10       		.uleb128 0x10
 8249 1dad 01       		.uleb128 0x1
 8250 1dae 51       		.byte	0x51
 8251 1daf 01       		.uleb128 0x1
 8252 1db0 30       		.byte	0x30
 8253 1db1 00       		.byte	0
 8254 1db2 0F       		.uleb128 0xf
 8255 1db3 14000000 		.4byte	.LVL324
 8256 1db7 E9250000 		.4byte	0x25e9
 8257 1dbb C91D0000 		.4byte	0x1dc9
 8258 1dbf 10       		.uleb128 0x10
 8259 1dc0 01       		.uleb128 0x1
 8260 1dc1 50       		.byte	0x50
 8261 1dc2 05       		.uleb128 0x5
 8262 1dc3 03       		.byte	0x3
 8263 1dc4 D0010000 		.4byte	.LC86
 8264 1dc8 00       		.byte	0
 8265 1dc9 0F       		.uleb128 0xf
 8266 1dca 1C000000 		.4byte	.LVL325
 8267 1dce D3250000 		.4byte	0x25d3
 8268 1dd2 E11D0000 		.4byte	0x1de1
 8269 1dd6 10       		.uleb128 0x10
 8270 1dd7 01       		.uleb128 0x1
 8271 1dd8 50       		.byte	0x50
 8272 1dd9 01       		.uleb128 0x1
 8273 1dda 30       		.byte	0x30
 8274 1ddb 10       		.uleb128 0x10
ARM GAS  C:\Users\HELLOK~1.1\AppData\Local\Temp\cc5k7xEp.s 			page 167


 8275 1ddc 01       		.uleb128 0x1
 8276 1ddd 51       		.byte	0x51
 8277 1dde 01       		.uleb128 0x1
 8278 1ddf 32       		.byte	0x32
 8279 1de0 00       		.byte	0
 8280 1de1 0F       		.uleb128 0xf
 8281 1de2 2A000000 		.4byte	.LVL326
 8282 1de6 E9250000 		.4byte	0x25e9
 8283 1dea F81D0000 		.4byte	0x1df8
 8284 1dee 10       		.uleb128 0x10
 8285 1def 01       		.uleb128 0x1
 8286 1df0 50       		.byte	0x50
 8287 1df1 05       		.uleb128 0x5
 8288 1df2 03       		.byte	0x3
 8289 1df3 E4010000 		.4byte	.LC89
 8290 1df7 00       		.byte	0
 8291 1df8 0F       		.uleb128 0xf
 8292 1df9 32000000 		.4byte	.LVL327
 8293 1dfd E9250000 		.4byte	0x25e9
 8294 1e01 0F1E0000 		.4byte	0x1e0f
 8295 1e05 10       		.uleb128 0x10
 8296 1e06 01       		.uleb128 0x1
 8297 1e07 50       		.byte	0x50
 8298 1e08 05       		.uleb128 0x5
 8299 1e09 03       		.byte	0x3
 8300 1e0a E8010000 		.4byte	.LC91
 8301 1e0e 00       		.byte	0
 8302 1e0f 0F       		.uleb128 0xf
 8303 1e10 86000000 		.4byte	.LVL328
 8304 1e14 D3250000 		.4byte	0x25d3
 8305 1e18 271E0000 		.4byte	0x1e27
 8306 1e1c 10       		.uleb128 0x10
 8307 1e1d 01       		.uleb128 0x1
 8308 1e1e 50       		.byte	0x50
 8309 1e1f 01       		.uleb128 0x1
 8310 1e20 30       		.byte	0x30
 8311 1e21 10       		.uleb128 0x10
 8312 1e22 01       		.uleb128 0x1
 8313 1e23 51       		.byte	0x51
 8314 1e24 01       		.uleb128 0x1
 8315 1e25 32       		.byte	0x32
 8316 1e26 00       		.byte	0
 8317 1e27 0F       		.uleb128 0xf
 8318 1e28 94000000 		.4byte	.LVL329
 8319 1e2c E9250000 		.4byte	0x25e9
 8320 1e30 3E1E0000 		.4byte	0x1e3e
 8321 1e34 10       		.uleb128 0x10
 8322 1e35 01       		.uleb128 0x1
 8323 1e36 50       		.byte	0x50
 8324 1e37 05       		.uleb128 0x5
 8325 1e38 03       		.byte	0x3
 8326 1e39 E4010000 		.4byte	.LC89
 8327 1e3d 00       		.byte	0
 8328 1e3e 0F       		.uleb128 0xf
 8329 1e3f 9C000000 		.4byte	.LVL330
 8330 1e43 E9250000 		.4byte	0x25e9
 8331 1e47 551E0000 		.4byte	0x1e55
ARM GAS  C:\Users\HELLOK~1.1\AppData\Local\Temp\cc5k7xEp.s 			page 168


 8332 1e4b 10       		.uleb128 0x10
 8333 1e4c 01       		.uleb128 0x1
 8334 1e4d 50       		.byte	0x50
 8335 1e4e 05       		.uleb128 0x5
 8336 1e4f 03       		.byte	0x3
 8337 1e50 EC010000 		.4byte	.LC94
 8338 1e54 00       		.byte	0
 8339 1e55 11       		.uleb128 0x11
 8340 1e56 AE000000 		.4byte	.LVL331
 8341 1e5a 300B0000 		.4byte	0xb30
 8342 1e5e 00       		.byte	0
 8343 1e5f 19       		.uleb128 0x19
 8344 1e60 F6020000 		.4byte	.LASF102
 8345 1e64 01       		.byte	0x1
 8346 1e65 4503     		.2byte	0x345
 8347 1e67 00000000 		.4byte	.LFB53
 8348 1e6b C8000000 		.4byte	.LFE53-.LFB53
 8349 1e6f 01       		.uleb128 0x1
 8350 1e70 9C       		.byte	0x9c
 8351 1e71 431F0000 		.4byte	0x1f43
 8352 1e75 11       		.uleb128 0x11
 8353 1e76 06000000 		.4byte	.LVL332
 8354 1e7a 6A260000 		.4byte	0x266a
 8355 1e7e 0F       		.uleb128 0xf
 8356 1e7f 0E000000 		.4byte	.LVL333
 8357 1e83 D3250000 		.4byte	0x25d3
 8358 1e87 961E0000 		.4byte	0x1e96
 8359 1e8b 10       		.uleb128 0x10
 8360 1e8c 01       		.uleb128 0x1
 8361 1e8d 50       		.byte	0x50
 8362 1e8e 01       		.uleb128 0x1
 8363 1e8f 30       		.byte	0x30
 8364 1e90 10       		.uleb128 0x10
 8365 1e91 01       		.uleb128 0x1
 8366 1e92 51       		.byte	0x51
 8367 1e93 01       		.uleb128 0x1
 8368 1e94 30       		.byte	0x30
 8369 1e95 00       		.byte	0
 8370 1e96 0F       		.uleb128 0xf
 8371 1e97 14000000 		.4byte	.LVL334
 8372 1e9b E9250000 		.4byte	0x25e9
 8373 1e9f AD1E0000 		.4byte	0x1ead
 8374 1ea3 10       		.uleb128 0x10
 8375 1ea4 01       		.uleb128 0x1
 8376 1ea5 50       		.byte	0x50
 8377 1ea6 05       		.uleb128 0x5
 8378 1ea7 03       		.byte	0x3
 8379 1ea8 D0010000 		.4byte	.LC86
 8380 1eac 00       		.byte	0
 8381 1ead 0F       		.uleb128 0xf
 8382 1eae 1C000000 		.4byte	.LVL335
 8383 1eb2 D3250000 		.4byte	0x25d3
 8384 1eb6 C51E0000 		.4byte	0x1ec5
 8385 1eba 10       		.uleb128 0x10
 8386 1ebb 01       		.uleb128 0x1
 8387 1ebc 50       		.byte	0x50
 8388 1ebd 01       		.uleb128 0x1
ARM GAS  C:\Users\HELLOK~1.1\AppData\Local\Temp\cc5k7xEp.s 			page 169


 8389 1ebe 30       		.byte	0x30
 8390 1ebf 10       		.uleb128 0x10
 8391 1ec0 01       		.uleb128 0x1
 8392 1ec1 51       		.byte	0x51
 8393 1ec2 01       		.uleb128 0x1
 8394 1ec3 32       		.byte	0x32
 8395 1ec4 00       		.byte	0
 8396 1ec5 0F       		.uleb128 0xf
 8397 1ec6 2A000000 		.4byte	.LVL336
 8398 1eca E9250000 		.4byte	0x25e9
 8399 1ece DC1E0000 		.4byte	0x1edc
 8400 1ed2 10       		.uleb128 0x10
 8401 1ed3 01       		.uleb128 0x1
 8402 1ed4 50       		.byte	0x50
 8403 1ed5 05       		.uleb128 0x5
 8404 1ed6 03       		.byte	0x3
 8405 1ed7 E4010000 		.4byte	.LC89
 8406 1edb 00       		.byte	0
 8407 1edc 0F       		.uleb128 0xf
 8408 1edd 32000000 		.4byte	.LVL337
 8409 1ee1 E9250000 		.4byte	0x25e9
 8410 1ee5 F31E0000 		.4byte	0x1ef3
 8411 1ee9 10       		.uleb128 0x10
 8412 1eea 01       		.uleb128 0x1
 8413 1eeb 50       		.byte	0x50
 8414 1eec 05       		.uleb128 0x5
 8415 1eed 03       		.byte	0x3
 8416 1eee E8010000 		.4byte	.LC91
 8417 1ef2 00       		.byte	0
 8418 1ef3 0F       		.uleb128 0xf
 8419 1ef4 86000000 		.4byte	.LVL338
 8420 1ef8 D3250000 		.4byte	0x25d3
 8421 1efc 0B1F0000 		.4byte	0x1f0b
 8422 1f00 10       		.uleb128 0x10
 8423 1f01 01       		.uleb128 0x1
 8424 1f02 50       		.byte	0x50
 8425 1f03 01       		.uleb128 0x1
 8426 1f04 30       		.byte	0x30
 8427 1f05 10       		.uleb128 0x10
 8428 1f06 01       		.uleb128 0x1
 8429 1f07 51       		.byte	0x51
 8430 1f08 01       		.uleb128 0x1
 8431 1f09 32       		.byte	0x32
 8432 1f0a 00       		.byte	0
 8433 1f0b 0F       		.uleb128 0xf
 8434 1f0c 94000000 		.4byte	.LVL339
 8435 1f10 E9250000 		.4byte	0x25e9
 8436 1f14 221F0000 		.4byte	0x1f22
 8437 1f18 10       		.uleb128 0x10
 8438 1f19 01       		.uleb128 0x1
 8439 1f1a 50       		.byte	0x50
 8440 1f1b 05       		.uleb128 0x5
 8441 1f1c 03       		.byte	0x3
 8442 1f1d E4010000 		.4byte	.LC89
 8443 1f21 00       		.byte	0
 8444 1f22 0F       		.uleb128 0xf
 8445 1f23 9C000000 		.4byte	.LVL340
ARM GAS  C:\Users\HELLOK~1.1\AppData\Local\Temp\cc5k7xEp.s 			page 170


 8446 1f27 E9250000 		.4byte	0x25e9
 8447 1f2b 391F0000 		.4byte	0x1f39
 8448 1f2f 10       		.uleb128 0x10
 8449 1f30 01       		.uleb128 0x1
 8450 1f31 50       		.byte	0x50
 8451 1f32 05       		.uleb128 0x5
 8452 1f33 03       		.byte	0x3
 8453 1f34 EC010000 		.4byte	.LC94
 8454 1f38 00       		.byte	0
 8455 1f39 11       		.uleb128 0x11
 8456 1f3a AE000000 		.4byte	.LVL341
 8457 1f3e 300B0000 		.4byte	0xb30
 8458 1f42 00       		.byte	0
 8459 1f43 19       		.uleb128 0x19
 8460 1f44 AA050000 		.4byte	.LASF103
 8461 1f48 01       		.byte	0x1
 8462 1f49 7103     		.2byte	0x371
 8463 1f4b 00000000 		.4byte	.LFB54
 8464 1f4f F0000000 		.4byte	.LFE54-.LFB54
 8465 1f53 01       		.uleb128 0x1
 8466 1f54 9C       		.byte	0x9c
 8467 1f55 9B200000 		.4byte	0x209b
 8468 1f59 23       		.uleb128 0x23
 8469 1f5a BE030000 		.4byte	.LASF104
 8470 1f5e 01       		.byte	0x1
 8471 1f5f 7303     		.2byte	0x373
 8472 1f61 6B000000 		.4byte	0x6b
 8473 1f65 FC040000 		.4byte	.LLST27
 8474 1f69 11       		.uleb128 0x11
 8475 1f6a 06000000 		.4byte	.LVL342
 8476 1f6e 6A260000 		.4byte	0x266a
 8477 1f72 0F       		.uleb128 0xf
 8478 1f73 0E000000 		.4byte	.LVL343
 8479 1f77 D3250000 		.4byte	0x25d3
 8480 1f7b 8A1F0000 		.4byte	0x1f8a
 8481 1f7f 10       		.uleb128 0x10
 8482 1f80 01       		.uleb128 0x1
 8483 1f81 50       		.byte	0x50
 8484 1f82 01       		.uleb128 0x1
 8485 1f83 30       		.byte	0x30
 8486 1f84 10       		.uleb128 0x10
 8487 1f85 01       		.uleb128 0x1
 8488 1f86 51       		.byte	0x51
 8489 1f87 01       		.uleb128 0x1
 8490 1f88 30       		.byte	0x30
 8491 1f89 00       		.byte	0
 8492 1f8a 0F       		.uleb128 0xf
 8493 1f8b 14000000 		.4byte	.LVL344
 8494 1f8f E9250000 		.4byte	0x25e9
 8495 1f93 A11F0000 		.4byte	0x1fa1
 8496 1f97 10       		.uleb128 0x10
 8497 1f98 01       		.uleb128 0x1
 8498 1f99 50       		.byte	0x50
 8499 1f9a 05       		.uleb128 0x5
 8500 1f9b 03       		.byte	0x3
 8501 1f9c F0010000 		.4byte	.LC102
 8502 1fa0 00       		.byte	0
ARM GAS  C:\Users\HELLOK~1.1\AppData\Local\Temp\cc5k7xEp.s 			page 171


 8503 1fa1 0F       		.uleb128 0xf
 8504 1fa2 1C000000 		.4byte	.LVL345
 8505 1fa6 D3250000 		.4byte	0x25d3
 8506 1faa B91F0000 		.4byte	0x1fb9
 8507 1fae 10       		.uleb128 0x10
 8508 1faf 01       		.uleb128 0x1
 8509 1fb0 50       		.byte	0x50
 8510 1fb1 01       		.uleb128 0x1
 8511 1fb2 30       		.byte	0x30
 8512 1fb3 10       		.uleb128 0x10
 8513 1fb4 01       		.uleb128 0x1
 8514 1fb5 51       		.byte	0x51
 8515 1fb6 01       		.uleb128 0x1
 8516 1fb7 31       		.byte	0x31
 8517 1fb8 00       		.byte	0
 8518 1fb9 0F       		.uleb128 0xf
 8519 1fba 22000000 		.4byte	.LVL346
 8520 1fbe E9250000 		.4byte	0x25e9
 8521 1fc2 D01F0000 		.4byte	0x1fd0
 8522 1fc6 10       		.uleb128 0x10
 8523 1fc7 01       		.uleb128 0x1
 8524 1fc8 50       		.byte	0x50
 8525 1fc9 05       		.uleb128 0x5
 8526 1fca 03       		.byte	0x3
 8527 1fcb 00020000 		.4byte	.LC104
 8528 1fcf 00       		.byte	0
 8529 1fd0 0F       		.uleb128 0xf
 8530 1fd1 2A000000 		.4byte	.LVL347
 8531 1fd5 D3250000 		.4byte	0x25d3
 8532 1fd9 E81F0000 		.4byte	0x1fe8
 8533 1fdd 10       		.uleb128 0x10
 8534 1fde 01       		.uleb128 0x1
 8535 1fdf 50       		.byte	0x50
 8536 1fe0 01       		.uleb128 0x1
 8537 1fe1 30       		.byte	0x30
 8538 1fe2 10       		.uleb128 0x10
 8539 1fe3 01       		.uleb128 0x1
 8540 1fe4 51       		.byte	0x51
 8541 1fe5 01       		.uleb128 0x1
 8542 1fe6 32       		.byte	0x32
 8543 1fe7 00       		.byte	0
 8544 1fe8 0F       		.uleb128 0xf
 8545 1fe9 30000000 		.4byte	.LVL348
 8546 1fed E9250000 		.4byte	0x25e9
 8547 1ff1 FF1F0000 		.4byte	0x1fff
 8548 1ff5 10       		.uleb128 0x10
 8549 1ff6 01       		.uleb128 0x1
 8550 1ff7 50       		.byte	0x50
 8551 1ff8 05       		.uleb128 0x5
 8552 1ff9 03       		.byte	0x3
 8553 1ffa 18000000 		.4byte	.LC12
 8554 1ffe 00       		.byte	0
 8555 1fff 0F       		.uleb128 0xf
 8556 2000 38000000 		.4byte	.LVL349
 8557 2004 D3250000 		.4byte	0x25d3
 8558 2008 17200000 		.4byte	0x2017
 8559 200c 10       		.uleb128 0x10
ARM GAS  C:\Users\HELLOK~1.1\AppData\Local\Temp\cc5k7xEp.s 			page 172


 8560 200d 01       		.uleb128 0x1
 8561 200e 50       		.byte	0x50
 8562 200f 01       		.uleb128 0x1
 8563 2010 30       		.byte	0x30
 8564 2011 10       		.uleb128 0x10
 8565 2012 01       		.uleb128 0x1
 8566 2013 51       		.byte	0x51
 8567 2014 01       		.uleb128 0x1
 8568 2015 33       		.byte	0x33
 8569 2016 00       		.byte	0
 8570 2017 0F       		.uleb128 0xf
 8571 2018 3E000000 		.4byte	.LVL350
 8572 201c E9250000 		.4byte	0x25e9
 8573 2020 2E200000 		.4byte	0x202e
 8574 2024 10       		.uleb128 0x10
 8575 2025 01       		.uleb128 0x1
 8576 2026 50       		.byte	0x50
 8577 2027 05       		.uleb128 0x5
 8578 2028 03       		.byte	0x3
 8579 2029 10020000 		.4byte	.LC107
 8580 202d 00       		.byte	0
 8581 202e 0F       		.uleb128 0xf
 8582 202f 46000000 		.4byte	.LVL351
 8583 2033 FF250000 		.4byte	0x25ff
 8584 2037 43200000 		.4byte	0x2043
 8585 203b 10       		.uleb128 0x10
 8586 203c 01       		.uleb128 0x1
 8587 203d 50       		.byte	0x50
 8588 203e 03       		.uleb128 0x3
 8589 203f 0A       		.byte	0xa
 8590 2040 E803     		.2byte	0x3e8
 8591 2042 00       		.byte	0
 8592 2043 0F       		.uleb128 0xf
 8593 2044 88000000 		.4byte	.LVL360
 8594 2048 D3250000 		.4byte	0x25d3
 8595 204c 5B200000 		.4byte	0x205b
 8596 2050 10       		.uleb128 0x10
 8597 2051 01       		.uleb128 0x1
 8598 2052 50       		.byte	0x50
 8599 2053 01       		.uleb128 0x1
 8600 2054 30       		.byte	0x30
 8601 2055 10       		.uleb128 0x10
 8602 2056 01       		.uleb128 0x1
 8603 2057 51       		.byte	0x51
 8604 2058 01       		.uleb128 0x1
 8605 2059 33       		.byte	0x33
 8606 205a 00       		.byte	0
 8607 205b 11       		.uleb128 0x11
 8608 205c 94000000 		.4byte	.LVL361
 8609 2060 E9250000 		.4byte	0x25e9
 8610 2064 11       		.uleb128 0x11
 8611 2065 B2000000 		.4byte	.LVL363
 8612 2069 3D0E0000 		.4byte	0xe3d
 8613 206d 11       		.uleb128 0x11
 8614 206e B8000000 		.4byte	.LVL364
 8615 2072 B7150000 		.4byte	0x15b7
 8616 2076 11       		.uleb128 0x11
ARM GAS  C:\Users\HELLOK~1.1\AppData\Local\Temp\cc5k7xEp.s 			page 173


 8617 2077 BE000000 		.4byte	.LVL365
 8618 207b 711C0000 		.4byte	0x1c71
 8619 207f 11       		.uleb128 0x11
 8620 2080 C4000000 		.4byte	.LVL366
 8621 2084 7B1D0000 		.4byte	0x1d7b
 8622 2088 11       		.uleb128 0x11
 8623 2089 CA000000 		.4byte	.LVL367
 8624 208d 5F1E0000 		.4byte	0x1e5f
 8625 2091 11       		.uleb128 0x11
 8626 2092 D0000000 		.4byte	.LVL368
 8627 2096 300B0000 		.4byte	0xb30
 8628 209a 00       		.byte	0
 8629 209b 25       		.uleb128 0x25
 8630 209c CD060000 		.4byte	.LASF151
 8631 20a0 01       		.byte	0x1
 8632 20a1 B803     		.2byte	0x3b8
 8633 20a3 5D000000 		.4byte	0x5d
 8634 20a7 00000000 		.4byte	.LFB55
 8635 20ab 18020000 		.4byte	.LFE55-.LFB55
 8636 20af 01       		.uleb128 0x1
 8637 20b0 9C       		.byte	0x9c
 8638 20b1 21240000 		.4byte	0x2421
 8639 20b5 1A       		.uleb128 0x1a
 8640 20b6 01020000 		.4byte	.LASF105
 8641 20ba 01       		.byte	0x1
 8642 20bb C103     		.2byte	0x3c1
 8643 20bd EA000000 		.4byte	0xea
 8644 20c1 02       		.uleb128 0x2
 8645 20c2 91       		.byte	0x91
 8646 20c3 50       		.sleb128 -48
 8647 20c4 1A       		.uleb128 0x1a
 8648 20c5 8B030000 		.4byte	.LASF106
 8649 20c9 01       		.byte	0x1
 8650 20ca C203     		.2byte	0x3c2
 8651 20cc 1A010000 		.4byte	0x11a
 8652 20d0 02       		.uleb128 0x2
 8653 20d1 91       		.byte	0x91
 8654 20d2 44       		.sleb128 -60
 8655 20d3 1A       		.uleb128 0x1a
 8656 20d4 C2010000 		.4byte	.LASF78
 8657 20d8 01       		.byte	0x1
 8658 20d9 C303     		.2byte	0x3c3
 8659 20db EA000000 		.4byte	0xea
 8660 20df 03       		.uleb128 0x3
 8661 20e0 91       		.byte	0x91
 8662 20e1 BC7F     		.sleb128 -68
 8663 20e3 1A       		.uleb128 0x1a
 8664 20e4 AD020000 		.4byte	.LASF80
 8665 20e8 01       		.byte	0x1
 8666 20e9 C403     		.2byte	0x3c4
 8667 20eb 1A010000 		.4byte	0x11a
 8668 20ef 03       		.uleb128 0x3
 8669 20f0 91       		.byte	0x91
 8670 20f1 B07F     		.sleb128 -80
 8671 20f3 1A       		.uleb128 0x1a
 8672 20f4 F7000000 		.4byte	.LASF74
 8673 20f8 01       		.byte	0x1
ARM GAS  C:\Users\HELLOK~1.1\AppData\Local\Temp\cc5k7xEp.s 			page 174


 8674 20f9 C603     		.2byte	0x3c6
 8675 20fb A8040000 		.4byte	0x4a8
 8676 20ff 03       		.uleb128 0x3
 8677 2100 91       		.byte	0x91
 8678 2101 AC7F     		.sleb128 -84
 8679 2103 20       		.uleb128 0x20
 8680 2104 8A000000 		.4byte	.LBB19
 8681 2108 76010000 		.4byte	.LBE19-.LBB19
 8682 210c 96230000 		.4byte	0x2396
 8683 2110 1A       		.uleb128 0x1a
 8684 2111 64060000 		.4byte	.LASF92
 8685 2115 01       		.byte	0x1
 8686 2116 D103     		.2byte	0x3d1
 8687 2118 EA000000 		.4byte	0xea
 8688 211c 03       		.uleb128 0x3
 8689 211d 91       		.byte	0x91
 8690 211e 887F     		.sleb128 -120
 8691 2120 1E       		.uleb128 0x1e
 8692 2121 73656300 		.ascii	"sec\000"
 8693 2125 01       		.byte	0x1
 8694 2126 D303     		.2byte	0x3d3
 8695 2128 2F060000 		.4byte	0x62f
 8696 212c 03       		.uleb128 0x3
 8697 212d 91       		.byte	0x91
 8698 212e F07E     		.sleb128 -144
 8699 2130 1E       		.uleb128 0x1e
 8700 2131 6D696E00 		.ascii	"min\000"
 8701 2135 01       		.byte	0x1
 8702 2136 D503     		.2byte	0x3d5
 8703 2138 2F060000 		.4byte	0x62f
 8704 213c 03       		.uleb128 0x3
 8705 213d 91       		.byte	0x91
 8706 213e F47E     		.sleb128 -140
 8707 2140 1A       		.uleb128 0x1a
 8708 2141 2D030000 		.4byte	.LASF18
 8709 2145 01       		.byte	0x1
 8710 2146 D703     		.2byte	0x3d7
 8711 2148 2F060000 		.4byte	0x62f
 8712 214c 03       		.uleb128 0x3
 8713 214d 91       		.byte	0x91
 8714 214e F87E     		.sleb128 -136
 8715 2150 1E       		.uleb128 0x1e
 8716 2151 64617900 		.ascii	"day\000"
 8717 2155 01       		.byte	0x1
 8718 2156 D903     		.2byte	0x3d9
 8719 2158 2F060000 		.4byte	0x62f
 8720 215c 03       		.uleb128 0x3
 8721 215d 91       		.byte	0x91
 8722 215e FC7E     		.sleb128 -132
 8723 2160 1A       		.uleb128 0x1a
 8724 2161 F0020000 		.4byte	.LASF21
 8725 2165 01       		.byte	0x1
 8726 2166 DB03     		.2byte	0x3db
 8727 2168 2F060000 		.4byte	0x62f
 8728 216c 03       		.uleb128 0x3
 8729 216d 91       		.byte	0x91
 8730 216e 807F     		.sleb128 -128
ARM GAS  C:\Users\HELLOK~1.1\AppData\Local\Temp\cc5k7xEp.s 			page 175


 8731 2170 1A       		.uleb128 0x1a
 8732 2171 37060000 		.4byte	.LASF22
 8733 2175 01       		.byte	0x1
 8734 2176 DD03     		.2byte	0x3dd
 8735 2178 2F060000 		.4byte	0x62f
 8736 217c 03       		.uleb128 0x3
 8737 217d 91       		.byte	0x91
 8738 217e 847F     		.sleb128 -124
 8739 2180 1A       		.uleb128 0x1a
 8740 2181 9C060000 		.4byte	.LASF107
 8741 2185 01       		.byte	0x1
 8742 2186 E803     		.2byte	0x3e8
 8743 2188 1A010000 		.4byte	0x11a
 8744 218c 03       		.uleb128 0x3
 8745 218d 91       		.byte	0x91
 8746 218e A07F     		.sleb128 -96
 8747 2190 20       		.uleb128 0x20
 8748 2191 DC000000 		.4byte	.LBB20
 8749 2195 2C000000 		.4byte	.LBE20-.LBB20
 8750 2199 FD210000 		.4byte	0x21fd
 8751 219d 1A       		.uleb128 0x1a
 8752 219e E7020000 		.4byte	.LASF77
 8753 21a2 01       		.byte	0x1
 8754 21a3 E003     		.2byte	0x3e0
 8755 21a5 B2150000 		.4byte	0x15b2
 8756 21a9 03       		.uleb128 0x3
 8757 21aa 91       		.byte	0x91
 8758 21ab 907F     		.sleb128 -112
 8759 21ad 11       		.uleb128 0x11
 8760 21ae E0000000 		.4byte	.LVL383
 8761 21b2 7B030000 		.4byte	0x37b
 8762 21b6 11       		.uleb128 0x11
 8763 21b7 EE000000 		.4byte	.LVL384
 8764 21bb 7B030000 		.4byte	0x37b
 8765 21bf 0F       		.uleb128 0xf
 8766 21c0 FE000000 		.4byte	.LVL385
 8767 21c4 75260000 		.4byte	0x2675
 8768 21c8 DF210000 		.4byte	0x21df
 8769 21cc 10       		.uleb128 0x10
 8770 21cd 01       		.uleb128 0x1
 8771 21ce 50       		.byte	0x50
 8772 21cf 03       		.uleb128 0x3
 8773 21d0 91       		.byte	0x91
 8774 21d1 907F     		.sleb128 -112
 8775 21d3 10       		.uleb128 0x10
 8776 21d4 01       		.uleb128 0x1
 8777 21d5 51       		.byte	0x51
 8778 21d6 02       		.uleb128 0x2
 8779 21d7 74       		.byte	0x74
 8780 21d8 00       		.sleb128 0
 8781 21d9 10       		.uleb128 0x10
 8782 21da 01       		.uleb128 0x1
 8783 21db 52       		.byte	0x52
 8784 21dc 01       		.uleb128 0x1
 8785 21dd 38       		.byte	0x38
 8786 21de 00       		.byte	0
 8787 21df 1B       		.uleb128 0x1b
ARM GAS  C:\Users\HELLOK~1.1\AppData\Local\Temp\cc5k7xEp.s 			page 176


 8788 21e0 08010000 		.4byte	.LVL386
 8789 21e4 75260000 		.4byte	0x2675
 8790 21e8 10       		.uleb128 0x10
 8791 21e9 01       		.uleb128 0x1
 8792 21ea 50       		.byte	0x50
 8793 21eb 03       		.uleb128 0x3
 8794 21ec 91       		.byte	0x91
 8795 21ed 887F     		.sleb128 -120
 8796 21ef 10       		.uleb128 0x10
 8797 21f0 01       		.uleb128 0x1
 8798 21f1 51       		.byte	0x51
 8799 21f2 03       		.uleb128 0x3
 8800 21f3 91       		.byte	0x91
 8801 21f4 907F     		.sleb128 -112
 8802 21f6 10       		.uleb128 0x10
 8803 21f7 01       		.uleb128 0x1
 8804 21f8 52       		.byte	0x52
 8805 21f9 01       		.uleb128 0x1
 8806 21fa 38       		.byte	0x38
 8807 21fb 00       		.byte	0
 8808 21fc 00       		.byte	0
 8809 21fd 20       		.uleb128 0x20
 8810 21fe 0A010000 		.4byte	.LBB21
 8811 2202 2A000000 		.4byte	.LBE21-.LBB21
 8812 2206 6A220000 		.4byte	0x226a
 8813 220a 1A       		.uleb128 0x1a
 8814 220b E7020000 		.4byte	.LASF77
 8815 220f 01       		.byte	0x1
 8816 2210 E403     		.2byte	0x3e4
 8817 2212 B2150000 		.4byte	0x15b2
 8818 2216 03       		.uleb128 0x3
 8819 2217 91       		.byte	0x91
 8820 2218 987F     		.sleb128 -104
 8821 221a 11       		.uleb128 0x11
 8822 221b 0E010000 		.4byte	.LVL387
 8823 221f 7B030000 		.4byte	0x37b
 8824 2223 11       		.uleb128 0x11
 8825 2224 1A010000 		.4byte	.LVL388
 8826 2228 7B030000 		.4byte	0x37b
 8827 222c 0F       		.uleb128 0xf
 8828 222d 2A010000 		.4byte	.LVL389
 8829 2231 75260000 		.4byte	0x2675
 8830 2235 4C220000 		.4byte	0x224c
 8831 2239 10       		.uleb128 0x10
 8832 223a 01       		.uleb128 0x1
 8833 223b 50       		.byte	0x50
 8834 223c 03       		.uleb128 0x3
 8835 223d 91       		.byte	0x91
 8836 223e 987F     		.sleb128 -104
 8837 2240 10       		.uleb128 0x10
 8838 2241 01       		.uleb128 0x1
 8839 2242 51       		.byte	0x51
 8840 2243 02       		.uleb128 0x2
 8841 2244 74       		.byte	0x74
 8842 2245 00       		.sleb128 0
 8843 2246 10       		.uleb128 0x10
 8844 2247 01       		.uleb128 0x1
ARM GAS  C:\Users\HELLOK~1.1\AppData\Local\Temp\cc5k7xEp.s 			page 177


 8845 2248 52       		.byte	0x52
 8846 2249 01       		.uleb128 0x1
 8847 224a 38       		.byte	0x38
 8848 224b 00       		.byte	0
 8849 224c 1B       		.uleb128 0x1b
 8850 224d 34010000 		.4byte	.LVL390
 8851 2251 75260000 		.4byte	0x2675
 8852 2255 10       		.uleb128 0x10
 8853 2256 01       		.uleb128 0x1
 8854 2257 50       		.byte	0x50
 8855 2258 03       		.uleb128 0x3
 8856 2259 91       		.byte	0x91
 8857 225a 887F     		.sleb128 -120
 8858 225c 10       		.uleb128 0x10
 8859 225d 01       		.uleb128 0x1
 8860 225e 51       		.byte	0x51
 8861 225f 03       		.uleb128 0x3
 8862 2260 91       		.byte	0x91
 8863 2261 987F     		.sleb128 -104
 8864 2263 10       		.uleb128 0x10
 8865 2264 01       		.uleb128 0x1
 8866 2265 52       		.byte	0x52
 8867 2266 01       		.uleb128 0x1
 8868 2267 38       		.byte	0x38
 8869 2268 00       		.byte	0
 8870 2269 00       		.byte	0
 8871 226a 0F       		.uleb128 0xf
 8872 226b 98000000 		.4byte	.LVL377
 8873 226f 62050000 		.4byte	0x562
 8874 2273 8A220000 		.4byte	0x228a
 8875 2277 10       		.uleb128 0x10
 8876 2278 01       		.uleb128 0x1
 8877 2279 50       		.byte	0x50
 8878 227a 03       		.uleb128 0x3
 8879 227b 91       		.byte	0x91
 8880 227c F07E     		.sleb128 -144
 8881 227e 10       		.uleb128 0x10
 8882 227f 01       		.uleb128 0x1
 8883 2280 51       		.byte	0x51
 8884 2281 01       		.uleb128 0x1
 8885 2282 31       		.byte	0x31
 8886 2283 10       		.uleb128 0x10
 8887 2284 01       		.uleb128 0x1
 8888 2285 52       		.byte	0x52
 8889 2286 02       		.uleb128 0x2
 8890 2287 08       		.byte	0x8
 8891 2288 51       		.byte	0x51
 8892 2289 00       		.byte	0
 8893 228a 0F       		.uleb128 0xf
 8894 228b A4000000 		.4byte	.LVL378
 8895 228f 62050000 		.4byte	0x562
 8896 2293 AA220000 		.4byte	0x22aa
 8897 2297 10       		.uleb128 0x10
 8898 2298 01       		.uleb128 0x1
 8899 2299 50       		.byte	0x50
 8900 229a 03       		.uleb128 0x3
 8901 229b 91       		.byte	0x91
ARM GAS  C:\Users\HELLOK~1.1\AppData\Local\Temp\cc5k7xEp.s 			page 178


 8902 229c F47E     		.sleb128 -140
 8903 229e 10       		.uleb128 0x10
 8904 229f 01       		.uleb128 0x1
 8905 22a0 51       		.byte	0x51
 8906 22a1 01       		.uleb128 0x1
 8907 22a2 31       		.byte	0x31
 8908 22a3 10       		.uleb128 0x10
 8909 22a4 01       		.uleb128 0x1
 8910 22a5 52       		.byte	0x52
 8911 22a6 02       		.uleb128 0x2
 8912 22a7 08       		.byte	0x8
 8913 22a8 51       		.byte	0x51
 8914 22a9 00       		.byte	0
 8915 22aa 0F       		.uleb128 0xf
 8916 22ab B2000000 		.4byte	.LVL379
 8917 22af 62050000 		.4byte	0x562
 8918 22b3 C9220000 		.4byte	0x22c9
 8919 22b7 10       		.uleb128 0x10
 8920 22b8 01       		.uleb128 0x1
 8921 22b9 50       		.byte	0x50
 8922 22ba 02       		.uleb128 0x2
 8923 22bb 75       		.byte	0x75
 8924 22bc 00       		.sleb128 0
 8925 22bd 10       		.uleb128 0x10
 8926 22be 01       		.uleb128 0x1
 8927 22bf 51       		.byte	0x51
 8928 22c0 01       		.uleb128 0x1
 8929 22c1 31       		.byte	0x31
 8930 22c2 10       		.uleb128 0x10
 8931 22c3 01       		.uleb128 0x1
 8932 22c4 52       		.byte	0x52
 8933 22c5 02       		.uleb128 0x2
 8934 22c6 08       		.byte	0x8
 8935 22c7 51       		.byte	0x51
 8936 22c8 00       		.byte	0
 8937 22c9 0F       		.uleb128 0xf
 8938 22ca BE000000 		.4byte	.LVL380
 8939 22ce 62050000 		.4byte	0x562
 8940 22d2 E9220000 		.4byte	0x22e9
 8941 22d6 10       		.uleb128 0x10
 8942 22d7 01       		.uleb128 0x1
 8943 22d8 50       		.byte	0x50
 8944 22d9 03       		.uleb128 0x3
 8945 22da 91       		.byte	0x91
 8946 22db FC7E     		.sleb128 -132
 8947 22dd 10       		.uleb128 0x10
 8948 22de 01       		.uleb128 0x1
 8949 22df 51       		.byte	0x51
 8950 22e0 01       		.uleb128 0x1
 8951 22e1 31       		.byte	0x31
 8952 22e2 10       		.uleb128 0x10
 8953 22e3 01       		.uleb128 0x1
 8954 22e4 52       		.byte	0x52
 8955 22e5 02       		.uleb128 0x2
 8956 22e6 08       		.byte	0x8
 8957 22e7 51       		.byte	0x51
 8958 22e8 00       		.byte	0
ARM GAS  C:\Users\HELLOK~1.1\AppData\Local\Temp\cc5k7xEp.s 			page 179


 8959 22e9 0F       		.uleb128 0xf
 8960 22ea CA000000 		.4byte	.LVL381
 8961 22ee 62050000 		.4byte	0x562
 8962 22f2 09230000 		.4byte	0x2309
 8963 22f6 10       		.uleb128 0x10
 8964 22f7 01       		.uleb128 0x1
 8965 22f8 50       		.byte	0x50
 8966 22f9 03       		.uleb128 0x3
 8967 22fa 91       		.byte	0x91
 8968 22fb 807F     		.sleb128 -128
 8969 22fd 10       		.uleb128 0x10
 8970 22fe 01       		.uleb128 0x1
 8971 22ff 51       		.byte	0x51
 8972 2300 01       		.uleb128 0x1
 8973 2301 31       		.byte	0x31
 8974 2302 10       		.uleb128 0x10
 8975 2303 01       		.uleb128 0x1
 8976 2304 52       		.byte	0x52
 8977 2305 02       		.uleb128 0x2
 8978 2306 08       		.byte	0x8
 8979 2307 51       		.byte	0x51
 8980 2308 00       		.byte	0
 8981 2309 0F       		.uleb128 0xf
 8982 230a D6000000 		.4byte	.LVL382
 8983 230e 62050000 		.4byte	0x562
 8984 2312 29230000 		.4byte	0x2329
 8985 2316 10       		.uleb128 0x10
 8986 2317 01       		.uleb128 0x1
 8987 2318 50       		.byte	0x50
 8988 2319 03       		.uleb128 0x3
 8989 231a 91       		.byte	0x91
 8990 231b 847F     		.sleb128 -124
 8991 231d 10       		.uleb128 0x10
 8992 231e 01       		.uleb128 0x1
 8993 231f 51       		.byte	0x51
 8994 2320 01       		.uleb128 0x1
 8995 2321 31       		.byte	0x31
 8996 2322 10       		.uleb128 0x10
 8997 2323 01       		.uleb128 0x1
 8998 2324 52       		.byte	0x52
 8999 2325 02       		.uleb128 0x2
 9000 2326 08       		.byte	0x8
 9001 2327 51       		.byte	0x51
 9002 2328 00       		.byte	0
 9003 2329 11       		.uleb128 0x11
 9004 232a 3C010000 		.4byte	.LVL391
 9005 232e 7B030000 		.4byte	0x37b
 9006 2332 11       		.uleb128 0x11
 9007 2333 48010000 		.4byte	.LVL392
 9008 2337 7B030000 		.4byte	0x37b
 9009 233b 11       		.uleb128 0x11
 9010 233c 5C010000 		.4byte	.LVL393
 9011 2340 7B030000 		.4byte	0x37b
 9012 2344 11       		.uleb128 0x11
 9013 2345 70010000 		.4byte	.LVL394
 9014 2349 630A0000 		.4byte	0xa63
 9015 234d 0F       		.uleb128 0xf
ARM GAS  C:\Users\HELLOK~1.1\AppData\Local\Temp\cc5k7xEp.s 			page 180


 9016 234e B0010000 		.4byte	.LVL395
 9017 2352 89260000 		.4byte	0x2689
 9018 2356 69230000 		.4byte	0x2369
 9019 235a 10       		.uleb128 0x10
 9020 235b 01       		.uleb128 0x1
 9021 235c 51       		.byte	0x51
 9022 235d 05       		.uleb128 0x5
 9023 235e 03       		.byte	0x3
 9024 235f A0000000 		.4byte	.LC0
 9025 2363 10       		.uleb128 0x10
 9026 2364 01       		.uleb128 0x1
 9027 2365 52       		.byte	0x52
 9028 2366 01       		.uleb128 0x1
 9029 2367 32       		.byte	0x32
 9030 2368 00       		.byte	0
 9031 2369 11       		.uleb128 0x11
 9032 236a D6010000 		.4byte	.LVL396
 9033 236e 7F090000 		.4byte	0x97f
 9034 2372 11       		.uleb128 0x11
 9035 2373 DA010000 		.4byte	.LVL397
 9036 2377 E70C0000 		.4byte	0xce7
 9037 237b 11       		.uleb128 0x11
 9038 237c F8010000 		.4byte	.LVL398
 9039 2380 431F0000 		.4byte	0x1f43
 9040 2384 1B       		.uleb128 0x1b
 9041 2385 00020000 		.4byte	.LVL399
 9042 2389 FF250000 		.4byte	0x25ff
 9043 238d 10       		.uleb128 0x10
 9044 238e 01       		.uleb128 0x1
 9045 238f 50       		.byte	0x50
 9046 2390 03       		.uleb128 0x3
 9047 2391 0A       		.byte	0xa
 9048 2392 E803     		.2byte	0x3e8
 9049 2394 00       		.byte	0
 9050 2395 00       		.byte	0
 9051 2396 11       		.uleb128 0x11
 9052 2397 08000000 		.4byte	.LVL369
 9053 239b 94260000 		.4byte	0x2694
 9054 239f 11       		.uleb128 0x11
 9055 23a0 0C000000 		.4byte	.LVL370
 9056 23a4 9F260000 		.4byte	0x269f
 9057 23a8 11       		.uleb128 0x11
 9058 23a9 12000000 		.4byte	.LVL371
 9059 23ad AA260000 		.4byte	0x26aa
 9060 23b1 0F       		.uleb128 0xf
 9061 23b2 1E000000 		.4byte	.LVL372
 9062 23b6 B5260000 		.4byte	0x26b5
 9063 23ba D4230000 		.4byte	0x23d4
 9064 23be 10       		.uleb128 0x10
 9065 23bf 01       		.uleb128 0x1
 9066 23c0 50       		.byte	0x50
 9067 23c1 02       		.uleb128 0x2
 9068 23c2 08       		.byte	0x8
 9069 23c3 27       		.byte	0x27
 9070 23c4 10       		.uleb128 0x10
 9071 23c5 01       		.uleb128 0x1
 9072 23c6 51       		.byte	0x51
ARM GAS  C:\Users\HELLOK~1.1\AppData\Local\Temp\cc5k7xEp.s 			page 181


 9073 23c7 01       		.uleb128 0x1
 9074 23c8 44       		.byte	0x44
 9075 23c9 10       		.uleb128 0x10
 9076 23ca 01       		.uleb128 0x1
 9077 23cb 52       		.byte	0x52
 9078 23cc 01       		.uleb128 0x1
 9079 23cd 34       		.byte	0x34
 9080 23ce 10       		.uleb128 0x10
 9081 23cf 01       		.uleb128 0x1
 9082 23d0 53       		.byte	0x53
 9083 23d1 01       		.uleb128 0x1
 9084 23d2 30       		.byte	0x30
 9085 23d3 00       		.byte	0
 9086 23d4 11       		.uleb128 0x11
 9087 23d5 22000000 		.4byte	.LVL373
 9088 23d9 C0260000 		.4byte	0x26c0
 9089 23dd 11       		.uleb128 0x11
 9090 23de 68000000 		.4byte	.LVL374
 9091 23e2 C5070000 		.4byte	0x7c5
 9092 23e6 0F       		.uleb128 0xf
 9093 23e7 7C000000 		.4byte	.LVL375
 9094 23eb 3F060000 		.4byte	0x63f
 9095 23ef 05240000 		.4byte	0x2405
 9096 23f3 10       		.uleb128 0x10
 9097 23f4 01       		.uleb128 0x1
 9098 23f5 50       		.byte	0x50
 9099 23f6 02       		.uleb128 0x2
 9100 23f7 74       		.byte	0x74
 9101 23f8 00       		.sleb128 0
 9102 23f9 10       		.uleb128 0x10
 9103 23fa 01       		.uleb128 0x1
 9104 23fb 51       		.byte	0x51
 9105 23fc 01       		.uleb128 0x1
 9106 23fd 32       		.byte	0x32
 9107 23fe 10       		.uleb128 0x10
 9108 23ff 01       		.uleb128 0x1
 9109 2400 52       		.byte	0x52
 9110 2401 02       		.uleb128 0x2
 9111 2402 08       		.byte	0x8
 9112 2403 51       		.byte	0x51
 9113 2404 00       		.byte	0
 9114 2405 1B       		.uleb128 0x1b
 9115 2406 8A000000 		.4byte	.LVL376
 9116 240a 3F060000 		.4byte	0x63f
 9117 240e 10       		.uleb128 0x10
 9118 240f 01       		.uleb128 0x1
 9119 2410 50       		.byte	0x50
 9120 2411 02       		.uleb128 0x2
 9121 2412 74       		.byte	0x74
 9122 2413 00       		.sleb128 0
 9123 2414 10       		.uleb128 0x10
 9124 2415 01       		.uleb128 0x1
 9125 2416 51       		.byte	0x51
 9126 2417 01       		.uleb128 0x1
 9127 2418 32       		.byte	0x32
 9128 2419 10       		.uleb128 0x10
 9129 241a 01       		.uleb128 0x1
ARM GAS  C:\Users\HELLOK~1.1\AppData\Local\Temp\cc5k7xEp.s 			page 182


 9130 241b 52       		.byte	0x52
 9131 241c 02       		.uleb128 0x2
 9132 241d 08       		.byte	0x8
 9133 241e 51       		.byte	0x51
 9134 241f 00       		.byte	0
 9135 2420 00       		.byte	0
 9136 2421 26       		.uleb128 0x26
 9137 2422 47030000 		.4byte	.LASF60
 9138 2426 01       		.byte	0x1
 9139 2427 13       		.byte	0x13
 9140 2428 CE000000 		.4byte	0xce
 9141 242c 05       		.uleb128 0x5
 9142 242d 03       		.byte	0x3
 9143 242e 00000000 		.4byte	motor
 9144 2432 26       		.uleb128 0x26
 9145 2433 77060000 		.4byte	.LASF108
 9146 2437 01       		.byte	0x1
 9147 2438 14       		.byte	0x14
 9148 2439 5D000000 		.4byte	0x5d
 9149 243d 05       		.uleb128 0x5
 9150 243e 03       		.byte	0x3
 9151 243f 00000000 		.4byte	motorDelay
 9152 2443 26       		.uleb128 0x26
 9153 2444 18030000 		.4byte	.LASF109
 9154 2448 01       		.byte	0x1
 9155 2449 15       		.byte	0x15
 9156 244a 83000000 		.4byte	0x83
 9157 244e 05       		.uleb128 0x5
 9158 244f 03       		.byte	0x3
 9159 2450 00000000 		.4byte	feedSteps
 9160 2454 27       		.uleb128 0x27
 9161 2455 72746300 		.ascii	"rtc\000"
 9162 2459 01       		.byte	0x1
 9163 245a 59       		.byte	0x59
 9164 245b 4B010000 		.4byte	0x14b
 9165 245f 05       		.uleb128 0x5
 9166 2460 03       		.byte	0x3
 9167 2461 00000000 		.4byte	rtc
 9168 2465 16       		.uleb128 0x16
 9169 2466 BD000000 		.4byte	0xbd
 9170 246a 75240000 		.4byte	0x2475
 9171 246e 17       		.uleb128 0x17
 9172 246f B0000000 		.4byte	0xb0
 9173 2473 0B       		.byte	0xb
 9174 2474 00       		.byte	0
 9175 2475 26       		.uleb128 0x26
 9176 2476 8B010000 		.4byte	.LASF110
 9177 247a 01       		.byte	0x1
 9178 247b 6C       		.byte	0x6c
 9179 247c 65240000 		.4byte	0x2465
 9180 2480 05       		.uleb128 0x5
 9181 2481 03       		.byte	0x3
 9182 2482 00000000 		.4byte	months
 9183 2486 16       		.uleb128 0x16
 9184 2487 EA000000 		.4byte	0xea
 9185 248b 96240000 		.4byte	0x2496
 9186 248f 17       		.uleb128 0x17
ARM GAS  C:\Users\HELLOK~1.1\AppData\Local\Temp\cc5k7xEp.s 			page 183


 9187 2490 B0000000 		.4byte	0xb0
 9188 2494 09       		.byte	0x9
 9189 2495 00       		.byte	0
 9190 2496 26       		.uleb128 0x26
 9191 2497 06010000 		.4byte	.LASF111
 9192 249b 01       		.byte	0x1
 9193 249c 7B       		.byte	0x7b
 9194 249d 86240000 		.4byte	0x2486
 9195 24a1 05       		.uleb128 0x5
 9196 24a2 03       		.byte	0x3
 9197 24a3 00000000 		.4byte	feedTimes
 9198 24a7 27       		.uleb128 0x27
 9199 24a8 72616D00 		.ascii	"ram\000"
 9200 24ac 01       		.byte	0x1
 9201 24ad 97       		.byte	0x97
 9202 24ae B8240000 		.4byte	0x24b8
 9203 24b2 05       		.uleb128 0x5
 9204 24b3 03       		.byte	0x3
 9205 24b4 00000000 		.4byte	ram
 9206 24b8 07       		.uleb128 0x7
 9207 24b9 18020000 		.4byte	0x218
 9208 24bd 16       		.uleb128 0x16
 9209 24be B7000000 		.4byte	0xb7
 9210 24c2 CD240000 		.4byte	0x24cd
 9211 24c6 17       		.uleb128 0x17
 9212 24c7 B0000000 		.4byte	0xb0
 9213 24cb 05       		.byte	0x5
 9214 24cc 00       		.byte	0
 9215 24cd 26       		.uleb128 0x26
 9216 24ce C0040000 		.4byte	.LASF112
 9217 24d2 01       		.byte	0x1
 9218 24d3 A5       		.byte	0xa5
 9219 24d4 BD240000 		.4byte	0x24bd
 9220 24d8 05       		.uleb128 0x5
 9221 24d9 03       		.byte	0x3
 9222 24da 00000000 		.4byte	commands
 9223 24de 26       		.uleb128 0x26
 9224 24df 4A040000 		.4byte	.LASF113
 9225 24e3 01       		.byte	0x1
 9226 24e4 B3       		.byte	0xb3
 9227 24e5 EF240000 		.4byte	0x24ef
 9228 24e9 05       		.uleb128 0x5
 9229 24ea 03       		.byte	0x3
 9230 24eb 00000000 		.4byte	LCDAddr
 9231 24ef 07       		.uleb128 0x7
 9232 24f0 83000000 		.4byte	0x83
 9233 24f4 26       		.uleb128 0x26
 9234 24f5 9F040000 		.4byte	.LASF114
 9235 24f9 01       		.byte	0x1
 9236 24fa B4       		.byte	0xb4
 9237 24fb EF240000 		.4byte	0x24ef
 9238 24ff 05       		.uleb128 0x5
 9239 2500 03       		.byte	0x3
 9240 2501 00000000 		.4byte	RTCAddr
 9241 2505 26       		.uleb128 0x26
 9242 2506 6A040000 		.4byte	.LASF115
 9243 250a 01       		.byte	0x1
ARM GAS  C:\Users\HELLOK~1.1\AppData\Local\Temp\cc5k7xEp.s 			page 184


 9244 250b B5       		.byte	0xb5
 9245 250c EF240000 		.4byte	0x24ef
 9246 2510 05       		.uleb128 0x5
 9247 2511 03       		.byte	0x3
 9248 2512 00000000 		.4byte	ramAddr
 9249 2516 26       		.uleb128 0x26
 9250 2517 3B030000 		.4byte	.LASF40
 9251 251b 01       		.byte	0x1
 9252 251c B7       		.byte	0xb7
 9253 251d 6B000000 		.4byte	0x6b
 9254 2521 05       		.uleb128 0x5
 9255 2522 03       		.byte	0x3
 9256 2523 00000000 		.4byte	feedCounter
 9257 2527 26       		.uleb128 0x26
 9258 2528 04040000 		.4byte	.LASF41
 9259 252c 01       		.byte	0x1
 9260 252d B8       		.byte	0xb8
 9261 252e 6B000000 		.4byte	0x6b
 9262 2532 05       		.uleb128 0x5
 9263 2533 03       		.byte	0x3
 9264 2534 00000000 		.4byte	speakerToggle
 9265 2538 26       		.uleb128 0x26
 9266 2539 FA030000 		.4byte	.LASF42
 9267 253d 01       		.byte	0x1
 9268 253e B9       		.byte	0xb9
 9269 253f 6B000000 		.4byte	0x6b
 9270 2543 05       		.uleb128 0x5
 9271 2544 03       		.byte	0x3
 9272 2545 00000000 		.4byte	LEDToggle
 9273 2549 26       		.uleb128 0x26
 9274 254a 05030000 		.4byte	.LASF116
 9275 254e 01       		.byte	0x1
 9276 254f BB       		.byte	0xbb
 9277 2550 A4000000 		.4byte	0xa4
 9278 2554 05       		.uleb128 0x5
 9279 2555 03       		.byte	0x3
 9280 2556 00000000 		.4byte	buttonFlag
 9281 255a 26       		.uleb128 0x26
 9282 255b 5B040000 		.4byte	.LASF117
 9283 255f 01       		.byte	0x1
 9284 2560 BC       		.byte	0xbc
 9285 2561 A4000000 		.4byte	0xa4
 9286 2565 05       		.uleb128 0x5
 9287 2566 03       		.byte	0x3
 9288 2567 00000000 		.4byte	encFlag
 9289 256b 26       		.uleb128 0x26
 9290 256c 12040000 		.4byte	.LASF118
 9291 2570 01       		.byte	0x1
 9292 2571 BD       		.byte	0xbd
 9293 2572 A4000000 		.4byte	0xa4
 9294 2576 05       		.uleb128 0x5
 9295 2577 03       		.byte	0x3
 9296 2578 00000000 		.4byte	encPos
 9297 257c 26       		.uleb128 0x26
 9298 257d 00000000 		.4byte	.LASF43
 9299 2581 01       		.byte	0x1
 9300 2582 BF       		.byte	0xbf
ARM GAS  C:\Users\HELLOK~1.1\AppData\Local\Temp\cc5k7xEp.s 			page 185


 9301 2583 6B000000 		.4byte	0x6b
 9302 2587 05       		.uleb128 0x5
 9303 2588 03       		.byte	0x3
 9304 2589 00000000 		.4byte	timesToFeed
 9305 258d 28       		.uleb128 0x28
 9306 258e E6010000 		.4byte	.LASF119
 9307 2592 E6010000 		.4byte	.LASF119
 9308 2596 03       		.byte	0x3
 9309 2597 2F       		.byte	0x2f
 9310 2598 28       		.uleb128 0x28
 9311 2599 98010000 		.4byte	.LASF120
 9312 259d 98010000 		.4byte	.LASF120
 9313 25a1 04       		.byte	0x4
 9314 25a2 ED       		.byte	0xed
 9315 25a3 29       		.uleb128 0x29
 9316 25a4 72040000 		.4byte	.LASF121
 9317 25a8 72040000 		.4byte	.LASF121
 9318 25ac 05       		.byte	0x5
 9319 25ad 1301     		.2byte	0x113
 9320 25af 29       		.uleb128 0x29
 9321 25b0 23060000 		.4byte	.LASF122
 9322 25b4 23060000 		.4byte	.LASF122
 9323 25b8 05       		.byte	0x5
 9324 25b9 0F01     		.2byte	0x10f
 9325 25bb 29       		.uleb128 0x29
 9326 25bc A5030000 		.4byte	.LASF123
 9327 25c0 A5030000 		.4byte	.LASF123
 9328 25c4 05       		.byte	0x5
 9329 25c5 1001     		.2byte	0x110
 9330 25c7 29       		.uleb128 0x29
 9331 25c8 10010000 		.4byte	.LASF124
 9332 25cc 10010000 		.4byte	.LASF124
 9333 25d0 05       		.byte	0x5
 9334 25d1 1401     		.2byte	0x114
 9335 25d3 28       		.uleb128 0x28
 9336 25d4 D2060000 		.4byte	.LASF125
 9337 25d8 D2060000 		.4byte	.LASF125
 9338 25dc 06       		.byte	0x6
 9339 25dd 88       		.byte	0x88
 9340 25de 28       		.uleb128 0x28
 9341 25df 6F050000 		.4byte	.LASF126
 9342 25e3 6F050000 		.4byte	.LASF126
 9343 25e7 07       		.byte	0x7
 9344 25e8 FD       		.byte	0xfd
 9345 25e9 28       		.uleb128 0x28
 9346 25ea 06020000 		.4byte	.LASF127
 9347 25ee 06020000 		.4byte	.LASF127
 9348 25f2 06       		.byte	0x6
 9349 25f3 8B       		.byte	0x8b
 9350 25f4 28       		.uleb128 0x28
 9351 25f5 21040000 		.4byte	.LASF128
 9352 25f9 21040000 		.4byte	.LASF128
 9353 25fd 08       		.byte	0x8
 9354 25fe 2F       		.byte	0x2f
 9355 25ff 28       		.uleb128 0x28
 9356 2600 0C000000 		.4byte	.LASF129
 9357 2604 0C000000 		.4byte	.LASF129
ARM GAS  C:\Users\HELLOK~1.1\AppData\Local\Temp\cc5k7xEp.s 			page 186


 9358 2608 04       		.byte	0x4
 9359 2609 EC       		.byte	0xec
 9360 260a 29       		.uleb128 0x29
 9361 260b 11060000 		.4byte	.LASF130
 9362 260f 11060000 		.4byte	.LASF130
 9363 2613 09       		.byte	0x9
 9364 2614 3201     		.2byte	0x132
 9365 2616 29       		.uleb128 0x29
 9366 2617 3B000000 		.4byte	.LASF131
 9367 261b 3B000000 		.4byte	.LASF131
 9368 261f 0A       		.byte	0xa
 9369 2620 3201     		.2byte	0x132
 9370 2622 29       		.uleb128 0x29
 9371 2623 C6050000 		.4byte	.LASF132
 9372 2627 C6050000 		.4byte	.LASF132
 9373 262b 0A       		.byte	0xa
 9374 262c 3301     		.2byte	0x133
 9375 262e 29       		.uleb128 0x29
 9376 262f B6020000 		.4byte	.LASF133
 9377 2633 B6020000 		.4byte	.LASF133
 9378 2637 09       		.byte	0x9
 9379 2638 3301     		.2byte	0x133
 9380 263a 29       		.uleb128 0x29
 9381 263b 82060000 		.4byte	.LASF134
 9382 263f 82060000 		.4byte	.LASF134
 9383 2643 0A       		.byte	0xa
 9384 2644 5001     		.2byte	0x150
 9385 2646 29       		.uleb128 0x29
 9386 2647 3C060000 		.4byte	.LASF135
 9387 264b 3C060000 		.4byte	.LASF135
 9388 264f 0A       		.byte	0xa
 9389 2650 5501     		.2byte	0x155
 9390 2652 29       		.uleb128 0x29
 9391 2653 51050000 		.4byte	.LASF136
 9392 2657 51050000 		.4byte	.LASF136
 9393 265b 09       		.byte	0x9
 9394 265c 5001     		.2byte	0x150
 9395 265e 29       		.uleb128 0x29
 9396 265f D6000000 		.4byte	.LASF137
 9397 2663 D6000000 		.4byte	.LASF137
 9398 2667 09       		.byte	0x9
 9399 2668 5501     		.2byte	0x155
 9400 266a 28       		.uleb128 0x28
 9401 266b 69050000 		.4byte	.LASF138
 9402 266f 69050000 		.4byte	.LASF138
 9403 2673 06       		.byte	0x6
 9404 2674 54       		.byte	0x54
 9405 2675 2A       		.uleb128 0x2a
 9406 2676 C6060000 		.4byte	.LASF152
 9407 267a C6060000 		.4byte	.LASF152
 9408 267e 28       		.uleb128 0x28
 9409 267f A2010000 		.4byte	.LASF139
 9410 2683 A2010000 		.4byte	.LASF139
 9411 2687 0B       		.byte	0xb
 9412 2688 32       		.byte	0x32
 9413 2689 28       		.uleb128 0x28
 9414 268a 5D000000 		.4byte	.LASF140
ARM GAS  C:\Users\HELLOK~1.1\AppData\Local\Temp\cc5k7xEp.s 			page 187


 9415 268e 5D000000 		.4byte	.LASF140
 9416 2692 0C       		.byte	0xc
 9417 2693 23       		.byte	0x23
 9418 2694 28       		.uleb128 0x28
 9419 2695 1D070000 		.4byte	.LASF141
 9420 2699 1D070000 		.4byte	.LASF141
 9421 269d 0D       		.byte	0xd
 9422 269e 17       		.byte	0x17
 9423 269f 28       		.uleb128 0x28
 9424 26a0 D8010000 		.4byte	.LASF142
 9425 26a4 D8010000 		.4byte	.LASF142
 9426 26a8 0E       		.byte	0xe
 9427 26a9 17       		.byte	0x17
 9428 26aa 28       		.uleb128 0x28
 9429 26ab 25010000 		.4byte	.LASF143
 9430 26af 25010000 		.4byte	.LASF143
 9431 26b3 0F       		.byte	0xf
 9432 26b4 72       		.byte	0x72
 9433 26b5 28       		.uleb128 0x28
 9434 26b6 24000000 		.4byte	.LASF144
 9435 26ba 24000000 		.4byte	.LASF144
 9436 26be 06       		.byte	0x6
 9437 26bf 47       		.byte	0x47
 9438 26c0 28       		.uleb128 0x28
 9439 26c1 FD000000 		.4byte	.LASF145
 9440 26c5 FD000000 		.4byte	.LASF145
 9441 26c9 06       		.byte	0x6
 9442 26ca 4E       		.byte	0x4e
 9443 26cb 00       		.byte	0
 9444              		.section	.debug_abbrev,"",%progbits
 9445              	.Ldebug_abbrev0:
 9446 0000 01       		.uleb128 0x1
 9447 0001 11       		.uleb128 0x11
 9448 0002 01       		.byte	0x1
 9449 0003 25       		.uleb128 0x25
 9450 0004 0E       		.uleb128 0xe
 9451 0005 13       		.uleb128 0x13
 9452 0006 0B       		.uleb128 0xb
 9453 0007 03       		.uleb128 0x3
 9454 0008 0E       		.uleb128 0xe
 9455 0009 1B       		.uleb128 0x1b
 9456 000a 0E       		.uleb128 0xe
 9457 000b 55       		.uleb128 0x55
 9458 000c 17       		.uleb128 0x17
 9459 000d 11       		.uleb128 0x11
 9460 000e 01       		.uleb128 0x1
 9461 000f 10       		.uleb128 0x10
 9462 0010 17       		.uleb128 0x17
 9463 0011 00       		.byte	0
 9464 0012 00       		.byte	0
 9465 0013 02       		.uleb128 0x2
 9466 0014 24       		.uleb128 0x24
 9467 0015 00       		.byte	0
 9468 0016 0B       		.uleb128 0xb
 9469 0017 0B       		.uleb128 0xb
 9470 0018 3E       		.uleb128 0x3e
 9471 0019 0B       		.uleb128 0xb
ARM GAS  C:\Users\HELLOK~1.1\AppData\Local\Temp\cc5k7xEp.s 			page 188


 9472 001a 03       		.uleb128 0x3
 9473 001b 0E       		.uleb128 0xe
 9474 001c 00       		.byte	0
 9475 001d 00       		.byte	0
 9476 001e 03       		.uleb128 0x3
 9477 001f 24       		.uleb128 0x24
 9478 0020 00       		.byte	0
 9479 0021 0B       		.uleb128 0xb
 9480 0022 0B       		.uleb128 0xb
 9481 0023 3E       		.uleb128 0x3e
 9482 0024 0B       		.uleb128 0xb
 9483 0025 03       		.uleb128 0x3
 9484 0026 08       		.uleb128 0x8
 9485 0027 00       		.byte	0
 9486 0028 00       		.byte	0
 9487 0029 04       		.uleb128 0x4
 9488 002a 16       		.uleb128 0x16
 9489 002b 00       		.byte	0
 9490 002c 03       		.uleb128 0x3
 9491 002d 0E       		.uleb128 0xe
 9492 002e 3A       		.uleb128 0x3a
 9493 002f 0B       		.uleb128 0xb
 9494 0030 3B       		.uleb128 0x3b
 9495 0031 05       		.uleb128 0x5
 9496 0032 49       		.uleb128 0x49
 9497 0033 13       		.uleb128 0x13
 9498 0034 00       		.byte	0
 9499 0035 00       		.byte	0
 9500 0036 05       		.uleb128 0x5
 9501 0037 35       		.uleb128 0x35
 9502 0038 00       		.byte	0
 9503 0039 49       		.uleb128 0x49
 9504 003a 13       		.uleb128 0x13
 9505 003b 00       		.byte	0
 9506 003c 00       		.byte	0
 9507 003d 06       		.uleb128 0x6
 9508 003e 0F       		.uleb128 0xf
 9509 003f 00       		.byte	0
 9510 0040 0B       		.uleb128 0xb
 9511 0041 0B       		.uleb128 0xb
 9512 0042 49       		.uleb128 0x49
 9513 0043 13       		.uleb128 0x13
 9514 0044 00       		.byte	0
 9515 0045 00       		.byte	0
 9516 0046 07       		.uleb128 0x7
 9517 0047 26       		.uleb128 0x26
 9518 0048 00       		.byte	0
 9519 0049 49       		.uleb128 0x49
 9520 004a 13       		.uleb128 0x13
 9521 004b 00       		.byte	0
 9522 004c 00       		.byte	0
 9523 004d 08       		.uleb128 0x8
 9524 004e 13       		.uleb128 0x13
 9525 004f 01       		.byte	0x1
 9526 0050 03       		.uleb128 0x3
 9527 0051 08       		.uleb128 0x8
 9528 0052 0B       		.uleb128 0xb
ARM GAS  C:\Users\HELLOK~1.1\AppData\Local\Temp\cc5k7xEp.s 			page 189


 9529 0053 0B       		.uleb128 0xb
 9530 0054 3A       		.uleb128 0x3a
 9531 0055 0B       		.uleb128 0xb
 9532 0056 3B       		.uleb128 0x3b
 9533 0057 0B       		.uleb128 0xb
 9534 0058 01       		.uleb128 0x1
 9535 0059 13       		.uleb128 0x13
 9536 005a 00       		.byte	0
 9537 005b 00       		.byte	0
 9538 005c 09       		.uleb128 0x9
 9539 005d 0D       		.uleb128 0xd
 9540 005e 00       		.byte	0
 9541 005f 03       		.uleb128 0x3
 9542 0060 0E       		.uleb128 0xe
 9543 0061 3A       		.uleb128 0x3a
 9544 0062 0B       		.uleb128 0xb
 9545 0063 3B       		.uleb128 0x3b
 9546 0064 0B       		.uleb128 0xb
 9547 0065 49       		.uleb128 0x49
 9548 0066 13       		.uleb128 0x13
 9549 0067 0B       		.uleb128 0xb
 9550 0068 0B       		.uleb128 0xb
 9551 0069 0D       		.uleb128 0xd
 9552 006a 0B       		.uleb128 0xb
 9553 006b 0C       		.uleb128 0xc
 9554 006c 0B       		.uleb128 0xb
 9555 006d 38       		.uleb128 0x38
 9556 006e 0B       		.uleb128 0xb
 9557 006f 00       		.byte	0
 9558 0070 00       		.byte	0
 9559 0071 0A       		.uleb128 0xa
 9560 0072 13       		.uleb128 0x13
 9561 0073 01       		.byte	0x1
 9562 0074 03       		.uleb128 0x3
 9563 0075 0E       		.uleb128 0xe
 9564 0076 0B       		.uleb128 0xb
 9565 0077 0B       		.uleb128 0xb
 9566 0078 3A       		.uleb128 0x3a
 9567 0079 0B       		.uleb128 0xb
 9568 007a 3B       		.uleb128 0x3b
 9569 007b 0B       		.uleb128 0xb
 9570 007c 01       		.uleb128 0x1
 9571 007d 13       		.uleb128 0x13
 9572 007e 00       		.byte	0
 9573 007f 00       		.byte	0
 9574 0080 0B       		.uleb128 0xb
 9575 0081 0D       		.uleb128 0xd
 9576 0082 00       		.byte	0
 9577 0083 03       		.uleb128 0x3
 9578 0084 0E       		.uleb128 0xe
 9579 0085 3A       		.uleb128 0x3a
 9580 0086 0B       		.uleb128 0xb
 9581 0087 3B       		.uleb128 0x3b
 9582 0088 0B       		.uleb128 0xb
 9583 0089 49       		.uleb128 0x49
 9584 008a 13       		.uleb128 0x13
 9585 008b 38       		.uleb128 0x38
ARM GAS  C:\Users\HELLOK~1.1\AppData\Local\Temp\cc5k7xEp.s 			page 190


 9586 008c 0B       		.uleb128 0xb
 9587 008d 00       		.byte	0
 9588 008e 00       		.byte	0
 9589 008f 0C       		.uleb128 0xc
 9590 0090 0D       		.uleb128 0xd
 9591 0091 00       		.byte	0
 9592 0092 03       		.uleb128 0x3
 9593 0093 08       		.uleb128 0x8
 9594 0094 3A       		.uleb128 0x3a
 9595 0095 0B       		.uleb128 0xb
 9596 0096 3B       		.uleb128 0x3b
 9597 0097 0B       		.uleb128 0xb
 9598 0098 49       		.uleb128 0x49
 9599 0099 13       		.uleb128 0x13
 9600 009a 38       		.uleb128 0x38
 9601 009b 0B       		.uleb128 0xb
 9602 009c 00       		.byte	0
 9603 009d 00       		.byte	0
 9604 009e 0D       		.uleb128 0xd
 9605 009f 2E       		.uleb128 0x2e
 9606 00a0 01       		.byte	0x1
 9607 00a1 3F       		.uleb128 0x3f
 9608 00a2 19       		.uleb128 0x19
 9609 00a3 03       		.uleb128 0x3
 9610 00a4 0E       		.uleb128 0xe
 9611 00a5 3A       		.uleb128 0x3a
 9612 00a6 0B       		.uleb128 0xb
 9613 00a7 3B       		.uleb128 0x3b
 9614 00a8 0B       		.uleb128 0xb
 9615 00a9 27       		.uleb128 0x27
 9616 00aa 19       		.uleb128 0x19
 9617 00ab 49       		.uleb128 0x49
 9618 00ac 13       		.uleb128 0x13
 9619 00ad 11       		.uleb128 0x11
 9620 00ae 01       		.uleb128 0x1
 9621 00af 12       		.uleb128 0x12
 9622 00b0 06       		.uleb128 0x6
 9623 00b1 40       		.uleb128 0x40
 9624 00b2 18       		.uleb128 0x18
 9625 00b3 9742     		.uleb128 0x2117
 9626 00b5 19       		.uleb128 0x19
 9627 00b6 01       		.uleb128 0x1
 9628 00b7 13       		.uleb128 0x13
 9629 00b8 00       		.byte	0
 9630 00b9 00       		.byte	0
 9631 00ba 0E       		.uleb128 0xe
 9632 00bb 05       		.uleb128 0x5
 9633 00bc 00       		.byte	0
 9634 00bd 03       		.uleb128 0x3
 9635 00be 0E       		.uleb128 0xe
 9636 00bf 3A       		.uleb128 0x3a
 9637 00c0 0B       		.uleb128 0xb
 9638 00c1 3B       		.uleb128 0x3b
 9639 00c2 0B       		.uleb128 0xb
 9640 00c3 49       		.uleb128 0x49
 9641 00c4 13       		.uleb128 0x13
 9642 00c5 02       		.uleb128 0x2
ARM GAS  C:\Users\HELLOK~1.1\AppData\Local\Temp\cc5k7xEp.s 			page 191


 9643 00c6 17       		.uleb128 0x17
 9644 00c7 00       		.byte	0
 9645 00c8 00       		.byte	0
 9646 00c9 0F       		.uleb128 0xf
 9647 00ca 898201   		.uleb128 0x4109
 9648 00cd 01       		.byte	0x1
 9649 00ce 11       		.uleb128 0x11
 9650 00cf 01       		.uleb128 0x1
 9651 00d0 31       		.uleb128 0x31
 9652 00d1 13       		.uleb128 0x13
 9653 00d2 01       		.uleb128 0x1
 9654 00d3 13       		.uleb128 0x13
 9655 00d4 00       		.byte	0
 9656 00d5 00       		.byte	0
 9657 00d6 10       		.uleb128 0x10
 9658 00d7 8A8201   		.uleb128 0x410a
 9659 00da 00       		.byte	0
 9660 00db 02       		.uleb128 0x2
 9661 00dc 18       		.uleb128 0x18
 9662 00dd 9142     		.uleb128 0x2111
 9663 00df 18       		.uleb128 0x18
 9664 00e0 00       		.byte	0
 9665 00e1 00       		.byte	0
 9666 00e2 11       		.uleb128 0x11
 9667 00e3 898201   		.uleb128 0x4109
 9668 00e6 00       		.byte	0
 9669 00e7 11       		.uleb128 0x11
 9670 00e8 01       		.uleb128 0x1
 9671 00e9 31       		.uleb128 0x31
 9672 00ea 13       		.uleb128 0x13
 9673 00eb 00       		.byte	0
 9674 00ec 00       		.byte	0
 9675 00ed 12       		.uleb128 0x12
 9676 00ee 2E       		.uleb128 0x2e
 9677 00ef 01       		.byte	0x1
 9678 00f0 3F       		.uleb128 0x3f
 9679 00f1 19       		.uleb128 0x19
 9680 00f2 03       		.uleb128 0x3
 9681 00f3 0E       		.uleb128 0xe
 9682 00f4 3A       		.uleb128 0x3a
 9683 00f5 0B       		.uleb128 0xb
 9684 00f6 3B       		.uleb128 0x3b
 9685 00f7 0B       		.uleb128 0xb
 9686 00f8 27       		.uleb128 0x27
 9687 00f9 19       		.uleb128 0x19
 9688 00fa 49       		.uleb128 0x49
 9689 00fb 13       		.uleb128 0x13
 9690 00fc 11       		.uleb128 0x11
 9691 00fd 01       		.uleb128 0x1
 9692 00fe 12       		.uleb128 0x12
 9693 00ff 06       		.uleb128 0x6
 9694 0100 40       		.uleb128 0x40
 9695 0101 18       		.uleb128 0x18
 9696 0102 9642     		.uleb128 0x2116
 9697 0104 19       		.uleb128 0x19
 9698 0105 01       		.uleb128 0x1
 9699 0106 13       		.uleb128 0x13
ARM GAS  C:\Users\HELLOK~1.1\AppData\Local\Temp\cc5k7xEp.s 			page 192


 9700 0107 00       		.byte	0
 9701 0108 00       		.byte	0
 9702 0109 13       		.uleb128 0x13
 9703 010a 2E       		.uleb128 0x2e
 9704 010b 01       		.byte	0x1
 9705 010c 3F       		.uleb128 0x3f
 9706 010d 19       		.uleb128 0x19
 9707 010e 03       		.uleb128 0x3
 9708 010f 0E       		.uleb128 0xe
 9709 0110 3A       		.uleb128 0x3a
 9710 0111 0B       		.uleb128 0xb
 9711 0112 3B       		.uleb128 0x3b
 9712 0113 0B       		.uleb128 0xb
 9713 0114 27       		.uleb128 0x27
 9714 0115 19       		.uleb128 0x19
 9715 0116 11       		.uleb128 0x11
 9716 0117 01       		.uleb128 0x1
 9717 0118 12       		.uleb128 0x12
 9718 0119 06       		.uleb128 0x6
 9719 011a 40       		.uleb128 0x40
 9720 011b 18       		.uleb128 0x18
 9721 011c 9742     		.uleb128 0x2117
 9722 011e 19       		.uleb128 0x19
 9723 011f 01       		.uleb128 0x1
 9724 0120 13       		.uleb128 0x13
 9725 0121 00       		.byte	0
 9726 0122 00       		.byte	0
 9727 0123 14       		.uleb128 0x14
 9728 0124 05       		.uleb128 0x5
 9729 0125 00       		.byte	0
 9730 0126 03       		.uleb128 0x3
 9731 0127 0E       		.uleb128 0xe
 9732 0128 3A       		.uleb128 0x3a
 9733 0129 0B       		.uleb128 0xb
 9734 012a 3B       		.uleb128 0x3b
 9735 012b 0B       		.uleb128 0xb
 9736 012c 49       		.uleb128 0x49
 9737 012d 13       		.uleb128 0x13
 9738 012e 02       		.uleb128 0x2
 9739 012f 18       		.uleb128 0x18
 9740 0130 00       		.byte	0
 9741 0131 00       		.byte	0
 9742 0132 15       		.uleb128 0x15
 9743 0133 34       		.uleb128 0x34
 9744 0134 00       		.byte	0
 9745 0135 03       		.uleb128 0x3
 9746 0136 0E       		.uleb128 0xe
 9747 0137 3A       		.uleb128 0x3a
 9748 0138 0B       		.uleb128 0xb
 9749 0139 3B       		.uleb128 0x3b
 9750 013a 0B       		.uleb128 0xb
 9751 013b 49       		.uleb128 0x49
 9752 013c 13       		.uleb128 0x13
 9753 013d 02       		.uleb128 0x2
 9754 013e 18       		.uleb128 0x18
 9755 013f 00       		.byte	0
 9756 0140 00       		.byte	0
ARM GAS  C:\Users\HELLOK~1.1\AppData\Local\Temp\cc5k7xEp.s 			page 193


 9757 0141 16       		.uleb128 0x16
 9758 0142 01       		.uleb128 0x1
 9759 0143 01       		.byte	0x1
 9760 0144 49       		.uleb128 0x49
 9761 0145 13       		.uleb128 0x13
 9762 0146 01       		.uleb128 0x1
 9763 0147 13       		.uleb128 0x13
 9764 0148 00       		.byte	0
 9765 0149 00       		.byte	0
 9766 014a 17       		.uleb128 0x17
 9767 014b 21       		.uleb128 0x21
 9768 014c 00       		.byte	0
 9769 014d 49       		.uleb128 0x49
 9770 014e 13       		.uleb128 0x13
 9771 014f 2F       		.uleb128 0x2f
 9772 0150 0B       		.uleb128 0xb
 9773 0151 00       		.byte	0
 9774 0152 00       		.byte	0
 9775 0153 18       		.uleb128 0x18
 9776 0154 2E       		.uleb128 0x2e
 9777 0155 00       		.byte	0
 9778 0156 3F       		.uleb128 0x3f
 9779 0157 19       		.uleb128 0x19
 9780 0158 03       		.uleb128 0x3
 9781 0159 0E       		.uleb128 0xe
 9782 015a 3A       		.uleb128 0x3a
 9783 015b 0B       		.uleb128 0xb
 9784 015c 3B       		.uleb128 0x3b
 9785 015d 0B       		.uleb128 0xb
 9786 015e 11       		.uleb128 0x11
 9787 015f 01       		.uleb128 0x1
 9788 0160 12       		.uleb128 0x12
 9789 0161 06       		.uleb128 0x6
 9790 0162 40       		.uleb128 0x40
 9791 0163 18       		.uleb128 0x18
 9792 0164 9742     		.uleb128 0x2117
 9793 0166 19       		.uleb128 0x19
 9794 0167 00       		.byte	0
 9795 0168 00       		.byte	0
 9796 0169 19       		.uleb128 0x19
 9797 016a 2E       		.uleb128 0x2e
 9798 016b 01       		.byte	0x1
 9799 016c 3F       		.uleb128 0x3f
 9800 016d 19       		.uleb128 0x19
 9801 016e 03       		.uleb128 0x3
 9802 016f 0E       		.uleb128 0xe
 9803 0170 3A       		.uleb128 0x3a
 9804 0171 0B       		.uleb128 0xb
 9805 0172 3B       		.uleb128 0x3b
 9806 0173 05       		.uleb128 0x5
 9807 0174 11       		.uleb128 0x11
 9808 0175 01       		.uleb128 0x1
 9809 0176 12       		.uleb128 0x12
 9810 0177 06       		.uleb128 0x6
 9811 0178 40       		.uleb128 0x40
 9812 0179 18       		.uleb128 0x18
 9813 017a 9742     		.uleb128 0x2117
ARM GAS  C:\Users\HELLOK~1.1\AppData\Local\Temp\cc5k7xEp.s 			page 194


 9814 017c 19       		.uleb128 0x19
 9815 017d 01       		.uleb128 0x1
 9816 017e 13       		.uleb128 0x13
 9817 017f 00       		.byte	0
 9818 0180 00       		.byte	0
 9819 0181 1A       		.uleb128 0x1a
 9820 0182 34       		.uleb128 0x34
 9821 0183 00       		.byte	0
 9822 0184 03       		.uleb128 0x3
 9823 0185 0E       		.uleb128 0xe
 9824 0186 3A       		.uleb128 0x3a
 9825 0187 0B       		.uleb128 0xb
 9826 0188 3B       		.uleb128 0x3b
 9827 0189 05       		.uleb128 0x5
 9828 018a 49       		.uleb128 0x49
 9829 018b 13       		.uleb128 0x13
 9830 018c 02       		.uleb128 0x2
 9831 018d 18       		.uleb128 0x18
 9832 018e 00       		.byte	0
 9833 018f 00       		.byte	0
 9834 0190 1B       		.uleb128 0x1b
 9835 0191 898201   		.uleb128 0x4109
 9836 0194 01       		.byte	0x1
 9837 0195 11       		.uleb128 0x11
 9838 0196 01       		.uleb128 0x1
 9839 0197 31       		.uleb128 0x31
 9840 0198 13       		.uleb128 0x13
 9841 0199 00       		.byte	0
 9842 019a 00       		.byte	0
 9843 019b 1C       		.uleb128 0x1c
 9844 019c 2E       		.uleb128 0x2e
 9845 019d 01       		.byte	0x1
 9846 019e 3F       		.uleb128 0x3f
 9847 019f 19       		.uleb128 0x19
 9848 01a0 03       		.uleb128 0x3
 9849 01a1 0E       		.uleb128 0xe
 9850 01a2 3A       		.uleb128 0x3a
 9851 01a3 0B       		.uleb128 0xb
 9852 01a4 3B       		.uleb128 0x3b
 9853 01a5 05       		.uleb128 0x5
 9854 01a6 27       		.uleb128 0x27
 9855 01a7 19       		.uleb128 0x19
 9856 01a8 11       		.uleb128 0x11
 9857 01a9 01       		.uleb128 0x1
 9858 01aa 12       		.uleb128 0x12
 9859 01ab 06       		.uleb128 0x6
 9860 01ac 40       		.uleb128 0x40
 9861 01ad 18       		.uleb128 0x18
 9862 01ae 9742     		.uleb128 0x2117
 9863 01b0 19       		.uleb128 0x19
 9864 01b1 01       		.uleb128 0x1
 9865 01b2 13       		.uleb128 0x13
 9866 01b3 00       		.byte	0
 9867 01b4 00       		.byte	0
 9868 01b5 1D       		.uleb128 0x1d
 9869 01b6 05       		.uleb128 0x5
 9870 01b7 00       		.byte	0
ARM GAS  C:\Users\HELLOK~1.1\AppData\Local\Temp\cc5k7xEp.s 			page 195


 9871 01b8 03       		.uleb128 0x3
 9872 01b9 0E       		.uleb128 0xe
 9873 01ba 3A       		.uleb128 0x3a
 9874 01bb 0B       		.uleb128 0xb
 9875 01bc 3B       		.uleb128 0x3b
 9876 01bd 05       		.uleb128 0x5
 9877 01be 49       		.uleb128 0x49
 9878 01bf 13       		.uleb128 0x13
 9879 01c0 02       		.uleb128 0x2
 9880 01c1 18       		.uleb128 0x18
 9881 01c2 00       		.byte	0
 9882 01c3 00       		.byte	0
 9883 01c4 1E       		.uleb128 0x1e
 9884 01c5 34       		.uleb128 0x34
 9885 01c6 00       		.byte	0
 9886 01c7 03       		.uleb128 0x3
 9887 01c8 08       		.uleb128 0x8
 9888 01c9 3A       		.uleb128 0x3a
 9889 01ca 0B       		.uleb128 0xb
 9890 01cb 3B       		.uleb128 0x3b
 9891 01cc 05       		.uleb128 0x5
 9892 01cd 49       		.uleb128 0x49
 9893 01ce 13       		.uleb128 0x13
 9894 01cf 02       		.uleb128 0x2
 9895 01d0 18       		.uleb128 0x18
 9896 01d1 00       		.byte	0
 9897 01d2 00       		.byte	0
 9898 01d3 1F       		.uleb128 0x1f
 9899 01d4 34       		.uleb128 0x34
 9900 01d5 00       		.byte	0
 9901 01d6 03       		.uleb128 0x3
 9902 01d7 0E       		.uleb128 0xe
 9903 01d8 3A       		.uleb128 0x3a
 9904 01d9 0B       		.uleb128 0xb
 9905 01da 3B       		.uleb128 0x3b
 9906 01db 05       		.uleb128 0x5
 9907 01dc 49       		.uleb128 0x49
 9908 01dd 13       		.uleb128 0x13
 9909 01de 00       		.byte	0
 9910 01df 00       		.byte	0
 9911 01e0 20       		.uleb128 0x20
 9912 01e1 0B       		.uleb128 0xb
 9913 01e2 01       		.byte	0x1
 9914 01e3 11       		.uleb128 0x11
 9915 01e4 01       		.uleb128 0x1
 9916 01e5 12       		.uleb128 0x12
 9917 01e6 06       		.uleb128 0x6
 9918 01e7 01       		.uleb128 0x1
 9919 01e8 13       		.uleb128 0x13
 9920 01e9 00       		.byte	0
 9921 01ea 00       		.byte	0
 9922 01eb 21       		.uleb128 0x21
 9923 01ec 34       		.uleb128 0x34
 9924 01ed 00       		.byte	0
 9925 01ee 03       		.uleb128 0x3
 9926 01ef 08       		.uleb128 0x8
 9927 01f0 3A       		.uleb128 0x3a
ARM GAS  C:\Users\HELLOK~1.1\AppData\Local\Temp\cc5k7xEp.s 			page 196


 9928 01f1 0B       		.uleb128 0xb
 9929 01f2 3B       		.uleb128 0x3b
 9930 01f3 05       		.uleb128 0x5
 9931 01f4 49       		.uleb128 0x49
 9932 01f5 13       		.uleb128 0x13
 9933 01f6 02       		.uleb128 0x2
 9934 01f7 17       		.uleb128 0x17
 9935 01f8 00       		.byte	0
 9936 01f9 00       		.byte	0
 9937 01fa 22       		.uleb128 0x22
 9938 01fb 0B       		.uleb128 0xb
 9939 01fc 01       		.byte	0x1
 9940 01fd 55       		.uleb128 0x55
 9941 01fe 17       		.uleb128 0x17
 9942 01ff 00       		.byte	0
 9943 0200 00       		.byte	0
 9944 0201 23       		.uleb128 0x23
 9945 0202 34       		.uleb128 0x34
 9946 0203 00       		.byte	0
 9947 0204 03       		.uleb128 0x3
 9948 0205 0E       		.uleb128 0xe
 9949 0206 3A       		.uleb128 0x3a
 9950 0207 0B       		.uleb128 0xb
 9951 0208 3B       		.uleb128 0x3b
 9952 0209 05       		.uleb128 0x5
 9953 020a 49       		.uleb128 0x49
 9954 020b 13       		.uleb128 0x13
 9955 020c 02       		.uleb128 0x2
 9956 020d 17       		.uleb128 0x17
 9957 020e 00       		.byte	0
 9958 020f 00       		.byte	0
 9959 0210 24       		.uleb128 0x24
 9960 0211 0B       		.uleb128 0xb
 9961 0212 01       		.byte	0x1
 9962 0213 11       		.uleb128 0x11
 9963 0214 01       		.uleb128 0x1
 9964 0215 12       		.uleb128 0x12
 9965 0216 06       		.uleb128 0x6
 9966 0217 00       		.byte	0
 9967 0218 00       		.byte	0
 9968 0219 25       		.uleb128 0x25
 9969 021a 2E       		.uleb128 0x2e
 9970 021b 01       		.byte	0x1
 9971 021c 3F       		.uleb128 0x3f
 9972 021d 19       		.uleb128 0x19
 9973 021e 03       		.uleb128 0x3
 9974 021f 0E       		.uleb128 0xe
 9975 0220 3A       		.uleb128 0x3a
 9976 0221 0B       		.uleb128 0xb
 9977 0222 3B       		.uleb128 0x3b
 9978 0223 05       		.uleb128 0x5
 9979 0224 27       		.uleb128 0x27
 9980 0225 19       		.uleb128 0x19
 9981 0226 49       		.uleb128 0x49
 9982 0227 13       		.uleb128 0x13
 9983 0228 8701     		.uleb128 0x87
 9984 022a 19       		.uleb128 0x19
ARM GAS  C:\Users\HELLOK~1.1\AppData\Local\Temp\cc5k7xEp.s 			page 197


 9985 022b 11       		.uleb128 0x11
 9986 022c 01       		.uleb128 0x1
 9987 022d 12       		.uleb128 0x12
 9988 022e 06       		.uleb128 0x6
 9989 022f 40       		.uleb128 0x40
 9990 0230 18       		.uleb128 0x18
 9991 0231 9742     		.uleb128 0x2117
 9992 0233 19       		.uleb128 0x19
 9993 0234 01       		.uleb128 0x1
 9994 0235 13       		.uleb128 0x13
 9995 0236 00       		.byte	0
 9996 0237 00       		.byte	0
 9997 0238 26       		.uleb128 0x26
 9998 0239 34       		.uleb128 0x34
 9999 023a 00       		.byte	0
 10000 023b 03       		.uleb128 0x3
 10001 023c 0E       		.uleb128 0xe
 10002 023d 3A       		.uleb128 0x3a
 10003 023e 0B       		.uleb128 0xb
 10004 023f 3B       		.uleb128 0x3b
 10005 0240 0B       		.uleb128 0xb
 10006 0241 49       		.uleb128 0x49
 10007 0242 13       		.uleb128 0x13
 10008 0243 3F       		.uleb128 0x3f
 10009 0244 19       		.uleb128 0x19
 10010 0245 02       		.uleb128 0x2
 10011 0246 18       		.uleb128 0x18
 10012 0247 00       		.byte	0
 10013 0248 00       		.byte	0
 10014 0249 27       		.uleb128 0x27
 10015 024a 34       		.uleb128 0x34
 10016 024b 00       		.byte	0
 10017 024c 03       		.uleb128 0x3
 10018 024d 08       		.uleb128 0x8
 10019 024e 3A       		.uleb128 0x3a
 10020 024f 0B       		.uleb128 0xb
 10021 0250 3B       		.uleb128 0x3b
 10022 0251 0B       		.uleb128 0xb
 10023 0252 49       		.uleb128 0x49
 10024 0253 13       		.uleb128 0x13
 10025 0254 3F       		.uleb128 0x3f
 10026 0255 19       		.uleb128 0x19
 10027 0256 02       		.uleb128 0x2
 10028 0257 18       		.uleb128 0x18
 10029 0258 00       		.byte	0
 10030 0259 00       		.byte	0
 10031 025a 28       		.uleb128 0x28
 10032 025b 2E       		.uleb128 0x2e
 10033 025c 00       		.byte	0
 10034 025d 3F       		.uleb128 0x3f
 10035 025e 19       		.uleb128 0x19
 10036 025f 3C       		.uleb128 0x3c
 10037 0260 19       		.uleb128 0x19
 10038 0261 6E       		.uleb128 0x6e
 10039 0262 0E       		.uleb128 0xe
 10040 0263 03       		.uleb128 0x3
 10041 0264 0E       		.uleb128 0xe
ARM GAS  C:\Users\HELLOK~1.1\AppData\Local\Temp\cc5k7xEp.s 			page 198


 10042 0265 3A       		.uleb128 0x3a
 10043 0266 0B       		.uleb128 0xb
 10044 0267 3B       		.uleb128 0x3b
 10045 0268 0B       		.uleb128 0xb
 10046 0269 00       		.byte	0
 10047 026a 00       		.byte	0
 10048 026b 29       		.uleb128 0x29
 10049 026c 2E       		.uleb128 0x2e
 10050 026d 00       		.byte	0
 10051 026e 3F       		.uleb128 0x3f
 10052 026f 19       		.uleb128 0x19
 10053 0270 3C       		.uleb128 0x3c
 10054 0271 19       		.uleb128 0x19
 10055 0272 6E       		.uleb128 0x6e
 10056 0273 0E       		.uleb128 0xe
 10057 0274 03       		.uleb128 0x3
 10058 0275 0E       		.uleb128 0xe
 10059 0276 3A       		.uleb128 0x3a
 10060 0277 0B       		.uleb128 0xb
 10061 0278 3B       		.uleb128 0x3b
 10062 0279 05       		.uleb128 0x5
 10063 027a 00       		.byte	0
 10064 027b 00       		.byte	0
 10065 027c 2A       		.uleb128 0x2a
 10066 027d 2E       		.uleb128 0x2e
 10067 027e 00       		.byte	0
 10068 027f 3F       		.uleb128 0x3f
 10069 0280 19       		.uleb128 0x19
 10070 0281 3C       		.uleb128 0x3c
 10071 0282 19       		.uleb128 0x19
 10072 0283 6E       		.uleb128 0x6e
 10073 0284 0E       		.uleb128 0xe
 10074 0285 03       		.uleb128 0x3
 10075 0286 0E       		.uleb128 0xe
 10076 0287 00       		.byte	0
 10077 0288 00       		.byte	0
 10078 0289 00       		.byte	0
 10079              		.section	.debug_loc,"",%progbits
 10080              	.Ldebug_loc0:
 10081              	.LLST0:
 10082 0000 00000000 		.4byte	.LVL0
 10083 0004 0E000000 		.4byte	.LVL1
 10084 0008 0100     		.2byte	0x1
 10085 000a 50       		.byte	0x50
 10086 000b 14000000 		.4byte	.LVL2
 10087 000f 1C000000 		.4byte	.LVL3
 10088 0013 0100     		.2byte	0x1
 10089 0015 50       		.byte	0x50
 10090 0016 1E000000 		.4byte	.LVL4
 10091 001a 20000000 		.4byte	.LVL5
 10092 001e 0100     		.2byte	0x1
 10093 0020 50       		.byte	0x50
 10094 0021 00000000 		.4byte	0
 10095 0025 00000000 		.4byte	0
 10096              	.LLST1:
 10097 0029 00000000 		.4byte	.LVL11
 10098 002d 0C000000 		.4byte	.LVL12
ARM GAS  C:\Users\HELLOK~1.1\AppData\Local\Temp\cc5k7xEp.s 			page 199


 10099 0031 0100     		.2byte	0x1
 10100 0033 50       		.byte	0x50
 10101 0034 0C000000 		.4byte	.LVL12
 10102 0038 12000000 		.4byte	.LFE36
 10103 003c 0400     		.2byte	0x4
 10104 003e F3       		.byte	0xf3
 10105 003f 01       		.uleb128 0x1
 10106 0040 50       		.byte	0x50
 10107 0041 9F       		.byte	0x9f
 10108 0042 00000000 		.4byte	0
 10109 0046 00000000 		.4byte	0
 10110              	.LLST2:
 10111 004a 00000000 		.4byte	.LVL13
 10112 004e 09000000 		.4byte	.LVL14-1
 10113 0052 0100     		.2byte	0x1
 10114 0054 50       		.byte	0x50
 10115 0055 09000000 		.4byte	.LVL14-1
 10116 0059 1A000000 		.4byte	.LFE37
 10117 005d 0400     		.2byte	0x4
 10118 005f F3       		.byte	0xf3
 10119 0060 01       		.uleb128 0x1
 10120 0061 50       		.byte	0x50
 10121 0062 9F       		.byte	0x9f
 10122 0063 00000000 		.4byte	0
 10123 0067 00000000 		.4byte	0
 10124              	.LLST3:
 10125 006b 00000000 		.4byte	.LVL16
 10126 006f 18000000 		.4byte	.LVL20
 10127 0073 0100     		.2byte	0x1
 10128 0075 50       		.byte	0x50
 10129 0076 18000000 		.4byte	.LVL20
 10130 007a 42000000 		.4byte	.LVL28
 10131 007e 0100     		.2byte	0x1
 10132 0080 55       		.byte	0x55
 10133 0081 42000000 		.4byte	.LVL28
 10134 0085 44000000 		.4byte	.LFE38
 10135 0089 0400     		.2byte	0x4
 10136 008b F3       		.byte	0xf3
 10137 008c 01       		.uleb128 0x1
 10138 008d 50       		.byte	0x50
 10139 008e 9F       		.byte	0x9f
 10140 008f 00000000 		.4byte	0
 10141 0093 00000000 		.4byte	0
 10142              	.LLST4:
 10143 0097 00000000 		.4byte	.LVL16
 10144 009b 0C000000 		.4byte	.LVL17
 10145 009f 0100     		.2byte	0x1
 10146 00a1 51       		.byte	0x51
 10147 00a2 0C000000 		.4byte	.LVL17
 10148 00a6 42000000 		.4byte	.LVL29
 10149 00aa 0100     		.2byte	0x1
 10150 00ac 56       		.byte	0x56
 10151 00ad 42000000 		.4byte	.LVL29
 10152 00b1 44000000 		.4byte	.LFE38
 10153 00b5 0400     		.2byte	0x4
 10154 00b7 F3       		.byte	0xf3
 10155 00b8 01       		.uleb128 0x1
ARM GAS  C:\Users\HELLOK~1.1\AppData\Local\Temp\cc5k7xEp.s 			page 200


 10156 00b9 51       		.byte	0x51
 10157 00ba 9F       		.byte	0x9f
 10158 00bb 00000000 		.4byte	0
 10159 00bf 00000000 		.4byte	0
 10160              	.LLST5:
 10161 00c3 00000000 		.4byte	.LVL16
 10162 00c7 16000000 		.4byte	.LVL19
 10163 00cb 0100     		.2byte	0x1
 10164 00cd 52       		.byte	0x52
 10165 00ce 16000000 		.4byte	.LVL19
 10166 00d2 42000000 		.4byte	.LVL27
 10167 00d6 0100     		.2byte	0x1
 10168 00d8 54       		.byte	0x54
 10169 00d9 42000000 		.4byte	.LVL27
 10170 00dd 44000000 		.4byte	.LFE38
 10171 00e1 0400     		.2byte	0x4
 10172 00e3 F3       		.byte	0xf3
 10173 00e4 01       		.uleb128 0x1
 10174 00e5 52       		.byte	0x52
 10175 00e6 9F       		.byte	0x9f
 10176 00e7 00000000 		.4byte	0
 10177 00eb 00000000 		.4byte	0
 10178              	.LLST6:
 10179 00ef 00000000 		.4byte	.LVL16
 10180 00f3 10000000 		.4byte	.LVL18
 10181 00f7 0100     		.2byte	0x1
 10182 00f9 53       		.byte	0x53
 10183 00fa 10000000 		.4byte	.LVL18
 10184 00fe 44000000 		.4byte	.LFE38
 10185 0102 0400     		.2byte	0x4
 10186 0104 F3       		.byte	0xf3
 10187 0105 01       		.uleb128 0x1
 10188 0106 53       		.byte	0x53
 10189 0107 9F       		.byte	0x9f
 10190 0108 00000000 		.4byte	0
 10191 010c 00000000 		.4byte	0
 10192              	.LLST7:
 10193 0110 00000000 		.4byte	.LVL30
 10194 0114 12000000 		.4byte	.LVL34
 10195 0118 0100     		.2byte	0x1
 10196 011a 50       		.byte	0x50
 10197 011b 12000000 		.4byte	.LVL34
 10198 011f 15000000 		.4byte	.LVL35-1
 10199 0123 0100     		.2byte	0x1
 10200 0125 51       		.byte	0x51
 10201 0126 15000000 		.4byte	.LVL35-1
 10202 012a 24000000 		.4byte	.LFE39
 10203 012e 0400     		.2byte	0x4
 10204 0130 F3       		.byte	0xf3
 10205 0131 01       		.uleb128 0x1
 10206 0132 50       		.byte	0x50
 10207 0133 9F       		.byte	0x9f
 10208 0134 00000000 		.4byte	0
 10209 0138 00000000 		.4byte	0
 10210              	.LLST8:
 10211 013c 00000000 		.4byte	.LVL30
 10212 0140 10000000 		.4byte	.LVL33
ARM GAS  C:\Users\HELLOK~1.1\AppData\Local\Temp\cc5k7xEp.s 			page 201


 10213 0144 0100     		.2byte	0x1
 10214 0146 51       		.byte	0x51
 10215 0147 10000000 		.4byte	.LVL33
 10216 014b 15000000 		.4byte	.LVL35-1
 10217 014f 0100     		.2byte	0x1
 10218 0151 52       		.byte	0x52
 10219 0152 15000000 		.4byte	.LVL35-1
 10220 0156 24000000 		.4byte	.LFE39
 10221 015a 0400     		.2byte	0x4
 10222 015c F3       		.byte	0xf3
 10223 015d 01       		.uleb128 0x1
 10224 015e 51       		.byte	0x51
 10225 015f 9F       		.byte	0x9f
 10226 0160 00000000 		.4byte	0
 10227 0164 00000000 		.4byte	0
 10228              	.LLST9:
 10229 0168 00000000 		.4byte	.LVL30
 10230 016c 0E000000 		.4byte	.LVL32
 10231 0170 0100     		.2byte	0x1
 10232 0172 52       		.byte	0x52
 10233 0173 0E000000 		.4byte	.LVL32
 10234 0177 22000000 		.4byte	.LVL38
 10235 017b 0100     		.2byte	0x1
 10236 017d 54       		.byte	0x54
 10237 017e 22000000 		.4byte	.LVL38
 10238 0182 24000000 		.4byte	.LFE39
 10239 0186 0400     		.2byte	0x4
 10240 0188 F3       		.byte	0xf3
 10241 0189 01       		.uleb128 0x1
 10242 018a 52       		.byte	0x52
 10243 018b 9F       		.byte	0x9f
 10244 018c 00000000 		.4byte	0
 10245 0190 00000000 		.4byte	0
 10246              	.LLST10:
 10247 0194 00000000 		.4byte	.LVL30
 10248 0198 08000000 		.4byte	.LVL31
 10249 019c 0100     		.2byte	0x1
 10250 019e 53       		.byte	0x53
 10251 019f 08000000 		.4byte	.LVL31
 10252 01a3 24000000 		.4byte	.LFE39
 10253 01a7 0400     		.2byte	0x4
 10254 01a9 F3       		.byte	0xf3
 10255 01aa 01       		.uleb128 0x1
 10256 01ab 53       		.byte	0x53
 10257 01ac 9F       		.byte	0x9f
 10258 01ad 00000000 		.4byte	0
 10259 01b1 00000000 		.4byte	0
 10260              	.LLST11:
 10261 01b5 00000000 		.4byte	.LVL39
 10262 01b9 14000000 		.4byte	.LVL43
 10263 01bd 0100     		.2byte	0x1
 10264 01bf 50       		.byte	0x50
 10265 01c0 14000000 		.4byte	.LVL43
 10266 01c4 3E000000 		.4byte	.LVL51
 10267 01c8 0100     		.2byte	0x1
 10268 01ca 55       		.byte	0x55
 10269 01cb 3E000000 		.4byte	.LVL51
ARM GAS  C:\Users\HELLOK~1.1\AppData\Local\Temp\cc5k7xEp.s 			page 202


 10270 01cf 40000000 		.4byte	.LFE41
 10271 01d3 0400     		.2byte	0x4
 10272 01d5 F3       		.byte	0xf3
 10273 01d6 01       		.uleb128 0x1
 10274 01d7 50       		.byte	0x50
 10275 01d8 9F       		.byte	0x9f
 10276 01d9 00000000 		.4byte	0
 10277 01dd 00000000 		.4byte	0
 10278              	.LLST12:
 10279 01e1 00000000 		.4byte	.LVL39
 10280 01e5 0C000000 		.4byte	.LVL40
 10281 01e9 0100     		.2byte	0x1
 10282 01eb 51       		.byte	0x51
 10283 01ec 0C000000 		.4byte	.LVL40
 10284 01f0 3E000000 		.4byte	.LVL52
 10285 01f4 0100     		.2byte	0x1
 10286 01f6 56       		.byte	0x56
 10287 01f7 3E000000 		.4byte	.LVL52
 10288 01fb 40000000 		.4byte	.LFE41
 10289 01ff 0400     		.2byte	0x4
 10290 0201 F3       		.byte	0xf3
 10291 0202 01       		.uleb128 0x1
 10292 0203 51       		.byte	0x51
 10293 0204 9F       		.byte	0x9f
 10294 0205 00000000 		.4byte	0
 10295 0209 00000000 		.4byte	0
 10296              	.LLST13:
 10297 020d 00000000 		.4byte	.LVL39
 10298 0211 12000000 		.4byte	.LVL42
 10299 0215 0100     		.2byte	0x1
 10300 0217 52       		.byte	0x52
 10301 0218 12000000 		.4byte	.LVL42
 10302 021c 3E000000 		.4byte	.LVL50
 10303 0220 0100     		.2byte	0x1
 10304 0222 54       		.byte	0x54
 10305 0223 3E000000 		.4byte	.LVL50
 10306 0227 40000000 		.4byte	.LFE41
 10307 022b 0400     		.2byte	0x4
 10308 022d F3       		.byte	0xf3
 10309 022e 01       		.uleb128 0x1
 10310 022f 52       		.byte	0x52
 10311 0230 9F       		.byte	0x9f
 10312 0231 00000000 		.4byte	0
 10313 0235 00000000 		.4byte	0
 10314              	.LLST14:
 10315 0239 00000000 		.4byte	.LVL39
 10316 023d 10000000 		.4byte	.LVL41
 10317 0241 0100     		.2byte	0x1
 10318 0243 53       		.byte	0x53
 10319 0244 10000000 		.4byte	.LVL41
 10320 0248 40000000 		.4byte	.LFE41
 10321 024c 0400     		.2byte	0x4
 10322 024e F3       		.byte	0xf3
 10323 024f 01       		.uleb128 0x1
 10324 0250 53       		.byte	0x53
 10325 0251 9F       		.byte	0x9f
 10326 0252 00000000 		.4byte	0
ARM GAS  C:\Users\HELLOK~1.1\AppData\Local\Temp\cc5k7xEp.s 			page 203


 10327 0256 00000000 		.4byte	0
 10328              	.LLST15:
 10329 025a 00000000 		.4byte	.LVL53
 10330 025e 0E000000 		.4byte	.LVL57
 10331 0262 0100     		.2byte	0x1
 10332 0264 50       		.byte	0x50
 10333 0265 0E000000 		.4byte	.LVL57
 10334 0269 11000000 		.4byte	.LVL58-1
 10335 026d 0100     		.2byte	0x1
 10336 026f 51       		.byte	0x51
 10337 0270 11000000 		.4byte	.LVL58-1
 10338 0274 20000000 		.4byte	.LFE42
 10339 0278 0400     		.2byte	0x4
 10340 027a F3       		.byte	0xf3
 10341 027b 01       		.uleb128 0x1
 10342 027c 50       		.byte	0x50
 10343 027d 9F       		.byte	0x9f
 10344 027e 00000000 		.4byte	0
 10345 0282 00000000 		.4byte	0
 10346              	.LLST16:
 10347 0286 00000000 		.4byte	.LVL53
 10348 028a 0C000000 		.4byte	.LVL56
 10349 028e 0100     		.2byte	0x1
 10350 0290 51       		.byte	0x51
 10351 0291 0C000000 		.4byte	.LVL56
 10352 0295 11000000 		.4byte	.LVL58-1
 10353 0299 0100     		.2byte	0x1
 10354 029b 52       		.byte	0x52
 10355 029c 11000000 		.4byte	.LVL58-1
 10356 02a0 20000000 		.4byte	.LFE42
 10357 02a4 0400     		.2byte	0x4
 10358 02a6 F3       		.byte	0xf3
 10359 02a7 01       		.uleb128 0x1
 10360 02a8 51       		.byte	0x51
 10361 02a9 9F       		.byte	0x9f
 10362 02aa 00000000 		.4byte	0
 10363 02ae 00000000 		.4byte	0
 10364              	.LLST17:
 10365 02b2 00000000 		.4byte	.LVL53
 10366 02b6 0A000000 		.4byte	.LVL55
 10367 02ba 0100     		.2byte	0x1
 10368 02bc 52       		.byte	0x52
 10369 02bd 0A000000 		.4byte	.LVL55
 10370 02c1 1E000000 		.4byte	.LVL61
 10371 02c5 0100     		.2byte	0x1
 10372 02c7 54       		.byte	0x54
 10373 02c8 1E000000 		.4byte	.LVL61
 10374 02cc 20000000 		.4byte	.LFE42
 10375 02d0 0400     		.2byte	0x4
 10376 02d2 F3       		.byte	0xf3
 10377 02d3 01       		.uleb128 0x1
 10378 02d4 52       		.byte	0x52
 10379 02d5 9F       		.byte	0x9f
 10380 02d6 00000000 		.4byte	0
 10381 02da 00000000 		.4byte	0
 10382              	.LLST18:
 10383 02de 00000000 		.4byte	.LVL53
ARM GAS  C:\Users\HELLOK~1.1\AppData\Local\Temp\cc5k7xEp.s 			page 204


 10384 02e2 08000000 		.4byte	.LVL54
 10385 02e6 0100     		.2byte	0x1
 10386 02e8 53       		.byte	0x53
 10387 02e9 08000000 		.4byte	.LVL54
 10388 02ed 20000000 		.4byte	.LFE42
 10389 02f1 0400     		.2byte	0x4
 10390 02f3 F3       		.byte	0xf3
 10391 02f4 01       		.uleb128 0x1
 10392 02f5 53       		.byte	0x53
 10393 02f6 9F       		.byte	0x9f
 10394 02f7 00000000 		.4byte	0
 10395 02fb 00000000 		.4byte	0
 10396              	.LLST19:
 10397 02ff 02000000 		.4byte	.LVL101
 10398 0303 06000000 		.4byte	.LVL102
 10399 0307 0200     		.2byte	0x2
 10400 0309 30       		.byte	0x30
 10401 030a 9F       		.byte	0x9f
 10402 030b 06000000 		.4byte	.LVL102
 10403 030f 54000000 		.4byte	.LVL112
 10404 0313 0100     		.2byte	0x1
 10405 0315 55       		.byte	0x55
 10406 0316 00000000 		.4byte	0
 10407 031a 00000000 		.4byte	0
 10408              	.LLST20:
 10409 031e 50000000 		.4byte	.LVL111
 10410 0322 54000000 		.4byte	.LVL112
 10411 0326 0200     		.2byte	0x2
 10412 0328 30       		.byte	0x30
 10413 0329 9F       		.byte	0x9f
 10414 032a 54000000 		.4byte	.LVL112
 10415 032e A2000000 		.4byte	.LVL126
 10416 0332 0100     		.2byte	0x1
 10417 0334 56       		.byte	0x56
 10418 0335 00000000 		.4byte	0
 10419 0339 00000000 		.4byte	0
 10420              	.LLST21:
 10421 033d 70000000 		.4byte	.LVL115
 10422 0341 9E000000 		.4byte	.LVL125
 10423 0345 0100     		.2byte	0x1
 10424 0347 55       		.byte	0x55
 10425 0348 00000000 		.4byte	0
 10426 034c 00000000 		.4byte	0
 10427              	.LLST22:
 10428 0350 70000000 		.4byte	.LVL115
 10429 0354 80000000 		.4byte	.LVL119
 10430 0358 0100     		.2byte	0x1
 10431 035a 54       		.byte	0x54
 10432 035b 82000000 		.4byte	.LVL120
 10433 035f 88000000 		.4byte	.LVL121
 10434 0363 0100     		.2byte	0x1
 10435 0365 54       		.byte	0x54
 10436 0366 00000000 		.4byte	0
 10437 036a 00000000 		.4byte	0
 10438              	.LLST23:
 10439 036e 66000000 		.4byte	.LVL136
 10440 0372 B6000000 		.4byte	.LVL142
ARM GAS  C:\Users\HELLOK~1.1\AppData\Local\Temp\cc5k7xEp.s 			page 205


 10441 0376 0100     		.2byte	0x1
 10442 0378 54       		.byte	0x54
 10443 0379 B8000000 		.4byte	.LVL143
 10444 037d DA000000 		.4byte	.LVL147
 10445 0381 0100     		.2byte	0x1
 10446 0383 54       		.byte	0x54
 10447 0384 F0000000 		.4byte	.LVL150
 10448 0388 1E010000 		.4byte	.LVL153
 10449 038c 0100     		.2byte	0x1
 10450 038e 56       		.byte	0x56
 10451 038f 20010000 		.4byte	.LVL154
 10452 0393 5E010000 		.4byte	.LVL160
 10453 0397 0100     		.2byte	0x1
 10454 0399 56       		.byte	0x56
 10455 039a 60010000 		.4byte	.LVL161
 10456 039e 8E010000 		.4byte	.LVL164
 10457 03a2 0100     		.2byte	0x1
 10458 03a4 55       		.byte	0x55
 10459 03a5 90010000 		.4byte	.LVL165
 10460 03a9 C0010000 		.4byte	.LVL170
 10461 03ad 0100     		.2byte	0x1
 10462 03af 55       		.byte	0x55
 10463 03b0 60020000 		.4byte	.LVL181
 10464 03b4 90020000 		.4byte	.LVL184
 10465 03b8 0100     		.2byte	0x1
 10466 03ba 55       		.byte	0x55
 10467 03bb 92020000 		.4byte	.LVL185
 10468 03bf B8020000 		.4byte	.LVL190
 10469 03c3 0100     		.2byte	0x1
 10470 03c5 55       		.byte	0x55
 10471 03c6 D0020000 		.4byte	.LVL192
 10472 03ca 00030000 		.4byte	.LVL195
 10473 03ce 0100     		.2byte	0x1
 10474 03d0 56       		.byte	0x56
 10475 03d1 02030000 		.4byte	.LVL196
 10476 03d5 28030000 		.4byte	.LVL201
 10477 03d9 0100     		.2byte	0x1
 10478 03db 56       		.byte	0x56
 10479 03dc 3C030000 		.4byte	.LVL203
 10480 03e0 40030000 		.4byte	.LVL204
 10481 03e4 0200     		.2byte	0x2
 10482 03e6 30       		.byte	0x30
 10483 03e7 9F       		.byte	0x9f
 10484 03e8 40030000 		.4byte	.LVL204
 10485 03ec 54030000 		.4byte	.LVL205
 10486 03f0 0100     		.2byte	0x1
 10487 03f2 57       		.byte	0x57
 10488 03f3 54030000 		.4byte	.LVL205
 10489 03f7 90030000 		.4byte	.LVL206
 10490 03fb 0300     		.2byte	0x3
 10491 03fd 77       		.byte	0x77
 10492 03fe 7F       		.sleb128 -1
 10493 03ff 9F       		.byte	0x9f
 10494 0400 90030000 		.4byte	.LVL206
 10495 0404 CC030000 		.4byte	.LVL211
 10496 0408 0100     		.2byte	0x1
 10497 040a 57       		.byte	0x57
ARM GAS  C:\Users\HELLOK~1.1\AppData\Local\Temp\cc5k7xEp.s 			page 206


 10498 040b 00000000 		.4byte	0
 10499 040f 00000000 		.4byte	0
 10500              	.LLST24:
 10501 0413 DA000000 		.4byte	.LVL147
 10502 0417 56040000 		.4byte	.LVL225
 10503 041b 0100     		.2byte	0x1
 10504 041d 54       		.byte	0x54
 10505 041e 00000000 		.4byte	0
 10506 0422 00000000 		.4byte	0
 10507              	.LLST25:
 10508 0426 36010000 		.4byte	.LVL253
 10509 042a 3A010000 		.4byte	.LVL254
 10510 042e 0200     		.2byte	0x2
 10511 0430 30       		.byte	0x30
 10512 0431 9F       		.byte	0x9f
 10513 0432 3A010000 		.4byte	.LVL254
 10514 0436 8E030000 		.4byte	.LVL304
 10515 043a 0100     		.2byte	0x1
 10516 043c 55       		.byte	0x55
 10517 043d 8E030000 		.4byte	.LVL304
 10518 0441 9A030000 		.4byte	.LVL305
 10519 0445 0700     		.2byte	0x7
 10520 0447 91       		.byte	0x91
 10521 0448 FC7E     		.sleb128 -132
 10522 044a 06       		.byte	0x6
 10523 044b 31       		.byte	0x31
 10524 044c 1C       		.byte	0x1c
 10525 044d 9F       		.byte	0x9f
 10526 044e 9A030000 		.4byte	.LVL305
 10527 0452 9C030000 		.4byte	.LVL306
 10528 0456 0300     		.2byte	0x3
 10529 0458 91       		.byte	0x91
 10530 0459 FC7E     		.sleb128 -132
 10531 045b 9C030000 		.4byte	.LVL306
 10532 045f AC030000 		.4byte	.LVL308
 10533 0463 0100     		.2byte	0x1
 10534 0465 55       		.byte	0x55
 10535 0466 00000000 		.4byte	0
 10536 046a 00000000 		.4byte	0
 10537              	.LLST26:
 10538 046e 64010000 		.4byte	.LVL258
 10539 0472 06020000 		.4byte	.LVL272
 10540 0476 0200     		.2byte	0x2
 10541 0478 30       		.byte	0x30
 10542 0479 9F       		.byte	0x9f
 10543 047a 06020000 		.4byte	.LVL272
 10544 047e 22020000 		.4byte	.LVL273
 10545 0482 0100     		.2byte	0x1
 10546 0484 56       		.byte	0x56
 10547 0485 24020000 		.4byte	.LVL274
 10548 0489 34020000 		.4byte	.LVL275
 10549 048d 0100     		.2byte	0x1
 10550 048f 56       		.byte	0x56
 10551 0490 36020000 		.4byte	.LVL276
 10552 0494 3A020000 		.4byte	.LVL277
 10553 0498 0100     		.2byte	0x1
 10554 049a 56       		.byte	0x56
ARM GAS  C:\Users\HELLOK~1.1\AppData\Local\Temp\cc5k7xEp.s 			page 207


 10555 049b 3C020000 		.4byte	.LVL278
 10556 049f 7E020000 		.4byte	.LVL284
 10557 04a3 0100     		.2byte	0x1
 10558 04a5 56       		.byte	0x56
 10559 04a6 7E020000 		.4byte	.LVL284
 10560 04aa 9A020000 		.4byte	.LVL285
 10561 04ae 0100     		.2byte	0x1
 10562 04b0 57       		.byte	0x57
 10563 04b1 9C020000 		.4byte	.LVL286
 10564 04b5 AC020000 		.4byte	.LVL287
 10565 04b9 0100     		.2byte	0x1
 10566 04bb 57       		.byte	0x57
 10567 04bc AE020000 		.4byte	.LVL288
 10568 04c0 B2020000 		.4byte	.LVL289
 10569 04c4 0100     		.2byte	0x1
 10570 04c6 57       		.byte	0x57
 10571 04c7 B4020000 		.4byte	.LVL290
 10572 04cb F4020000 		.4byte	.LVL296
 10573 04cf 0100     		.2byte	0x1
 10574 04d1 57       		.byte	0x57
 10575 04d2 F4020000 		.4byte	.LVL296
 10576 04d6 F8020000 		.4byte	.LVL297
 10577 04da 0200     		.2byte	0x2
 10578 04dc 30       		.byte	0x30
 10579 04dd 9F       		.byte	0x9f
 10580 04de F8020000 		.4byte	.LVL297
 10581 04e2 0C030000 		.4byte	.LVL298
 10582 04e6 0100     		.2byte	0x1
 10583 04e8 56       		.byte	0x56
 10584 04e9 0E030000 		.4byte	.LVL299
 10585 04ed 9C030000 		.4byte	.LVL306
 10586 04f1 0100     		.2byte	0x1
 10587 04f3 56       		.byte	0x56
 10588 04f4 00000000 		.4byte	0
 10589 04f8 00000000 		.4byte	0
 10590              	.LLST27:
 10591 04fc 06000000 		.4byte	.LVL342
 10592 0500 4A000000 		.4byte	.LVL352
 10593 0504 0200     		.2byte	0x2
 10594 0506 30       		.byte	0x30
 10595 0507 9F       		.byte	0x9f
 10596 0508 4A000000 		.4byte	.LVL352
 10597 050c 64000000 		.4byte	.LVL353
 10598 0510 0100     		.2byte	0x1
 10599 0512 54       		.byte	0x54
 10600 0513 66000000 		.4byte	.LVL354
 10601 0517 76000000 		.4byte	.LVL355
 10602 051b 0100     		.2byte	0x1
 10603 051d 54       		.byte	0x54
 10604 051e 78000000 		.4byte	.LVL356
 10605 0522 7C000000 		.4byte	.LVL357
 10606 0526 0100     		.2byte	0x1
 10607 0528 54       		.byte	0x54
 10608 0529 7E000000 		.4byte	.LVL358
 10609 052d A8000000 		.4byte	.LVL362
 10610 0531 0100     		.2byte	0x1
 10611 0533 54       		.byte	0x54
ARM GAS  C:\Users\HELLOK~1.1\AppData\Local\Temp\cc5k7xEp.s 			page 208


 10612 0534 00000000 		.4byte	0
 10613 0538 00000000 		.4byte	0
 10614              		.section	.debug_aranges,"",%progbits
 10615 0000 BC000000 		.4byte	0xbc
 10616 0004 0200     		.2byte	0x2
 10617 0006 00000000 		.4byte	.Ldebug_info0
 10618 000a 04       		.byte	0x4
 10619 000b 00       		.byte	0
 10620 000c 0000     		.2byte	0
 10621 000e 0000     		.2byte	0
 10622 0010 00000000 		.4byte	.LFB35
 10623 0014 64000000 		.4byte	.LFE35-.LFB35
 10624 0018 00000000 		.4byte	.LFB36
 10625 001c 12000000 		.4byte	.LFE36-.LFB36
 10626 0020 00000000 		.4byte	.LFB37
 10627 0024 1A000000 		.4byte	.LFE37-.LFB37
 10628 0028 00000000 		.4byte	.LFB38
 10629 002c 44000000 		.4byte	.LFE38-.LFB38
 10630 0030 00000000 		.4byte	.LFB39
 10631 0034 24000000 		.4byte	.LFE39-.LFB39
 10632 0038 00000000 		.4byte	.LFB40
 10633 003c 02000000 		.4byte	.LFE40-.LFB40
 10634 0040 00000000 		.4byte	.LFB41
 10635 0044 40000000 		.4byte	.LFE41-.LFB41
 10636 0048 00000000 		.4byte	.LFB42
 10637 004c 20000000 		.4byte	.LFE42-.LFB42
 10638 0050 00000000 		.4byte	.LFB43
 10639 0054 80000000 		.4byte	.LFE43-.LFB43
 10640 0058 00000000 		.4byte	.LFB44
 10641 005c B4000000 		.4byte	.LFE44-.LFB44
 10642 0060 00000000 		.4byte	.LFB45
 10643 0064 68000000 		.4byte	.LFE45-.LFB45
 10644 0068 00000000 		.4byte	.LFB46
 10645 006c 60000000 		.4byte	.LFE46-.LFB46
 10646 0070 00000000 		.4byte	.LFB47
 10647 0074 D4000000 		.4byte	.LFE47-.LFB47
 10648 0078 00000000 		.4byte	.LFB48
 10649 007c AC000000 		.4byte	.LFE48-.LFB48
 10650 0080 00000000 		.4byte	.LFB49
 10651 0084 6C040000 		.4byte	.LFE49-.LFB49
 10652 0088 00000000 		.4byte	.LFB50
 10653 008c C0030000 		.4byte	.LFE50-.LFB50
 10654 0090 00000000 		.4byte	.LFB51
 10655 0094 A0000000 		.4byte	.LFE51-.LFB51
 10656 0098 00000000 		.4byte	.LFB52
 10657 009c C8000000 		.4byte	.LFE52-.LFB52
 10658 00a0 00000000 		.4byte	.LFB53
 10659 00a4 C8000000 		.4byte	.LFE53-.LFB53
 10660 00a8 00000000 		.4byte	.LFB54
 10661 00ac F0000000 		.4byte	.LFE54-.LFB54
 10662 00b0 00000000 		.4byte	.LFB55
 10663 00b4 18020000 		.4byte	.LFE55-.LFB55
 10664 00b8 00000000 		.4byte	0
 10665 00bc 00000000 		.4byte	0
 10666              		.section	.debug_ranges,"",%progbits
 10667              	.Ldebug_ranges0:
 10668 0000 70000000 		.4byte	.LBB5
ARM GAS  C:\Users\HELLOK~1.1\AppData\Local\Temp\cc5k7xEp.s 			page 209


 10669 0004 80000000 		.4byte	.LBE5
 10670 0008 82000000 		.4byte	.LBB6
 10671 000c 86000000 		.4byte	.LBE6
 10672 0010 00000000 		.4byte	0
 10673 0014 00000000 		.4byte	0
 10674 0018 00000000 		.4byte	.LFB35
 10675 001c 64000000 		.4byte	.LFE35
 10676 0020 00000000 		.4byte	.LFB36
 10677 0024 12000000 		.4byte	.LFE36
 10678 0028 00000000 		.4byte	.LFB37
 10679 002c 1A000000 		.4byte	.LFE37
 10680 0030 00000000 		.4byte	.LFB38
 10681 0034 44000000 		.4byte	.LFE38
 10682 0038 00000000 		.4byte	.LFB39
 10683 003c 24000000 		.4byte	.LFE39
 10684 0040 00000000 		.4byte	.LFB40
 10685 0044 02000000 		.4byte	.LFE40
 10686 0048 00000000 		.4byte	.LFB41
 10687 004c 40000000 		.4byte	.LFE41
 10688 0050 00000000 		.4byte	.LFB42
 10689 0054 20000000 		.4byte	.LFE42
 10690 0058 00000000 		.4byte	.LFB43
 10691 005c 80000000 		.4byte	.LFE43
 10692 0060 00000000 		.4byte	.LFB44
 10693 0064 B4000000 		.4byte	.LFE44
 10694 0068 00000000 		.4byte	.LFB45
 10695 006c 68000000 		.4byte	.LFE45
 10696 0070 00000000 		.4byte	.LFB46
 10697 0074 60000000 		.4byte	.LFE46
 10698 0078 00000000 		.4byte	.LFB47
 10699 007c D4000000 		.4byte	.LFE47
 10700 0080 00000000 		.4byte	.LFB48
 10701 0084 AC000000 		.4byte	.LFE48
 10702 0088 00000000 		.4byte	.LFB49
 10703 008c 6C040000 		.4byte	.LFE49
 10704 0090 00000000 		.4byte	.LFB50
 10705 0094 C0030000 		.4byte	.LFE50
 10706 0098 00000000 		.4byte	.LFB51
 10707 009c A0000000 		.4byte	.LFE51
 10708 00a0 00000000 		.4byte	.LFB52
 10709 00a4 C8000000 		.4byte	.LFE52
 10710 00a8 00000000 		.4byte	.LFB53
 10711 00ac C8000000 		.4byte	.LFE53
 10712 00b0 00000000 		.4byte	.LFB54
 10713 00b4 F0000000 		.4byte	.LFE54
 10714 00b8 00000000 		.4byte	.LFB55
 10715 00bc 18020000 		.4byte	.LFE55
 10716 00c0 00000000 		.4byte	0
 10717 00c4 00000000 		.4byte	0
 10718              		.section	.debug_line,"",%progbits
 10719              	.Ldebug_line0:
 10720 0000 F0050000 		.section	.debug_str,"MS",%progbits,1
 10720      02005101 
 10720      00000201 
 10720      FB0E0D00 
 10720      01010101 
 10721              	.LASF43:
ARM GAS  C:\Users\HELLOK~1.1\AppData\Local\Temp\cc5k7xEp.s 			page 210


 10722 0000 74696D65 		.ascii	"timesToFeed\000"
 10722      73546F46 
 10722      65656400 
 10723              	.LASF129:
 10724 000c 43794465 		.ascii	"CyDelay\000"
 10724      6C617900 
 10725              	.LASF63:
 10726 0014 72656164 		.ascii	"readBuf\000"
 10726      42756600 
 10727              	.LASF86:
 10728 001c 46454545 		.ascii	"FEEEEED\000"
 10728      45454400 
 10729              	.LASF144:
 10730 0024 4C697175 		.ascii	"LiquidCrystal_I2C_init\000"
 10730      69644372 
 10730      79737461 
 10730      6C5F4932 
 10730      435F696E 
 10731              	.LASF131:
 10732 003b 4C45445F 		.ascii	"LED_PWM_Start\000"
 10732      50574D5F 
 10732      53746172 
 10732      7400
 10733              	.LASF147:
 10734 0049 6D61696E 		.ascii	"main.c\000"
 10734      2E6300
 10735              	.LASF90:
 10736 0050 63757272 		.ascii	"currentIndex\000"
 10736      656E7449 
 10736      6E646578 
 10736      00
 10737              	.LASF140:
 10738 005d 7374726E 		.ascii	"strncmp\000"
 10738      636D7000 
 10739              	.LASF68:
 10740 0065 72656164 		.ascii	"readFromRam\000"
 10740      46726F6D 
 10740      52616D00 
 10741              	.LASF99:
 10742 0071 6D657373 		.ascii	"message\000"
 10742      61676500 
 10743              	.LASF48:
 10744 0079 66656564 		.ascii	"feedTime1\000"
 10744      54696D65 
 10744      3100
 10745              	.LASF49:
 10746 0083 66656564 		.ascii	"feedTime2\000"
 10746      54696D65 
 10746      3200
 10747              	.LASF50:
 10748 008d 66656564 		.ascii	"feedTime3\000"
 10748      54696D65 
 10748      3300
 10749              	.LASF51:
 10750 0097 66656564 		.ascii	"feedTime4\000"
 10750      54696D65 
 10750      3400
ARM GAS  C:\Users\HELLOK~1.1\AppData\Local\Temp\cc5k7xEp.s 			page 211


 10751              	.LASF52:
 10752 00a1 66656564 		.ascii	"feedTime5\000"
 10752      54696D65 
 10752      3500
 10753              	.LASF8:
 10754 00ab 756E7369 		.ascii	"unsigned int\000"
 10754      676E6564 
 10754      20696E74 
 10754      00
 10755              	.LASF54:
 10756 00b8 66656564 		.ascii	"feedTime7\000"
 10756      54696D65 
 10756      3700
 10757              	.LASF55:
 10758 00c2 66656564 		.ascii	"feedTime8\000"
 10758      54696D65 
 10758      3800
 10759              	.LASF56:
 10760 00cc 66656564 		.ascii	"feedTime9\000"
 10760      54696D65 
 10760      3900
 10761              	.LASF137:
 10762 00d6 53504541 		.ascii	"SPEAKER_PWM_WriteCompare\000"
 10762      4B45525F 
 10762      50574D5F 
 10762      57726974 
 10762      65436F6D 
 10763              	.LASF65:
 10764 00ef 64657641 		.ascii	"devAddr\000"
 10764      64647200 
 10765              	.LASF74:
 10766 00f7 77724275 		.ascii	"wrBuf\000"
 10766      6600
 10767              	.LASF145:
 10768 00fd 4C434442 		.ascii	"LCDBegin\000"
 10768      6567696E 
 10768      00
 10769              	.LASF111:
 10770 0106 66656564 		.ascii	"feedTimes\000"
 10770      54696D65 
 10770      7300
 10771              	.LASF124:
 10772 0110 4932435F 		.ascii	"I2C_I2CMasterReadBuf\000"
 10772      4932434D 
 10772      61737465 
 10772      72526561 
 10772      64427566 
 10773              	.LASF143:
 10774 0125 4932435F 		.ascii	"I2C_Start\000"
 10774      53746172 
 10774      7400
 10775              	.LASF95:
 10776 012f 7072696E 		.ascii	"printYear\000"
 10776      74596561 
 10776      7200
 10777              	.LASF44:
 10778 0139 66656564 		.ascii	"feedStepsP1\000"
ARM GAS  C:\Users\HELLOK~1.1\AppData\Local\Temp\cc5k7xEp.s 			page 212


 10778      53746570 
 10778      73503100 
 10779              	.LASF45:
 10780 0145 66656564 		.ascii	"feedStepsP2\000"
 10780      53746570 
 10780      73503200 
 10781              	.LASF30:
 10782 0151 43656E74 		.ascii	"Century_Months\000"
 10782      7572795F 
 10782      4D6F6E74 
 10782      687300
 10783              	.LASF47:
 10784 0160 66656564 		.ascii	"feedStepsP4\000"
 10784      53746570 
 10784      73503400 
 10785              	.LASF100:
 10786 016c 73657441 		.ascii	"setAmountOfFood\000"
 10786      6D6F756E 
 10786      744F6646 
 10786      6F6F6400 
 10787              	.LASF12:
 10788 017c 666C6F61 		.ascii	"float\000"
 10788      7400
 10789              	.LASF59:
 10790 0182 62636454 		.ascii	"bcdToDec\000"
 10790      6F446563 
 10790      00
 10791              	.LASF110:
 10792 018b 6D6F6E74 		.ascii	"months\000"
 10792      687300
 10793              	.LASF38:
 10794 0192 54696D65 		.ascii	"Timer\000"
 10794      7200
 10795              	.LASF120:
 10796 0198 43794465 		.ascii	"CyDelayUs\000"
 10796      6C617955 
 10796      7300
 10797              	.LASF139:
 10798 01a2 42544E5F 		.ascii	"BTN_Read\000"
 10798      52656164 
 10798      00
 10799              	.LASF7:
 10800 01ab 6C6F6E67 		.ascii	"long long unsigned int\000"
 10800      206C6F6E 
 10800      6720756E 
 10800      7369676E 
 10800      65642069 
 10801              	.LASF78:
 10802 01c2 6E657874 		.ascii	"nextTime\000"
 10802      54696D65 
 10802      00
 10803              	.LASF35:
 10804 01cb 5765656B 		.ascii	"WeekdayAlarm\000"
 10804      64617941 
 10804      6C61726D 
 10804      00
 10805              	.LASF142:
ARM GAS  C:\Users\HELLOK~1.1\AppData\Local\Temp\cc5k7xEp.s 			page 213


 10806 01d8 454E435F 		.ascii	"ENC_ISR_Start\000"
 10806      4953525F 
 10806      53746172 
 10806      7400
 10807              	.LASF119:
 10808 01e6 4D6F746F 		.ascii	"Motor_Write\000"
 10808      725F5772 
 10808      69746500 
 10809              	.LASF31:
 10810 01f2 59656172 		.ascii	"Years\000"
 10810      7300
 10811              	.LASF94:
 10812 01f8 7072696E 		.ascii	"printDay\000"
 10812      74446179 
 10812      00
 10813              	.LASF105:
 10814 0201 74696D65 		.ascii	"time\000"
 10814      00
 10815              	.LASF127:
 10816 0206 4C43445F 		.ascii	"LCD_print\000"
 10816      7072696E 
 10816      7400
 10817              	.LASF61:
 10818 0210 76616C75 		.ascii	"value\000"
 10818      6500
 10819              	.LASF34:
 10820 0216 44617941 		.ascii	"DayAlarm\000"
 10820      6C61726D 
 10820      00
 10821              	.LASF146:
 10822 021f 474E5520 		.ascii	"GNU C11 5.4.1 20160609 (release) [ARM/embedded-5-br"
 10822      43313120 
 10822      352E342E 
 10822      31203230 
 10822      31363036 
 10823 0252 616E6368 		.ascii	"anch revision 237715] -mcpu=cortex-m0 -mthumb -g -O"
 10823      20726576 
 10823      6973696F 
 10823      6E203233 
 10823      37373135 
 10824 0285 67202D66 		.ascii	"g -ffunction-sections -ffat-lto-objects\000"
 10824      66756E63 
 10824      74696F6E 
 10824      2D736563 
 10824      74696F6E 
 10825              	.LASF80:
 10826 02ad 6E657874 		.ascii	"nextDate\000"
 10826      44617465 
 10826      00
 10827              	.LASF133:
 10828 02b6 53504541 		.ascii	"SPEAKER_PWM_Stop\000"
 10828      4B45525F 
 10828      50574D5F 
 10828      53746F70 
 10828      00
 10829              	.LASF73:
 10830 02c7 6D656D41 		.ascii	"memAddr\000"
ARM GAS  C:\Users\HELLOK~1.1\AppData\Local\Temp\cc5k7xEp.s 			page 214


 10830      64647200 
 10831              	.LASF89:
 10832 02cf 73657444 		.ascii	"setDate\000"
 10832      61746500 
 10833              	.LASF57:
 10834 02d7 66656564 		.ascii	"feedTime10\000"
 10834      54696D65 
 10834      313000
 10835              	.LASF28:
 10836 02e2 44617973 		.ascii	"Days\000"
 10836      00
 10837              	.LASF77:
 10838 02e7 63757272 		.ascii	"currTime\000"
 10838      54696D65 
 10838      00
 10839              	.LASF21:
 10840 02f0 6D6F6E74 		.ascii	"month\000"
 10840      6800
 10841              	.LASF102:
 10842 02f6 746F6767 		.ascii	"toggleSpeakers\000"
 10842      6C655370 
 10842      65616B65 
 10842      727300
 10843              	.LASF116:
 10844 0305 62757474 		.ascii	"buttonFlag\000"
 10844      6F6E466C 
 10844      616700
 10845              	.LASF85:
 10846 0310 65786974 		.ascii	"exitLCD\000"
 10846      4C434400 
 10847              	.LASF109:
 10848 0318 66656564 		.ascii	"feedSteps\000"
 10848      53746570 
 10848      7300
 10849              	.LASF101:
 10850 0322 746F6767 		.ascii	"toggleLEDs\000"
 10850      6C654C45 
 10850      447300
 10851              	.LASF18:
 10852 032d 686F7572 		.ascii	"hour\000"
 10852      00
 10853              	.LASF79:
 10854 0332 63757272 		.ascii	"currDate\000"
 10854      44617465 
 10854      00
 10855              	.LASF40:
 10856 033b 66656564 		.ascii	"feedCounter\000"
 10856      436F756E 
 10856      74657200 
 10857              	.LASF60:
 10858 0347 6D6F746F 		.ascii	"motor\000"
 10858      7200
 10859              	.LASF98:
 10860 034d 73657446 		.ascii	"setFeedTimes\000"
 10860      65656454 
 10860      696D6573 
 10860      00
ARM GAS  C:\Users\HELLOK~1.1\AppData\Local\Temp\cc5k7xEp.s 			page 215


 10861              	.LASF14:
 10862 035a 63686172 		.ascii	"char\000"
 10862      00
 10863              	.LASF37:
 10864 035f 54696D65 		.ascii	"TimerControl\000"
 10864      72436F6E 
 10864      74726F6C 
 10864      00
 10865              	.LASF29:
 10866 036c 5765656B 		.ascii	"Weekdays\000"
 10866      64617973 
 10866      00
 10867              	.LASF82:
 10868 0375 75706461 		.ascii	"updateNextFeed\000"
 10868      74654E65 
 10868      78744665 
 10868      656400
 10869              	.LASF10:
 10870 0384 75696E74 		.ascii	"uint16\000"
 10870      313600
 10871              	.LASF106:
 10872 038b 64617465 		.ascii	"date\000"
 10872      00
 10873              	.LASF76:
 10874 0390 4C434449 		.ascii	"LCDInit\000"
 10874      6E697400 
 10875              	.LASF72:
 10876 0398 72656164 		.ascii	"readFromAddr\000"
 10876      46726F6D 
 10876      41646472 
 10876      00
 10877              	.LASF123:
 10878 03a5 4932435F 		.ascii	"I2C_I2CMasterClearStatus\000"
 10878      4932434D 
 10878      61737465 
 10878      72436C65 
 10878      61725374 
 10879              	.LASF104:
 10880 03be 63686F69 		.ascii	"choice\000"
 10880      636500
 10881              	.LASF46:
 10882 03c5 66656564 		.ascii	"feedStepsP3\000"
 10882      53746570 
 10882      73503300 
 10883              	.LASF23:
 10884 03d1 4374726C 		.ascii	"CtrlStat1\000"
 10884      53746174 
 10884      3100
 10885              	.LASF24:
 10886 03db 4374726C 		.ascii	"CtrlStat2\000"
 10886      53746174 
 10886      3200
 10887              	.LASF19:
 10888 03e5 6D696E75 		.ascii	"minute\000"
 10888      746500
 10889              	.LASF6:
 10890 03ec 6C6F6E67 		.ascii	"long long int\000"
ARM GAS  C:\Users\HELLOK~1.1\AppData\Local\Temp\cc5k7xEp.s 			page 216


 10890      206C6F6E 
 10890      6720696E 
 10890      7400
 10891              	.LASF42:
 10892 03fa 4C454454 		.ascii	"LEDToggle\000"
 10892      6F67676C 
 10892      6500
 10893              	.LASF41:
 10894 0404 73706561 		.ascii	"speakerToggle\000"
 10894      6B657254 
 10894      6F67676C 
 10894      6500
 10895              	.LASF118:
 10896 0412 656E6350 		.ascii	"encPos\000"
 10896      6F7300
 10897              	.LASF84:
 10898 0419 52544349 		.ascii	"RTCInit\000"
 10898      6E697400 
 10899              	.LASF128:
 10900 0421 4C45445F 		.ascii	"LED_SEL_Write\000"
 10900      53454C5F 
 10900      57726974 
 10900      6500
 10901              	.LASF25:
 10902 042f 564C5F53 		.ascii	"VL_Sec\000"
 10902      656300
 10903              	.LASF150:
 10904 0436 73617665 		.ascii	"saveToFRAM\000"
 10904      546F4652 
 10904      414D00
 10905              	.LASF62:
 10906 0441 64656354 		.ascii	"decToBcd\000"
 10906      6F426364 
 10906      00
 10907              	.LASF113:
 10908 044a 4C434441 		.ascii	"LCDAddr\000"
 10908      64647200 
 10909              	.LASF70:
 10910 0452 77726974 		.ascii	"writeBuf\000"
 10910      65427566 
 10910      00
 10911              	.LASF117:
 10912 045b 656E6346 		.ascii	"encFlag\000"
 10912      6C616700 
 10913              	.LASF11:
 10914 0463 75696E74 		.ascii	"uint32\000"
 10914      333200
 10915              	.LASF115:
 10916 046a 72616D41 		.ascii	"ramAddr\000"
 10916      64647200 
 10917              	.LASF121:
 10918 0472 4932435F 		.ascii	"I2C_I2CMasterWriteBuf\000"
 10918      4932434D 
 10918      61737465 
 10918      72577269 
 10918      74654275 
 10919              	.LASF66:
ARM GAS  C:\Users\HELLOK~1.1\AppData\Local\Temp\cc5k7xEp.s 			page 217


 10920 0488 6D656D41 		.ascii	"memAddr1\000"
 10920      64647231 
 10920      00
 10921              	.LASF67:
 10922 0491 6D656D41 		.ascii	"memAddr2\000"
 10922      64647232 
 10922      00
 10923              	.LASF58:
 10924 049a 4D564357 		.ascii	"MVCW\000"
 10924      00
 10925              	.LASF114:
 10926 049f 52544341 		.ascii	"RTCAddr\000"
 10926      64647200 
 10927              	.LASF83:
 10928 04a7 75706461 		.ascii	"updateCurrTime\000"
 10928      74654375 
 10928      72725469 
 10928      6D6500
 10929              	.LASF64:
 10930 04b6 72656164 		.ascii	"readBytes\000"
 10930      42797465 
 10930      7300
 10931              	.LASF112:
 10932 04c0 636F6D6D 		.ascii	"commands\000"
 10932      616E6473 
 10932      00
 10933              	.LASF36:
 10934 04c9 434C4B4F 		.ascii	"CLKOUTControl\000"
 10934      5554436F 
 10934      6E74726F 
 10934      6C00
 10935              	.LASF15:
 10936 04d7 6C6F6E67 		.ascii	"long double\000"
 10936      20646F75 
 10936      626C6500 
 10937              	.LASF148:
 10938 04e3 433A5C55 		.ascii	"C:\\Users\\hElLo KiTtY 2.1\\Desktop\\Final Project\\"
 10938      73657273 
 10938      5C68456C 
 10938      4C6F204B 
 10938      69547459 
 10939 0512 50726F6A 		.ascii	"Project Files\\Final Project\\AutomaticPetFeeder.cy"
 10939      65637420 
 10939      46696C65 
 10939      735C4669 
 10939      6E616C20 
 10940 0543 64736E00 		.ascii	"dsn\000"
 10941              	.LASF96:
 10942 0547 7072696E 		.ascii	"printHour\000"
 10942      74486F75 
 10942      7200
 10943              	.LASF136:
 10944 0551 53504541 		.ascii	"SPEAKER_PWM_WritePeriod\000"
 10944      4B45525F 
 10944      50574D5F 
 10944      57726974 
 10944      65506572 
ARM GAS  C:\Users\HELLOK~1.1\AppData\Local\Temp\cc5k7xEp.s 			page 218


 10945              	.LASF138:
 10946 0569 636C6561 		.ascii	"clear\000"
 10946      7200
 10947              	.LASF126:
 10948 056f 736E7072 		.ascii	"snprintf\000"
 10948      696E7466 
 10948      00
 10949              	.LASF93:
 10950 0578 73657454 		.ascii	"setTime\000"
 10950      696D6500 
 10951              	.LASF2:
 10952 0580 73686F72 		.ascii	"short int\000"
 10952      7420696E 
 10952      7400
 10953              	.LASF4:
 10954 058a 6C6F6E67 		.ascii	"long int\000"
 10954      20696E74 
 10954      00
 10955              	.LASF81:
 10956 0593 7072696E 		.ascii	"printString\000"
 10956      74537472 
 10956      696E6700 
 10957              	.LASF71:
 10958 059f 77726974 		.ascii	"writeBytes\000"
 10958      65427974 
 10958      657300
 10959              	.LASF103:
 10960 05aa 73746172 		.ascii	"startSettings\000"
 10960      74536574 
 10960      74696E67 
 10960      7300
 10961              	.LASF87:
 10962 05b8 73657447 		.ascii	"setGlobalTime\000"
 10962      6C6F6261 
 10962      6C54696D 
 10962      6500
 10963              	.LASF132:
 10964 05c6 4C45445F 		.ascii	"LED_PWM_Stop\000"
 10964      50574D5F 
 10964      53746F70 
 10964      00
 10965              	.LASF97:
 10966 05d3 7072696E 		.ascii	"printMinute\000"
 10966      744D696E 
 10966      75746500 
 10967              	.LASF75:
 10968 05df 77726974 		.ascii	"writeToAddr\000"
 10968      65546F41 
 10968      64647200 
 10969              	.LASF69:
 10970 05eb 77726974 		.ascii	"writeToRam\000"
 10970      65546F52 
 10970      616D00
 10971              	.LASF16:
 10972 05f6 73697A65 		.ascii	"sizetype\000"
 10972      74797065 
 10972      00
ARM GAS  C:\Users\HELLOK~1.1\AppData\Local\Temp\cc5k7xEp.s 			page 219


 10973              	.LASF5:
 10974 05ff 6C6F6E67 		.ascii	"long unsigned int\000"
 10974      20756E73 
 10974      69676E65 
 10974      6420696E 
 10974      7400
 10975              	.LASF130:
 10976 0611 53504541 		.ascii	"SPEAKER_PWM_Start\000"
 10976      4B45525F 
 10976      50574D5F 
 10976      53746172 
 10976      7400
 10977              	.LASF122:
 10978 0623 4932435F 		.ascii	"I2C_I2CMasterStatus\000"
 10978      4932434D 
 10978      61737465 
 10978      72537461 
 10978      74757300 
 10979              	.LASF22:
 10980 0637 79656172 		.ascii	"year\000"
 10980      00
 10981              	.LASF135:
 10982 063c 4C45445F 		.ascii	"LED_PWM_WriteCompare\000"
 10982      50574D5F 
 10982      57726974 
 10982      65436F6D 
 10982      70617265 
 10983              	.LASF39:
 10984 0651 4652414D 		.ascii	"FRAM\000"
 10984      00
 10985              	.LASF1:
 10986 0656 756E7369 		.ascii	"unsigned char\000"
 10986      676E6564 
 10986      20636861 
 10986      7200
 10987              	.LASF92:
 10988 0664 75706461 		.ascii	"updateTime\000"
 10988      74655469 
 10988      6D6500
 10989              	.LASF26:
 10990 066f 4D696E75 		.ascii	"Minutes\000"
 10990      74657300 
 10991              	.LASF108:
 10992 0677 6D6F746F 		.ascii	"motorDelay\000"
 10992      7244656C 
 10992      617900
 10993              	.LASF134:
 10994 0682 4C45445F 		.ascii	"LED_PWM_WritePeriod\000"
 10994      50574D5F 
 10994      57726974 
 10994      65506572 
 10994      696F6400 
 10995              	.LASF27:
 10996 0696 486F7572 		.ascii	"Hours\000"
 10996      7300
 10997              	.LASF107:
 10998 069c 75706461 		.ascii	"updateDate\000"
ARM GAS  C:\Users\HELLOK~1.1\AppData\Local\Temp\cc5k7xEp.s 			page 220


 10998      74654461 
 10998      746500
 10999              	.LASF0:
 11000 06a7 7369676E 		.ascii	"signed char\000"
 11000      65642063 
 11000      68617200 
 11001              	.LASF3:
 11002 06b3 73686F72 		.ascii	"short unsigned int\000"
 11002      7420756E 
 11002      7369676E 
 11002      65642069 
 11002      6E7400
 11003              	.LASF152:
 11004 06c6 6D656D63 		.ascii	"memcpy\000"
 11004      707900
 11005              	.LASF151:
 11006 06cd 6D61696E 		.ascii	"main\000"
 11006      00
 11007              	.LASF125:
 11008 06d2 73657443 		.ascii	"setCursor\000"
 11008      7572736F 
 11008      7200
 11009              	.LASF17:
 11010 06dc 54696D65 		.ascii	"Time\000"
 11010      00
 11011              	.LASF9:
 11012 06e1 75696E74 		.ascii	"uint8\000"
 11012      3800
 11013              	.LASF13:
 11014 06e7 646F7562 		.ascii	"double\000"
 11014      6C6500
 11015              	.LASF33:
 11016 06ee 486F7572 		.ascii	"HourAlarm\000"
 11016      416C6172 
 11016      6D00
 11017              	.LASF91:
 11018 06f8 6E756D62 		.ascii	"numberMonth\000"
 11018      65724D6F 
 11018      6E746800 
 11019              	.LASF88:
 11020 0704 7072696E 		.ascii	"printMessage\000"
 11020      744D6573 
 11020      73616765 
 11020      00
 11021              	.LASF32:
 11022 0711 4D696E75 		.ascii	"MinuteAlarm\000"
 11022      7465416C 
 11022      61726D00 
 11023              	.LASF141:
 11024 071d 42544E5F 		.ascii	"BTN_ISR_Start\000"
 11024      4953525F 
 11024      53746172 
 11024      7400
 11025              	.LASF20:
 11026 072b 44617465 		.ascii	"Date\000"
 11026      00
 11027              	.LASF149:
ARM GAS  C:\Users\HELLOK~1.1\AppData\Local\Temp\cc5k7xEp.s 			page 221


 11028 0730 706F7369 		.ascii	"position\000"
 11028      74696F6E 
 11028      00
 11029              	.LASF53:
 11030 0739 66656564 		.ascii	"feedTime6\000"
 11030      54696D65 
 11030      3600
 11031              		.ident	"GCC: (GNU Tools for ARM Embedded Processors) 5.4.1 20160609 (release) [ARM/embedded-5-bran
